ARM GAS  C:\Users\DGILLI~1\AppData\Local\Temp\ccW7tEoj.s 			page 1


   1              		.syntax unified
   2              		.cpu cortex-m3
   3              		.fpu softvfp
   4              		.eabi_attribute 20, 1
   5              		.eabi_attribute 21, 1
   6              		.eabi_attribute 23, 3
   7              		.eabi_attribute 24, 1
   8              		.eabi_attribute 25, 1
   9              		.eabi_attribute 26, 1
  10              		.eabi_attribute 30, 6
  11              		.eabi_attribute 34, 1
  12              		.eabi_attribute 18, 4
  13              		.thumb
  14              		.syntax unified
  15              		.file	"cyfitter_cfg.c"
  16              		.text
  17              	.Ltext0:
  18              		.cfi_sections	.debug_frame
  19              		.section	.text.CYMEMZERO,"ax",%progbits
  20              		.align	2
  21              		.thumb
  22              		.thumb_func
  23              		.type	CYMEMZERO, %function
  24              	CYMEMZERO:
  25              	.LFB0:
  26              		.file 1 "Generated_Source\\PSoC5\\cyfitter_cfg.c"
   1:Generated_Source\PSoC5/cyfitter_cfg.c **** 
   2:Generated_Source\PSoC5/cyfitter_cfg.c **** /*******************************************************************************
   3:Generated_Source\PSoC5/cyfitter_cfg.c **** * File Name: cyfitter_cfg.c
   4:Generated_Source\PSoC5/cyfitter_cfg.c **** * 
   5:Generated_Source\PSoC5/cyfitter_cfg.c **** * PSoC Creator  4.2
   6:Generated_Source\PSoC5/cyfitter_cfg.c **** *
   7:Generated_Source\PSoC5/cyfitter_cfg.c **** * Description:
   8:Generated_Source\PSoC5/cyfitter_cfg.c **** * This file contains device initialization code.
   9:Generated_Source\PSoC5/cyfitter_cfg.c **** * Except for the user defined sections in CyClockStartupError(), this file should not be modified.
  10:Generated_Source\PSoC5/cyfitter_cfg.c **** * This file is automatically generated by PSoC Creator.
  11:Generated_Source\PSoC5/cyfitter_cfg.c **** *
  12:Generated_Source\PSoC5/cyfitter_cfg.c **** ********************************************************************************
  13:Generated_Source\PSoC5/cyfitter_cfg.c **** * Copyright (c) 2007-2018 Cypress Semiconductor.  All rights reserved.
  14:Generated_Source\PSoC5/cyfitter_cfg.c **** * You may use this file only in accordance with the license, terms, conditions, 
  15:Generated_Source\PSoC5/cyfitter_cfg.c **** * disclaimers, and limitations in the end user license agreement accompanying 
  16:Generated_Source\PSoC5/cyfitter_cfg.c **** * the software package with which this file was provided.
  17:Generated_Source\PSoC5/cyfitter_cfg.c **** ********************************************************************************/
  18:Generated_Source\PSoC5/cyfitter_cfg.c **** 
  19:Generated_Source\PSoC5/cyfitter_cfg.c **** #include <string.h>
  20:Generated_Source\PSoC5/cyfitter_cfg.c **** #include "cytypes.h"
  21:Generated_Source\PSoC5/cyfitter_cfg.c **** #include "cydevice_trm.h"
  22:Generated_Source\PSoC5/cyfitter_cfg.c **** #include "cyfitter.h"
  23:Generated_Source\PSoC5/cyfitter_cfg.c **** #include "CyLib.h"
  24:Generated_Source\PSoC5/cyfitter_cfg.c **** #include "cyfitter_cfg.h"
  25:Generated_Source\PSoC5/cyfitter_cfg.c **** #include "cyapicallbacks.h"
  26:Generated_Source\PSoC5/cyfitter_cfg.c **** 
  27:Generated_Source\PSoC5/cyfitter_cfg.c **** #define CY_NEED_CYCLOCKSTARTUPERROR 1
  28:Generated_Source\PSoC5/cyfitter_cfg.c **** 
  29:Generated_Source\PSoC5/cyfitter_cfg.c **** 
  30:Generated_Source\PSoC5/cyfitter_cfg.c **** #if defined(__GNUC__) || defined(__ARMCC_VERSION)
  31:Generated_Source\PSoC5/cyfitter_cfg.c ****     #define CYPACKED 
ARM GAS  C:\Users\DGILLI~1\AppData\Local\Temp\ccW7tEoj.s 			page 2


  32:Generated_Source\PSoC5/cyfitter_cfg.c ****     #define CYPACKED_ATTR __attribute__ ((packed))
  33:Generated_Source\PSoC5/cyfitter_cfg.c ****     #define CYALIGNED __attribute__ ((aligned))
  34:Generated_Source\PSoC5/cyfitter_cfg.c ****     #define CY_CFG_UNUSED __attribute__ ((unused))
  35:Generated_Source\PSoC5/cyfitter_cfg.c ****     #ifndef CY_CFG_SECTION
  36:Generated_Source\PSoC5/cyfitter_cfg.c ****         #define CY_CFG_SECTION __attribute__ ((section(".psocinit")))
  37:Generated_Source\PSoC5/cyfitter_cfg.c ****     #endif
  38:Generated_Source\PSoC5/cyfitter_cfg.c ****     
  39:Generated_Source\PSoC5/cyfitter_cfg.c ****     #if defined(__ARMCC_VERSION)
  40:Generated_Source\PSoC5/cyfitter_cfg.c ****         #define CY_CFG_MEMORY_BARRIER() __memory_changed()
  41:Generated_Source\PSoC5/cyfitter_cfg.c ****     #else
  42:Generated_Source\PSoC5/cyfitter_cfg.c ****         #define CY_CFG_MEMORY_BARRIER() __sync_synchronize()
  43:Generated_Source\PSoC5/cyfitter_cfg.c ****     #endif
  44:Generated_Source\PSoC5/cyfitter_cfg.c ****     
  45:Generated_Source\PSoC5/cyfitter_cfg.c **** #elif defined(__ICCARM__)
  46:Generated_Source\PSoC5/cyfitter_cfg.c ****     #include <intrinsics.h>
  47:Generated_Source\PSoC5/cyfitter_cfg.c **** 
  48:Generated_Source\PSoC5/cyfitter_cfg.c ****     #define CYPACKED __packed
  49:Generated_Source\PSoC5/cyfitter_cfg.c ****     #define CYPACKED_ATTR 
  50:Generated_Source\PSoC5/cyfitter_cfg.c ****     #define CYALIGNED _Pragma("data_alignment=4")
  51:Generated_Source\PSoC5/cyfitter_cfg.c ****     #define CY_CFG_UNUSED _Pragma("diag_suppress=Pe177")
  52:Generated_Source\PSoC5/cyfitter_cfg.c ****     #define CY_CFG_SECTION _Pragma("location=\".psocinit\"")
  53:Generated_Source\PSoC5/cyfitter_cfg.c ****     
  54:Generated_Source\PSoC5/cyfitter_cfg.c ****     #define CY_CFG_MEMORY_BARRIER() __DMB()
  55:Generated_Source\PSoC5/cyfitter_cfg.c ****     
  56:Generated_Source\PSoC5/cyfitter_cfg.c **** #else
  57:Generated_Source\PSoC5/cyfitter_cfg.c ****     #error Unsupported toolchain
  58:Generated_Source\PSoC5/cyfitter_cfg.c **** #endif
  59:Generated_Source\PSoC5/cyfitter_cfg.c **** 
  60:Generated_Source\PSoC5/cyfitter_cfg.c **** #ifndef CYCODE
  61:Generated_Source\PSoC5/cyfitter_cfg.c ****     #define CYCODE
  62:Generated_Source\PSoC5/cyfitter_cfg.c **** #endif
  63:Generated_Source\PSoC5/cyfitter_cfg.c **** #ifndef CYDATA
  64:Generated_Source\PSoC5/cyfitter_cfg.c ****     #define CYDATA
  65:Generated_Source\PSoC5/cyfitter_cfg.c **** #endif
  66:Generated_Source\PSoC5/cyfitter_cfg.c **** #ifndef CYFAR
  67:Generated_Source\PSoC5/cyfitter_cfg.c ****     #define CYFAR
  68:Generated_Source\PSoC5/cyfitter_cfg.c **** #endif
  69:Generated_Source\PSoC5/cyfitter_cfg.c **** #ifndef CYXDATA
  70:Generated_Source\PSoC5/cyfitter_cfg.c ****     #define CYXDATA
  71:Generated_Source\PSoC5/cyfitter_cfg.c **** #endif
  72:Generated_Source\PSoC5/cyfitter_cfg.c **** 
  73:Generated_Source\PSoC5/cyfitter_cfg.c **** 
  74:Generated_Source\PSoC5/cyfitter_cfg.c **** CY_CFG_UNUSED
  75:Generated_Source\PSoC5/cyfitter_cfg.c **** static void CYMEMZERO(void *s, size_t n);
  76:Generated_Source\PSoC5/cyfitter_cfg.c **** CY_CFG_UNUSED
  77:Generated_Source\PSoC5/cyfitter_cfg.c **** static void CYMEMZERO(void *s, size_t n)
  78:Generated_Source\PSoC5/cyfitter_cfg.c **** {
  27              		.loc 1 78 0
  28              		.cfi_startproc
  29              		@ args = 0, pretend = 0, frame = 8
  30              		@ frame_needed = 1, uses_anonymous_args = 0
  31 0000 80B5     		push	{r7, lr}
  32              		.cfi_def_cfa_offset 8
  33              		.cfi_offset 7, -8
  34              		.cfi_offset 14, -4
  35 0002 82B0     		sub	sp, sp, #8
  36              		.cfi_def_cfa_offset 16
ARM GAS  C:\Users\DGILLI~1\AppData\Local\Temp\ccW7tEoj.s 			page 3


  37 0004 00AF     		add	r7, sp, #0
  38              		.cfi_def_cfa_register 7
  39 0006 7860     		str	r0, [r7, #4]
  40 0008 3960     		str	r1, [r7]
  79:Generated_Source\PSoC5/cyfitter_cfg.c **** 	(void)memset(s, 0, n);
  41              		.loc 1 79 0
  42 000a 3A68     		ldr	r2, [r7]
  43 000c 0021     		movs	r1, #0
  44 000e 7868     		ldr	r0, [r7, #4]
  45 0010 FFF7FEFF 		bl	memset
  80:Generated_Source\PSoC5/cyfitter_cfg.c **** }
  46              		.loc 1 80 0
  47 0014 00BF     		nop
  48 0016 0837     		adds	r7, r7, #8
  49              		.cfi_def_cfa_offset 8
  50 0018 BD46     		mov	sp, r7
  51              		.cfi_def_cfa_register 13
  52              		@ sp needed
  53 001a 80BD     		pop	{r7, pc}
  54              		.cfi_endproc
  55              	.LFE0:
  56              		.size	CYMEMZERO, .-CYMEMZERO
  57              		.section	.text.CYCONFIGCPY,"ax",%progbits
  58              		.align	2
  59              		.thumb
  60              		.thumb_func
  61              		.type	CYCONFIGCPY, %function
  62              	CYCONFIGCPY:
  63              	.LFB1:
  81:Generated_Source\PSoC5/cyfitter_cfg.c **** CY_CFG_UNUSED
  82:Generated_Source\PSoC5/cyfitter_cfg.c **** static void CYCONFIGCPY(void *dest, const void *src, size_t n);
  83:Generated_Source\PSoC5/cyfitter_cfg.c **** CY_CFG_UNUSED
  84:Generated_Source\PSoC5/cyfitter_cfg.c **** static void CYCONFIGCPY(void *dest, const void *src, size_t n)
  85:Generated_Source\PSoC5/cyfitter_cfg.c **** {
  64              		.loc 1 85 0
  65              		.cfi_startproc
  66              		@ args = 0, pretend = 0, frame = 16
  67              		@ frame_needed = 1, uses_anonymous_args = 0
  68 0000 80B5     		push	{r7, lr}
  69              		.cfi_def_cfa_offset 8
  70              		.cfi_offset 7, -8
  71              		.cfi_offset 14, -4
  72 0002 84B0     		sub	sp, sp, #16
  73              		.cfi_def_cfa_offset 24
  74 0004 00AF     		add	r7, sp, #0
  75              		.cfi_def_cfa_register 7
  76 0006 F860     		str	r0, [r7, #12]
  77 0008 B960     		str	r1, [r7, #8]
  78 000a 7A60     		str	r2, [r7, #4]
  86:Generated_Source\PSoC5/cyfitter_cfg.c **** 	(void)memcpy(dest, src, n);
  79              		.loc 1 86 0
  80 000c 7A68     		ldr	r2, [r7, #4]
  81 000e B968     		ldr	r1, [r7, #8]
  82 0010 F868     		ldr	r0, [r7, #12]
  83 0012 FFF7FEFF 		bl	memcpy
  87:Generated_Source\PSoC5/cyfitter_cfg.c **** }
  84              		.loc 1 87 0
ARM GAS  C:\Users\DGILLI~1\AppData\Local\Temp\ccW7tEoj.s 			page 4


  85 0016 00BF     		nop
  86 0018 1037     		adds	r7, r7, #16
  87              		.cfi_def_cfa_offset 8
  88 001a BD46     		mov	sp, r7
  89              		.cfi_def_cfa_register 13
  90              		@ sp needed
  91 001c 80BD     		pop	{r7, pc}
  92              		.cfi_endproc
  93              	.LFE1:
  94              		.size	CYCONFIGCPY, .-CYCONFIGCPY
  95 001e 00BF     		.section	.text.CYCONFIGCPYCODE,"ax",%progbits
  96              		.align	2
  97              		.thumb
  98              		.thumb_func
  99              		.type	CYCONFIGCPYCODE, %function
 100              	CYCONFIGCPYCODE:
 101              	.LFB2:
  88:Generated_Source\PSoC5/cyfitter_cfg.c **** CY_CFG_UNUSED
  89:Generated_Source\PSoC5/cyfitter_cfg.c **** static void CYCONFIGCPYCODE(void *dest, const void *src, size_t n);
  90:Generated_Source\PSoC5/cyfitter_cfg.c **** CY_CFG_UNUSED
  91:Generated_Source\PSoC5/cyfitter_cfg.c **** static void CYCONFIGCPYCODE(void *dest, const void *src, size_t n)
  92:Generated_Source\PSoC5/cyfitter_cfg.c **** {
 102              		.loc 1 92 0
 103              		.cfi_startproc
 104              		@ args = 0, pretend = 0, frame = 16
 105              		@ frame_needed = 1, uses_anonymous_args = 0
 106 0000 80B5     		push	{r7, lr}
 107              		.cfi_def_cfa_offset 8
 108              		.cfi_offset 7, -8
 109              		.cfi_offset 14, -4
 110 0002 84B0     		sub	sp, sp, #16
 111              		.cfi_def_cfa_offset 24
 112 0004 00AF     		add	r7, sp, #0
 113              		.cfi_def_cfa_register 7
 114 0006 F860     		str	r0, [r7, #12]
 115 0008 B960     		str	r1, [r7, #8]
 116 000a 7A60     		str	r2, [r7, #4]
  93:Generated_Source\PSoC5/cyfitter_cfg.c **** 	(void)memcpy(dest, src, n);
 117              		.loc 1 93 0
 118 000c 7A68     		ldr	r2, [r7, #4]
 119 000e B968     		ldr	r1, [r7, #8]
 120 0010 F868     		ldr	r0, [r7, #12]
 121 0012 FFF7FEFF 		bl	memcpy
  94:Generated_Source\PSoC5/cyfitter_cfg.c **** }
 122              		.loc 1 94 0
 123 0016 00BF     		nop
 124 0018 1037     		adds	r7, r7, #16
 125              		.cfi_def_cfa_offset 8
 126 001a BD46     		mov	sp, r7
 127              		.cfi_def_cfa_register 13
 128              		@ sp needed
 129 001c 80BD     		pop	{r7, pc}
 130              		.cfi_endproc
 131              	.LFE2:
 132              		.size	CYCONFIGCPYCODE, .-CYCONFIGCPYCODE
 133 001e 00BF     		.section	.text.CyClockStartupError,"ax",%progbits
 134              		.align	2
ARM GAS  C:\Users\DGILLI~1\AppData\Local\Temp\ccW7tEoj.s 			page 5


 135              		.thumb
 136              		.thumb_func
 137              		.type	CyClockStartupError, %function
 138              	CyClockStartupError:
 139              	.LFB3:
  95:Generated_Source\PSoC5/cyfitter_cfg.c **** 
  96:Generated_Source\PSoC5/cyfitter_cfg.c **** 
  97:Generated_Source\PSoC5/cyfitter_cfg.c **** 
  98:Generated_Source\PSoC5/cyfitter_cfg.c **** 
  99:Generated_Source\PSoC5/cyfitter_cfg.c **** /* Clock startup error codes                                                   */
 100:Generated_Source\PSoC5/cyfitter_cfg.c **** #define CYCLOCKSTART_NO_ERROR    0u
 101:Generated_Source\PSoC5/cyfitter_cfg.c **** #define CYCLOCKSTART_XTAL_ERROR  1u
 102:Generated_Source\PSoC5/cyfitter_cfg.c **** #define CYCLOCKSTART_32KHZ_ERROR 2u
 103:Generated_Source\PSoC5/cyfitter_cfg.c **** #define CYCLOCKSTART_PLL_ERROR   3u
 104:Generated_Source\PSoC5/cyfitter_cfg.c **** #define CYCLOCKSTART_FLL_ERROR   4u
 105:Generated_Source\PSoC5/cyfitter_cfg.c **** #define CYCLOCKSTART_WCO_ERROR   5u
 106:Generated_Source\PSoC5/cyfitter_cfg.c **** 
 107:Generated_Source\PSoC5/cyfitter_cfg.c **** 
 108:Generated_Source\PSoC5/cyfitter_cfg.c **** #ifdef CY_NEED_CYCLOCKSTARTUPERROR
 109:Generated_Source\PSoC5/cyfitter_cfg.c **** /*******************************************************************************
 110:Generated_Source\PSoC5/cyfitter_cfg.c **** * Function Name: CyClockStartupError
 111:Generated_Source\PSoC5/cyfitter_cfg.c **** ********************************************************************************
 112:Generated_Source\PSoC5/cyfitter_cfg.c **** * Summary:
 113:Generated_Source\PSoC5/cyfitter_cfg.c **** *  If an error is encountered during clock configuration (crystal startup error,
 114:Generated_Source\PSoC5/cyfitter_cfg.c **** *  PLL lock error, etc.), the system will end up here.  Unless reimplemented by
 115:Generated_Source\PSoC5/cyfitter_cfg.c **** *  the customer, this function will stop in an infinite loop.
 116:Generated_Source\PSoC5/cyfitter_cfg.c **** *
 117:Generated_Source\PSoC5/cyfitter_cfg.c **** * Parameters:
 118:Generated_Source\PSoC5/cyfitter_cfg.c **** *   void
 119:Generated_Source\PSoC5/cyfitter_cfg.c **** *
 120:Generated_Source\PSoC5/cyfitter_cfg.c **** * Return:
 121:Generated_Source\PSoC5/cyfitter_cfg.c **** *   void
 122:Generated_Source\PSoC5/cyfitter_cfg.c **** *
 123:Generated_Source\PSoC5/cyfitter_cfg.c **** *******************************************************************************/
 124:Generated_Source\PSoC5/cyfitter_cfg.c **** CY_CFG_UNUSED
 125:Generated_Source\PSoC5/cyfitter_cfg.c **** static void CyClockStartupError(uint8 errorCode);
 126:Generated_Source\PSoC5/cyfitter_cfg.c **** CY_CFG_UNUSED
 127:Generated_Source\PSoC5/cyfitter_cfg.c **** static void CyClockStartupError(uint8 errorCode)
 128:Generated_Source\PSoC5/cyfitter_cfg.c **** {
 140              		.loc 1 128 0
 141              		.cfi_startproc
 142              		@ args = 0, pretend = 0, frame = 8
 143              		@ frame_needed = 1, uses_anonymous_args = 0
 144              		@ link register save eliminated.
 145 0000 80B4     		push	{r7}
 146              		.cfi_def_cfa_offset 4
 147              		.cfi_offset 7, -4
 148 0002 83B0     		sub	sp, sp, #12
 149              		.cfi_def_cfa_offset 16
 150 0004 00AF     		add	r7, sp, #0
 151              		.cfi_def_cfa_register 7
 152 0006 0346     		mov	r3, r0
 153 0008 FB71     		strb	r3, [r7, #7]
 154              	.L5:
 129:Generated_Source\PSoC5/cyfitter_cfg.c ****     /* To remove the compiler warning if errorCode not used.                */
 130:Generated_Source\PSoC5/cyfitter_cfg.c ****     errorCode = errorCode;
 131:Generated_Source\PSoC5/cyfitter_cfg.c **** 
ARM GAS  C:\Users\DGILLI~1\AppData\Local\Temp\ccW7tEoj.s 			page 6


 132:Generated_Source\PSoC5/cyfitter_cfg.c ****     /* If we have a clock startup error (bad MHz crystal, PLL lock, etc.),  */
 133:Generated_Source\PSoC5/cyfitter_cfg.c ****     /* we will end up here to allow the customer to implement something to  */
 134:Generated_Source\PSoC5/cyfitter_cfg.c ****     /* deal with the clock condition.                                       */
 135:Generated_Source\PSoC5/cyfitter_cfg.c **** 
 136:Generated_Source\PSoC5/cyfitter_cfg.c **** #ifdef CY_CFG_CLOCK_STARTUP_ERROR_CALLBACK
 137:Generated_Source\PSoC5/cyfitter_cfg.c ****     CY_CFG_Clock_Startup_ErrorCallback();
 138:Generated_Source\PSoC5/cyfitter_cfg.c **** #else
 139:Generated_Source\PSoC5/cyfitter_cfg.c ****     /*  If not using CY_CFG_CLOCK_STARTUP_ERROR_CALLBACK, place your clock startup code here. */
 140:Generated_Source\PSoC5/cyfitter_cfg.c ****     /* `#START CyClockStartupError` */
 141:Generated_Source\PSoC5/cyfitter_cfg.c **** 
 142:Generated_Source\PSoC5/cyfitter_cfg.c **** 
 143:Generated_Source\PSoC5/cyfitter_cfg.c **** 
 144:Generated_Source\PSoC5/cyfitter_cfg.c ****     /* `#END` */
 145:Generated_Source\PSoC5/cyfitter_cfg.c **** 
 146:Generated_Source\PSoC5/cyfitter_cfg.c ****     while(1) {}
 155              		.loc 1 146 0 discriminator 1
 156 000a FEE7     		b	.L5
 157              		.cfi_endproc
 158              	.LFE3:
 159              		.size	CyClockStartupError, .-CyClockStartupError
 160              		.section	.text.cfg_write_bytes32,"ax",%progbits
 161              		.align	2
 162              		.thumb
 163              		.thumb_func
 164              		.type	cfg_write_bytes32, %function
 165              	cfg_write_bytes32:
 166              	.LFB4:
 147:Generated_Source\PSoC5/cyfitter_cfg.c **** #endif /* CY_CFG_CLOCK_STARTUP_ERROR_CALLBACK */
 148:Generated_Source\PSoC5/cyfitter_cfg.c **** }
 149:Generated_Source\PSoC5/cyfitter_cfg.c **** #endif
 150:Generated_Source\PSoC5/cyfitter_cfg.c **** 
 151:Generated_Source\PSoC5/cyfitter_cfg.c **** #define CY_CFG_BASE_ADDR_COUNT 36u
 152:Generated_Source\PSoC5/cyfitter_cfg.c **** CYPACKED typedef struct
 153:Generated_Source\PSoC5/cyfitter_cfg.c **** {
 154:Generated_Source\PSoC5/cyfitter_cfg.c **** 	uint8 offset;
 155:Generated_Source\PSoC5/cyfitter_cfg.c **** 	uint8 value;
 156:Generated_Source\PSoC5/cyfitter_cfg.c **** } CYPACKED_ATTR cy_cfg_addrvalue_t;
 157:Generated_Source\PSoC5/cyfitter_cfg.c **** 
 158:Generated_Source\PSoC5/cyfitter_cfg.c **** 
 159:Generated_Source\PSoC5/cyfitter_cfg.c **** 
 160:Generated_Source\PSoC5/cyfitter_cfg.c **** /*******************************************************************************
 161:Generated_Source\PSoC5/cyfitter_cfg.c **** * Function Name: cfg_write_bytes32
 162:Generated_Source\PSoC5/cyfitter_cfg.c **** ********************************************************************************
 163:Generated_Source\PSoC5/cyfitter_cfg.c **** * Summary:
 164:Generated_Source\PSoC5/cyfitter_cfg.c **** *  This function is used for setting up the chip configuration areas that
 165:Generated_Source\PSoC5/cyfitter_cfg.c **** *  contain relatively sparse data.
 166:Generated_Source\PSoC5/cyfitter_cfg.c **** *
 167:Generated_Source\PSoC5/cyfitter_cfg.c **** * Parameters:
 168:Generated_Source\PSoC5/cyfitter_cfg.c **** *   void
 169:Generated_Source\PSoC5/cyfitter_cfg.c **** *
 170:Generated_Source\PSoC5/cyfitter_cfg.c **** * Return:
 171:Generated_Source\PSoC5/cyfitter_cfg.c **** *   void
 172:Generated_Source\PSoC5/cyfitter_cfg.c **** *
 173:Generated_Source\PSoC5/cyfitter_cfg.c **** *******************************************************************************/
 174:Generated_Source\PSoC5/cyfitter_cfg.c **** static void cfg_write_bytes32(const uint32 addr_table[], const cy_cfg_addrvalue_t data_table[]);
 175:Generated_Source\PSoC5/cyfitter_cfg.c **** static void cfg_write_bytes32(const uint32 addr_table[], const cy_cfg_addrvalue_t data_table[])
 176:Generated_Source\PSoC5/cyfitter_cfg.c **** {
ARM GAS  C:\Users\DGILLI~1\AppData\Local\Temp\ccW7tEoj.s 			page 7


 167              		.loc 1 176 0
 168              		.cfi_startproc
 169              		@ args = 0, pretend = 0, frame = 24
 170              		@ frame_needed = 1, uses_anonymous_args = 0
 171              		@ link register save eliminated.
 172 0000 80B4     		push	{r7}
 173              		.cfi_def_cfa_offset 4
 174              		.cfi_offset 7, -4
 175 0002 87B0     		sub	sp, sp, #28
 176              		.cfi_def_cfa_offset 32
 177 0004 00AF     		add	r7, sp, #0
 178              		.cfi_def_cfa_register 7
 179 0006 7860     		str	r0, [r7, #4]
 180 0008 3960     		str	r1, [r7]
 177:Generated_Source\PSoC5/cyfitter_cfg.c **** 	/* For 32-bit little-endian architectures */
 178:Generated_Source\PSoC5/cyfitter_cfg.c **** 	uint32 i, j = 0u;
 181              		.loc 1 178 0
 182 000a 0023     		movs	r3, #0
 183 000c 3B61     		str	r3, [r7, #16]
 179:Generated_Source\PSoC5/cyfitter_cfg.c **** 	for (i = 0u; i < CY_CFG_BASE_ADDR_COUNT; i++)
 184              		.loc 1 179 0
 185 000e 0023     		movs	r3, #0
 186 0010 7B61     		str	r3, [r7, #20]
 187 0012 27E0     		b	.L7
 188              	.L10:
 189              	.LBB2:
 180:Generated_Source\PSoC5/cyfitter_cfg.c **** 	{
 181:Generated_Source\PSoC5/cyfitter_cfg.c **** 		uint32 baseAddr = addr_table[i];
 190              		.loc 1 181 0
 191 0014 7B69     		ldr	r3, [r7, #20]
 192 0016 9B00     		lsls	r3, r3, #2
 193 0018 7A68     		ldr	r2, [r7, #4]
 194 001a 1344     		add	r3, r3, r2
 195 001c 1B68     		ldr	r3, [r3]
 196 001e BB60     		str	r3, [r7, #8]
 182:Generated_Source\PSoC5/cyfitter_cfg.c **** 		uint8 count = (uint8)baseAddr;
 197              		.loc 1 182 0
 198 0020 BB68     		ldr	r3, [r7, #8]
 199 0022 FB73     		strb	r3, [r7, #15]
 183:Generated_Source\PSoC5/cyfitter_cfg.c **** 		baseAddr &= 0xFFFFFF00u;
 200              		.loc 1 183 0
 201 0024 BB68     		ldr	r3, [r7, #8]
 202 0026 23F0FF03 		bic	r3, r3, #255
 203 002a BB60     		str	r3, [r7, #8]
 184:Generated_Source\PSoC5/cyfitter_cfg.c **** 		while (count != 0u)
 204              		.loc 1 184 0
 205 002c 14E0     		b	.L8
 206              	.L9:
 185:Generated_Source\PSoC5/cyfitter_cfg.c **** 		{
 186:Generated_Source\PSoC5/cyfitter_cfg.c **** 			CY_SET_REG8((void *)(baseAddr + data_table[j].offset), data_table[j].value);
 207              		.loc 1 186 0
 208 002e 3B69     		ldr	r3, [r7, #16]
 209 0030 5B00     		lsls	r3, r3, #1
 210 0032 3A68     		ldr	r2, [r7]
 211 0034 1344     		add	r3, r3, r2
 212 0036 1B78     		ldrb	r3, [r3]	@ zero_extendqisi2
 213 0038 1A46     		mov	r2, r3
ARM GAS  C:\Users\DGILLI~1\AppData\Local\Temp\ccW7tEoj.s 			page 8


 214 003a BB68     		ldr	r3, [r7, #8]
 215 003c 1344     		add	r3, r3, r2
 216 003e 1946     		mov	r1, r3
 217 0040 3B69     		ldr	r3, [r7, #16]
 218 0042 5B00     		lsls	r3, r3, #1
 219 0044 3A68     		ldr	r2, [r7]
 220 0046 1344     		add	r3, r3, r2
 221 0048 5B78     		ldrb	r3, [r3, #1]	@ zero_extendqisi2
 222 004a 0B70     		strb	r3, [r1]
 187:Generated_Source\PSoC5/cyfitter_cfg.c **** 			j++;
 223              		.loc 1 187 0
 224 004c 3B69     		ldr	r3, [r7, #16]
 225 004e 0133     		adds	r3, r3, #1
 226 0050 3B61     		str	r3, [r7, #16]
 188:Generated_Source\PSoC5/cyfitter_cfg.c **** 			count--;
 227              		.loc 1 188 0
 228 0052 FB7B     		ldrb	r3, [r7, #15]	@ zero_extendqisi2
 229 0054 013B     		subs	r3, r3, #1
 230 0056 FB73     		strb	r3, [r7, #15]
 231              	.L8:
 184:Generated_Source\PSoC5/cyfitter_cfg.c **** 		{
 232              		.loc 1 184 0
 233 0058 FB7B     		ldrb	r3, [r7, #15]	@ zero_extendqisi2
 234 005a 002B     		cmp	r3, #0
 235 005c E7D1     		bne	.L9
 236              	.LBE2:
 179:Generated_Source\PSoC5/cyfitter_cfg.c **** 	{
 237              		.loc 1 179 0 discriminator 2
 238 005e 7B69     		ldr	r3, [r7, #20]
 239 0060 0133     		adds	r3, r3, #1
 240 0062 7B61     		str	r3, [r7, #20]
 241              	.L7:
 179:Generated_Source\PSoC5/cyfitter_cfg.c **** 	{
 242              		.loc 1 179 0 is_stmt 0 discriminator 1
 243 0064 7B69     		ldr	r3, [r7, #20]
 244 0066 232B     		cmp	r3, #35
 245 0068 D4D9     		bls	.L10
 189:Generated_Source\PSoC5/cyfitter_cfg.c **** 		}
 190:Generated_Source\PSoC5/cyfitter_cfg.c **** 	}
 191:Generated_Source\PSoC5/cyfitter_cfg.c **** }
 246              		.loc 1 191 0 is_stmt 1
 247 006a 00BF     		nop
 248 006c 1C37     		adds	r7, r7, #28
 249              		.cfi_def_cfa_offset 4
 250 006e BD46     		mov	sp, r7
 251              		.cfi_def_cfa_register 13
 252              		@ sp needed
 253 0070 80BC     		pop	{r7}
 254              		.cfi_restore 7
 255              		.cfi_def_cfa_offset 0
 256 0072 7047     		bx	lr
 257              		.cfi_endproc
 258              	.LFE4:
 259              		.size	cfg_write_bytes32, .-cfg_write_bytes32
 260              		.section	.text.ClockSetup,"ax",%progbits
 261              		.align	2
 262              		.thumb
ARM GAS  C:\Users\DGILLI~1\AppData\Local\Temp\ccW7tEoj.s 			page 9


 263              		.thumb_func
 264              		.type	ClockSetup, %function
 265              	ClockSetup:
 266              	.LFB5:
 192:Generated_Source\PSoC5/cyfitter_cfg.c **** 
 193:Generated_Source\PSoC5/cyfitter_cfg.c **** /*******************************************************************************
 194:Generated_Source\PSoC5/cyfitter_cfg.c **** * Function Name: ClockSetup
 195:Generated_Source\PSoC5/cyfitter_cfg.c **** ********************************************************************************
 196:Generated_Source\PSoC5/cyfitter_cfg.c **** *
 197:Generated_Source\PSoC5/cyfitter_cfg.c **** * Summary:
 198:Generated_Source\PSoC5/cyfitter_cfg.c **** *  Performs the initialization of all of the clocks in the device based on the
 199:Generated_Source\PSoC5/cyfitter_cfg.c **** *  settings in the Clock tab of the DWR.  This includes enabling the requested
 200:Generated_Source\PSoC5/cyfitter_cfg.c **** *  clocks and setting the necessary dividers to produce the desired frequency. 
 201:Generated_Source\PSoC5/cyfitter_cfg.c **** *
 202:Generated_Source\PSoC5/cyfitter_cfg.c **** * Parameters:
 203:Generated_Source\PSoC5/cyfitter_cfg.c **** *  void
 204:Generated_Source\PSoC5/cyfitter_cfg.c **** *
 205:Generated_Source\PSoC5/cyfitter_cfg.c **** * Return:
 206:Generated_Source\PSoC5/cyfitter_cfg.c **** *  void
 207:Generated_Source\PSoC5/cyfitter_cfg.c **** *
 208:Generated_Source\PSoC5/cyfitter_cfg.c **** *******************************************************************************/
 209:Generated_Source\PSoC5/cyfitter_cfg.c **** static void ClockSetup(void);
 210:Generated_Source\PSoC5/cyfitter_cfg.c **** static void ClockSetup(void)
 211:Generated_Source\PSoC5/cyfitter_cfg.c **** {
 267              		.loc 1 211 0
 268              		.cfi_startproc
 269              		@ args = 0, pretend = 0, frame = 8
 270              		@ frame_needed = 1, uses_anonymous_args = 0
 271 0000 80B5     		push	{r7, lr}
 272              		.cfi_def_cfa_offset 8
 273              		.cfi_offset 7, -8
 274              		.cfi_offset 14, -4
 275 0002 82B0     		sub	sp, sp, #8
 276              		.cfi_def_cfa_offset 16
 277 0004 00AF     		add	r7, sp, #0
 278              		.cfi_def_cfa_register 7
 212:Generated_Source\PSoC5/cyfitter_cfg.c **** 	/* CYDEV_CLKDIST_ACFG0_CFG0 Address: CYREG_CLKDIST_ACFG0_CFG0 Size (bytes): 4 */
 213:Generated_Source\PSoC5/cyfitter_cfg.c **** 	static const uint8 CYCODE BS_CYDEV_CLKDIST_ACFG0_CFG0_VAL[] = {
 214:Generated_Source\PSoC5/cyfitter_cfg.c **** 		0x05u, 0x00u, 0x14u, 0x01u};
 215:Generated_Source\PSoC5/cyfitter_cfg.c **** 
 216:Generated_Source\PSoC5/cyfitter_cfg.c **** 	uint32 timeout;
 217:Generated_Source\PSoC5/cyfitter_cfg.c **** 	uint8 pllLock;
 218:Generated_Source\PSoC5/cyfitter_cfg.c **** 
 219:Generated_Source\PSoC5/cyfitter_cfg.c **** 
 220:Generated_Source\PSoC5/cyfitter_cfg.c **** 	/* Configure Digital Clocks based on settings from Clock DWR */
 221:Generated_Source\PSoC5/cyfitter_cfg.c **** 	CY_SET_XTND_REG16((void CYFAR *)(CYREG_CLKDIST_DCFG0_CFG0), 0x0000u);
 279              		.loc 1 221 0
 280 0006 364B     		ldr	r3, .L16
 281 0008 0022     		movs	r2, #0
 282 000a 1A80     		strh	r2, [r3]	@ movhi
 222:Generated_Source\PSoC5/cyfitter_cfg.c **** 	CY_SET_XTND_REG8((void CYFAR *)(CYREG_CLKDIST_DCFG0_CFG0 + 0x2u), 0x58u);
 283              		.loc 1 222 0
 284 000c 354B     		ldr	r3, .L16+4
 285 000e 5822     		movs	r2, #88
 286 0010 1A70     		strb	r2, [r3]
 223:Generated_Source\PSoC5/cyfitter_cfg.c **** 	CY_SET_XTND_REG16((void CYFAR *)(CYREG_CLKDIST_DCFG1_CFG0), 0x008Au);
 287              		.loc 1 223 0
ARM GAS  C:\Users\DGILLI~1\AppData\Local\Temp\ccW7tEoj.s 			page 10


 288 0012 354B     		ldr	r3, .L16+8
 289 0014 8A22     		movs	r2, #138
 290 0016 1A80     		strh	r2, [r3]	@ movhi
 224:Generated_Source\PSoC5/cyfitter_cfg.c **** 	CY_SET_XTND_REG8((void CYFAR *)(CYREG_CLKDIST_DCFG1_CFG0 + 0x2u), 0x18u);
 291              		.loc 1 224 0
 292 0018 344B     		ldr	r3, .L16+12
 293 001a 1822     		movs	r2, #24
 294 001c 1A70     		strb	r2, [r3]
 225:Generated_Source\PSoC5/cyfitter_cfg.c **** 
 226:Generated_Source\PSoC5/cyfitter_cfg.c **** 	/* Configure Analog Clocks based on settings from Clock DWR */
 227:Generated_Source\PSoC5/cyfitter_cfg.c **** 	CYCONFIGCPYCODE((void CYFAR *)(CYREG_CLKDIST_ACFG0_CFG0), (const void CYCODE *)(BS_CYDEV_CLKDIST_A
 295              		.loc 1 227 0
 296 001e 0422     		movs	r2, #4
 297 0020 3349     		ldr	r1, .L16+16
 298 0022 3448     		ldr	r0, .L16+20
 299 0024 FFF7FEFF 		bl	CYCONFIGCPYCODE
 228:Generated_Source\PSoC5/cyfitter_cfg.c **** 
 229:Generated_Source\PSoC5/cyfitter_cfg.c **** 	/* Configure ILO based on settings from Clock DWR */
 230:Generated_Source\PSoC5/cyfitter_cfg.c **** 	CY_SET_XTND_REG8((void CYFAR *)(CYREG_SLOWCLK_ILO_CR0), 0x06u);
 300              		.loc 1 230 0
 301 0028 334B     		ldr	r3, .L16+24
 302 002a 0622     		movs	r2, #6
 303 002c 1A70     		strb	r2, [r3]
 231:Generated_Source\PSoC5/cyfitter_cfg.c **** 
 232:Generated_Source\PSoC5/cyfitter_cfg.c **** 	/* Configure IMO based on settings from Clock DWR */
 233:Generated_Source\PSoC5/cyfitter_cfg.c **** 	CY_SET_XTND_REG8((void CYFAR *)(CYREG_FASTCLK_IMO_CR), 0x52u);
 304              		.loc 1 233 0
 305 002e 334B     		ldr	r3, .L16+28
 306 0030 5222     		movs	r2, #82
 307 0032 1A70     		strb	r2, [r3]
 234:Generated_Source\PSoC5/cyfitter_cfg.c **** 	CY_SET_XTND_REG8((void CYFAR *)(CYREG_IMO_TR1), (CY_GET_XTND_REG8((void CYFAR *)CYREG_FLSHID_CUST_
 308              		.loc 1 234 0
 309 0034 324B     		ldr	r3, .L16+32
 310 0036 334A     		ldr	r2, .L16+36
 311 0038 1278     		ldrb	r2, [r2]
 312 003a D2B2     		uxtb	r2, r2
 313 003c 1A70     		strb	r2, [r3]
 235:Generated_Source\PSoC5/cyfitter_cfg.c **** 
 236:Generated_Source\PSoC5/cyfitter_cfg.c **** 	/* Configure PLL based on settings from Clock DWR */
 237:Generated_Source\PSoC5/cyfitter_cfg.c **** 	CY_SET_XTND_REG16((void CYFAR *)(CYREG_FASTCLK_PLL_P), 0x0818u);
 314              		.loc 1 237 0
 315 003e 324B     		ldr	r3, .L16+40
 316 0040 40F61802 		movw	r2, #2072
 317 0044 1A80     		strh	r2, [r3]	@ movhi
 238:Generated_Source\PSoC5/cyfitter_cfg.c **** 	CY_SET_XTND_REG16((void CYFAR *)(CYREG_FASTCLK_PLL_CFG0), 0x1251u);
 318              		.loc 1 238 0
 319 0046 314B     		ldr	r3, .L16+44
 320 0048 41F25122 		movw	r2, #4689
 321 004c 1A80     		strh	r2, [r3]	@ movhi
 239:Generated_Source\PSoC5/cyfitter_cfg.c **** 	/* Wait up to 250us for the PLL to lock */
 240:Generated_Source\PSoC5/cyfitter_cfg.c **** 	pllLock = 0u;
 322              		.loc 1 240 0
 323 004e 0023     		movs	r3, #0
 324 0050 FB70     		strb	r3, [r7, #3]
 241:Generated_Source\PSoC5/cyfitter_cfg.c **** 	for (timeout = 250u / 10u; (timeout > 0u) && (pllLock != 0x03u); timeout--)
 325              		.loc 1 241 0
 326 0052 1923     		movs	r3, #25
ARM GAS  C:\Users\DGILLI~1\AppData\Local\Temp\ccW7tEoj.s 			page 11


 327 0054 7B60     		str	r3, [r7, #4]
 328 0056 14E0     		b	.L12
 329              	.L14:
 242:Generated_Source\PSoC5/cyfitter_cfg.c **** 	{ 
 243:Generated_Source\PSoC5/cyfitter_cfg.c **** 		pllLock = 0x03u & ((uint8)((uint8)pllLock << 1) | ((CY_GET_XTND_REG8((void CYFAR *)CYREG_FASTCLK_
 330              		.loc 1 243 0 discriminator 4
 331 0058 FB78     		ldrb	r3, [r7, #3]
 332 005a 5B00     		lsls	r3, r3, #1
 333 005c DAB2     		uxtb	r2, r3
 334 005e 2C4B     		ldr	r3, .L16+48
 335 0060 1B78     		ldrb	r3, [r3]
 336 0062 DBB2     		uxtb	r3, r3
 337 0064 03F00103 		and	r3, r3, #1
 338 0068 DBB2     		uxtb	r3, r3
 339 006a 1343     		orrs	r3, r3, r2
 340 006c DBB2     		uxtb	r3, r3
 341 006e 03F00303 		and	r3, r3, #3
 342 0072 FB70     		strb	r3, [r7, #3]
 244:Generated_Source\PSoC5/cyfitter_cfg.c **** 		CyDelayCycles(10u * 48u); /* Delay 10us based on 48MHz clock */
 343              		.loc 1 244 0 discriminator 4
 344 0074 4FF4F070 		mov	r0, #480
 345 0078 FFF7FEFF 		bl	CyDelayCycles
 241:Generated_Source\PSoC5/cyfitter_cfg.c **** 	for (timeout = 250u / 10u; (timeout > 0u) && (pllLock != 0x03u); timeout--)
 346              		.loc 1 241 0 discriminator 4
 347 007c 7B68     		ldr	r3, [r7, #4]
 348 007e 013B     		subs	r3, r3, #1
 349 0080 7B60     		str	r3, [r7, #4]
 350              	.L12:
 241:Generated_Source\PSoC5/cyfitter_cfg.c **** 	for (timeout = 250u / 10u; (timeout > 0u) && (pllLock != 0x03u); timeout--)
 351              		.loc 1 241 0 is_stmt 0 discriminator 1
 352 0082 7B68     		ldr	r3, [r7, #4]
 353 0084 002B     		cmp	r3, #0
 354 0086 02D0     		beq	.L13
 241:Generated_Source\PSoC5/cyfitter_cfg.c **** 	for (timeout = 250u / 10u; (timeout > 0u) && (pllLock != 0x03u); timeout--)
 355              		.loc 1 241 0 discriminator 3
 356 0088 FB78     		ldrb	r3, [r7, #3]	@ zero_extendqisi2
 357 008a 032B     		cmp	r3, #3
 358 008c E4D1     		bne	.L14
 359              	.L13:
 245:Generated_Source\PSoC5/cyfitter_cfg.c **** 	}
 246:Generated_Source\PSoC5/cyfitter_cfg.c **** 	/* If we ran out of time the PLL didn't lock so go to the error function */
 247:Generated_Source\PSoC5/cyfitter_cfg.c **** 	if (timeout == 0u)
 360              		.loc 1 247 0 is_stmt 1
 361 008e 7B68     		ldr	r3, [r7, #4]
 362 0090 002B     		cmp	r3, #0
 363 0092 02D1     		bne	.L15
 248:Generated_Source\PSoC5/cyfitter_cfg.c **** 	{
 249:Generated_Source\PSoC5/cyfitter_cfg.c **** 		CyClockStartupError(CYCLOCKSTART_PLL_ERROR);
 364              		.loc 1 249 0
 365 0094 0320     		movs	r0, #3
 366 0096 FFF7FEFF 		bl	CyClockStartupError
 367              	.L15:
 250:Generated_Source\PSoC5/cyfitter_cfg.c **** 	}
 251:Generated_Source\PSoC5/cyfitter_cfg.c **** 
 252:Generated_Source\PSoC5/cyfitter_cfg.c **** 	/* Configure Bus/Master Clock based on settings from Clock DWR */
 253:Generated_Source\PSoC5/cyfitter_cfg.c **** 	CY_SET_XTND_REG16((void CYFAR *)(CYREG_CLKDIST_MSTR0), 0x0100u);
 368              		.loc 1 253 0
ARM GAS  C:\Users\DGILLI~1\AppData\Local\Temp\ccW7tEoj.s 			page 12


 369 009a 1E4B     		ldr	r3, .L16+52
 370 009c 4FF48072 		mov	r2, #256
 371 00a0 1A80     		strh	r2, [r3]	@ movhi
 254:Generated_Source\PSoC5/cyfitter_cfg.c **** 	CY_SET_XTND_REG8((void CYFAR *)(CYREG_CLKDIST_MSTR0), 0x07u);
 372              		.loc 1 254 0
 373 00a2 1C4B     		ldr	r3, .L16+52
 374 00a4 0722     		movs	r2, #7
 375 00a6 1A70     		strb	r2, [r3]
 255:Generated_Source\PSoC5/cyfitter_cfg.c **** 	CY_SET_XTND_REG8((void CYFAR *)(CYREG_CLKDIST_BCFG0), 0x00u);
 376              		.loc 1 255 0
 377 00a8 1B4B     		ldr	r3, .L16+56
 378 00aa 0022     		movs	r2, #0
 379 00ac 1A70     		strb	r2, [r3]
 256:Generated_Source\PSoC5/cyfitter_cfg.c **** 	CY_SET_XTND_REG8((void CYFAR *)(CYREG_CLKDIST_BCFG2), 0x48u);
 380              		.loc 1 256 0
 381 00ae 1B4B     		ldr	r3, .L16+60
 382 00b0 4822     		movs	r2, #72
 383 00b2 1A70     		strb	r2, [r3]
 257:Generated_Source\PSoC5/cyfitter_cfg.c **** 	CY_SET_XTND_REG8((void CYFAR *)(CYREG_CLKDIST_MSTR0), 0x00u);
 384              		.loc 1 257 0
 385 00b4 174B     		ldr	r3, .L16+52
 386 00b6 0022     		movs	r2, #0
 387 00b8 1A70     		strb	r2, [r3]
 258:Generated_Source\PSoC5/cyfitter_cfg.c **** 
 259:Generated_Source\PSoC5/cyfitter_cfg.c **** 	/* Configure USB Clock based on settings from Clock DWR */
 260:Generated_Source\PSoC5/cyfitter_cfg.c **** 	CY_SET_XTND_REG8((void CYFAR *)(CYREG_CLKDIST_UCFG), 0x00u);
 388              		.loc 1 260 0
 389 00ba 194B     		ldr	r3, .L16+64
 390 00bc 0022     		movs	r2, #0
 391 00be 1A70     		strb	r2, [r3]
 261:Generated_Source\PSoC5/cyfitter_cfg.c **** 	CY_SET_XTND_REG8((void CYFAR *)(CYREG_CLKDIST_LD), 0x02u);
 392              		.loc 1 261 0
 393 00c0 184B     		ldr	r3, .L16+68
 394 00c2 0222     		movs	r2, #2
 395 00c4 1A70     		strb	r2, [r3]
 262:Generated_Source\PSoC5/cyfitter_cfg.c **** 
 263:Generated_Source\PSoC5/cyfitter_cfg.c **** 	CY_SET_XTND_REG8((void CYFAR *)(CYREG_PM_ACT_CFG2), ((CY_GET_XTND_REG8((void CYFAR *)CYREG_PM_ACT_
 396              		.loc 1 263 0
 397 00c6 184A     		ldr	r2, .L16+72
 398 00c8 174B     		ldr	r3, .L16+72
 399 00ca 1B78     		ldrb	r3, [r3]
 400 00cc DBB2     		uxtb	r3, r3
 401 00ce 43F00303 		orr	r3, r3, #3
 402 00d2 DBB2     		uxtb	r3, r3
 403 00d4 1370     		strb	r3, [r2]
 264:Generated_Source\PSoC5/cyfitter_cfg.c **** }
 404              		.loc 1 264 0
 405 00d6 00BF     		nop
 406 00d8 0837     		adds	r7, r7, #8
 407              		.cfi_def_cfa_offset 8
 408 00da BD46     		mov	sp, r7
 409              		.cfi_def_cfa_register 13
 410              		@ sp needed
 411 00dc 80BD     		pop	{r7, pc}
 412              	.L17:
 413 00de 00BF     		.align	2
 414              	.L16:
ARM GAS  C:\Users\DGILLI~1\AppData\Local\Temp\ccW7tEoj.s 			page 13


 415 00e0 80400040 		.word	1073758336
 416 00e4 82400040 		.word	1073758338
 417 00e8 84400040 		.word	1073758340
 418 00ec 86400040 		.word	1073758342
 419 00f0 00000000 		.word	BS_CYDEV_CLKDIST_ACFG0_CFG0_VAL.5013
 420 00f4 00410040 		.word	1073758464
 421 00f8 00430040 		.word	1073758976
 422 00fc 00420040 		.word	1073758720
 423 0100 A1460040 		.word	1073759905
 424 0104 0F010049 		.word	1224737039
 425 0108 22420040 		.word	1073758754
 426 010c 20420040 		.word	1073758752
 427 0110 25420040 		.word	1073758757
 428 0114 04400040 		.word	1073758212
 429 0118 06400040 		.word	1073758214
 430 011c 08400040 		.word	1073758216
 431 0120 09400040 		.word	1073758217
 432 0124 01400040 		.word	1073758209
 433 0128 A2430040 		.word	1073759138
 434              		.cfi_endproc
 435              	.LFE5:
 436              		.size	ClockSetup, .-ClockSetup
 437              		.section	.text.AnalogSetDefault,"ax",%progbits
 438              		.align	2
 439              		.thumb
 440              		.thumb_func
 441              		.type	AnalogSetDefault, %function
 442              	AnalogSetDefault:
 443              	.LFB6:
 265:Generated_Source\PSoC5/cyfitter_cfg.c **** 
 266:Generated_Source\PSoC5/cyfitter_cfg.c **** 
 267:Generated_Source\PSoC5/cyfitter_cfg.c **** /* Analog API Functions */
 268:Generated_Source\PSoC5/cyfitter_cfg.c **** 
 269:Generated_Source\PSoC5/cyfitter_cfg.c **** 
 270:Generated_Source\PSoC5/cyfitter_cfg.c **** /*******************************************************************************
 271:Generated_Source\PSoC5/cyfitter_cfg.c **** * Function Name: AnalogSetDefault
 272:Generated_Source\PSoC5/cyfitter_cfg.c **** ********************************************************************************
 273:Generated_Source\PSoC5/cyfitter_cfg.c **** *
 274:Generated_Source\PSoC5/cyfitter_cfg.c **** * Summary:
 275:Generated_Source\PSoC5/cyfitter_cfg.c **** *  Sets up the analog portions of the chip to default values based on chip
 276:Generated_Source\PSoC5/cyfitter_cfg.c **** *  configuration options from the project.
 277:Generated_Source\PSoC5/cyfitter_cfg.c **** *
 278:Generated_Source\PSoC5/cyfitter_cfg.c **** * Parameters:
 279:Generated_Source\PSoC5/cyfitter_cfg.c **** *  void
 280:Generated_Source\PSoC5/cyfitter_cfg.c **** *
 281:Generated_Source\PSoC5/cyfitter_cfg.c **** * Return:
 282:Generated_Source\PSoC5/cyfitter_cfg.c **** *  void
 283:Generated_Source\PSoC5/cyfitter_cfg.c **** *
 284:Generated_Source\PSoC5/cyfitter_cfg.c **** *******************************************************************************/
 285:Generated_Source\PSoC5/cyfitter_cfg.c **** static void AnalogSetDefault(void);
 286:Generated_Source\PSoC5/cyfitter_cfg.c **** static void AnalogSetDefault(void)
 287:Generated_Source\PSoC5/cyfitter_cfg.c **** {
 444              		.loc 1 287 0
 445              		.cfi_startproc
 446              		@ args = 0, pretend = 0, frame = 8
 447              		@ frame_needed = 1, uses_anonymous_args = 0
 448              		@ link register save eliminated.
ARM GAS  C:\Users\DGILLI~1\AppData\Local\Temp\ccW7tEoj.s 			page 14


 449 0000 80B4     		push	{r7}
 450              		.cfi_def_cfa_offset 4
 451              		.cfi_offset 7, -4
 452 0002 83B0     		sub	sp, sp, #12
 453              		.cfi_def_cfa_offset 16
 454 0004 00AF     		add	r7, sp, #0
 455              		.cfi_def_cfa_register 7
 288:Generated_Source\PSoC5/cyfitter_cfg.c **** 	uint8 bg_xover_inl_trim = CY_GET_XTND_REG8((void CYFAR *)(CYREG_FLSHID_MFG_CFG_BG_XOVER_INL_TRIM +
 456              		.loc 1 288 0
 457 0006 0B4B     		ldr	r3, .L19
 458 0008 1B78     		ldrb	r3, [r3]
 459 000a FB71     		strb	r3, [r7, #7]
 289:Generated_Source\PSoC5/cyfitter_cfg.c **** 	CY_SET_XTND_REG8((void CYFAR *)(CYREG_BG_DFT0), (bg_xover_inl_trim & 0x07u));
 460              		.loc 1 289 0
 461 000c 0A4A     		ldr	r2, .L19+4
 462 000e FB79     		ldrb	r3, [r7, #7]
 463 0010 03F00703 		and	r3, r3, #7
 464 0014 DBB2     		uxtb	r3, r3
 465 0016 1370     		strb	r3, [r2]
 290:Generated_Source\PSoC5/cyfitter_cfg.c **** 	CY_SET_XTND_REG8((void CYFAR *)(CYREG_BG_DFT1), ((bg_xover_inl_trim >> 4) & 0x0Fu));
 466              		.loc 1 290 0
 467 0018 084A     		ldr	r2, .L19+8
 468 001a FB79     		ldrb	r3, [r7, #7]	@ zero_extendqisi2
 469 001c 1B09     		lsrs	r3, r3, #4
 470 001e DBB2     		uxtb	r3, r3
 471 0020 1370     		strb	r3, [r2]
 291:Generated_Source\PSoC5/cyfitter_cfg.c **** 	CY_SET_XTND_REG8((void CYFAR *)CYREG_PUMP_CR0, 0x44u);
 472              		.loc 1 291 0
 473 0022 074B     		ldr	r3, .L19+12
 474 0024 4422     		movs	r2, #68
 475 0026 1A70     		strb	r2, [r3]
 292:Generated_Source\PSoC5/cyfitter_cfg.c **** }
 476              		.loc 1 292 0
 477 0028 00BF     		nop
 478 002a 0C37     		adds	r7, r7, #12
 479              		.cfi_def_cfa_offset 4
 480 002c BD46     		mov	sp, r7
 481              		.cfi_def_cfa_register 13
 482              		@ sp needed
 483 002e 80BC     		pop	{r7}
 484              		.cfi_restore 7
 485              		.cfi_def_cfa_offset 0
 486 0030 7047     		bx	lr
 487              	.L20:
 488 0032 00BF     		.align	2
 489              	.L19:
 490 0034 CF010049 		.word	1224737231
 491 0038 6E580040 		.word	1073764462
 492 003c 6F580040 		.word	1073764463
 493 0040 76580040 		.word	1073764470
 494              		.cfi_endproc
 495              	.LFE6:
 496              		.size	AnalogSetDefault, .-AnalogSetDefault
 497              		.section	.text.SetAnalogRoutingPumps,"ax",%progbits
 498              		.align	2
 499              		.global	SetAnalogRoutingPumps
 500              		.thumb
ARM GAS  C:\Users\DGILLI~1\AppData\Local\Temp\ccW7tEoj.s 			page 15


 501              		.thumb_func
 502              		.type	SetAnalogRoutingPumps, %function
 503              	SetAnalogRoutingPumps:
 504              	.LFB7:
 293:Generated_Source\PSoC5/cyfitter_cfg.c **** 
 294:Generated_Source\PSoC5/cyfitter_cfg.c **** 
 295:Generated_Source\PSoC5/cyfitter_cfg.c **** /*******************************************************************************
 296:Generated_Source\PSoC5/cyfitter_cfg.c **** * Function Name: SetAnalogRoutingPumps
 297:Generated_Source\PSoC5/cyfitter_cfg.c **** ********************************************************************************
 298:Generated_Source\PSoC5/cyfitter_cfg.c **** *
 299:Generated_Source\PSoC5/cyfitter_cfg.c **** * Summary:
 300:Generated_Source\PSoC5/cyfitter_cfg.c **** * Enables or disables the analog pumps feeding analog routing switches.
 301:Generated_Source\PSoC5/cyfitter_cfg.c **** * Intended to be called at startup, based on the Vdda system configuration;
 302:Generated_Source\PSoC5/cyfitter_cfg.c **** * may be called during operation when the user informs us that the Vdda voltage
 303:Generated_Source\PSoC5/cyfitter_cfg.c **** * crossed the pump threshold.
 304:Generated_Source\PSoC5/cyfitter_cfg.c **** *
 305:Generated_Source\PSoC5/cyfitter_cfg.c **** * Parameters:
 306:Generated_Source\PSoC5/cyfitter_cfg.c **** *  enabled - 1 to enable the pumps, 0 to disable the pumps
 307:Generated_Source\PSoC5/cyfitter_cfg.c **** *
 308:Generated_Source\PSoC5/cyfitter_cfg.c **** * Return:
 309:Generated_Source\PSoC5/cyfitter_cfg.c **** *  void
 310:Generated_Source\PSoC5/cyfitter_cfg.c **** *
 311:Generated_Source\PSoC5/cyfitter_cfg.c **** *******************************************************************************/
 312:Generated_Source\PSoC5/cyfitter_cfg.c **** void SetAnalogRoutingPumps(uint8 enabled)
 313:Generated_Source\PSoC5/cyfitter_cfg.c **** {
 505              		.loc 1 313 0
 506              		.cfi_startproc
 507              		@ args = 0, pretend = 0, frame = 16
 508              		@ frame_needed = 1, uses_anonymous_args = 0
 509              		@ link register save eliminated.
 510 0000 80B4     		push	{r7}
 511              		.cfi_def_cfa_offset 4
 512              		.cfi_offset 7, -4
 513 0002 85B0     		sub	sp, sp, #20
 514              		.cfi_def_cfa_offset 24
 515 0004 00AF     		add	r7, sp, #0
 516              		.cfi_def_cfa_register 7
 517 0006 0346     		mov	r3, r0
 518 0008 FB71     		strb	r3, [r7, #7]
 314:Generated_Source\PSoC5/cyfitter_cfg.c **** 	uint8 regValue = CY_GET_XTND_REG8((void CYFAR *)CYREG_PUMP_CR0);
 519              		.loc 1 314 0
 520 000a 064B     		ldr	r3, .L24
 521 000c 1B78     		ldrb	r3, [r3]
 522 000e FB73     		strb	r3, [r7, #15]
 315:Generated_Source\PSoC5/cyfitter_cfg.c **** 	if (enabled != 0u)
 523              		.loc 1 315 0
 524 0010 FB79     		ldrb	r3, [r7, #7]	@ zero_extendqisi2
 525 0012 002B     		cmp	r3, #0
 316:Generated_Source\PSoC5/cyfitter_cfg.c **** 	{
 317:Generated_Source\PSoC5/cyfitter_cfg.c **** 		regValue |= 0x00u;
 318:Generated_Source\PSoC5/cyfitter_cfg.c **** 	}
 319:Generated_Source\PSoC5/cyfitter_cfg.c **** 	else
 320:Generated_Source\PSoC5/cyfitter_cfg.c **** 	{
 321:Generated_Source\PSoC5/cyfitter_cfg.c **** 		regValue &= (uint8)~0x00u;
 322:Generated_Source\PSoC5/cyfitter_cfg.c **** 	}
 323:Generated_Source\PSoC5/cyfitter_cfg.c **** 	CY_SET_XTND_REG8((void CYFAR *)CYREG_PUMP_CR0, regValue);
 526              		.loc 1 323 0
ARM GAS  C:\Users\DGILLI~1\AppData\Local\Temp\ccW7tEoj.s 			page 16


 527 0014 034A     		ldr	r2, .L24
 528 0016 FB7B     		ldrb	r3, [r7, #15]
 529 0018 1370     		strb	r3, [r2]
 324:Generated_Source\PSoC5/cyfitter_cfg.c **** }
 530              		.loc 1 324 0
 531 001a 00BF     		nop
 532 001c 1437     		adds	r7, r7, #20
 533              		.cfi_def_cfa_offset 4
 534 001e BD46     		mov	sp, r7
 535              		.cfi_def_cfa_register 13
 536              		@ sp needed
 537 0020 80BC     		pop	{r7}
 538              		.cfi_restore 7
 539              		.cfi_def_cfa_offset 0
 540 0022 7047     		bx	lr
 541              	.L25:
 542              		.align	2
 543              	.L24:
 544 0024 76580040 		.word	1073764470
 545              		.cfi_endproc
 546              	.LFE7:
 547              		.size	SetAnalogRoutingPumps, .-SetAnalogRoutingPumps
 548              		.section	.text.cyfitter_cfg,"ax",%progbits
 549              		.align	2
 550              		.global	cyfitter_cfg
 551              		.thumb
 552              		.thumb_func
 553              		.type	cyfitter_cfg, %function
 554              	cyfitter_cfg:
 555              	.LFB8:
 325:Generated_Source\PSoC5/cyfitter_cfg.c **** 
 326:Generated_Source\PSoC5/cyfitter_cfg.c **** 
 327:Generated_Source\PSoC5/cyfitter_cfg.c **** 
 328:Generated_Source\PSoC5/cyfitter_cfg.c **** 
 329:Generated_Source\PSoC5/cyfitter_cfg.c **** /*******************************************************************************
 330:Generated_Source\PSoC5/cyfitter_cfg.c **** * Function Name: cyfitter_cfg
 331:Generated_Source\PSoC5/cyfitter_cfg.c **** ********************************************************************************
 332:Generated_Source\PSoC5/cyfitter_cfg.c **** * Summary:
 333:Generated_Source\PSoC5/cyfitter_cfg.c **** *  This function is called by the start-up code for the selected device. It
 334:Generated_Source\PSoC5/cyfitter_cfg.c **** *  performs all of the necessary device configuration based on the design
 335:Generated_Source\PSoC5/cyfitter_cfg.c **** *  settings.  This includes settings from the Design Wide Resources (DWR) such
 336:Generated_Source\PSoC5/cyfitter_cfg.c **** *  as Clocks and Pins as well as any component configuration that is necessary.
 337:Generated_Source\PSoC5/cyfitter_cfg.c **** *
 338:Generated_Source\PSoC5/cyfitter_cfg.c **** * Parameters:
 339:Generated_Source\PSoC5/cyfitter_cfg.c **** *   void
 340:Generated_Source\PSoC5/cyfitter_cfg.c **** *
 341:Generated_Source\PSoC5/cyfitter_cfg.c **** * Return:
 342:Generated_Source\PSoC5/cyfitter_cfg.c **** *   void
 343:Generated_Source\PSoC5/cyfitter_cfg.c **** *
 344:Generated_Source\PSoC5/cyfitter_cfg.c **** *******************************************************************************/
 345:Generated_Source\PSoC5/cyfitter_cfg.c **** 
 346:Generated_Source\PSoC5/cyfitter_cfg.c **** void cyfitter_cfg(void)
 347:Generated_Source\PSoC5/cyfitter_cfg.c **** {
 556              		.loc 1 347 0
 557              		.cfi_startproc
 558              		@ args = 0, pretend = 0, frame = 24
 559              		@ frame_needed = 1, uses_anonymous_args = 0
ARM GAS  C:\Users\DGILLI~1\AppData\Local\Temp\ccW7tEoj.s 			page 17


 560 0000 80B5     		push	{r7, lr}
 561              		.cfi_def_cfa_offset 8
 562              		.cfi_offset 7, -8
 563              		.cfi_offset 14, -4
 564 0002 86B0     		sub	sp, sp, #24
 565              		.cfi_def_cfa_offset 32
 566 0004 00AF     		add	r7, sp, #0
 567              		.cfi_def_cfa_register 7
 348:Generated_Source\PSoC5/cyfitter_cfg.c **** 	/* IOPINS0_0 Address: CYREG_PRT0_DR Size (bytes): 10 */
 349:Generated_Source\PSoC5/cyfitter_cfg.c **** 	static const uint8 CYCODE BS_IOPINS0_0_VAL[] = {
 350:Generated_Source\PSoC5/cyfitter_cfg.c **** 		0x01u, 0x00u, 0x00u, 0xFFu, 0xFEu, 0x00u, 0xFFu, 0x00u, 0x00u, 0x00u};
 351:Generated_Source\PSoC5/cyfitter_cfg.c **** 
 352:Generated_Source\PSoC5/cyfitter_cfg.c **** 	/* IOPINS0_7 Address: CYREG_PRT12_DR Size (bytes): 10 */
 353:Generated_Source\PSoC5/cyfitter_cfg.c **** 	static const uint8 CYCODE BS_IOPINS0_7_VAL[] = {
 354:Generated_Source\PSoC5/cyfitter_cfg.c **** 		0x70u, 0x00u, 0x00u, 0xCFu, 0xFFu, 0x00u, 0xFFu, 0xCFu, 0x00u, 0x00u};
 355:Generated_Source\PSoC5/cyfitter_cfg.c **** 
 356:Generated_Source\PSoC5/cyfitter_cfg.c **** 	/* IOPINS0_8 Address: CYREG_PRT15_DR Size (bytes): 10 */
 357:Generated_Source\PSoC5/cyfitter_cfg.c **** 	static const uint8 CYCODE BS_IOPINS0_8_VAL[] = {
 358:Generated_Source\PSoC5/cyfitter_cfg.c **** 		0x40u, 0x00u, 0x00u, 0x0Fu, 0x0Fu, 0x00u, 0x0Fu, 0x0Fu, 0xC0u, 0x00u};
 359:Generated_Source\PSoC5/cyfitter_cfg.c **** 
 360:Generated_Source\PSoC5/cyfitter_cfg.c **** 	/* IOPINS0_1 Address: CYREG_PRT1_DM0 Size (bytes): 8 */
 361:Generated_Source\PSoC5/cyfitter_cfg.c **** 	static const uint8 CYCODE BS_IOPINS0_1_VAL[] = {
 362:Generated_Source\PSoC5/cyfitter_cfg.c **** 		0x00u, 0xEFu, 0xEFu, 0x00u, 0xECu, 0xECu, 0x00u, 0x00u};
 363:Generated_Source\PSoC5/cyfitter_cfg.c **** 
 364:Generated_Source\PSoC5/cyfitter_cfg.c **** 	/* IOPINS0_2 Address: CYREG_PRT2_DM0 Size (bytes): 8 */
 365:Generated_Source\PSoC5/cyfitter_cfg.c **** 	static const uint8 CYCODE BS_IOPINS0_2_VAL[] = {
 366:Generated_Source\PSoC5/cyfitter_cfg.c **** 		0x00u, 0xFFu, 0xFFu, 0x00u, 0xFFu, 0xFFu, 0x00u, 0x00u};
 367:Generated_Source\PSoC5/cyfitter_cfg.c **** 
 368:Generated_Source\PSoC5/cyfitter_cfg.c **** 	/* IOPINS0_3 Address: CYREG_PRT3_DM0 Size (bytes): 8 */
 369:Generated_Source\PSoC5/cyfitter_cfg.c **** 	static const uint8 CYCODE BS_IOPINS0_3_VAL[] = {
 370:Generated_Source\PSoC5/cyfitter_cfg.c **** 		0x00u, 0xFFu, 0xFFu, 0x00u, 0xFFu, 0xFFu, 0x00u, 0x00u};
 371:Generated_Source\PSoC5/cyfitter_cfg.c **** 
 372:Generated_Source\PSoC5/cyfitter_cfg.c **** 	/* IOPINS0_4 Address: CYREG_PRT4_DM0 Size (bytes): 8 */
 373:Generated_Source\PSoC5/cyfitter_cfg.c **** 	static const uint8 CYCODE BS_IOPINS0_4_VAL[] = {
 374:Generated_Source\PSoC5/cyfitter_cfg.c **** 		0x00u, 0x3Fu, 0x3Fu, 0x00u, 0x3Fu, 0x3Fu, 0x00u, 0x00u};
 375:Generated_Source\PSoC5/cyfitter_cfg.c **** 
 376:Generated_Source\PSoC5/cyfitter_cfg.c **** 	/* IOPINS0_5 Address: CYREG_PRT5_DM0 Size (bytes): 8 */
 377:Generated_Source\PSoC5/cyfitter_cfg.c **** 	static const uint8 CYCODE BS_IOPINS0_5_VAL[] = {
 378:Generated_Source\PSoC5/cyfitter_cfg.c **** 		0x00u, 0xF1u, 0xF1u, 0x00u, 0xF1u, 0xF1u, 0x00u, 0x00u};
 379:Generated_Source\PSoC5/cyfitter_cfg.c **** 
 380:Generated_Source\PSoC5/cyfitter_cfg.c **** 	/* IOPINS0_6 Address: CYREG_PRT6_DM0 Size (bytes): 8 */
 381:Generated_Source\PSoC5/cyfitter_cfg.c **** 	static const uint8 CYCODE BS_IOPINS0_6_VAL[] = {
 382:Generated_Source\PSoC5/cyfitter_cfg.c **** 		0x00u, 0xF0u, 0xF0u, 0x00u, 0xF0u, 0xF0u, 0x00u, 0x00u};
 383:Generated_Source\PSoC5/cyfitter_cfg.c **** 
 384:Generated_Source\PSoC5/cyfitter_cfg.c **** #ifdef CYGlobalIntDisable
 385:Generated_Source\PSoC5/cyfitter_cfg.c **** 	/* Disable interrupts by default. Let user enable if/when they want. */
 386:Generated_Source\PSoC5/cyfitter_cfg.c **** 	CYGlobalIntDisable
 568              		.loc 1 386 0
 569              		.syntax unified
 570              	@ 386 "Generated_Source\PSoC5\cyfitter_cfg.c" 1
 571 0006 72B6     		CPSID   i
 572              	@ 0 "" 2
 387:Generated_Source\PSoC5/cyfitter_cfg.c **** #endif
 388:Generated_Source\PSoC5/cyfitter_cfg.c **** 
 389:Generated_Source\PSoC5/cyfitter_cfg.c **** 
 390:Generated_Source\PSoC5/cyfitter_cfg.c **** 	/* Set Flash Cycles based on max possible frequency in case a glitch occurs during ClockSetup(). *
 391:Generated_Source\PSoC5/cyfitter_cfg.c **** 	CY_SET_XTND_REG8((void CYFAR *)(CYREG_CACHE_CC_CTL), (((CYDEV_INSTRUCT_CACHE_ENABLED) != 0) ? 0x61
ARM GAS  C:\Users\DGILLI~1\AppData\Local\Temp\ccW7tEoj.s 			page 18


 573              		.loc 1 391 0
 574              		.thumb
 575              		.syntax unified
 576 0008 544B     		ldr	r3, .L31
 577 000a 6022     		movs	r2, #96
 578 000c 1A70     		strb	r2, [r3]
 392:Generated_Source\PSoC5/cyfitter_cfg.c **** 	/* Setup clocks based on selections from Clock DWR */
 393:Generated_Source\PSoC5/cyfitter_cfg.c **** 	ClockSetup();
 579              		.loc 1 393 0
 580 000e FFF7FEFF 		bl	ClockSetup
 394:Generated_Source\PSoC5/cyfitter_cfg.c **** 	/* Set Flash Cycles based on newly configured 64.00MHz Bus Clock. */
 395:Generated_Source\PSoC5/cyfitter_cfg.c **** 	CY_SET_XTND_REG8((void CYFAR *)(CYREG_CACHE_CC_CTL), (((CYDEV_INSTRUCT_CACHE_ENABLED) != 0) ? 0x01
 581              		.loc 1 395 0
 582 0012 524B     		ldr	r3, .L31
 583 0014 0022     		movs	r2, #0
 584 0016 1A70     		strb	r2, [r3]
 585              	.LBB3:
 396:Generated_Source\PSoC5/cyfitter_cfg.c **** 	{
 397:Generated_Source\PSoC5/cyfitter_cfg.c **** 		static const uint32 CYCODE cy_cfg_addr_table[] = {
 398:Generated_Source\PSoC5/cyfitter_cfg.c **** 			0x40004501u, /* Base address: 0x40004500 Count: 1 */
 399:Generated_Source\PSoC5/cyfitter_cfg.c **** 			0x4000520Bu, /* Base address: 0x40005200 Count: 11 */
 400:Generated_Source\PSoC5/cyfitter_cfg.c **** 			0x40006403u, /* Base address: 0x40006400 Count: 3 */
 401:Generated_Source\PSoC5/cyfitter_cfg.c **** 			0x40010039u, /* Base address: 0x40010000 Count: 57 */
 402:Generated_Source\PSoC5/cyfitter_cfg.c **** 			0x4001013Cu, /* Base address: 0x40010100 Count: 60 */
 403:Generated_Source\PSoC5/cyfitter_cfg.c **** 			0x40010237u, /* Base address: 0x40010200 Count: 55 */
 404:Generated_Source\PSoC5/cyfitter_cfg.c **** 			0x4001034Du, /* Base address: 0x40010300 Count: 77 */
 405:Generated_Source\PSoC5/cyfitter_cfg.c **** 			0x40010434u, /* Base address: 0x40010400 Count: 52 */
 406:Generated_Source\PSoC5/cyfitter_cfg.c **** 			0x40010543u, /* Base address: 0x40010500 Count: 67 */
 407:Generated_Source\PSoC5/cyfitter_cfg.c **** 			0x4001062Eu, /* Base address: 0x40010600 Count: 46 */
 408:Generated_Source\PSoC5/cyfitter_cfg.c **** 			0x40010752u, /* Base address: 0x40010700 Count: 82 */
 409:Generated_Source\PSoC5/cyfitter_cfg.c **** 			0x40010913u, /* Base address: 0x40010900 Count: 19 */
 410:Generated_Source\PSoC5/cyfitter_cfg.c **** 			0x40010B0Du, /* Base address: 0x40010B00 Count: 13 */
 411:Generated_Source\PSoC5/cyfitter_cfg.c **** 			0x40010D05u, /* Base address: 0x40010D00 Count: 5 */
 412:Generated_Source\PSoC5/cyfitter_cfg.c **** 			0x40010F01u, /* Base address: 0x40010F00 Count: 1 */
 413:Generated_Source\PSoC5/cyfitter_cfg.c **** 			0x4001141Du, /* Base address: 0x40011400 Count: 29 */
 414:Generated_Source\PSoC5/cyfitter_cfg.c **** 			0x4001155Fu, /* Base address: 0x40011500 Count: 95 */
 415:Generated_Source\PSoC5/cyfitter_cfg.c **** 			0x40011643u, /* Base address: 0x40011600 Count: 67 */
 416:Generated_Source\PSoC5/cyfitter_cfg.c **** 			0x40011754u, /* Base address: 0x40011700 Count: 84 */
 417:Generated_Source\PSoC5/cyfitter_cfg.c **** 			0x4001181Fu, /* Base address: 0x40011800 Count: 31 */
 418:Generated_Source\PSoC5/cyfitter_cfg.c **** 			0x40011946u, /* Base address: 0x40011900 Count: 70 */
 419:Generated_Source\PSoC5/cyfitter_cfg.c **** 			0x40011B0Bu, /* Base address: 0x40011B00 Count: 11 */
 420:Generated_Source\PSoC5/cyfitter_cfg.c **** 			0x40014021u, /* Base address: 0x40014000 Count: 33 */
 421:Generated_Source\PSoC5/cyfitter_cfg.c **** 			0x40014124u, /* Base address: 0x40014100 Count: 36 */
 422:Generated_Source\PSoC5/cyfitter_cfg.c **** 			0x4001421Cu, /* Base address: 0x40014200 Count: 28 */
 423:Generated_Source\PSoC5/cyfitter_cfg.c **** 			0x4001431Au, /* Base address: 0x40014300 Count: 26 */
 424:Generated_Source\PSoC5/cyfitter_cfg.c **** 			0x40014417u, /* Base address: 0x40014400 Count: 23 */
 425:Generated_Source\PSoC5/cyfitter_cfg.c **** 			0x4001452Du, /* Base address: 0x40014500 Count: 45 */
 426:Generated_Source\PSoC5/cyfitter_cfg.c **** 			0x40014618u, /* Base address: 0x40014600 Count: 24 */
 427:Generated_Source\PSoC5/cyfitter_cfg.c **** 			0x4001471Fu, /* Base address: 0x40014700 Count: 31 */
 428:Generated_Source\PSoC5/cyfitter_cfg.c **** 			0x4001481Du, /* Base address: 0x40014800 Count: 29 */
 429:Generated_Source\PSoC5/cyfitter_cfg.c **** 			0x40014936u, /* Base address: 0x40014900 Count: 54 */
 430:Generated_Source\PSoC5/cyfitter_cfg.c **** 			0x40014C2Du, /* Base address: 0x40014C00 Count: 45 */
 431:Generated_Source\PSoC5/cyfitter_cfg.c **** 			0x40014D2Fu, /* Base address: 0x40014D00 Count: 47 */
 432:Generated_Source\PSoC5/cyfitter_cfg.c **** 			0x40015009u, /* Base address: 0x40015000 Count: 9 */
 433:Generated_Source\PSoC5/cyfitter_cfg.c **** 			0x40015102u, /* Base address: 0x40015100 Count: 2 */
 434:Generated_Source\PSoC5/cyfitter_cfg.c **** 		};
 435:Generated_Source\PSoC5/cyfitter_cfg.c **** 
ARM GAS  C:\Users\DGILLI~1\AppData\Local\Temp\ccW7tEoj.s 			page 19


 436:Generated_Source\PSoC5/cyfitter_cfg.c **** 		static const cy_cfg_addrvalue_t CYCODE cy_cfg_data_table[] = {
 437:Generated_Source\PSoC5/cyfitter_cfg.c **** 			{0x7Eu, 0x02u},
 438:Generated_Source\PSoC5/cyfitter_cfg.c **** 			{0x00u, 0x5Au},
 439:Generated_Source\PSoC5/cyfitter_cfg.c **** 			{0x01u, 0x36u},
 440:Generated_Source\PSoC5/cyfitter_cfg.c **** 			{0x08u, 0x48u},
 441:Generated_Source\PSoC5/cyfitter_cfg.c **** 			{0x09u, 0x28u},
 442:Generated_Source\PSoC5/cyfitter_cfg.c **** 			{0x10u, 0x6Au},
 443:Generated_Source\PSoC5/cyfitter_cfg.c **** 			{0x11u, 0xA3u},
 444:Generated_Source\PSoC5/cyfitter_cfg.c **** 			{0x28u, 0xA0u},
 445:Generated_Source\PSoC5/cyfitter_cfg.c **** 			{0x29u, 0xC1u},
 446:Generated_Source\PSoC5/cyfitter_cfg.c **** 			{0x30u, 0x50u},
 447:Generated_Source\PSoC5/cyfitter_cfg.c **** 			{0x31u, 0x90u},
 448:Generated_Source\PSoC5/cyfitter_cfg.c **** 			{0x33u, 0xF0u},
 449:Generated_Source\PSoC5/cyfitter_cfg.c **** 			{0x84u, 0x72u},
 450:Generated_Source\PSoC5/cyfitter_cfg.c **** 			{0x85u, 0x0Fu},
 451:Generated_Source\PSoC5/cyfitter_cfg.c **** 			{0x86u, 0x38u},
 452:Generated_Source\PSoC5/cyfitter_cfg.c **** 			{0x04u, 0x1Cu},
 453:Generated_Source\PSoC5/cyfitter_cfg.c **** 			{0x06u, 0x02u},
 454:Generated_Source\PSoC5/cyfitter_cfg.c **** 			{0x0Au, 0x03u},
 455:Generated_Source\PSoC5/cyfitter_cfg.c **** 			{0x0Bu, 0x01u},
 456:Generated_Source\PSoC5/cyfitter_cfg.c **** 			{0x0Cu, 0x10u},
 457:Generated_Source\PSoC5/cyfitter_cfg.c **** 			{0x0Eu, 0x0Cu},
 458:Generated_Source\PSoC5/cyfitter_cfg.c **** 			{0x0Fu, 0x05u},
 459:Generated_Source\PSoC5/cyfitter_cfg.c **** 			{0x10u, 0x09u},
 460:Generated_Source\PSoC5/cyfitter_cfg.c **** 			{0x12u, 0x10u},
 461:Generated_Source\PSoC5/cyfitter_cfg.c **** 			{0x18u, 0x0Cu},
 462:Generated_Source\PSoC5/cyfitter_cfg.c **** 			{0x1Au, 0x11u},
 463:Generated_Source\PSoC5/cyfitter_cfg.c **** 			{0x1Bu, 0x03u},
 464:Generated_Source\PSoC5/cyfitter_cfg.c **** 			{0x1Cu, 0x10u},
 465:Generated_Source\PSoC5/cyfitter_cfg.c **** 			{0x1Fu, 0x02u},
 466:Generated_Source\PSoC5/cyfitter_cfg.c **** 			{0x20u, 0x14u},
 467:Generated_Source\PSoC5/cyfitter_cfg.c **** 			{0x25u, 0x06u},
 468:Generated_Source\PSoC5/cyfitter_cfg.c **** 			{0x27u, 0x01u},
 469:Generated_Source\PSoC5/cyfitter_cfg.c **** 			{0x2Fu, 0x06u},
 470:Generated_Source\PSoC5/cyfitter_cfg.c **** 			{0x32u, 0x1Fu},
 471:Generated_Source\PSoC5/cyfitter_cfg.c **** 			{0x35u, 0x07u},
 472:Generated_Source\PSoC5/cyfitter_cfg.c **** 			{0x3Bu, 0x20u},
 473:Generated_Source\PSoC5/cyfitter_cfg.c **** 			{0x56u, 0x08u},
 474:Generated_Source\PSoC5/cyfitter_cfg.c **** 			{0x58u, 0x04u},
 475:Generated_Source\PSoC5/cyfitter_cfg.c **** 			{0x59u, 0x04u},
 476:Generated_Source\PSoC5/cyfitter_cfg.c **** 			{0x5Bu, 0x04u},
 477:Generated_Source\PSoC5/cyfitter_cfg.c **** 			{0x5Cu, 0x11u},
 478:Generated_Source\PSoC5/cyfitter_cfg.c **** 			{0x5Du, 0x90u},
 479:Generated_Source\PSoC5/cyfitter_cfg.c **** 			{0x5Fu, 0x01u},
 480:Generated_Source\PSoC5/cyfitter_cfg.c **** 			{0x83u, 0x02u},
 481:Generated_Source\PSoC5/cyfitter_cfg.c **** 			{0x85u, 0x01u},
 482:Generated_Source\PSoC5/cyfitter_cfg.c **** 			{0x8Bu, 0x01u},
 483:Generated_Source\PSoC5/cyfitter_cfg.c **** 			{0x8Du, 0x01u},
 484:Generated_Source\PSoC5/cyfitter_cfg.c **** 			{0x93u, 0x02u},
 485:Generated_Source\PSoC5/cyfitter_cfg.c **** 			{0xA7u, 0x01u},
 486:Generated_Source\PSoC5/cyfitter_cfg.c **** 			{0xABu, 0x01u},
 487:Generated_Source\PSoC5/cyfitter_cfg.c **** 			{0xB1u, 0x01u},
 488:Generated_Source\PSoC5/cyfitter_cfg.c **** 			{0xB7u, 0x02u},
 489:Generated_Source\PSoC5/cyfitter_cfg.c **** 			{0xBFu, 0x41u},
 490:Generated_Source\PSoC5/cyfitter_cfg.c **** 			{0xC0u, 0x56u},
 491:Generated_Source\PSoC5/cyfitter_cfg.c **** 			{0xC1u, 0x02u},
 492:Generated_Source\PSoC5/cyfitter_cfg.c **** 			{0xC6u, 0xCBu},
ARM GAS  C:\Users\DGILLI~1\AppData\Local\Temp\ccW7tEoj.s 			page 20


 493:Generated_Source\PSoC5/cyfitter_cfg.c **** 			{0xC7u, 0x0Eu},
 494:Generated_Source\PSoC5/cyfitter_cfg.c **** 			{0xC8u, 0x1Cu},
 495:Generated_Source\PSoC5/cyfitter_cfg.c **** 			{0xC9u, 0xFFu},
 496:Generated_Source\PSoC5/cyfitter_cfg.c **** 			{0xCAu, 0xFFu},
 497:Generated_Source\PSoC5/cyfitter_cfg.c **** 			{0xCBu, 0xFFu},
 498:Generated_Source\PSoC5/cyfitter_cfg.c **** 			{0xCEu, 0xF0u},
 499:Generated_Source\PSoC5/cyfitter_cfg.c **** 			{0xCFu, 0x44u},
 500:Generated_Source\PSoC5/cyfitter_cfg.c **** 			{0xD0u, 0x0Cu},
 501:Generated_Source\PSoC5/cyfitter_cfg.c **** 			{0xD9u, 0x04u},
 502:Generated_Source\PSoC5/cyfitter_cfg.c **** 			{0xDAu, 0x04u},
 503:Generated_Source\PSoC5/cyfitter_cfg.c **** 			{0xDBu, 0x04u},
 504:Generated_Source\PSoC5/cyfitter_cfg.c **** 			{0xDDu, 0x01u},
 505:Generated_Source\PSoC5/cyfitter_cfg.c **** 			{0xDFu, 0x01u},
 506:Generated_Source\PSoC5/cyfitter_cfg.c **** 			{0xE6u, 0xC0u},
 507:Generated_Source\PSoC5/cyfitter_cfg.c **** 			{0xEAu, 0x40u},
 508:Generated_Source\PSoC5/cyfitter_cfg.c **** 			{0xEBu, 0x02u},
 509:Generated_Source\PSoC5/cyfitter_cfg.c **** 			{0x00u, 0x50u},
 510:Generated_Source\PSoC5/cyfitter_cfg.c **** 			{0x03u, 0x20u},
 511:Generated_Source\PSoC5/cyfitter_cfg.c **** 			{0x08u, 0x02u},
 512:Generated_Source\PSoC5/cyfitter_cfg.c **** 			{0x09u, 0xA0u},
 513:Generated_Source\PSoC5/cyfitter_cfg.c **** 			{0x12u, 0x40u},
 514:Generated_Source\PSoC5/cyfitter_cfg.c **** 			{0x18u, 0x10u},
 515:Generated_Source\PSoC5/cyfitter_cfg.c **** 			{0x20u, 0x04u},
 516:Generated_Source\PSoC5/cyfitter_cfg.c **** 			{0x21u, 0x20u},
 517:Generated_Source\PSoC5/cyfitter_cfg.c **** 			{0x24u, 0x02u},
 518:Generated_Source\PSoC5/cyfitter_cfg.c **** 			{0x27u, 0x80u},
 519:Generated_Source\PSoC5/cyfitter_cfg.c **** 			{0x28u, 0x02u},
 520:Generated_Source\PSoC5/cyfitter_cfg.c **** 			{0x2Bu, 0x21u},
 521:Generated_Source\PSoC5/cyfitter_cfg.c **** 			{0x2Du, 0x10u},
 522:Generated_Source\PSoC5/cyfitter_cfg.c **** 			{0x2Fu, 0x20u},
 523:Generated_Source\PSoC5/cyfitter_cfg.c **** 			{0x31u, 0xA0u},
 524:Generated_Source\PSoC5/cyfitter_cfg.c **** 			{0x32u, 0x80u},
 525:Generated_Source\PSoC5/cyfitter_cfg.c **** 			{0x37u, 0x01u},
 526:Generated_Source\PSoC5/cyfitter_cfg.c **** 			{0x38u, 0x40u},
 527:Generated_Source\PSoC5/cyfitter_cfg.c **** 			{0x39u, 0x10u},
 528:Generated_Source\PSoC5/cyfitter_cfg.c **** 			{0x3Cu, 0x44u},
 529:Generated_Source\PSoC5/cyfitter_cfg.c **** 			{0x3Du, 0x01u},
 530:Generated_Source\PSoC5/cyfitter_cfg.c **** 			{0x3Eu, 0x10u},
 531:Generated_Source\PSoC5/cyfitter_cfg.c **** 			{0x3Fu, 0x60u},
 532:Generated_Source\PSoC5/cyfitter_cfg.c **** 			{0x45u, 0x20u},
 533:Generated_Source\PSoC5/cyfitter_cfg.c **** 			{0x4Du, 0x10u},
 534:Generated_Source\PSoC5/cyfitter_cfg.c **** 			{0x4Fu, 0x40u},
 535:Generated_Source\PSoC5/cyfitter_cfg.c **** 			{0x55u, 0x08u},
 536:Generated_Source\PSoC5/cyfitter_cfg.c **** 			{0x56u, 0x40u},
 537:Generated_Source\PSoC5/cyfitter_cfg.c **** 			{0x57u, 0x10u},
 538:Generated_Source\PSoC5/cyfitter_cfg.c **** 			{0x58u, 0x20u},
 539:Generated_Source\PSoC5/cyfitter_cfg.c **** 			{0x5Au, 0x40u},
 540:Generated_Source\PSoC5/cyfitter_cfg.c **** 			{0x5Eu, 0x80u},
 541:Generated_Source\PSoC5/cyfitter_cfg.c **** 			{0x5Fu, 0x16u},
 542:Generated_Source\PSoC5/cyfitter_cfg.c **** 			{0x66u, 0x20u},
 543:Generated_Source\PSoC5/cyfitter_cfg.c **** 			{0x67u, 0x02u},
 544:Generated_Source\PSoC5/cyfitter_cfg.c **** 			{0x6Cu, 0x12u},
 545:Generated_Source\PSoC5/cyfitter_cfg.c **** 			{0x6Fu, 0x48u},
 546:Generated_Source\PSoC5/cyfitter_cfg.c **** 			{0x74u, 0x40u},
 547:Generated_Source\PSoC5/cyfitter_cfg.c **** 			{0x75u, 0x10u},
 548:Generated_Source\PSoC5/cyfitter_cfg.c **** 			{0x81u, 0x10u},
 549:Generated_Source\PSoC5/cyfitter_cfg.c **** 			{0x82u, 0x40u},
ARM GAS  C:\Users\DGILLI~1\AppData\Local\Temp\ccW7tEoj.s 			page 21


 550:Generated_Source\PSoC5/cyfitter_cfg.c **** 			{0x83u, 0x40u},
 551:Generated_Source\PSoC5/cyfitter_cfg.c **** 			{0x87u, 0x1Cu},
 552:Generated_Source\PSoC5/cyfitter_cfg.c **** 			{0x88u, 0x40u},
 553:Generated_Source\PSoC5/cyfitter_cfg.c **** 			{0x8Au, 0x20u},
 554:Generated_Source\PSoC5/cyfitter_cfg.c **** 			{0x8Cu, 0x10u},
 555:Generated_Source\PSoC5/cyfitter_cfg.c **** 			{0x8Eu, 0x40u},
 556:Generated_Source\PSoC5/cyfitter_cfg.c **** 			{0xC0u, 0x07u},
 557:Generated_Source\PSoC5/cyfitter_cfg.c **** 			{0xC2u, 0x0Bu},
 558:Generated_Source\PSoC5/cyfitter_cfg.c **** 			{0xC4u, 0x08u},
 559:Generated_Source\PSoC5/cyfitter_cfg.c **** 			{0xCAu, 0x6Au},
 560:Generated_Source\PSoC5/cyfitter_cfg.c **** 			{0xCCu, 0x8Cu},
 561:Generated_Source\PSoC5/cyfitter_cfg.c **** 			{0xCEu, 0xFCu},
 562:Generated_Source\PSoC5/cyfitter_cfg.c **** 			{0xD0u, 0x20u},
 563:Generated_Source\PSoC5/cyfitter_cfg.c **** 			{0xD2u, 0x30u},
 564:Generated_Source\PSoC5/cyfitter_cfg.c **** 			{0xD6u, 0xFCu},
 565:Generated_Source\PSoC5/cyfitter_cfg.c **** 			{0xD8u, 0x30u},
 566:Generated_Source\PSoC5/cyfitter_cfg.c **** 			{0xE2u, 0x44u},
 567:Generated_Source\PSoC5/cyfitter_cfg.c **** 			{0xE4u, 0x80u},
 568:Generated_Source\PSoC5/cyfitter_cfg.c **** 			{0xE6u, 0x60u},
 569:Generated_Source\PSoC5/cyfitter_cfg.c **** 			{0x13u, 0x01u},
 570:Generated_Source\PSoC5/cyfitter_cfg.c **** 			{0x14u, 0x02u},
 571:Generated_Source\PSoC5/cyfitter_cfg.c **** 			{0x22u, 0x01u},
 572:Generated_Source\PSoC5/cyfitter_cfg.c **** 			{0x2Au, 0x01u},
 573:Generated_Source\PSoC5/cyfitter_cfg.c **** 			{0x2Bu, 0x01u},
 574:Generated_Source\PSoC5/cyfitter_cfg.c **** 			{0x32u, 0x01u},
 575:Generated_Source\PSoC5/cyfitter_cfg.c **** 			{0x33u, 0x01u},
 576:Generated_Source\PSoC5/cyfitter_cfg.c **** 			{0x34u, 0x02u},
 577:Generated_Source\PSoC5/cyfitter_cfg.c **** 			{0x3Eu, 0x14u},
 578:Generated_Source\PSoC5/cyfitter_cfg.c **** 			{0x3Fu, 0x04u},
 579:Generated_Source\PSoC5/cyfitter_cfg.c **** 			{0x58u, 0x04u},
 580:Generated_Source\PSoC5/cyfitter_cfg.c **** 			{0x59u, 0x04u},
 581:Generated_Source\PSoC5/cyfitter_cfg.c **** 			{0x5Bu, 0x04u},
 582:Generated_Source\PSoC5/cyfitter_cfg.c **** 			{0x5Fu, 0x01u},
 583:Generated_Source\PSoC5/cyfitter_cfg.c **** 			{0x84u, 0x01u},
 584:Generated_Source\PSoC5/cyfitter_cfg.c **** 			{0x86u, 0x0Eu},
 585:Generated_Source\PSoC5/cyfitter_cfg.c **** 			{0x89u, 0x04u},
 586:Generated_Source\PSoC5/cyfitter_cfg.c **** 			{0x8Cu, 0x01u},
 587:Generated_Source\PSoC5/cyfitter_cfg.c **** 			{0x8Du, 0x02u},
 588:Generated_Source\PSoC5/cyfitter_cfg.c **** 			{0x8Eu, 0x06u},
 589:Generated_Source\PSoC5/cyfitter_cfg.c **** 			{0x8Fu, 0x04u},
 590:Generated_Source\PSoC5/cyfitter_cfg.c **** 			{0x93u, 0x01u},
 591:Generated_Source\PSoC5/cyfitter_cfg.c **** 			{0x97u, 0x02u},
 592:Generated_Source\PSoC5/cyfitter_cfg.c **** 			{0x98u, 0x0Cu},
 593:Generated_Source\PSoC5/cyfitter_cfg.c **** 			{0x9Au, 0x03u},
 594:Generated_Source\PSoC5/cyfitter_cfg.c **** 			{0x9Eu, 0x0Cu},
 595:Generated_Source\PSoC5/cyfitter_cfg.c **** 			{0xA2u, 0x08u},
 596:Generated_Source\PSoC5/cyfitter_cfg.c **** 			{0xAAu, 0x03u},
 597:Generated_Source\PSoC5/cyfitter_cfg.c **** 			{0xABu, 0x01u},
 598:Generated_Source\PSoC5/cyfitter_cfg.c **** 			{0xB1u, 0x01u},
 599:Generated_Source\PSoC5/cyfitter_cfg.c **** 			{0xB4u, 0x0Fu},
 600:Generated_Source\PSoC5/cyfitter_cfg.c **** 			{0xB5u, 0x06u},
 601:Generated_Source\PSoC5/cyfitter_cfg.c **** 			{0xBAu, 0x20u},
 602:Generated_Source\PSoC5/cyfitter_cfg.c **** 			{0xBFu, 0x11u},
 603:Generated_Source\PSoC5/cyfitter_cfg.c **** 			{0xC0u, 0x04u},
 604:Generated_Source\PSoC5/cyfitter_cfg.c **** 			{0xC6u, 0x04u},
 605:Generated_Source\PSoC5/cyfitter_cfg.c **** 			{0xC9u, 0xFFu},
 606:Generated_Source\PSoC5/cyfitter_cfg.c **** 			{0xCAu, 0x07u},
ARM GAS  C:\Users\DGILLI~1\AppData\Local\Temp\ccW7tEoj.s 			page 22


 607:Generated_Source\PSoC5/cyfitter_cfg.c **** 			{0xCBu, 0xFFu},
 608:Generated_Source\PSoC5/cyfitter_cfg.c **** 			{0xCCu, 0x40u},
 609:Generated_Source\PSoC5/cyfitter_cfg.c **** 			{0xCDu, 0x20u},
 610:Generated_Source\PSoC5/cyfitter_cfg.c **** 			{0xCEu, 0xF0u},
 611:Generated_Source\PSoC5/cyfitter_cfg.c **** 			{0xCFu, 0x05u},
 612:Generated_Source\PSoC5/cyfitter_cfg.c **** 			{0xD0u, 0x08u},
 613:Generated_Source\PSoC5/cyfitter_cfg.c **** 			{0xD8u, 0x04u},
 614:Generated_Source\PSoC5/cyfitter_cfg.c **** 			{0xD9u, 0x04u},
 615:Generated_Source\PSoC5/cyfitter_cfg.c **** 			{0xDAu, 0x04u},
 616:Generated_Source\PSoC5/cyfitter_cfg.c **** 			{0xDBu, 0x04u},
 617:Generated_Source\PSoC5/cyfitter_cfg.c **** 			{0xDCu, 0x01u},
 618:Generated_Source\PSoC5/cyfitter_cfg.c **** 			{0xDDu, 0x01u},
 619:Generated_Source\PSoC5/cyfitter_cfg.c **** 			{0xDFu, 0x01u},
 620:Generated_Source\PSoC5/cyfitter_cfg.c **** 			{0xE0u, 0x40u},
 621:Generated_Source\PSoC5/cyfitter_cfg.c **** 			{0xE1u, 0xA8u},
 622:Generated_Source\PSoC5/cyfitter_cfg.c **** 			{0xE2u, 0x40u},
 623:Generated_Source\PSoC5/cyfitter_cfg.c **** 			{0xE3u, 0x20u},
 624:Generated_Source\PSoC5/cyfitter_cfg.c **** 			{0x00u, 0x44u},
 625:Generated_Source\PSoC5/cyfitter_cfg.c **** 			{0x08u, 0x02u},
 626:Generated_Source\PSoC5/cyfitter_cfg.c **** 			{0x09u, 0x82u},
 627:Generated_Source\PSoC5/cyfitter_cfg.c **** 			{0x0Au, 0x04u},
 628:Generated_Source\PSoC5/cyfitter_cfg.c **** 			{0x0Du, 0x8Cu},
 629:Generated_Source\PSoC5/cyfitter_cfg.c **** 			{0x0Fu, 0x02u},
 630:Generated_Source\PSoC5/cyfitter_cfg.c **** 			{0x11u, 0x10u},
 631:Generated_Source\PSoC5/cyfitter_cfg.c **** 			{0x12u, 0x80u},
 632:Generated_Source\PSoC5/cyfitter_cfg.c **** 			{0x16u, 0x04u},
 633:Generated_Source\PSoC5/cyfitter_cfg.c **** 			{0x17u, 0x01u},
 634:Generated_Source\PSoC5/cyfitter_cfg.c **** 			{0x1Au, 0x0Cu},
 635:Generated_Source\PSoC5/cyfitter_cfg.c **** 			{0x1Bu, 0x20u},
 636:Generated_Source\PSoC5/cyfitter_cfg.c **** 			{0x1Eu, 0x28u},
 637:Generated_Source\PSoC5/cyfitter_cfg.c **** 			{0x21u, 0x22u},
 638:Generated_Source\PSoC5/cyfitter_cfg.c **** 			{0x24u, 0x20u},
 639:Generated_Source\PSoC5/cyfitter_cfg.c **** 			{0x2Au, 0x10u},
 640:Generated_Source\PSoC5/cyfitter_cfg.c **** 			{0x2Fu, 0x08u},
 641:Generated_Source\PSoC5/cyfitter_cfg.c **** 			{0x32u, 0x02u},
 642:Generated_Source\PSoC5/cyfitter_cfg.c **** 			{0x33u, 0x04u},
 643:Generated_Source\PSoC5/cyfitter_cfg.c **** 			{0x37u, 0x01u},
 644:Generated_Source\PSoC5/cyfitter_cfg.c **** 			{0x38u, 0x90u},
 645:Generated_Source\PSoC5/cyfitter_cfg.c **** 			{0x41u, 0x01u},
 646:Generated_Source\PSoC5/cyfitter_cfg.c **** 			{0x51u, 0x10u},
 647:Generated_Source\PSoC5/cyfitter_cfg.c **** 			{0x52u, 0x80u},
 648:Generated_Source\PSoC5/cyfitter_cfg.c **** 			{0x58u, 0x15u},
 649:Generated_Source\PSoC5/cyfitter_cfg.c **** 			{0x5Au, 0x80u},
 650:Generated_Source\PSoC5/cyfitter_cfg.c **** 			{0x5Cu, 0x28u},
 651:Generated_Source\PSoC5/cyfitter_cfg.c **** 			{0x5Du, 0x02u},
 652:Generated_Source\PSoC5/cyfitter_cfg.c **** 			{0x5Fu, 0x40u},
 653:Generated_Source\PSoC5/cyfitter_cfg.c **** 			{0x62u, 0x20u},
 654:Generated_Source\PSoC5/cyfitter_cfg.c **** 			{0x63u, 0xA1u},
 655:Generated_Source\PSoC5/cyfitter_cfg.c **** 			{0x65u, 0x20u},
 656:Generated_Source\PSoC5/cyfitter_cfg.c **** 			{0x66u, 0x0Au},
 657:Generated_Source\PSoC5/cyfitter_cfg.c **** 			{0x67u, 0x02u},
 658:Generated_Source\PSoC5/cyfitter_cfg.c **** 			{0x68u, 0x64u},
 659:Generated_Source\PSoC5/cyfitter_cfg.c **** 			{0x6Au, 0x40u},
 660:Generated_Source\PSoC5/cyfitter_cfg.c **** 			{0x71u, 0x40u},
 661:Generated_Source\PSoC5/cyfitter_cfg.c **** 			{0x79u, 0x30u},
 662:Generated_Source\PSoC5/cyfitter_cfg.c **** 			{0x80u, 0x01u},
 663:Generated_Source\PSoC5/cyfitter_cfg.c **** 			{0x81u, 0x05u},
ARM GAS  C:\Users\DGILLI~1\AppData\Local\Temp\ccW7tEoj.s 			page 23


 664:Generated_Source\PSoC5/cyfitter_cfg.c **** 			{0x83u, 0x01u},
 665:Generated_Source\PSoC5/cyfitter_cfg.c **** 			{0x84u, 0x40u},
 666:Generated_Source\PSoC5/cyfitter_cfg.c **** 			{0x86u, 0x10u},
 667:Generated_Source\PSoC5/cyfitter_cfg.c **** 			{0x87u, 0x02u},
 668:Generated_Source\PSoC5/cyfitter_cfg.c **** 			{0x88u, 0x10u},
 669:Generated_Source\PSoC5/cyfitter_cfg.c **** 			{0x89u, 0x02u},
 670:Generated_Source\PSoC5/cyfitter_cfg.c **** 			{0x8Cu, 0x28u},
 671:Generated_Source\PSoC5/cyfitter_cfg.c **** 			{0x8Du, 0x20u},
 672:Generated_Source\PSoC5/cyfitter_cfg.c **** 			{0x90u, 0x16u},
 673:Generated_Source\PSoC5/cyfitter_cfg.c **** 			{0x92u, 0x90u},
 674:Generated_Source\PSoC5/cyfitter_cfg.c **** 			{0x94u, 0x40u},
 675:Generated_Source\PSoC5/cyfitter_cfg.c **** 			{0x95u, 0x11u},
 676:Generated_Source\PSoC5/cyfitter_cfg.c **** 			{0x98u, 0x05u},
 677:Generated_Source\PSoC5/cyfitter_cfg.c **** 			{0x9Bu, 0x80u},
 678:Generated_Source\PSoC5/cyfitter_cfg.c **** 			{0x9Fu, 0x01u},
 679:Generated_Source\PSoC5/cyfitter_cfg.c **** 			{0xA1u, 0x08u},
 680:Generated_Source\PSoC5/cyfitter_cfg.c **** 			{0xA6u, 0x80u},
 681:Generated_Source\PSoC5/cyfitter_cfg.c **** 			{0xA7u, 0x21u},
 682:Generated_Source\PSoC5/cyfitter_cfg.c **** 			{0xA8u, 0x02u},
 683:Generated_Source\PSoC5/cyfitter_cfg.c **** 			{0xABu, 0x02u},
 684:Generated_Source\PSoC5/cyfitter_cfg.c **** 			{0xACu, 0x20u},
 685:Generated_Source\PSoC5/cyfitter_cfg.c **** 			{0xAEu, 0x40u},
 686:Generated_Source\PSoC5/cyfitter_cfg.c **** 			{0xB0u, 0x05u},
 687:Generated_Source\PSoC5/cyfitter_cfg.c **** 			{0xB7u, 0x01u},
 688:Generated_Source\PSoC5/cyfitter_cfg.c **** 			{0xC0u, 0x05u},
 689:Generated_Source\PSoC5/cyfitter_cfg.c **** 			{0xC2u, 0x23u},
 690:Generated_Source\PSoC5/cyfitter_cfg.c **** 			{0xC4u, 0x5Au},
 691:Generated_Source\PSoC5/cyfitter_cfg.c **** 			{0xCAu, 0x24u},
 692:Generated_Source\PSoC5/cyfitter_cfg.c **** 			{0xCCu, 0x83u},
 693:Generated_Source\PSoC5/cyfitter_cfg.c **** 			{0xCEu, 0x0Cu},
 694:Generated_Source\PSoC5/cyfitter_cfg.c **** 			{0xD0u, 0x01u},
 695:Generated_Source\PSoC5/cyfitter_cfg.c **** 			{0xD6u, 0xFFu},
 696:Generated_Source\PSoC5/cyfitter_cfg.c **** 			{0xD8u, 0xFFu},
 697:Generated_Source\PSoC5/cyfitter_cfg.c **** 			{0xE0u, 0xC6u},
 698:Generated_Source\PSoC5/cyfitter_cfg.c **** 			{0xE4u, 0x03u},
 699:Generated_Source\PSoC5/cyfitter_cfg.c **** 			{0xE8u, 0x40u},
 700:Generated_Source\PSoC5/cyfitter_cfg.c **** 			{0xEEu, 0x08u},
 701:Generated_Source\PSoC5/cyfitter_cfg.c **** 			{0x01u, 0x10u},
 702:Generated_Source\PSoC5/cyfitter_cfg.c **** 			{0x05u, 0x08u},
 703:Generated_Source\PSoC5/cyfitter_cfg.c **** 			{0x09u, 0x18u},
 704:Generated_Source\PSoC5/cyfitter_cfg.c **** 			{0x0Fu, 0x21u},
 705:Generated_Source\PSoC5/cyfitter_cfg.c **** 			{0x11u, 0x19u},
 706:Generated_Source\PSoC5/cyfitter_cfg.c **** 			{0x13u, 0x02u},
 707:Generated_Source\PSoC5/cyfitter_cfg.c **** 			{0x15u, 0x1Fu},
 708:Generated_Source\PSoC5/cyfitter_cfg.c **** 			{0x19u, 0x19u},
 709:Generated_Source\PSoC5/cyfitter_cfg.c **** 			{0x1Bu, 0x04u},
 710:Generated_Source\PSoC5/cyfitter_cfg.c **** 			{0x1Du, 0x21u},
 711:Generated_Source\PSoC5/cyfitter_cfg.c **** 			{0x23u, 0x01u},
 712:Generated_Source\PSoC5/cyfitter_cfg.c **** 			{0x2Bu, 0x06u},
 713:Generated_Source\PSoC5/cyfitter_cfg.c **** 			{0x2Du, 0x07u},
 714:Generated_Source\PSoC5/cyfitter_cfg.c **** 			{0x2Fu, 0x18u},
 715:Generated_Source\PSoC5/cyfitter_cfg.c **** 			{0x35u, 0x1Fu},
 716:Generated_Source\PSoC5/cyfitter_cfg.c **** 			{0x37u, 0x20u},
 717:Generated_Source\PSoC5/cyfitter_cfg.c **** 			{0x39u, 0x80u},
 718:Generated_Source\PSoC5/cyfitter_cfg.c **** 			{0x3Bu, 0x28u},
 719:Generated_Source\PSoC5/cyfitter_cfg.c **** 			{0x56u, 0x02u},
 720:Generated_Source\PSoC5/cyfitter_cfg.c **** 			{0x57u, 0x12u},
ARM GAS  C:\Users\DGILLI~1\AppData\Local\Temp\ccW7tEoj.s 			page 24


 721:Generated_Source\PSoC5/cyfitter_cfg.c **** 			{0x59u, 0x04u},
 722:Generated_Source\PSoC5/cyfitter_cfg.c **** 			{0x5Bu, 0x04u},
 723:Generated_Source\PSoC5/cyfitter_cfg.c **** 			{0x5Cu, 0x10u},
 724:Generated_Source\PSoC5/cyfitter_cfg.c **** 			{0x5Du, 0x10u},
 725:Generated_Source\PSoC5/cyfitter_cfg.c **** 			{0x5Fu, 0x01u},
 726:Generated_Source\PSoC5/cyfitter_cfg.c **** 			{0x84u, 0x06u},
 727:Generated_Source\PSoC5/cyfitter_cfg.c **** 			{0x86u, 0x08u},
 728:Generated_Source\PSoC5/cyfitter_cfg.c **** 			{0x8Cu, 0x06u},
 729:Generated_Source\PSoC5/cyfitter_cfg.c **** 			{0x8Eu, 0x18u},
 730:Generated_Source\PSoC5/cyfitter_cfg.c **** 			{0x92u, 0x01u},
 731:Generated_Source\PSoC5/cyfitter_cfg.c **** 			{0x93u, 0x01u},
 732:Generated_Source\PSoC5/cyfitter_cfg.c **** 			{0x94u, 0x06u},
 733:Generated_Source\PSoC5/cyfitter_cfg.c **** 			{0x96u, 0x08u},
 734:Generated_Source\PSoC5/cyfitter_cfg.c **** 			{0x98u, 0x14u},
 735:Generated_Source\PSoC5/cyfitter_cfg.c **** 			{0x9Au, 0x08u},
 736:Generated_Source\PSoC5/cyfitter_cfg.c **** 			{0x9Eu, 0x10u},
 737:Generated_Source\PSoC5/cyfitter_cfg.c **** 			{0x9Fu, 0x01u},
 738:Generated_Source\PSoC5/cyfitter_cfg.c **** 			{0xA2u, 0x01u},
 739:Generated_Source\PSoC5/cyfitter_cfg.c **** 			{0xAAu, 0x0Au},
 740:Generated_Source\PSoC5/cyfitter_cfg.c **** 			{0xB0u, 0x1Eu},
 741:Generated_Source\PSoC5/cyfitter_cfg.c **** 			{0xB1u, 0x01u},
 742:Generated_Source\PSoC5/cyfitter_cfg.c **** 			{0xB2u, 0x01u},
 743:Generated_Source\PSoC5/cyfitter_cfg.c **** 			{0xBAu, 0x02u},
 744:Generated_Source\PSoC5/cyfitter_cfg.c **** 			{0xBEu, 0x04u},
 745:Generated_Source\PSoC5/cyfitter_cfg.c **** 			{0xBFu, 0x01u},
 746:Generated_Source\PSoC5/cyfitter_cfg.c **** 			{0xD4u, 0x01u},
 747:Generated_Source\PSoC5/cyfitter_cfg.c **** 			{0xD8u, 0x04u},
 748:Generated_Source\PSoC5/cyfitter_cfg.c **** 			{0xD9u, 0x04u},
 749:Generated_Source\PSoC5/cyfitter_cfg.c **** 			{0xDBu, 0x04u},
 750:Generated_Source\PSoC5/cyfitter_cfg.c **** 			{0xDCu, 0x01u},
 751:Generated_Source\PSoC5/cyfitter_cfg.c **** 			{0xDDu, 0x10u},
 752:Generated_Source\PSoC5/cyfitter_cfg.c **** 			{0xDFu, 0x01u},
 753:Generated_Source\PSoC5/cyfitter_cfg.c **** 			{0x04u, 0x44u},
 754:Generated_Source\PSoC5/cyfitter_cfg.c **** 			{0x0Eu, 0x94u},
 755:Generated_Source\PSoC5/cyfitter_cfg.c **** 			{0x0Fu, 0x02u},
 756:Generated_Source\PSoC5/cyfitter_cfg.c **** 			{0x15u, 0xA0u},
 757:Generated_Source\PSoC5/cyfitter_cfg.c **** 			{0x16u, 0x01u},
 758:Generated_Source\PSoC5/cyfitter_cfg.c **** 			{0x17u, 0x01u},
 759:Generated_Source\PSoC5/cyfitter_cfg.c **** 			{0x1Cu, 0x40u},
 760:Generated_Source\PSoC5/cyfitter_cfg.c **** 			{0x1Du, 0x08u},
 761:Generated_Source\PSoC5/cyfitter_cfg.c **** 			{0x21u, 0x40u},
 762:Generated_Source\PSoC5/cyfitter_cfg.c **** 			{0x22u, 0x18u},
 763:Generated_Source\PSoC5/cyfitter_cfg.c **** 			{0x26u, 0x01u},
 764:Generated_Source\PSoC5/cyfitter_cfg.c **** 			{0x29u, 0x10u},
 765:Generated_Source\PSoC5/cyfitter_cfg.c **** 			{0x2Au, 0x01u},
 766:Generated_Source\PSoC5/cyfitter_cfg.c **** 			{0x2Bu, 0x02u},
 767:Generated_Source\PSoC5/cyfitter_cfg.c **** 			{0x32u, 0x99u},
 768:Generated_Source\PSoC5/cyfitter_cfg.c **** 			{0x35u, 0x80u},
 769:Generated_Source\PSoC5/cyfitter_cfg.c **** 			{0x37u, 0x01u},
 770:Generated_Source\PSoC5/cyfitter_cfg.c **** 			{0x38u, 0x80u},
 771:Generated_Source\PSoC5/cyfitter_cfg.c **** 			{0x3Au, 0x2Au},
 772:Generated_Source\PSoC5/cyfitter_cfg.c **** 			{0x59u, 0x04u},
 773:Generated_Source\PSoC5/cyfitter_cfg.c **** 			{0x5Eu, 0x19u},
 774:Generated_Source\PSoC5/cyfitter_cfg.c **** 			{0x5Fu, 0x80u},
 775:Generated_Source\PSoC5/cyfitter_cfg.c **** 			{0x69u, 0x54u},
 776:Generated_Source\PSoC5/cyfitter_cfg.c **** 			{0x6Du, 0xAAu},
 777:Generated_Source\PSoC5/cyfitter_cfg.c **** 			{0x72u, 0x2Au},
ARM GAS  C:\Users\DGILLI~1\AppData\Local\Temp\ccW7tEoj.s 			page 25


 778:Generated_Source\PSoC5/cyfitter_cfg.c **** 			{0x73u, 0x18u},
 779:Generated_Source\PSoC5/cyfitter_cfg.c **** 			{0x74u, 0x61u},
 780:Generated_Source\PSoC5/cyfitter_cfg.c **** 			{0x77u, 0x10u},
 781:Generated_Source\PSoC5/cyfitter_cfg.c **** 			{0x80u, 0x20u},
 782:Generated_Source\PSoC5/cyfitter_cfg.c **** 			{0x85u, 0x08u},
 783:Generated_Source\PSoC5/cyfitter_cfg.c **** 			{0x88u, 0x40u},
 784:Generated_Source\PSoC5/cyfitter_cfg.c **** 			{0x8Au, 0x02u},
 785:Generated_Source\PSoC5/cyfitter_cfg.c **** 			{0x8Bu, 0x08u},
 786:Generated_Source\PSoC5/cyfitter_cfg.c **** 			{0x8Du, 0x10u},
 787:Generated_Source\PSoC5/cyfitter_cfg.c **** 			{0x90u, 0x04u},
 788:Generated_Source\PSoC5/cyfitter_cfg.c **** 			{0x91u, 0x20u},
 789:Generated_Source\PSoC5/cyfitter_cfg.c **** 			{0x92u, 0x1Du},
 790:Generated_Source\PSoC5/cyfitter_cfg.c **** 			{0x94u, 0xC0u},
 791:Generated_Source\PSoC5/cyfitter_cfg.c **** 			{0x95u, 0x03u},
 792:Generated_Source\PSoC5/cyfitter_cfg.c **** 			{0x98u, 0x02u},
 793:Generated_Source\PSoC5/cyfitter_cfg.c **** 			{0x99u, 0x40u},
 794:Generated_Source\PSoC5/cyfitter_cfg.c **** 			{0x9Bu, 0x80u},
 795:Generated_Source\PSoC5/cyfitter_cfg.c **** 			{0x9Eu, 0x14u},
 796:Generated_Source\PSoC5/cyfitter_cfg.c **** 			{0x9Fu, 0x07u},
 797:Generated_Source\PSoC5/cyfitter_cfg.c **** 			{0xA0u, 0x04u},
 798:Generated_Source\PSoC5/cyfitter_cfg.c **** 			{0xA2u, 0x04u},
 799:Generated_Source\PSoC5/cyfitter_cfg.c **** 			{0xA5u, 0x05u},
 800:Generated_Source\PSoC5/cyfitter_cfg.c **** 			{0xA6u, 0x22u},
 801:Generated_Source\PSoC5/cyfitter_cfg.c **** 			{0xA7u, 0x59u},
 802:Generated_Source\PSoC5/cyfitter_cfg.c **** 			{0xAAu, 0x40u},
 803:Generated_Source\PSoC5/cyfitter_cfg.c **** 			{0xABu, 0x01u},
 804:Generated_Source\PSoC5/cyfitter_cfg.c **** 			{0xAFu, 0x40u},
 805:Generated_Source\PSoC5/cyfitter_cfg.c **** 			{0xB0u, 0x20u},
 806:Generated_Source\PSoC5/cyfitter_cfg.c **** 			{0xB1u, 0x24u},
 807:Generated_Source\PSoC5/cyfitter_cfg.c **** 			{0xB2u, 0x01u},
 808:Generated_Source\PSoC5/cyfitter_cfg.c **** 			{0xB4u, 0x10u},
 809:Generated_Source\PSoC5/cyfitter_cfg.c **** 			{0xB6u, 0x0Au},
 810:Generated_Source\PSoC5/cyfitter_cfg.c **** 			{0xC0u, 0xA0u},
 811:Generated_Source\PSoC5/cyfitter_cfg.c **** 			{0xC2u, 0xF0u},
 812:Generated_Source\PSoC5/cyfitter_cfg.c **** 			{0xC4u, 0x50u},
 813:Generated_Source\PSoC5/cyfitter_cfg.c **** 			{0xCAu, 0x0Du},
 814:Generated_Source\PSoC5/cyfitter_cfg.c **** 			{0xCCu, 0x9Fu},
 815:Generated_Source\PSoC5/cyfitter_cfg.c **** 			{0xCEu, 0x0Fu},
 816:Generated_Source\PSoC5/cyfitter_cfg.c **** 			{0xD6u, 0xF2u},
 817:Generated_Source\PSoC5/cyfitter_cfg.c **** 			{0xE6u, 0x20u},
 818:Generated_Source\PSoC5/cyfitter_cfg.c **** 			{0xE8u, 0xF4u},
 819:Generated_Source\PSoC5/cyfitter_cfg.c **** 			{0xEEu, 0x40u},
 820:Generated_Source\PSoC5/cyfitter_cfg.c **** 			{0x0Bu, 0x01u},
 821:Generated_Source\PSoC5/cyfitter_cfg.c **** 			{0x0Eu, 0x01u},
 822:Generated_Source\PSoC5/cyfitter_cfg.c **** 			{0x13u, 0x01u},
 823:Generated_Source\PSoC5/cyfitter_cfg.c **** 			{0x2Au, 0x01u},
 824:Generated_Source\PSoC5/cyfitter_cfg.c **** 			{0x36u, 0x01u},
 825:Generated_Source\PSoC5/cyfitter_cfg.c **** 			{0x37u, 0x01u},
 826:Generated_Source\PSoC5/cyfitter_cfg.c **** 			{0x3Eu, 0x40u},
 827:Generated_Source\PSoC5/cyfitter_cfg.c **** 			{0x3Fu, 0x40u},
 828:Generated_Source\PSoC5/cyfitter_cfg.c **** 			{0x54u, 0x18u},
 829:Generated_Source\PSoC5/cyfitter_cfg.c **** 			{0x58u, 0x04u},
 830:Generated_Source\PSoC5/cyfitter_cfg.c **** 			{0x59u, 0x04u},
 831:Generated_Source\PSoC5/cyfitter_cfg.c **** 			{0x5Bu, 0x04u},
 832:Generated_Source\PSoC5/cyfitter_cfg.c **** 			{0x5Du, 0x10u},
 833:Generated_Source\PSoC5/cyfitter_cfg.c **** 			{0x5Fu, 0x01u},
 834:Generated_Source\PSoC5/cyfitter_cfg.c **** 			{0x80u, 0x02u},
ARM GAS  C:\Users\DGILLI~1\AppData\Local\Temp\ccW7tEoj.s 			page 26


 835:Generated_Source\PSoC5/cyfitter_cfg.c **** 			{0x84u, 0x01u},
 836:Generated_Source\PSoC5/cyfitter_cfg.c **** 			{0x85u, 0x06u},
 837:Generated_Source\PSoC5/cyfitter_cfg.c **** 			{0x88u, 0x08u},
 838:Generated_Source\PSoC5/cyfitter_cfg.c **** 			{0x8Bu, 0x02u},
 839:Generated_Source\PSoC5/cyfitter_cfg.c **** 			{0x8Cu, 0x04u},
 840:Generated_Source\PSoC5/cyfitter_cfg.c **** 			{0x8Du, 0x06u},
 841:Generated_Source\PSoC5/cyfitter_cfg.c **** 			{0x95u, 0x04u},
 842:Generated_Source\PSoC5/cyfitter_cfg.c **** 			{0x96u, 0x04u},
 843:Generated_Source\PSoC5/cyfitter_cfg.c **** 			{0x9Au, 0x01u},
 844:Generated_Source\PSoC5/cyfitter_cfg.c **** 			{0x9Eu, 0x04u},
 845:Generated_Source\PSoC5/cyfitter_cfg.c **** 			{0xA0u, 0x01u},
 846:Generated_Source\PSoC5/cyfitter_cfg.c **** 			{0xA3u, 0x01u},
 847:Generated_Source\PSoC5/cyfitter_cfg.c **** 			{0xA4u, 0x08u},
 848:Generated_Source\PSoC5/cyfitter_cfg.c **** 			{0xA8u, 0x04u},
 849:Generated_Source\PSoC5/cyfitter_cfg.c **** 			{0xABu, 0x01u},
 850:Generated_Source\PSoC5/cyfitter_cfg.c **** 			{0xACu, 0x08u},
 851:Generated_Source\PSoC5/cyfitter_cfg.c **** 			{0xB0u, 0x03u},
 852:Generated_Source\PSoC5/cyfitter_cfg.c **** 			{0xB1u, 0x06u},
 853:Generated_Source\PSoC5/cyfitter_cfg.c **** 			{0xB2u, 0x04u},
 854:Generated_Source\PSoC5/cyfitter_cfg.c **** 			{0xB4u, 0x08u},
 855:Generated_Source\PSoC5/cyfitter_cfg.c **** 			{0xB5u, 0x01u},
 856:Generated_Source\PSoC5/cyfitter_cfg.c **** 			{0xB8u, 0x0Au},
 857:Generated_Source\PSoC5/cyfitter_cfg.c **** 			{0xB9u, 0x02u},
 858:Generated_Source\PSoC5/cyfitter_cfg.c **** 			{0xBFu, 0x11u},
 859:Generated_Source\PSoC5/cyfitter_cfg.c **** 			{0xD6u, 0x08u},
 860:Generated_Source\PSoC5/cyfitter_cfg.c **** 			{0xD8u, 0x04u},
 861:Generated_Source\PSoC5/cyfitter_cfg.c **** 			{0xD9u, 0x04u},
 862:Generated_Source\PSoC5/cyfitter_cfg.c **** 			{0xDBu, 0x04u},
 863:Generated_Source\PSoC5/cyfitter_cfg.c **** 			{0xDCu, 0x01u},
 864:Generated_Source\PSoC5/cyfitter_cfg.c **** 			{0xDDu, 0x90u},
 865:Generated_Source\PSoC5/cyfitter_cfg.c **** 			{0xDFu, 0x01u},
 866:Generated_Source\PSoC5/cyfitter_cfg.c **** 			{0x00u, 0x04u},
 867:Generated_Source\PSoC5/cyfitter_cfg.c **** 			{0x01u, 0x10u},
 868:Generated_Source\PSoC5/cyfitter_cfg.c **** 			{0x03u, 0x42u},
 869:Generated_Source\PSoC5/cyfitter_cfg.c **** 			{0x07u, 0x01u},
 870:Generated_Source\PSoC5/cyfitter_cfg.c **** 			{0x0Au, 0x2Au},
 871:Generated_Source\PSoC5/cyfitter_cfg.c **** 			{0x11u, 0x44u},
 872:Generated_Source\PSoC5/cyfitter_cfg.c **** 			{0x12u, 0x48u},
 873:Generated_Source\PSoC5/cyfitter_cfg.c **** 			{0x17u, 0x10u},
 874:Generated_Source\PSoC5/cyfitter_cfg.c **** 			{0x19u, 0x10u},
 875:Generated_Source\PSoC5/cyfitter_cfg.c **** 			{0x1Au, 0x04u},
 876:Generated_Source\PSoC5/cyfitter_cfg.c **** 			{0x1Bu, 0x05u},
 877:Generated_Source\PSoC5/cyfitter_cfg.c **** 			{0x1Eu, 0x02u},
 878:Generated_Source\PSoC5/cyfitter_cfg.c **** 			{0x21u, 0x01u},
 879:Generated_Source\PSoC5/cyfitter_cfg.c **** 			{0x23u, 0x04u},
 880:Generated_Source\PSoC5/cyfitter_cfg.c **** 			{0x24u, 0x02u},
 881:Generated_Source\PSoC5/cyfitter_cfg.c **** 			{0x2Au, 0x01u},
 882:Generated_Source\PSoC5/cyfitter_cfg.c **** 			{0x2Bu, 0x04u},
 883:Generated_Source\PSoC5/cyfitter_cfg.c **** 			{0x32u, 0x04u},
 884:Generated_Source\PSoC5/cyfitter_cfg.c **** 			{0x37u, 0x01u},
 885:Generated_Source\PSoC5/cyfitter_cfg.c **** 			{0x38u, 0x54u},
 886:Generated_Source\PSoC5/cyfitter_cfg.c **** 			{0x39u, 0x20u},
 887:Generated_Source\PSoC5/cyfitter_cfg.c **** 			{0x3Au, 0x40u},
 888:Generated_Source\PSoC5/cyfitter_cfg.c **** 			{0x3Eu, 0x20u},
 889:Generated_Source\PSoC5/cyfitter_cfg.c **** 			{0x58u, 0x10u},
 890:Generated_Source\PSoC5/cyfitter_cfg.c **** 			{0x5Au, 0x80u},
 891:Generated_Source\PSoC5/cyfitter_cfg.c **** 			{0x5Du, 0x02u},
ARM GAS  C:\Users\DGILLI~1\AppData\Local\Temp\ccW7tEoj.s 			page 27


 892:Generated_Source\PSoC5/cyfitter_cfg.c **** 			{0x60u, 0x08u},
 893:Generated_Source\PSoC5/cyfitter_cfg.c **** 			{0x62u, 0x80u},
 894:Generated_Source\PSoC5/cyfitter_cfg.c **** 			{0x64u, 0x02u},
 895:Generated_Source\PSoC5/cyfitter_cfg.c **** 			{0x67u, 0x04u},
 896:Generated_Source\PSoC5/cyfitter_cfg.c **** 			{0x68u, 0xA0u},
 897:Generated_Source\PSoC5/cyfitter_cfg.c **** 			{0x6Bu, 0x06u},
 898:Generated_Source\PSoC5/cyfitter_cfg.c **** 			{0x6Du, 0x01u},
 899:Generated_Source\PSoC5/cyfitter_cfg.c **** 			{0x6Eu, 0x80u},
 900:Generated_Source\PSoC5/cyfitter_cfg.c **** 			{0x6Fu, 0x18u},
 901:Generated_Source\PSoC5/cyfitter_cfg.c **** 			{0x70u, 0x40u},
 902:Generated_Source\PSoC5/cyfitter_cfg.c **** 			{0x73u, 0x01u},
 903:Generated_Source\PSoC5/cyfitter_cfg.c **** 			{0x75u, 0x80u},
 904:Generated_Source\PSoC5/cyfitter_cfg.c **** 			{0x76u, 0xA4u},
 905:Generated_Source\PSoC5/cyfitter_cfg.c **** 			{0x80u, 0x05u},
 906:Generated_Source\PSoC5/cyfitter_cfg.c **** 			{0x84u, 0x14u},
 907:Generated_Source\PSoC5/cyfitter_cfg.c **** 			{0x88u, 0x58u},
 908:Generated_Source\PSoC5/cyfitter_cfg.c **** 			{0x8Cu, 0x80u},
 909:Generated_Source\PSoC5/cyfitter_cfg.c **** 			{0x8Eu, 0x01u},
 910:Generated_Source\PSoC5/cyfitter_cfg.c **** 			{0x90u, 0x44u},
 911:Generated_Source\PSoC5/cyfitter_cfg.c **** 			{0x91u, 0x74u},
 912:Generated_Source\PSoC5/cyfitter_cfg.c **** 			{0x92u, 0x28u},
 913:Generated_Source\PSoC5/cyfitter_cfg.c **** 			{0x93u, 0x10u},
 914:Generated_Source\PSoC5/cyfitter_cfg.c **** 			{0x94u, 0x80u},
 915:Generated_Source\PSoC5/cyfitter_cfg.c **** 			{0x95u, 0x03u},
 916:Generated_Source\PSoC5/cyfitter_cfg.c **** 			{0x96u, 0x02u},
 917:Generated_Source\PSoC5/cyfitter_cfg.c **** 			{0x98u, 0x02u},
 918:Generated_Source\PSoC5/cyfitter_cfg.c **** 			{0x99u, 0x40u},
 919:Generated_Source\PSoC5/cyfitter_cfg.c **** 			{0x9Au, 0x02u},
 920:Generated_Source\PSoC5/cyfitter_cfg.c **** 			{0x9Du, 0x94u},
 921:Generated_Source\PSoC5/cyfitter_cfg.c **** 			{0x9Eu, 0x14u},
 922:Generated_Source\PSoC5/cyfitter_cfg.c **** 			{0x9Fu, 0x07u},
 923:Generated_Source\PSoC5/cyfitter_cfg.c **** 			{0xA0u, 0x04u},
 924:Generated_Source\PSoC5/cyfitter_cfg.c **** 			{0xA2u, 0x08u},
 925:Generated_Source\PSoC5/cyfitter_cfg.c **** 			{0xA6u, 0xE2u},
 926:Generated_Source\PSoC5/cyfitter_cfg.c **** 			{0xA7u, 0x0Bu},
 927:Generated_Source\PSoC5/cyfitter_cfg.c **** 			{0xABu, 0x50u},
 928:Generated_Source\PSoC5/cyfitter_cfg.c **** 			{0xACu, 0x01u},
 929:Generated_Source\PSoC5/cyfitter_cfg.c **** 			{0xAEu, 0x20u},
 930:Generated_Source\PSoC5/cyfitter_cfg.c **** 			{0xB1u, 0x40u},
 931:Generated_Source\PSoC5/cyfitter_cfg.c **** 			{0xB6u, 0x01u},
 932:Generated_Source\PSoC5/cyfitter_cfg.c **** 			{0xB7u, 0x10u},
 933:Generated_Source\PSoC5/cyfitter_cfg.c **** 			{0xC0u, 0x8Fu},
 934:Generated_Source\PSoC5/cyfitter_cfg.c **** 			{0xC2u, 0x07u},
 935:Generated_Source\PSoC5/cyfitter_cfg.c **** 			{0xC4u, 0x4Fu},
 936:Generated_Source\PSoC5/cyfitter_cfg.c **** 			{0xCAu, 0x05u},
 937:Generated_Source\PSoC5/cyfitter_cfg.c **** 			{0xCCu, 0x82u},
 938:Generated_Source\PSoC5/cyfitter_cfg.c **** 			{0xCEu, 0x2Eu},
 939:Generated_Source\PSoC5/cyfitter_cfg.c **** 			{0xD6u, 0x8Cu},
 940:Generated_Source\PSoC5/cyfitter_cfg.c **** 			{0xD8u, 0x3Cu},
 941:Generated_Source\PSoC5/cyfitter_cfg.c **** 			{0xE0u, 0x08u},
 942:Generated_Source\PSoC5/cyfitter_cfg.c **** 			{0xE2u, 0x10u},
 943:Generated_Source\PSoC5/cyfitter_cfg.c **** 			{0xE4u, 0x03u},
 944:Generated_Source\PSoC5/cyfitter_cfg.c **** 			{0xE6u, 0x88u},
 945:Generated_Source\PSoC5/cyfitter_cfg.c **** 			{0xE8u, 0x08u},
 946:Generated_Source\PSoC5/cyfitter_cfg.c **** 			{0xEAu, 0x10u},
 947:Generated_Source\PSoC5/cyfitter_cfg.c **** 			{0xEEu, 0x40u},
 948:Generated_Source\PSoC5/cyfitter_cfg.c **** 			{0x81u, 0x20u},
ARM GAS  C:\Users\DGILLI~1\AppData\Local\Temp\ccW7tEoj.s 			page 28


 949:Generated_Source\PSoC5/cyfitter_cfg.c **** 			{0x83u, 0x04u},
 950:Generated_Source\PSoC5/cyfitter_cfg.c **** 			{0x86u, 0x02u},
 951:Generated_Source\PSoC5/cyfitter_cfg.c **** 			{0x90u, 0x04u},
 952:Generated_Source\PSoC5/cyfitter_cfg.c **** 			{0x93u, 0x10u},
 953:Generated_Source\PSoC5/cyfitter_cfg.c **** 			{0x95u, 0x88u},
 954:Generated_Source\PSoC5/cyfitter_cfg.c **** 			{0x98u, 0x02u},
 955:Generated_Source\PSoC5/cyfitter_cfg.c **** 			{0x99u, 0x40u},
 956:Generated_Source\PSoC5/cyfitter_cfg.c **** 			{0xA1u, 0x08u},
 957:Generated_Source\PSoC5/cyfitter_cfg.c **** 			{0xA3u, 0x03u},
 958:Generated_Source\PSoC5/cyfitter_cfg.c **** 			{0xA4u, 0x40u},
 959:Generated_Source\PSoC5/cyfitter_cfg.c **** 			{0xA9u, 0x40u},
 960:Generated_Source\PSoC5/cyfitter_cfg.c **** 			{0xAFu, 0x10u},
 961:Generated_Source\PSoC5/cyfitter_cfg.c **** 			{0xE0u, 0x0Cu},
 962:Generated_Source\PSoC5/cyfitter_cfg.c **** 			{0xE2u, 0x23u},
 963:Generated_Source\PSoC5/cyfitter_cfg.c **** 			{0xE4u, 0x43u},
 964:Generated_Source\PSoC5/cyfitter_cfg.c **** 			{0xE6u, 0x88u},
 965:Generated_Source\PSoC5/cyfitter_cfg.c **** 			{0xE8u, 0x01u},
 966:Generated_Source\PSoC5/cyfitter_cfg.c **** 			{0xECu, 0x20u},
 967:Generated_Source\PSoC5/cyfitter_cfg.c **** 			{0x84u, 0x40u},
 968:Generated_Source\PSoC5/cyfitter_cfg.c **** 			{0x85u, 0x04u},
 969:Generated_Source\PSoC5/cyfitter_cfg.c **** 			{0x8Bu, 0x03u},
 970:Generated_Source\PSoC5/cyfitter_cfg.c **** 			{0x90u, 0x04u},
 971:Generated_Source\PSoC5/cyfitter_cfg.c **** 			{0x98u, 0x02u},
 972:Generated_Source\PSoC5/cyfitter_cfg.c **** 			{0x99u, 0x40u},
 973:Generated_Source\PSoC5/cyfitter_cfg.c **** 			{0xA1u, 0x08u},
 974:Generated_Source\PSoC5/cyfitter_cfg.c **** 			{0xB0u, 0x02u},
 975:Generated_Source\PSoC5/cyfitter_cfg.c **** 			{0xB1u, 0x08u},
 976:Generated_Source\PSoC5/cyfitter_cfg.c **** 			{0xB4u, 0x04u},
 977:Generated_Source\PSoC5/cyfitter_cfg.c **** 			{0xE0u, 0x8Au},
 978:Generated_Source\PSoC5/cyfitter_cfg.c **** 			{0xE4u, 0x90u},
 979:Generated_Source\PSoC5/cyfitter_cfg.c **** 			{0xE8u, 0x04u},
 980:Generated_Source\PSoC5/cyfitter_cfg.c **** 			{0x89u, 0x40u},
 981:Generated_Source\PSoC5/cyfitter_cfg.c **** 			{0xE0u, 0x06u},
 982:Generated_Source\PSoC5/cyfitter_cfg.c **** 			{0xE2u, 0x20u},
 983:Generated_Source\PSoC5/cyfitter_cfg.c **** 			{0xE4u, 0x53u},
 984:Generated_Source\PSoC5/cyfitter_cfg.c **** 			{0xEEu, 0xA8u},
 985:Generated_Source\PSoC5/cyfitter_cfg.c **** 			{0xE2u, 0x54u},
 986:Generated_Source\PSoC5/cyfitter_cfg.c **** 			{0x00u, 0x01u},
 987:Generated_Source\PSoC5/cyfitter_cfg.c **** 			{0x01u, 0x01u},
 988:Generated_Source\PSoC5/cyfitter_cfg.c **** 			{0x05u, 0x02u},
 989:Generated_Source\PSoC5/cyfitter_cfg.c **** 			{0x09u, 0x0Cu},
 990:Generated_Source\PSoC5/cyfitter_cfg.c **** 			{0x0Fu, 0x01u},
 991:Generated_Source\PSoC5/cyfitter_cfg.c **** 			{0x10u, 0x01u},
 992:Generated_Source\PSoC5/cyfitter_cfg.c **** 			{0x11u, 0x03u},
 993:Generated_Source\PSoC5/cyfitter_cfg.c **** 			{0x13u, 0x0Cu},
 994:Generated_Source\PSoC5/cyfitter_cfg.c **** 			{0x14u, 0x01u},
 995:Generated_Source\PSoC5/cyfitter_cfg.c **** 			{0x15u, 0x0Fu},
 996:Generated_Source\PSoC5/cyfitter_cfg.c **** 			{0x19u, 0x0Cu},
 997:Generated_Source\PSoC5/cyfitter_cfg.c **** 			{0x1Bu, 0x03u},
 998:Generated_Source\PSoC5/cyfitter_cfg.c **** 			{0x1Du, 0x03u},
 999:Generated_Source\PSoC5/cyfitter_cfg.c **** 			{0x21u, 0x08u},
1000:Generated_Source\PSoC5/cyfitter_cfg.c **** 			{0x27u, 0x03u},
1001:Generated_Source\PSoC5/cyfitter_cfg.c **** 			{0x28u, 0x01u},
1002:Generated_Source\PSoC5/cyfitter_cfg.c **** 			{0x29u, 0x04u},
1003:Generated_Source\PSoC5/cyfitter_cfg.c **** 			{0x2Du, 0x0Fu},
1004:Generated_Source\PSoC5/cyfitter_cfg.c **** 			{0x32u, 0x01u},
1005:Generated_Source\PSoC5/cyfitter_cfg.c **** 			{0x37u, 0x0Fu},
ARM GAS  C:\Users\DGILLI~1\AppData\Local\Temp\ccW7tEoj.s 			page 29


1006:Generated_Source\PSoC5/cyfitter_cfg.c **** 			{0x3Bu, 0x80u},
1007:Generated_Source\PSoC5/cyfitter_cfg.c **** 			{0x3Eu, 0x04u},
1008:Generated_Source\PSoC5/cyfitter_cfg.c **** 			{0x58u, 0x04u},
1009:Generated_Source\PSoC5/cyfitter_cfg.c **** 			{0x59u, 0x04u},
1010:Generated_Source\PSoC5/cyfitter_cfg.c **** 			{0x5Bu, 0x04u},
1011:Generated_Source\PSoC5/cyfitter_cfg.c **** 			{0x5Cu, 0x10u},
1012:Generated_Source\PSoC5/cyfitter_cfg.c **** 			{0x5Fu, 0x01u},
1013:Generated_Source\PSoC5/cyfitter_cfg.c **** 			{0xDBu, 0x04u},
1014:Generated_Source\PSoC5/cyfitter_cfg.c **** 			{0xDFu, 0x01u},
1015:Generated_Source\PSoC5/cyfitter_cfg.c **** 			{0x00u, 0x02u},
1016:Generated_Source\PSoC5/cyfitter_cfg.c **** 			{0x08u, 0x02u},
1017:Generated_Source\PSoC5/cyfitter_cfg.c **** 			{0x0Au, 0x20u},
1018:Generated_Source\PSoC5/cyfitter_cfg.c **** 			{0x12u, 0x08u},
1019:Generated_Source\PSoC5/cyfitter_cfg.c **** 			{0x19u, 0x04u},
1020:Generated_Source\PSoC5/cyfitter_cfg.c **** 			{0x20u, 0x02u},
1021:Generated_Source\PSoC5/cyfitter_cfg.c **** 			{0x22u, 0x40u},
1022:Generated_Source\PSoC5/cyfitter_cfg.c **** 			{0x28u, 0x02u},
1023:Generated_Source\PSoC5/cyfitter_cfg.c **** 			{0x2Au, 0x0Au},
1024:Generated_Source\PSoC5/cyfitter_cfg.c **** 			{0x2Bu, 0x04u},
1025:Generated_Source\PSoC5/cyfitter_cfg.c **** 			{0x31u, 0x40u},
1026:Generated_Source\PSoC5/cyfitter_cfg.c **** 			{0x32u, 0x18u},
1027:Generated_Source\PSoC5/cyfitter_cfg.c **** 			{0x33u, 0x02u},
1028:Generated_Source\PSoC5/cyfitter_cfg.c **** 			{0x38u, 0x80u},
1029:Generated_Source\PSoC5/cyfitter_cfg.c **** 			{0x39u, 0x0Au},
1030:Generated_Source\PSoC5/cyfitter_cfg.c **** 			{0x3Bu, 0x10u},
1031:Generated_Source\PSoC5/cyfitter_cfg.c **** 			{0x58u, 0x40u},
1032:Generated_Source\PSoC5/cyfitter_cfg.c **** 			{0x59u, 0x10u},
1033:Generated_Source\PSoC5/cyfitter_cfg.c **** 			{0x5Cu, 0x90u},
1034:Generated_Source\PSoC5/cyfitter_cfg.c **** 			{0x5Du, 0x02u},
1035:Generated_Source\PSoC5/cyfitter_cfg.c **** 			{0x5Fu, 0x04u},
1036:Generated_Source\PSoC5/cyfitter_cfg.c **** 			{0x64u, 0x01u},
1037:Generated_Source\PSoC5/cyfitter_cfg.c **** 			{0x66u, 0x20u},
1038:Generated_Source\PSoC5/cyfitter_cfg.c **** 			{0x67u, 0xA0u},
1039:Generated_Source\PSoC5/cyfitter_cfg.c **** 			{0x68u, 0x10u},
1040:Generated_Source\PSoC5/cyfitter_cfg.c **** 			{0x69u, 0x20u},
1041:Generated_Source\PSoC5/cyfitter_cfg.c **** 			{0x6Au, 0x02u},
1042:Generated_Source\PSoC5/cyfitter_cfg.c **** 			{0x6Bu, 0x01u},
1043:Generated_Source\PSoC5/cyfitter_cfg.c **** 			{0x6Cu, 0x02u},
1044:Generated_Source\PSoC5/cyfitter_cfg.c **** 			{0x6Du, 0x20u},
1045:Generated_Source\PSoC5/cyfitter_cfg.c **** 			{0x6Eu, 0x08u},
1046:Generated_Source\PSoC5/cyfitter_cfg.c **** 			{0x6Fu, 0x80u},
1047:Generated_Source\PSoC5/cyfitter_cfg.c **** 			{0x70u, 0x04u},
1048:Generated_Source\PSoC5/cyfitter_cfg.c **** 			{0x71u, 0x80u},
1049:Generated_Source\PSoC5/cyfitter_cfg.c **** 			{0x72u, 0x04u},
1050:Generated_Source\PSoC5/cyfitter_cfg.c **** 			{0x73u, 0x80u},
1051:Generated_Source\PSoC5/cyfitter_cfg.c **** 			{0x74u, 0x80u},
1052:Generated_Source\PSoC5/cyfitter_cfg.c **** 			{0x75u, 0x08u},
1053:Generated_Source\PSoC5/cyfitter_cfg.c **** 			{0x76u, 0x40u},
1054:Generated_Source\PSoC5/cyfitter_cfg.c **** 			{0x77u, 0x04u},
1055:Generated_Source\PSoC5/cyfitter_cfg.c **** 			{0x80u, 0x80u},
1056:Generated_Source\PSoC5/cyfitter_cfg.c **** 			{0x81u, 0x08u},
1057:Generated_Source\PSoC5/cyfitter_cfg.c **** 			{0x82u, 0x20u},
1058:Generated_Source\PSoC5/cyfitter_cfg.c **** 			{0x86u, 0x04u},
1059:Generated_Source\PSoC5/cyfitter_cfg.c **** 			{0x87u, 0xD0u},
1060:Generated_Source\PSoC5/cyfitter_cfg.c **** 			{0x88u, 0x01u},
1061:Generated_Source\PSoC5/cyfitter_cfg.c **** 			{0x89u, 0x02u},
1062:Generated_Source\PSoC5/cyfitter_cfg.c **** 			{0x8Au, 0x41u},
ARM GAS  C:\Users\DGILLI~1\AppData\Local\Temp\ccW7tEoj.s 			page 30


1063:Generated_Source\PSoC5/cyfitter_cfg.c **** 			{0x8Cu, 0x90u},
1064:Generated_Source\PSoC5/cyfitter_cfg.c **** 			{0x8Eu, 0x04u},
1065:Generated_Source\PSoC5/cyfitter_cfg.c **** 			{0x8Fu, 0x04u},
1066:Generated_Source\PSoC5/cyfitter_cfg.c **** 			{0x90u, 0x80u},
1067:Generated_Source\PSoC5/cyfitter_cfg.c **** 			{0x91u, 0x0Au},
1068:Generated_Source\PSoC5/cyfitter_cfg.c **** 			{0x92u, 0x20u},
1069:Generated_Source\PSoC5/cyfitter_cfg.c **** 			{0x93u, 0x14u},
1070:Generated_Source\PSoC5/cyfitter_cfg.c **** 			{0x94u, 0x08u},
1071:Generated_Source\PSoC5/cyfitter_cfg.c **** 			{0x95u, 0x20u},
1072:Generated_Source\PSoC5/cyfitter_cfg.c **** 			{0x96u, 0x80u},
1073:Generated_Source\PSoC5/cyfitter_cfg.c **** 			{0x98u, 0x42u},
1074:Generated_Source\PSoC5/cyfitter_cfg.c **** 			{0x99u, 0x50u},
1075:Generated_Source\PSoC5/cyfitter_cfg.c **** 			{0x9Au, 0x0Au},
1076:Generated_Source\PSoC5/cyfitter_cfg.c **** 			{0x9Du, 0x04u},
1077:Generated_Source\PSoC5/cyfitter_cfg.c **** 			{0x9Fu, 0x81u},
1078:Generated_Source\PSoC5/cyfitter_cfg.c **** 			{0xA2u, 0x08u},
1079:Generated_Source\PSoC5/cyfitter_cfg.c **** 			{0xA3u, 0x06u},
1080:Generated_Source\PSoC5/cyfitter_cfg.c **** 			{0xA4u, 0x12u},
1081:Generated_Source\PSoC5/cyfitter_cfg.c **** 			{0xA5u, 0x90u},
1082:Generated_Source\PSoC5/cyfitter_cfg.c **** 			{0xA9u, 0xA0u},
1083:Generated_Source\PSoC5/cyfitter_cfg.c **** 			{0xABu, 0x04u},
1084:Generated_Source\PSoC5/cyfitter_cfg.c **** 			{0xADu, 0x18u},
1085:Generated_Source\PSoC5/cyfitter_cfg.c **** 			{0xAEu, 0x40u},
1086:Generated_Source\PSoC5/cyfitter_cfg.c **** 			{0xAFu, 0x08u},
1087:Generated_Source\PSoC5/cyfitter_cfg.c **** 			{0xB0u, 0x02u},
1088:Generated_Source\PSoC5/cyfitter_cfg.c **** 			{0xB1u, 0x01u},
1089:Generated_Source\PSoC5/cyfitter_cfg.c **** 			{0xB2u, 0x01u},
1090:Generated_Source\PSoC5/cyfitter_cfg.c **** 			{0xB3u, 0x05u},
1091:Generated_Source\PSoC5/cyfitter_cfg.c **** 			{0xB5u, 0x90u},
1092:Generated_Source\PSoC5/cyfitter_cfg.c **** 			{0xB6u, 0x82u},
1093:Generated_Source\PSoC5/cyfitter_cfg.c **** 			{0xB7u, 0x10u},
1094:Generated_Source\PSoC5/cyfitter_cfg.c **** 			{0xC0u, 0x08u},
1095:Generated_Source\PSoC5/cyfitter_cfg.c **** 			{0xC2u, 0x0Cu},
1096:Generated_Source\PSoC5/cyfitter_cfg.c **** 			{0xC4u, 0x02u},
1097:Generated_Source\PSoC5/cyfitter_cfg.c **** 			{0xCAu, 0x0Fu},
1098:Generated_Source\PSoC5/cyfitter_cfg.c **** 			{0xCCu, 0x0Fu},
1099:Generated_Source\PSoC5/cyfitter_cfg.c **** 			{0xCEu, 0x0Fu},
1100:Generated_Source\PSoC5/cyfitter_cfg.c **** 			{0xD6u, 0xFCu},
1101:Generated_Source\PSoC5/cyfitter_cfg.c **** 			{0xD8u, 0xF0u},
1102:Generated_Source\PSoC5/cyfitter_cfg.c **** 			{0xE0u, 0x92u},
1103:Generated_Source\PSoC5/cyfitter_cfg.c **** 			{0xE2u, 0x60u},
1104:Generated_Source\PSoC5/cyfitter_cfg.c **** 			{0xE4u, 0x20u},
1105:Generated_Source\PSoC5/cyfitter_cfg.c **** 			{0xE6u, 0xD0u},
1106:Generated_Source\PSoC5/cyfitter_cfg.c **** 			{0xE8u, 0x02u},
1107:Generated_Source\PSoC5/cyfitter_cfg.c **** 			{0xEAu, 0x10u},
1108:Generated_Source\PSoC5/cyfitter_cfg.c **** 			{0xECu, 0xA0u},
1109:Generated_Source\PSoC5/cyfitter_cfg.c **** 			{0xEEu, 0x4Du},
1110:Generated_Source\PSoC5/cyfitter_cfg.c **** 			{0x13u, 0x01u},
1111:Generated_Source\PSoC5/cyfitter_cfg.c **** 			{0x2Fu, 0x01u},
1112:Generated_Source\PSoC5/cyfitter_cfg.c **** 			{0x33u, 0x01u},
1113:Generated_Source\PSoC5/cyfitter_cfg.c **** 			{0x3Fu, 0x04u},
1114:Generated_Source\PSoC5/cyfitter_cfg.c **** 			{0x59u, 0x04u},
1115:Generated_Source\PSoC5/cyfitter_cfg.c **** 			{0x5Bu, 0x04u},
1116:Generated_Source\PSoC5/cyfitter_cfg.c **** 			{0x5Fu, 0x01u},
1117:Generated_Source\PSoC5/cyfitter_cfg.c **** 			{0x82u, 0x30u},
1118:Generated_Source\PSoC5/cyfitter_cfg.c **** 			{0x84u, 0x30u},
1119:Generated_Source\PSoC5/cyfitter_cfg.c **** 			{0x85u, 0x07u},
ARM GAS  C:\Users\DGILLI~1\AppData\Local\Temp\ccW7tEoj.s 			page 31


1120:Generated_Source\PSoC5/cyfitter_cfg.c **** 			{0x89u, 0x07u},
1121:Generated_Source\PSoC5/cyfitter_cfg.c **** 			{0x8Cu, 0x30u},
1122:Generated_Source\PSoC5/cyfitter_cfg.c **** 			{0x8Du, 0x01u},
1123:Generated_Source\PSoC5/cyfitter_cfg.c **** 			{0x8Fu, 0x0Au},
1124:Generated_Source\PSoC5/cyfitter_cfg.c **** 			{0x92u, 0x30u},
1125:Generated_Source\PSoC5/cyfitter_cfg.c **** 			{0x94u, 0x28u},
1126:Generated_Source\PSoC5/cyfitter_cfg.c **** 			{0x95u, 0x15u},
1127:Generated_Source\PSoC5/cyfitter_cfg.c **** 			{0x96u, 0x05u},
1128:Generated_Source\PSoC5/cyfitter_cfg.c **** 			{0x97u, 0x02u},
1129:Generated_Source\PSoC5/cyfitter_cfg.c **** 			{0x9Au, 0x30u},
1130:Generated_Source\PSoC5/cyfitter_cfg.c **** 			{0x9Cu, 0x01u},
1131:Generated_Source\PSoC5/cyfitter_cfg.c **** 			{0x9Du, 0x0Au},
1132:Generated_Source\PSoC5/cyfitter_cfg.c **** 			{0x9Eu, 0x12u},
1133:Generated_Source\PSoC5/cyfitter_cfg.c **** 			{0x9Fu, 0x04u},
1134:Generated_Source\PSoC5/cyfitter_cfg.c **** 			{0xA0u, 0x12u},
1135:Generated_Source\PSoC5/cyfitter_cfg.c **** 			{0xA2u, 0x04u},
1136:Generated_Source\PSoC5/cyfitter_cfg.c **** 			{0xA4u, 0x0Fu},
1137:Generated_Source\PSoC5/cyfitter_cfg.c **** 			{0xA8u, 0x0Fu},
1138:Generated_Source\PSoC5/cyfitter_cfg.c **** 			{0xACu, 0x35u},
1139:Generated_Source\PSoC5/cyfitter_cfg.c **** 			{0xADu, 0x18u},
1140:Generated_Source\PSoC5/cyfitter_cfg.c **** 			{0xAEu, 0x0Au},
1141:Generated_Source\PSoC5/cyfitter_cfg.c **** 			{0xB0u, 0x30u},
1142:Generated_Source\PSoC5/cyfitter_cfg.c **** 			{0xB3u, 0x07u},
1143:Generated_Source\PSoC5/cyfitter_cfg.c **** 			{0xB6u, 0x0Fu},
1144:Generated_Source\PSoC5/cyfitter_cfg.c **** 			{0xB7u, 0x18u},
1145:Generated_Source\PSoC5/cyfitter_cfg.c **** 			{0xB9u, 0x80u},
1146:Generated_Source\PSoC5/cyfitter_cfg.c **** 			{0xBFu, 0x40u},
1147:Generated_Source\PSoC5/cyfitter_cfg.c **** 			{0xC0u, 0x42u},
1148:Generated_Source\PSoC5/cyfitter_cfg.c **** 			{0xC1u, 0x06u},
1149:Generated_Source\PSoC5/cyfitter_cfg.c **** 			{0xC2u, 0x05u},
1150:Generated_Source\PSoC5/cyfitter_cfg.c **** 			{0xC4u, 0x01u},
1151:Generated_Source\PSoC5/cyfitter_cfg.c **** 			{0xC6u, 0xC0u},
1152:Generated_Source\PSoC5/cyfitter_cfg.c **** 			{0xC7u, 0xE0u},
1153:Generated_Source\PSoC5/cyfitter_cfg.c **** 			{0xC8u, 0x28u},
1154:Generated_Source\PSoC5/cyfitter_cfg.c **** 			{0xC9u, 0xFFu},
1155:Generated_Source\PSoC5/cyfitter_cfg.c **** 			{0xCAu, 0xFFu},
1156:Generated_Source\PSoC5/cyfitter_cfg.c **** 			{0xCBu, 0xFFu},
1157:Generated_Source\PSoC5/cyfitter_cfg.c **** 			{0xCCu, 0x62u},
1158:Generated_Source\PSoC5/cyfitter_cfg.c **** 			{0xCDu, 0xA0u},
1159:Generated_Source\PSoC5/cyfitter_cfg.c **** 			{0xCEu, 0xF0u},
1160:Generated_Source\PSoC5/cyfitter_cfg.c **** 			{0xCFu, 0x41u},
1161:Generated_Source\PSoC5/cyfitter_cfg.c **** 			{0xD0u, 0x0Cu},
1162:Generated_Source\PSoC5/cyfitter_cfg.c **** 			{0xD8u, 0x04u},
1163:Generated_Source\PSoC5/cyfitter_cfg.c **** 			{0xD9u, 0x04u},
1164:Generated_Source\PSoC5/cyfitter_cfg.c **** 			{0xDAu, 0x04u},
1165:Generated_Source\PSoC5/cyfitter_cfg.c **** 			{0xDBu, 0x04u},
1166:Generated_Source\PSoC5/cyfitter_cfg.c **** 			{0xDCu, 0x11u},
1167:Generated_Source\PSoC5/cyfitter_cfg.c **** 			{0xDDu, 0x01u},
1168:Generated_Source\PSoC5/cyfitter_cfg.c **** 			{0xDFu, 0x01u},
1169:Generated_Source\PSoC5/cyfitter_cfg.c **** 			{0xE6u, 0x40u},
1170:Generated_Source\PSoC5/cyfitter_cfg.c **** 			{0xE7u, 0x02u},
1171:Generated_Source\PSoC5/cyfitter_cfg.c **** 			{0xE9u, 0x10u},
1172:Generated_Source\PSoC5/cyfitter_cfg.c **** 			{0xEAu, 0x30u},
1173:Generated_Source\PSoC5/cyfitter_cfg.c **** 			{0xEBu, 0x10u},
1174:Generated_Source\PSoC5/cyfitter_cfg.c **** 			{0xEDu, 0x10u},
1175:Generated_Source\PSoC5/cyfitter_cfg.c **** 			{0xEEu, 0x10u},
1176:Generated_Source\PSoC5/cyfitter_cfg.c **** 			{0xEFu, 0x12u},
ARM GAS  C:\Users\DGILLI~1\AppData\Local\Temp\ccW7tEoj.s 			page 32


1177:Generated_Source\PSoC5/cyfitter_cfg.c **** 			{0x00u, 0x08u},
1178:Generated_Source\PSoC5/cyfitter_cfg.c **** 			{0x03u, 0x82u},
1179:Generated_Source\PSoC5/cyfitter_cfg.c **** 			{0x08u, 0x02u},
1180:Generated_Source\PSoC5/cyfitter_cfg.c **** 			{0x09u, 0x08u},
1181:Generated_Source\PSoC5/cyfitter_cfg.c **** 			{0x0Au, 0x04u},
1182:Generated_Source\PSoC5/cyfitter_cfg.c **** 			{0x0Bu, 0x01u},
1183:Generated_Source\PSoC5/cyfitter_cfg.c **** 			{0x10u, 0x01u},
1184:Generated_Source\PSoC5/cyfitter_cfg.c **** 			{0x11u, 0x14u},
1185:Generated_Source\PSoC5/cyfitter_cfg.c **** 			{0x12u, 0x80u},
1186:Generated_Source\PSoC5/cyfitter_cfg.c **** 			{0x19u, 0x42u},
1187:Generated_Source\PSoC5/cyfitter_cfg.c **** 			{0x20u, 0x01u},
1188:Generated_Source\PSoC5/cyfitter_cfg.c **** 			{0x21u, 0x0Cu},
1189:Generated_Source\PSoC5/cyfitter_cfg.c **** 			{0x27u, 0x10u},
1190:Generated_Source\PSoC5/cyfitter_cfg.c **** 			{0x28u, 0x01u},
1191:Generated_Source\PSoC5/cyfitter_cfg.c **** 			{0x29u, 0x40u},
1192:Generated_Source\PSoC5/cyfitter_cfg.c **** 			{0x2Eu, 0x80u},
1193:Generated_Source\PSoC5/cyfitter_cfg.c **** 			{0x31u, 0x08u},
1194:Generated_Source\PSoC5/cyfitter_cfg.c **** 			{0x32u, 0x80u},
1195:Generated_Source\PSoC5/cyfitter_cfg.c **** 			{0x37u, 0x01u},
1196:Generated_Source\PSoC5/cyfitter_cfg.c **** 			{0x38u, 0x80u},
1197:Generated_Source\PSoC5/cyfitter_cfg.c **** 			{0x39u, 0x14u},
1198:Generated_Source\PSoC5/cyfitter_cfg.c **** 			{0x40u, 0x81u},
1199:Generated_Source\PSoC5/cyfitter_cfg.c **** 			{0x42u, 0x0Cu},
1200:Generated_Source\PSoC5/cyfitter_cfg.c **** 			{0x43u, 0x02u},
1201:Generated_Source\PSoC5/cyfitter_cfg.c **** 			{0x48u, 0x04u},
1202:Generated_Source\PSoC5/cyfitter_cfg.c **** 			{0x4Au, 0x0Au},
1203:Generated_Source\PSoC5/cyfitter_cfg.c **** 			{0x52u, 0x11u},
1204:Generated_Source\PSoC5/cyfitter_cfg.c **** 			{0x59u, 0x28u},
1205:Generated_Source\PSoC5/cyfitter_cfg.c **** 			{0x5Au, 0x41u},
1206:Generated_Source\PSoC5/cyfitter_cfg.c **** 			{0x5Du, 0x01u},
1207:Generated_Source\PSoC5/cyfitter_cfg.c **** 			{0x5Eu, 0xA0u},
1208:Generated_Source\PSoC5/cyfitter_cfg.c **** 			{0x5Fu, 0x08u},
1209:Generated_Source\PSoC5/cyfitter_cfg.c **** 			{0x63u, 0x02u},
1210:Generated_Source\PSoC5/cyfitter_cfg.c **** 			{0x6Cu, 0x08u},
1211:Generated_Source\PSoC5/cyfitter_cfg.c **** 			{0x6Du, 0x80u},
1212:Generated_Source\PSoC5/cyfitter_cfg.c **** 			{0x6Fu, 0x60u},
1213:Generated_Source\PSoC5/cyfitter_cfg.c **** 			{0x75u, 0x80u},
1214:Generated_Source\PSoC5/cyfitter_cfg.c **** 			{0x79u, 0x02u},
1215:Generated_Source\PSoC5/cyfitter_cfg.c **** 			{0x7Au, 0x80u},
1216:Generated_Source\PSoC5/cyfitter_cfg.c **** 			{0x82u, 0x40u},
1217:Generated_Source\PSoC5/cyfitter_cfg.c **** 			{0x83u, 0x60u},
1218:Generated_Source\PSoC5/cyfitter_cfg.c **** 			{0x85u, 0x40u},
1219:Generated_Source\PSoC5/cyfitter_cfg.c **** 			{0x86u, 0x28u},
1220:Generated_Source\PSoC5/cyfitter_cfg.c **** 			{0x88u, 0x08u},
1221:Generated_Source\PSoC5/cyfitter_cfg.c **** 			{0x8Au, 0x11u},
1222:Generated_Source\PSoC5/cyfitter_cfg.c **** 			{0x8Cu, 0x82u},
1223:Generated_Source\PSoC5/cyfitter_cfg.c **** 			{0x8Du, 0x10u},
1224:Generated_Source\PSoC5/cyfitter_cfg.c **** 			{0x8Eu, 0x50u},
1225:Generated_Source\PSoC5/cyfitter_cfg.c **** 			{0x8Fu, 0x80u},
1226:Generated_Source\PSoC5/cyfitter_cfg.c **** 			{0x90u, 0x80u},
1227:Generated_Source\PSoC5/cyfitter_cfg.c **** 			{0x91u, 0x14u},
1228:Generated_Source\PSoC5/cyfitter_cfg.c **** 			{0x92u, 0x24u},
1229:Generated_Source\PSoC5/cyfitter_cfg.c **** 			{0x93u, 0x11u},
1230:Generated_Source\PSoC5/cyfitter_cfg.c **** 			{0x94u, 0x08u},
1231:Generated_Source\PSoC5/cyfitter_cfg.c **** 			{0x96u, 0x02u},
1232:Generated_Source\PSoC5/cyfitter_cfg.c **** 			{0x98u, 0x40u},
1233:Generated_Source\PSoC5/cyfitter_cfg.c **** 			{0x9Au, 0x82u},
ARM GAS  C:\Users\DGILLI~1\AppData\Local\Temp\ccW7tEoj.s 			page 33


1234:Generated_Source\PSoC5/cyfitter_cfg.c **** 			{0x9Du, 0x06u},
1235:Generated_Source\PSoC5/cyfitter_cfg.c **** 			{0x9Eu, 0x11u},
1236:Generated_Source\PSoC5/cyfitter_cfg.c **** 			{0x9Fu, 0x81u},
1237:Generated_Source\PSoC5/cyfitter_cfg.c **** 			{0xA2u, 0x88u},
1238:Generated_Source\PSoC5/cyfitter_cfg.c **** 			{0xA4u, 0x10u},
1239:Generated_Source\PSoC5/cyfitter_cfg.c **** 			{0xA6u, 0x22u},
1240:Generated_Source\PSoC5/cyfitter_cfg.c **** 			{0xA7u, 0x02u},
1241:Generated_Source\PSoC5/cyfitter_cfg.c **** 			{0xA8u, 0x10u},
1242:Generated_Source\PSoC5/cyfitter_cfg.c **** 			{0xABu, 0xC0u},
1243:Generated_Source\PSoC5/cyfitter_cfg.c **** 			{0xACu, 0x20u},
1244:Generated_Source\PSoC5/cyfitter_cfg.c **** 			{0xB1u, 0x40u},
1245:Generated_Source\PSoC5/cyfitter_cfg.c **** 			{0xB2u, 0x04u},
1246:Generated_Source\PSoC5/cyfitter_cfg.c **** 			{0xB6u, 0x40u},
1247:Generated_Source\PSoC5/cyfitter_cfg.c **** 			{0xC0u, 0x0Du},
1248:Generated_Source\PSoC5/cyfitter_cfg.c **** 			{0xC2u, 0x0Fu},
1249:Generated_Source\PSoC5/cyfitter_cfg.c **** 			{0xC4u, 0x0Fu},
1250:Generated_Source\PSoC5/cyfitter_cfg.c **** 			{0xCAu, 0x18u},
1251:Generated_Source\PSoC5/cyfitter_cfg.c **** 			{0xCCu, 0x8Au},
1252:Generated_Source\PSoC5/cyfitter_cfg.c **** 			{0xCEu, 0x0Eu},
1253:Generated_Source\PSoC5/cyfitter_cfg.c **** 			{0xD0u, 0x0Du},
1254:Generated_Source\PSoC5/cyfitter_cfg.c **** 			{0xD2u, 0x0Cu},
1255:Generated_Source\PSoC5/cyfitter_cfg.c **** 			{0xD6u, 0xFFu},
1256:Generated_Source\PSoC5/cyfitter_cfg.c **** 			{0xD8u, 0x08u},
1257:Generated_Source\PSoC5/cyfitter_cfg.c **** 			{0xE0u, 0x88u},
1258:Generated_Source\PSoC5/cyfitter_cfg.c **** 			{0xE2u, 0x04u},
1259:Generated_Source\PSoC5/cyfitter_cfg.c **** 			{0xE6u, 0x70u},
1260:Generated_Source\PSoC5/cyfitter_cfg.c **** 			{0xEEu, 0x02u},
1261:Generated_Source\PSoC5/cyfitter_cfg.c **** 			{0x00u, 0x02u},
1262:Generated_Source\PSoC5/cyfitter_cfg.c **** 			{0x01u, 0x04u},
1263:Generated_Source\PSoC5/cyfitter_cfg.c **** 			{0x06u, 0x01u},
1264:Generated_Source\PSoC5/cyfitter_cfg.c **** 			{0x08u, 0x01u},
1265:Generated_Source\PSoC5/cyfitter_cfg.c **** 			{0x09u, 0x07u},
1266:Generated_Source\PSoC5/cyfitter_cfg.c **** 			{0x0Au, 0x06u},
1267:Generated_Source\PSoC5/cyfitter_cfg.c **** 			{0x10u, 0x06u},
1268:Generated_Source\PSoC5/cyfitter_cfg.c **** 			{0x11u, 0x01u},
1269:Generated_Source\PSoC5/cyfitter_cfg.c **** 			{0x12u, 0x01u},
1270:Generated_Source\PSoC5/cyfitter_cfg.c **** 			{0x13u, 0x06u},
1271:Generated_Source\PSoC5/cyfitter_cfg.c **** 			{0x14u, 0x06u},
1272:Generated_Source\PSoC5/cyfitter_cfg.c **** 			{0x15u, 0x06u},
1273:Generated_Source\PSoC5/cyfitter_cfg.c **** 			{0x17u, 0x01u},
1274:Generated_Source\PSoC5/cyfitter_cfg.c **** 			{0x18u, 0x07u},
1275:Generated_Source\PSoC5/cyfitter_cfg.c **** 			{0x1Bu, 0x01u},
1276:Generated_Source\PSoC5/cyfitter_cfg.c **** 			{0x1Cu, 0x04u},
1277:Generated_Source\PSoC5/cyfitter_cfg.c **** 			{0x1Du, 0x06u},
1278:Generated_Source\PSoC5/cyfitter_cfg.c **** 			{0x1Fu, 0x01u},
1279:Generated_Source\PSoC5/cyfitter_cfg.c **** 			{0x24u, 0x07u},
1280:Generated_Source\PSoC5/cyfitter_cfg.c **** 			{0x29u, 0x06u},
1281:Generated_Source\PSoC5/cyfitter_cfg.c **** 			{0x2Du, 0x02u},
1282:Generated_Source\PSoC5/cyfitter_cfg.c **** 			{0x30u, 0x07u},
1283:Generated_Source\PSoC5/cyfitter_cfg.c **** 			{0x37u, 0x07u},
1284:Generated_Source\PSoC5/cyfitter_cfg.c **** 			{0x3Bu, 0x80u},
1285:Generated_Source\PSoC5/cyfitter_cfg.c **** 			{0x58u, 0x04u},
1286:Generated_Source\PSoC5/cyfitter_cfg.c **** 			{0x59u, 0x04u},
1287:Generated_Source\PSoC5/cyfitter_cfg.c **** 			{0x5Bu, 0x04u},
1288:Generated_Source\PSoC5/cyfitter_cfg.c **** 			{0x5Cu, 0x11u},
1289:Generated_Source\PSoC5/cyfitter_cfg.c **** 			{0x5Fu, 0x01u},
1290:Generated_Source\PSoC5/cyfitter_cfg.c **** 			{0xDBu, 0x04u},
ARM GAS  C:\Users\DGILLI~1\AppData\Local\Temp\ccW7tEoj.s 			page 34


1291:Generated_Source\PSoC5/cyfitter_cfg.c **** 			{0xDFu, 0x01u},
1292:Generated_Source\PSoC5/cyfitter_cfg.c **** 			{0x04u, 0x10u},
1293:Generated_Source\PSoC5/cyfitter_cfg.c **** 			{0x06u, 0x90u},
1294:Generated_Source\PSoC5/cyfitter_cfg.c **** 			{0x07u, 0x10u},
1295:Generated_Source\PSoC5/cyfitter_cfg.c **** 			{0x0Eu, 0x98u},
1296:Generated_Source\PSoC5/cyfitter_cfg.c **** 			{0x0Fu, 0x12u},
1297:Generated_Source\PSoC5/cyfitter_cfg.c **** 			{0x16u, 0x20u},
1298:Generated_Source\PSoC5/cyfitter_cfg.c **** 			{0x1Du, 0x02u},
1299:Generated_Source\PSoC5/cyfitter_cfg.c **** 			{0x26u, 0x40u},
1300:Generated_Source\PSoC5/cyfitter_cfg.c **** 			{0x2Eu, 0x90u},
1301:Generated_Source\PSoC5/cyfitter_cfg.c **** 			{0x2Fu, 0x03u},
1302:Generated_Source\PSoC5/cyfitter_cfg.c **** 			{0x36u, 0x45u},
1303:Generated_Source\PSoC5/cyfitter_cfg.c **** 			{0x37u, 0x10u},
1304:Generated_Source\PSoC5/cyfitter_cfg.c **** 			{0x3Eu, 0x20u},
1305:Generated_Source\PSoC5/cyfitter_cfg.c **** 			{0x3Fu, 0x02u},
1306:Generated_Source\PSoC5/cyfitter_cfg.c **** 			{0x58u, 0x02u},
1307:Generated_Source\PSoC5/cyfitter_cfg.c **** 			{0x59u, 0x10u},
1308:Generated_Source\PSoC5/cyfitter_cfg.c **** 			{0x5Au, 0x80u},
1309:Generated_Source\PSoC5/cyfitter_cfg.c **** 			{0x5Bu, 0x04u},
1310:Generated_Source\PSoC5/cyfitter_cfg.c **** 			{0x5Cu, 0xA0u},
1311:Generated_Source\PSoC5/cyfitter_cfg.c **** 			{0x5Eu, 0x05u},
1312:Generated_Source\PSoC5/cyfitter_cfg.c **** 			{0x60u, 0x04u},
1313:Generated_Source\PSoC5/cyfitter_cfg.c **** 			{0x61u, 0x48u},
1314:Generated_Source\PSoC5/cyfitter_cfg.c **** 			{0x62u, 0x02u},
1315:Generated_Source\PSoC5/cyfitter_cfg.c **** 			{0x65u, 0x80u},
1316:Generated_Source\PSoC5/cyfitter_cfg.c **** 			{0x68u, 0x48u},
1317:Generated_Source\PSoC5/cyfitter_cfg.c **** 			{0x69u, 0x88u},
1318:Generated_Source\PSoC5/cyfitter_cfg.c **** 			{0x6Du, 0x6Au},
1319:Generated_Source\PSoC5/cyfitter_cfg.c **** 			{0x70u, 0x05u},
1320:Generated_Source\PSoC5/cyfitter_cfg.c **** 			{0x71u, 0x20u},
1321:Generated_Source\PSoC5/cyfitter_cfg.c **** 			{0x72u, 0x02u},
1322:Generated_Source\PSoC5/cyfitter_cfg.c **** 			{0x77u, 0x02u},
1323:Generated_Source\PSoC5/cyfitter_cfg.c **** 			{0x80u, 0x05u},
1324:Generated_Source\PSoC5/cyfitter_cfg.c **** 			{0x81u, 0x10u},
1325:Generated_Source\PSoC5/cyfitter_cfg.c **** 			{0x84u, 0x08u},
1326:Generated_Source\PSoC5/cyfitter_cfg.c **** 			{0x86u, 0x22u},
1327:Generated_Source\PSoC5/cyfitter_cfg.c **** 			{0x87u, 0x02u},
1328:Generated_Source\PSoC5/cyfitter_cfg.c **** 			{0x8Cu, 0x10u},
1329:Generated_Source\PSoC5/cyfitter_cfg.c **** 			{0x8Eu, 0x05u},
1330:Generated_Source\PSoC5/cyfitter_cfg.c **** 			{0x90u, 0x04u},
1331:Generated_Source\PSoC5/cyfitter_cfg.c **** 			{0x92u, 0x80u},
1332:Generated_Source\PSoC5/cyfitter_cfg.c **** 			{0x93u, 0x10u},
1333:Generated_Source\PSoC5/cyfitter_cfg.c **** 			{0x95u, 0x88u},
1334:Generated_Source\PSoC5/cyfitter_cfg.c **** 			{0x98u, 0x02u},
1335:Generated_Source\PSoC5/cyfitter_cfg.c **** 			{0x99u, 0x50u},
1336:Generated_Source\PSoC5/cyfitter_cfg.c **** 			{0x9Au, 0x10u},
1337:Generated_Source\PSoC5/cyfitter_cfg.c **** 			{0x9Bu, 0x04u},
1338:Generated_Source\PSoC5/cyfitter_cfg.c **** 			{0xA1u, 0x08u},
1339:Generated_Source\PSoC5/cyfitter_cfg.c **** 			{0xA2u, 0x02u},
1340:Generated_Source\PSoC5/cyfitter_cfg.c **** 			{0xA3u, 0x03u},
1341:Generated_Source\PSoC5/cyfitter_cfg.c **** 			{0xA4u, 0x40u},
1342:Generated_Source\PSoC5/cyfitter_cfg.c **** 			{0xA5u, 0x20u},
1343:Generated_Source\PSoC5/cyfitter_cfg.c **** 			{0xAAu, 0x40u},
1344:Generated_Source\PSoC5/cyfitter_cfg.c **** 			{0xB2u, 0x10u},
1345:Generated_Source\PSoC5/cyfitter_cfg.c **** 			{0xB5u, 0x10u},
1346:Generated_Source\PSoC5/cyfitter_cfg.c **** 			{0xC0u, 0x70u},
1347:Generated_Source\PSoC5/cyfitter_cfg.c **** 			{0xC2u, 0xF0u},
ARM GAS  C:\Users\DGILLI~1\AppData\Local\Temp\ccW7tEoj.s 			page 35


1348:Generated_Source\PSoC5/cyfitter_cfg.c **** 			{0xC4u, 0x20u},
1349:Generated_Source\PSoC5/cyfitter_cfg.c **** 			{0xCAu, 0x30u},
1350:Generated_Source\PSoC5/cyfitter_cfg.c **** 			{0xCCu, 0xF0u},
1351:Generated_Source\PSoC5/cyfitter_cfg.c **** 			{0xCEu, 0xA0u},
1352:Generated_Source\PSoC5/cyfitter_cfg.c **** 			{0xD6u, 0xFFu},
1353:Generated_Source\PSoC5/cyfitter_cfg.c **** 			{0xD8u, 0x1Fu},
1354:Generated_Source\PSoC5/cyfitter_cfg.c **** 			{0xE0u, 0x53u},
1355:Generated_Source\PSoC5/cyfitter_cfg.c **** 			{0xE2u, 0x04u},
1356:Generated_Source\PSoC5/cyfitter_cfg.c **** 			{0xE4u, 0x0Fu},
1357:Generated_Source\PSoC5/cyfitter_cfg.c **** 			{0xE6u, 0x80u},
1358:Generated_Source\PSoC5/cyfitter_cfg.c **** 			{0xE8u, 0x80u},
1359:Generated_Source\PSoC5/cyfitter_cfg.c **** 			{0xEAu, 0x10u},
1360:Generated_Source\PSoC5/cyfitter_cfg.c **** 			{0xECu, 0x20u},
1361:Generated_Source\PSoC5/cyfitter_cfg.c **** 			{0xEEu, 0x03u},
1362:Generated_Source\PSoC5/cyfitter_cfg.c **** 			{0x8Du, 0x45u},
1363:Generated_Source\PSoC5/cyfitter_cfg.c **** 			{0x91u, 0x40u},
1364:Generated_Source\PSoC5/cyfitter_cfg.c **** 			{0xA1u, 0x05u},
1365:Generated_Source\PSoC5/cyfitter_cfg.c **** 			{0xABu, 0x01u},
1366:Generated_Source\PSoC5/cyfitter_cfg.c **** 			{0xB2u, 0x45u},
1367:Generated_Source\PSoC5/cyfitter_cfg.c **** 			{0xB4u, 0xA0u},
1368:Generated_Source\PSoC5/cyfitter_cfg.c **** 			{0xB5u, 0x82u},
1369:Generated_Source\PSoC5/cyfitter_cfg.c **** 			{0xE0u, 0x02u},
1370:Generated_Source\PSoC5/cyfitter_cfg.c **** 			{0xE8u, 0x02u},
1371:Generated_Source\PSoC5/cyfitter_cfg.c **** 			{0xEAu, 0xA0u},
1372:Generated_Source\PSoC5/cyfitter_cfg.c **** 			{0xEEu, 0x19u},
1373:Generated_Source\PSoC5/cyfitter_cfg.c **** 			{0x00u, 0x80u},
1374:Generated_Source\PSoC5/cyfitter_cfg.c **** 			{0x02u, 0x20u},
1375:Generated_Source\PSoC5/cyfitter_cfg.c **** 			{0x04u, 0x10u},
1376:Generated_Source\PSoC5/cyfitter_cfg.c **** 			{0x06u, 0x20u},
1377:Generated_Source\PSoC5/cyfitter_cfg.c **** 			{0x0Au, 0x20u},
1378:Generated_Source\PSoC5/cyfitter_cfg.c **** 			{0x0Fu, 0x10u},
1379:Generated_Source\PSoC5/cyfitter_cfg.c **** 			{0x32u, 0x04u},
1380:Generated_Source\PSoC5/cyfitter_cfg.c **** 			{0x33u, 0x20u},
1381:Generated_Source\PSoC5/cyfitter_cfg.c **** 			{0x36u, 0x40u},
1382:Generated_Source\PSoC5/cyfitter_cfg.c **** 			{0x52u, 0x08u},
1383:Generated_Source\PSoC5/cyfitter_cfg.c **** 			{0x56u, 0x08u},
1384:Generated_Source\PSoC5/cyfitter_cfg.c **** 			{0x59u, 0x08u},
1385:Generated_Source\PSoC5/cyfitter_cfg.c **** 			{0x5Au, 0x80u},
1386:Generated_Source\PSoC5/cyfitter_cfg.c **** 			{0x5Eu, 0x40u},
1387:Generated_Source\PSoC5/cyfitter_cfg.c **** 			{0x62u, 0x02u},
1388:Generated_Source\PSoC5/cyfitter_cfg.c **** 			{0x6Du, 0x02u},
1389:Generated_Source\PSoC5/cyfitter_cfg.c **** 			{0x81u, 0x08u},
1390:Generated_Source\PSoC5/cyfitter_cfg.c **** 			{0x82u, 0x40u},
1391:Generated_Source\PSoC5/cyfitter_cfg.c **** 			{0x84u, 0x40u},
1392:Generated_Source\PSoC5/cyfitter_cfg.c **** 			{0x86u, 0x28u},
1393:Generated_Source\PSoC5/cyfitter_cfg.c **** 			{0x8Au, 0x02u},
1394:Generated_Source\PSoC5/cyfitter_cfg.c **** 			{0x8Bu, 0x10u},
1395:Generated_Source\PSoC5/cyfitter_cfg.c **** 			{0x8Eu, 0x40u},
1396:Generated_Source\PSoC5/cyfitter_cfg.c **** 			{0x8Fu, 0x20u},
1397:Generated_Source\PSoC5/cyfitter_cfg.c **** 			{0xC0u, 0xF0u},
1398:Generated_Source\PSoC5/cyfitter_cfg.c **** 			{0xC2u, 0x30u},
1399:Generated_Source\PSoC5/cyfitter_cfg.c **** 			{0xCCu, 0x70u},
1400:Generated_Source\PSoC5/cyfitter_cfg.c **** 			{0xD4u, 0xE0u},
1401:Generated_Source\PSoC5/cyfitter_cfg.c **** 			{0xD6u, 0x60u},
1402:Generated_Source\PSoC5/cyfitter_cfg.c **** 			{0xD8u, 0x40u},
1403:Generated_Source\PSoC5/cyfitter_cfg.c **** 			{0xDCu, 0x40u},
1404:Generated_Source\PSoC5/cyfitter_cfg.c **** 			{0xE0u, 0x50u},
ARM GAS  C:\Users\DGILLI~1\AppData\Local\Temp\ccW7tEoj.s 			page 36


1405:Generated_Source\PSoC5/cyfitter_cfg.c **** 			{0xE6u, 0xE0u},
1406:Generated_Source\PSoC5/cyfitter_cfg.c **** 			{0x00u, 0x08u},
1407:Generated_Source\PSoC5/cyfitter_cfg.c **** 			{0x01u, 0x40u},
1408:Generated_Source\PSoC5/cyfitter_cfg.c **** 			{0x05u, 0x42u},
1409:Generated_Source\PSoC5/cyfitter_cfg.c **** 			{0x09u, 0x80u},
1410:Generated_Source\PSoC5/cyfitter_cfg.c **** 			{0x0Au, 0x20u},
1411:Generated_Source\PSoC5/cyfitter_cfg.c **** 			{0x0Eu, 0x08u},
1412:Generated_Source\PSoC5/cyfitter_cfg.c **** 			{0x0Fu, 0x40u},
1413:Generated_Source\PSoC5/cyfitter_cfg.c **** 			{0x51u, 0x10u},
1414:Generated_Source\PSoC5/cyfitter_cfg.c **** 			{0x57u, 0x20u},
1415:Generated_Source\PSoC5/cyfitter_cfg.c **** 			{0x58u, 0x80u},
1416:Generated_Source\PSoC5/cyfitter_cfg.c **** 			{0x5Bu, 0x08u},
1417:Generated_Source\PSoC5/cyfitter_cfg.c **** 			{0x5Eu, 0x40u},
1418:Generated_Source\PSoC5/cyfitter_cfg.c **** 			{0x60u, 0x08u},
1419:Generated_Source\PSoC5/cyfitter_cfg.c **** 			{0x65u, 0x20u},
1420:Generated_Source\PSoC5/cyfitter_cfg.c **** 			{0x67u, 0x02u},
1421:Generated_Source\PSoC5/cyfitter_cfg.c **** 			{0x80u, 0x20u},
1422:Generated_Source\PSoC5/cyfitter_cfg.c **** 			{0x83u, 0x20u},
1423:Generated_Source\PSoC5/cyfitter_cfg.c **** 			{0x84u, 0x08u},
1424:Generated_Source\PSoC5/cyfitter_cfg.c **** 			{0x89u, 0x40u},
1425:Generated_Source\PSoC5/cyfitter_cfg.c **** 			{0x8Du, 0x40u},
1426:Generated_Source\PSoC5/cyfitter_cfg.c **** 			{0x96u, 0x08u},
1427:Generated_Source\PSoC5/cyfitter_cfg.c **** 			{0xA5u, 0x01u},
1428:Generated_Source\PSoC5/cyfitter_cfg.c **** 			{0xA6u, 0x40u},
1429:Generated_Source\PSoC5/cyfitter_cfg.c **** 			{0xA8u, 0x10u},
1430:Generated_Source\PSoC5/cyfitter_cfg.c **** 			{0xAAu, 0x08u},
1431:Generated_Source\PSoC5/cyfitter_cfg.c **** 			{0xAEu, 0x20u},
1432:Generated_Source\PSoC5/cyfitter_cfg.c **** 			{0xB6u, 0x10u},
1433:Generated_Source\PSoC5/cyfitter_cfg.c **** 			{0xC0u, 0xF0u},
1434:Generated_Source\PSoC5/cyfitter_cfg.c **** 			{0xC2u, 0xF0u},
1435:Generated_Source\PSoC5/cyfitter_cfg.c **** 			{0xD4u, 0xE0u},
1436:Generated_Source\PSoC5/cyfitter_cfg.c **** 			{0xD6u, 0xE0u},
1437:Generated_Source\PSoC5/cyfitter_cfg.c **** 			{0xD8u, 0xC0u},
1438:Generated_Source\PSoC5/cyfitter_cfg.c **** 			{0xE0u, 0x80u},
1439:Generated_Source\PSoC5/cyfitter_cfg.c **** 			{0xE6u, 0x30u},
1440:Generated_Source\PSoC5/cyfitter_cfg.c **** 			{0xEAu, 0x20u},
1441:Generated_Source\PSoC5/cyfitter_cfg.c **** 			{0xECu, 0xC0u},
1442:Generated_Source\PSoC5/cyfitter_cfg.c **** 			{0x03u, 0x40u},
1443:Generated_Source\PSoC5/cyfitter_cfg.c **** 			{0x05u, 0x01u},
1444:Generated_Source\PSoC5/cyfitter_cfg.c **** 			{0x3Cu, 0x20u},
1445:Generated_Source\PSoC5/cyfitter_cfg.c **** 			{0x50u, 0x40u},
1446:Generated_Source\PSoC5/cyfitter_cfg.c **** 			{0x57u, 0x20u},
1447:Generated_Source\PSoC5/cyfitter_cfg.c **** 			{0x80u, 0x40u},
1448:Generated_Source\PSoC5/cyfitter_cfg.c **** 			{0x85u, 0x10u},
1449:Generated_Source\PSoC5/cyfitter_cfg.c **** 			{0x8Au, 0x02u},
1450:Generated_Source\PSoC5/cyfitter_cfg.c **** 			{0x95u, 0x20u},
1451:Generated_Source\PSoC5/cyfitter_cfg.c **** 			{0x96u, 0x08u},
1452:Generated_Source\PSoC5/cyfitter_cfg.c **** 			{0x97u, 0x02u},
1453:Generated_Source\PSoC5/cyfitter_cfg.c **** 			{0x9Cu, 0x80u},
1454:Generated_Source\PSoC5/cyfitter_cfg.c **** 			{0x9Du, 0x20u},
1455:Generated_Source\PSoC5/cyfitter_cfg.c **** 			{0x9Fu, 0x08u},
1456:Generated_Source\PSoC5/cyfitter_cfg.c **** 			{0xA4u, 0x20u},
1457:Generated_Source\PSoC5/cyfitter_cfg.c **** 			{0xA5u, 0x01u},
1458:Generated_Source\PSoC5/cyfitter_cfg.c **** 			{0xA6u, 0x40u},
1459:Generated_Source\PSoC5/cyfitter_cfg.c **** 			{0xAAu, 0x10u},
1460:Generated_Source\PSoC5/cyfitter_cfg.c **** 			{0xACu, 0x04u},
1461:Generated_Source\PSoC5/cyfitter_cfg.c **** 			{0xB1u, 0x02u},
ARM GAS  C:\Users\DGILLI~1\AppData\Local\Temp\ccW7tEoj.s 			page 37


1462:Generated_Source\PSoC5/cyfitter_cfg.c **** 			{0xB3u, 0x40u},
1463:Generated_Source\PSoC5/cyfitter_cfg.c **** 			{0xB5u, 0x80u},
1464:Generated_Source\PSoC5/cyfitter_cfg.c **** 			{0xB6u, 0x44u},
1465:Generated_Source\PSoC5/cyfitter_cfg.c **** 			{0xC0u, 0x30u},
1466:Generated_Source\PSoC5/cyfitter_cfg.c **** 			{0xCEu, 0x20u},
1467:Generated_Source\PSoC5/cyfitter_cfg.c **** 			{0xD4u, 0x60u},
1468:Generated_Source\PSoC5/cyfitter_cfg.c **** 			{0xE2u, 0xC0u},
1469:Generated_Source\PSoC5/cyfitter_cfg.c **** 			{0xECu, 0x60u},
1470:Generated_Source\PSoC5/cyfitter_cfg.c **** 			{0x50u, 0x40u},
1471:Generated_Source\PSoC5/cyfitter_cfg.c **** 			{0x56u, 0x80u},
1472:Generated_Source\PSoC5/cyfitter_cfg.c **** 			{0x5Au, 0x40u},
1473:Generated_Source\PSoC5/cyfitter_cfg.c **** 			{0x83u, 0x01u},
1474:Generated_Source\PSoC5/cyfitter_cfg.c **** 			{0x86u, 0x04u},
1475:Generated_Source\PSoC5/cyfitter_cfg.c **** 			{0x88u, 0x10u},
1476:Generated_Source\PSoC5/cyfitter_cfg.c **** 			{0x8Cu, 0x80u},
1477:Generated_Source\PSoC5/cyfitter_cfg.c **** 			{0x96u, 0x08u},
1478:Generated_Source\PSoC5/cyfitter_cfg.c **** 			{0x97u, 0x02u},
1479:Generated_Source\PSoC5/cyfitter_cfg.c **** 			{0x9Cu, 0x80u},
1480:Generated_Source\PSoC5/cyfitter_cfg.c **** 			{0x9Fu, 0x08u},
1481:Generated_Source\PSoC5/cyfitter_cfg.c **** 			{0xA0u, 0x02u},
1482:Generated_Source\PSoC5/cyfitter_cfg.c **** 			{0xA2u, 0x02u},
1483:Generated_Source\PSoC5/cyfitter_cfg.c **** 			{0xA4u, 0x30u},
1484:Generated_Source\PSoC5/cyfitter_cfg.c **** 			{0xA5u, 0x01u},
1485:Generated_Source\PSoC5/cyfitter_cfg.c **** 			{0xA6u, 0x40u},
1486:Generated_Source\PSoC5/cyfitter_cfg.c **** 			{0xA9u, 0x01u},
1487:Generated_Source\PSoC5/cyfitter_cfg.c **** 			{0xABu, 0x40u},
1488:Generated_Source\PSoC5/cyfitter_cfg.c **** 			{0xAFu, 0x20u},
1489:Generated_Source\PSoC5/cyfitter_cfg.c **** 			{0xB4u, 0x02u},
1490:Generated_Source\PSoC5/cyfitter_cfg.c **** 			{0xB5u, 0x20u},
1491:Generated_Source\PSoC5/cyfitter_cfg.c **** 			{0xD4u, 0xE0u},
1492:Generated_Source\PSoC5/cyfitter_cfg.c **** 			{0xE6u, 0x30u},
1493:Generated_Source\PSoC5/cyfitter_cfg.c **** 			{0xE8u, 0x20u},
1494:Generated_Source\PSoC5/cyfitter_cfg.c **** 			{0xECu, 0x80u},
1495:Generated_Source\PSoC5/cyfitter_cfg.c **** 			{0xEEu, 0x10u},
1496:Generated_Source\PSoC5/cyfitter_cfg.c **** 			{0x09u, 0x21u},
1497:Generated_Source\PSoC5/cyfitter_cfg.c **** 			{0x0Cu, 0x20u},
1498:Generated_Source\PSoC5/cyfitter_cfg.c **** 			{0x0Fu, 0x40u},
1499:Generated_Source\PSoC5/cyfitter_cfg.c **** 			{0x10u, 0x80u},
1500:Generated_Source\PSoC5/cyfitter_cfg.c **** 			{0x11u, 0x01u},
1501:Generated_Source\PSoC5/cyfitter_cfg.c **** 			{0x14u, 0x20u},
1502:Generated_Source\PSoC5/cyfitter_cfg.c **** 			{0x15u, 0x04u},
1503:Generated_Source\PSoC5/cyfitter_cfg.c **** 			{0x5Fu, 0x08u},
1504:Generated_Source\PSoC5/cyfitter_cfg.c **** 			{0x63u, 0x21u},
1505:Generated_Source\PSoC5/cyfitter_cfg.c **** 			{0x67u, 0x04u},
1506:Generated_Source\PSoC5/cyfitter_cfg.c **** 			{0x71u, 0x01u},
1507:Generated_Source\PSoC5/cyfitter_cfg.c **** 			{0x72u, 0x08u},
1508:Generated_Source\PSoC5/cyfitter_cfg.c **** 			{0x74u, 0x04u},
1509:Generated_Source\PSoC5/cyfitter_cfg.c **** 			{0x80u, 0x80u},
1510:Generated_Source\PSoC5/cyfitter_cfg.c **** 			{0x8Du, 0x01u},
1511:Generated_Source\PSoC5/cyfitter_cfg.c **** 			{0x8Eu, 0x10u},
1512:Generated_Source\PSoC5/cyfitter_cfg.c **** 			{0xC2u, 0x0Fu},
1513:Generated_Source\PSoC5/cyfitter_cfg.c **** 			{0xC4u, 0x0Cu},
1514:Generated_Source\PSoC5/cyfitter_cfg.c **** 			{0xD6u, 0x03u},
1515:Generated_Source\PSoC5/cyfitter_cfg.c **** 			{0xD8u, 0x03u},
1516:Generated_Source\PSoC5/cyfitter_cfg.c **** 			{0xDCu, 0x05u},
1517:Generated_Source\PSoC5/cyfitter_cfg.c **** 			{0xDEu, 0x04u},
1518:Generated_Source\PSoC5/cyfitter_cfg.c **** 			{0xE2u, 0x0Au},
ARM GAS  C:\Users\DGILLI~1\AppData\Local\Temp\ccW7tEoj.s 			page 38


1519:Generated_Source\PSoC5/cyfitter_cfg.c **** 			{0x02u, 0x04u},
1520:Generated_Source\PSoC5/cyfitter_cfg.c **** 			{0x03u, 0x40u},
1521:Generated_Source\PSoC5/cyfitter_cfg.c **** 			{0x04u, 0x02u},
1522:Generated_Source\PSoC5/cyfitter_cfg.c **** 			{0x05u, 0x20u},
1523:Generated_Source\PSoC5/cyfitter_cfg.c **** 			{0x08u, 0x08u},
1524:Generated_Source\PSoC5/cyfitter_cfg.c **** 			{0x0Au, 0x04u},
1525:Generated_Source\PSoC5/cyfitter_cfg.c **** 			{0x0Cu, 0x02u},
1526:Generated_Source\PSoC5/cyfitter_cfg.c **** 			{0x0Du, 0x10u},
1527:Generated_Source\PSoC5/cyfitter_cfg.c **** 			{0x50u, 0x80u},
1528:Generated_Source\PSoC5/cyfitter_cfg.c **** 			{0x55u, 0x08u},
1529:Generated_Source\PSoC5/cyfitter_cfg.c **** 			{0x5Bu, 0x20u},
1530:Generated_Source\PSoC5/cyfitter_cfg.c **** 			{0x5Eu, 0x08u},
1531:Generated_Source\PSoC5/cyfitter_cfg.c **** 			{0x5Fu, 0x80u},
1532:Generated_Source\PSoC5/cyfitter_cfg.c **** 			{0x61u, 0x04u},
1533:Generated_Source\PSoC5/cyfitter_cfg.c **** 			{0x62u, 0x80u},
1534:Generated_Source\PSoC5/cyfitter_cfg.c **** 			{0x66u, 0x01u},
1535:Generated_Source\PSoC5/cyfitter_cfg.c **** 			{0x69u, 0x08u},
1536:Generated_Source\PSoC5/cyfitter_cfg.c **** 			{0x83u, 0x18u},
1537:Generated_Source\PSoC5/cyfitter_cfg.c **** 			{0x84u, 0x04u},
1538:Generated_Source\PSoC5/cyfitter_cfg.c **** 			{0x86u, 0x80u},
1539:Generated_Source\PSoC5/cyfitter_cfg.c **** 			{0x88u, 0x08u},
1540:Generated_Source\PSoC5/cyfitter_cfg.c **** 			{0x8Bu, 0x40u},
1541:Generated_Source\PSoC5/cyfitter_cfg.c **** 			{0x8Du, 0x01u},
1542:Generated_Source\PSoC5/cyfitter_cfg.c **** 			{0x8Eu, 0x02u},
1543:Generated_Source\PSoC5/cyfitter_cfg.c **** 			{0x91u, 0x05u},
1544:Generated_Source\PSoC5/cyfitter_cfg.c **** 			{0x93u, 0x40u},
1545:Generated_Source\PSoC5/cyfitter_cfg.c **** 			{0x96u, 0x20u},
1546:Generated_Source\PSoC5/cyfitter_cfg.c **** 			{0x97u, 0x05u},
1547:Generated_Source\PSoC5/cyfitter_cfg.c **** 			{0x9Du, 0x01u},
1548:Generated_Source\PSoC5/cyfitter_cfg.c **** 			{0x9Eu, 0x08u},
1549:Generated_Source\PSoC5/cyfitter_cfg.c **** 			{0x9Fu, 0x08u},
1550:Generated_Source\PSoC5/cyfitter_cfg.c **** 			{0xA4u, 0x04u},
1551:Generated_Source\PSoC5/cyfitter_cfg.c **** 			{0xA7u, 0x10u},
1552:Generated_Source\PSoC5/cyfitter_cfg.c **** 			{0xACu, 0x20u},
1553:Generated_Source\PSoC5/cyfitter_cfg.c **** 			{0xB0u, 0x20u},
1554:Generated_Source\PSoC5/cyfitter_cfg.c **** 			{0xB1u, 0x20u},
1555:Generated_Source\PSoC5/cyfitter_cfg.c **** 			{0xC0u, 0x0Fu},
1556:Generated_Source\PSoC5/cyfitter_cfg.c **** 			{0xC2u, 0x0Fu},
1557:Generated_Source\PSoC5/cyfitter_cfg.c **** 			{0xD4u, 0x07u},
1558:Generated_Source\PSoC5/cyfitter_cfg.c **** 			{0xD6u, 0x07u},
1559:Generated_Source\PSoC5/cyfitter_cfg.c **** 			{0xD8u, 0x03u},
1560:Generated_Source\PSoC5/cyfitter_cfg.c **** 			{0xDAu, 0x02u},
1561:Generated_Source\PSoC5/cyfitter_cfg.c **** 			{0xE2u, 0x05u},
1562:Generated_Source\PSoC5/cyfitter_cfg.c **** 			{0xE4u, 0x0Au},
1563:Generated_Source\PSoC5/cyfitter_cfg.c **** 			{0xEEu, 0x05u},
1564:Generated_Source\PSoC5/cyfitter_cfg.c **** 			{0x84u, 0x80u},
1565:Generated_Source\PSoC5/cyfitter_cfg.c **** 			{0x85u, 0x08u},
1566:Generated_Source\PSoC5/cyfitter_cfg.c **** 			{0x8Fu, 0x01u},
1567:Generated_Source\PSoC5/cyfitter_cfg.c **** 			{0x90u, 0x02u},
1568:Generated_Source\PSoC5/cyfitter_cfg.c **** 			{0x91u, 0x05u},
1569:Generated_Source\PSoC5/cyfitter_cfg.c **** 			{0x92u, 0x04u},
1570:Generated_Source\PSoC5/cyfitter_cfg.c **** 			{0x95u, 0x08u},
1571:Generated_Source\PSoC5/cyfitter_cfg.c **** 			{0x96u, 0x20u},
1572:Generated_Source\PSoC5/cyfitter_cfg.c **** 			{0x97u, 0x05u},
1573:Generated_Source\PSoC5/cyfitter_cfg.c **** 			{0x9Au, 0x84u},
1574:Generated_Source\PSoC5/cyfitter_cfg.c **** 			{0x9Bu, 0x40u},
1575:Generated_Source\PSoC5/cyfitter_cfg.c **** 			{0x9Du, 0x04u},
ARM GAS  C:\Users\DGILLI~1\AppData\Local\Temp\ccW7tEoj.s 			page 39


1576:Generated_Source\PSoC5/cyfitter_cfg.c **** 			{0x9Eu, 0x09u},
1577:Generated_Source\PSoC5/cyfitter_cfg.c **** 			{0x9Fu, 0xA0u},
1578:Generated_Source\PSoC5/cyfitter_cfg.c **** 			{0xA2u, 0x0Au},
1579:Generated_Source\PSoC5/cyfitter_cfg.c **** 			{0xA4u, 0x80u},
1580:Generated_Source\PSoC5/cyfitter_cfg.c **** 			{0xA5u, 0x08u},
1581:Generated_Source\PSoC5/cyfitter_cfg.c **** 			{0xA6u, 0x84u},
1582:Generated_Source\PSoC5/cyfitter_cfg.c **** 			{0xAAu, 0x08u},
1583:Generated_Source\PSoC5/cyfitter_cfg.c **** 			{0xB1u, 0x30u},
1584:Generated_Source\PSoC5/cyfitter_cfg.c **** 			{0xB4u, 0x02u},
1585:Generated_Source\PSoC5/cyfitter_cfg.c **** 			{0xE4u, 0x08u},
1586:Generated_Source\PSoC5/cyfitter_cfg.c **** 			{0xEAu, 0x04u},
1587:Generated_Source\PSoC5/cyfitter_cfg.c **** 			{0xEEu, 0x06u},
1588:Generated_Source\PSoC5/cyfitter_cfg.c **** 			{0x0Au, 0x20u},
1589:Generated_Source\PSoC5/cyfitter_cfg.c **** 			{0x0Bu, 0x08u},
1590:Generated_Source\PSoC5/cyfitter_cfg.c **** 			{0x0Fu, 0x40u},
1591:Generated_Source\PSoC5/cyfitter_cfg.c **** 			{0x50u, 0x80u},
1592:Generated_Source\PSoC5/cyfitter_cfg.c **** 			{0x82u, 0x0Du},
1593:Generated_Source\PSoC5/cyfitter_cfg.c **** 			{0x85u, 0x04u},
1594:Generated_Source\PSoC5/cyfitter_cfg.c **** 			{0x86u, 0x44u},
1595:Generated_Source\PSoC5/cyfitter_cfg.c **** 			{0x87u, 0x04u},
1596:Generated_Source\PSoC5/cyfitter_cfg.c **** 			{0x8Au, 0x20u},
1597:Generated_Source\PSoC5/cyfitter_cfg.c **** 			{0x8Bu, 0x10u},
1598:Generated_Source\PSoC5/cyfitter_cfg.c **** 			{0x8Cu, 0x80u},
1599:Generated_Source\PSoC5/cyfitter_cfg.c **** 			{0x90u, 0x02u},
1600:Generated_Source\PSoC5/cyfitter_cfg.c **** 			{0x91u, 0x05u},
1601:Generated_Source\PSoC5/cyfitter_cfg.c **** 			{0x92u, 0x04u},
1602:Generated_Source\PSoC5/cyfitter_cfg.c **** 			{0x95u, 0x08u},
1603:Generated_Source\PSoC5/cyfitter_cfg.c **** 			{0x96u, 0x20u},
1604:Generated_Source\PSoC5/cyfitter_cfg.c **** 			{0x9Au, 0x84u},
1605:Generated_Source\PSoC5/cyfitter_cfg.c **** 			{0x9Bu, 0x40u},
1606:Generated_Source\PSoC5/cyfitter_cfg.c **** 			{0x9Du, 0x04u},
1607:Generated_Source\PSoC5/cyfitter_cfg.c **** 			{0x9Eu, 0x09u},
1608:Generated_Source\PSoC5/cyfitter_cfg.c **** 			{0x9Fu, 0x80u},
1609:Generated_Source\PSoC5/cyfitter_cfg.c **** 			{0xA2u, 0x0Au},
1610:Generated_Source\PSoC5/cyfitter_cfg.c **** 			{0xA6u, 0x84u},
1611:Generated_Source\PSoC5/cyfitter_cfg.c **** 			{0xABu, 0x20u},
1612:Generated_Source\PSoC5/cyfitter_cfg.c **** 			{0xB3u, 0x04u},
1613:Generated_Source\PSoC5/cyfitter_cfg.c **** 			{0xC2u, 0x0Eu},
1614:Generated_Source\PSoC5/cyfitter_cfg.c **** 			{0xD4u, 0x04u},
1615:Generated_Source\PSoC5/cyfitter_cfg.c **** 			{0xE2u, 0x04u},
1616:Generated_Source\PSoC5/cyfitter_cfg.c **** 			{0xE4u, 0x02u},
1617:Generated_Source\PSoC5/cyfitter_cfg.c **** 			{0xE6u, 0x01u},
1618:Generated_Source\PSoC5/cyfitter_cfg.c **** 			{0xECu, 0x04u},
1619:Generated_Source\PSoC5/cyfitter_cfg.c **** 			{0x02u, 0x20u},
1620:Generated_Source\PSoC5/cyfitter_cfg.c **** 			{0x03u, 0x02u},
1621:Generated_Source\PSoC5/cyfitter_cfg.c **** 			{0x05u, 0x82u},
1622:Generated_Source\PSoC5/cyfitter_cfg.c **** 			{0x52u, 0x10u},
1623:Generated_Source\PSoC5/cyfitter_cfg.c **** 			{0x54u, 0x40u},
1624:Generated_Source\PSoC5/cyfitter_cfg.c **** 			{0x56u, 0x02u},
1625:Generated_Source\PSoC5/cyfitter_cfg.c **** 			{0x5Au, 0x80u},
1626:Generated_Source\PSoC5/cyfitter_cfg.c **** 			{0x82u, 0x42u},
1627:Generated_Source\PSoC5/cyfitter_cfg.c **** 			{0x84u, 0x40u},
1628:Generated_Source\PSoC5/cyfitter_cfg.c **** 			{0x87u, 0x02u},
1629:Generated_Source\PSoC5/cyfitter_cfg.c **** 			{0x89u, 0x02u},
1630:Generated_Source\PSoC5/cyfitter_cfg.c **** 			{0x8Au, 0x10u},
1631:Generated_Source\PSoC5/cyfitter_cfg.c **** 			{0x8Du, 0x28u},
1632:Generated_Source\PSoC5/cyfitter_cfg.c **** 			{0x96u, 0x40u},
ARM GAS  C:\Users\DGILLI~1\AppData\Local\Temp\ccW7tEoj.s 			page 40


1633:Generated_Source\PSoC5/cyfitter_cfg.c **** 			{0x9Fu, 0x08u},
1634:Generated_Source\PSoC5/cyfitter_cfg.c **** 			{0xA0u, 0x02u},
1635:Generated_Source\PSoC5/cyfitter_cfg.c **** 			{0xA2u, 0x02u},
1636:Generated_Source\PSoC5/cyfitter_cfg.c **** 			{0xA4u, 0x20u},
1637:Generated_Source\PSoC5/cyfitter_cfg.c **** 			{0xA5u, 0x01u},
1638:Generated_Source\PSoC5/cyfitter_cfg.c **** 			{0xA8u, 0x40u},
1639:Generated_Source\PSoC5/cyfitter_cfg.c **** 			{0xAEu, 0xC0u},
1640:Generated_Source\PSoC5/cyfitter_cfg.c **** 			{0xC0u, 0xF0u},
1641:Generated_Source\PSoC5/cyfitter_cfg.c **** 			{0xD4u, 0xE0u},
1642:Generated_Source\PSoC5/cyfitter_cfg.c **** 			{0xD6u, 0x20u},
1643:Generated_Source\PSoC5/cyfitter_cfg.c **** 			{0xE2u, 0x40u},
1644:Generated_Source\PSoC5/cyfitter_cfg.c **** 			{0xE4u, 0x40u},
1645:Generated_Source\PSoC5/cyfitter_cfg.c **** 			{0xE6u, 0xA0u},
1646:Generated_Source\PSoC5/cyfitter_cfg.c **** 			{0xEAu, 0xC0u},
1647:Generated_Source\PSoC5/cyfitter_cfg.c **** 			{0xEEu, 0x40u},
1648:Generated_Source\PSoC5/cyfitter_cfg.c **** 			{0x03u, 0x41u},
1649:Generated_Source\PSoC5/cyfitter_cfg.c **** 			{0x04u, 0x08u},
1650:Generated_Source\PSoC5/cyfitter_cfg.c **** 			{0x05u, 0x40u},
1651:Generated_Source\PSoC5/cyfitter_cfg.c **** 			{0x09u, 0x02u},
1652:Generated_Source\PSoC5/cyfitter_cfg.c **** 			{0x0Au, 0x02u},
1653:Generated_Source\PSoC5/cyfitter_cfg.c **** 			{0x0Cu, 0x80u},
1654:Generated_Source\PSoC5/cyfitter_cfg.c **** 			{0x0Eu, 0x40u},
1655:Generated_Source\PSoC5/cyfitter_cfg.c **** 			{0x10u, 0x20u},
1656:Generated_Source\PSoC5/cyfitter_cfg.c **** 			{0x17u, 0x02u},
1657:Generated_Source\PSoC5/cyfitter_cfg.c **** 			{0x51u, 0x08u},
1658:Generated_Source\PSoC5/cyfitter_cfg.c **** 			{0x55u, 0x20u},
1659:Generated_Source\PSoC5/cyfitter_cfg.c **** 			{0x56u, 0x02u},
1660:Generated_Source\PSoC5/cyfitter_cfg.c **** 			{0x58u, 0x48u},
1661:Generated_Source\PSoC5/cyfitter_cfg.c **** 			{0x5Eu, 0x01u},
1662:Generated_Source\PSoC5/cyfitter_cfg.c **** 			{0x62u, 0x04u},
1663:Generated_Source\PSoC5/cyfitter_cfg.c **** 			{0x66u, 0x01u},
1664:Generated_Source\PSoC5/cyfitter_cfg.c **** 			{0x70u, 0x02u},
1665:Generated_Source\PSoC5/cyfitter_cfg.c **** 			{0x75u, 0x20u},
1666:Generated_Source\PSoC5/cyfitter_cfg.c **** 			{0x7Eu, 0x02u},
1667:Generated_Source\PSoC5/cyfitter_cfg.c **** 			{0x80u, 0x08u},
1668:Generated_Source\PSoC5/cyfitter_cfg.c **** 			{0x82u, 0x40u},
1669:Generated_Source\PSoC5/cyfitter_cfg.c **** 			{0x83u, 0x40u},
1670:Generated_Source\PSoC5/cyfitter_cfg.c **** 			{0x84u, 0xC0u},
1671:Generated_Source\PSoC5/cyfitter_cfg.c **** 			{0x86u, 0x01u},
1672:Generated_Source\PSoC5/cyfitter_cfg.c **** 			{0x89u, 0x62u},
1673:Generated_Source\PSoC5/cyfitter_cfg.c **** 			{0x8Au, 0x01u},
1674:Generated_Source\PSoC5/cyfitter_cfg.c **** 			{0x8Cu, 0x04u},
1675:Generated_Source\PSoC5/cyfitter_cfg.c **** 			{0x8Eu, 0x07u},
1676:Generated_Source\PSoC5/cyfitter_cfg.c **** 			{0x9Fu, 0x03u},
1677:Generated_Source\PSoC5/cyfitter_cfg.c **** 			{0xA0u, 0x02u},
1678:Generated_Source\PSoC5/cyfitter_cfg.c **** 			{0xA1u, 0x28u},
1679:Generated_Source\PSoC5/cyfitter_cfg.c **** 			{0xA2u, 0x02u},
1680:Generated_Source\PSoC5/cyfitter_cfg.c **** 			{0xA4u, 0x20u},
1681:Generated_Source\PSoC5/cyfitter_cfg.c **** 			{0xAAu, 0x40u},
1682:Generated_Source\PSoC5/cyfitter_cfg.c **** 			{0xAEu, 0x20u},
1683:Generated_Source\PSoC5/cyfitter_cfg.c **** 			{0xAFu, 0x02u},
1684:Generated_Source\PSoC5/cyfitter_cfg.c **** 			{0xB1u, 0x80u},
1685:Generated_Source\PSoC5/cyfitter_cfg.c **** 			{0xB3u, 0x01u},
1686:Generated_Source\PSoC5/cyfitter_cfg.c **** 			{0xB5u, 0x01u},
1687:Generated_Source\PSoC5/cyfitter_cfg.c **** 			{0xB7u, 0x08u},
1688:Generated_Source\PSoC5/cyfitter_cfg.c **** 			{0xC0u, 0xF0u},
1689:Generated_Source\PSoC5/cyfitter_cfg.c **** 			{0xC2u, 0xF0u},
ARM GAS  C:\Users\DGILLI~1\AppData\Local\Temp\ccW7tEoj.s 			page 41


1690:Generated_Source\PSoC5/cyfitter_cfg.c **** 			{0xC4u, 0x30u},
1691:Generated_Source\PSoC5/cyfitter_cfg.c **** 			{0xD4u, 0xE0u},
1692:Generated_Source\PSoC5/cyfitter_cfg.c **** 			{0xD6u, 0xE0u},
1693:Generated_Source\PSoC5/cyfitter_cfg.c **** 			{0xD8u, 0xC0u},
1694:Generated_Source\PSoC5/cyfitter_cfg.c **** 			{0xDCu, 0xC0u},
1695:Generated_Source\PSoC5/cyfitter_cfg.c **** 			{0xDEu, 0x20u},
1696:Generated_Source\PSoC5/cyfitter_cfg.c **** 			{0xE0u, 0x30u},
1697:Generated_Source\PSoC5/cyfitter_cfg.c **** 			{0xE4u, 0xC0u},
1698:Generated_Source\PSoC5/cyfitter_cfg.c **** 			{0xE6u, 0x30u},
1699:Generated_Source\PSoC5/cyfitter_cfg.c **** 			{0xE8u, 0x10u},
1700:Generated_Source\PSoC5/cyfitter_cfg.c **** 			{0xEAu, 0x20u},
1701:Generated_Source\PSoC5/cyfitter_cfg.c **** 			{0xECu, 0x40u},
1702:Generated_Source\PSoC5/cyfitter_cfg.c **** 			{0x00u, 0x10u},
1703:Generated_Source\PSoC5/cyfitter_cfg.c **** 			{0x04u, 0x40u},
1704:Generated_Source\PSoC5/cyfitter_cfg.c **** 			{0x09u, 0x20u},
1705:Generated_Source\PSoC5/cyfitter_cfg.c **** 			{0x0Cu, 0x81u},
1706:Generated_Source\PSoC5/cyfitter_cfg.c **** 			{0x10u, 0x40u},
1707:Generated_Source\PSoC5/cyfitter_cfg.c **** 			{0x13u, 0x10u},
1708:Generated_Source\PSoC5/cyfitter_cfg.c **** 			{0x16u, 0x20u},
1709:Generated_Source\PSoC5/cyfitter_cfg.c **** 			{0x52u, 0x08u},
1710:Generated_Source\PSoC5/cyfitter_cfg.c **** 			{0x5Eu, 0x80u},
1711:Generated_Source\PSoC5/cyfitter_cfg.c **** 			{0x61u, 0x40u},
1712:Generated_Source\PSoC5/cyfitter_cfg.c **** 			{0x62u, 0x02u},
1713:Generated_Source\PSoC5/cyfitter_cfg.c **** 			{0x66u, 0x80u},
1714:Generated_Source\PSoC5/cyfitter_cfg.c **** 			{0x6Bu, 0x20u},
1715:Generated_Source\PSoC5/cyfitter_cfg.c **** 			{0x79u, 0x01u},
1716:Generated_Source\PSoC5/cyfitter_cfg.c **** 			{0x7Du, 0x04u},
1717:Generated_Source\PSoC5/cyfitter_cfg.c **** 			{0x81u, 0x04u},
1718:Generated_Source\PSoC5/cyfitter_cfg.c **** 			{0x82u, 0x04u},
1719:Generated_Source\PSoC5/cyfitter_cfg.c **** 			{0x83u, 0x14u},
1720:Generated_Source\PSoC5/cyfitter_cfg.c **** 			{0x86u, 0x80u},
1721:Generated_Source\PSoC5/cyfitter_cfg.c **** 			{0x87u, 0xC0u},
1722:Generated_Source\PSoC5/cyfitter_cfg.c **** 			{0x8Au, 0x01u},
1723:Generated_Source\PSoC5/cyfitter_cfg.c **** 			{0x91u, 0x05u},
1724:Generated_Source\PSoC5/cyfitter_cfg.c **** 			{0x97u, 0x10u},
1725:Generated_Source\PSoC5/cyfitter_cfg.c **** 			{0x99u, 0x40u},
1726:Generated_Source\PSoC5/cyfitter_cfg.c **** 			{0x9Au, 0x80u},
1727:Generated_Source\PSoC5/cyfitter_cfg.c **** 			{0x9Du, 0x04u},
1728:Generated_Source\PSoC5/cyfitter_cfg.c **** 			{0x9Fu, 0x82u},
1729:Generated_Source\PSoC5/cyfitter_cfg.c **** 			{0xA2u, 0x4Au},
1730:Generated_Source\PSoC5/cyfitter_cfg.c **** 			{0xA6u, 0xA4u},
1731:Generated_Source\PSoC5/cyfitter_cfg.c **** 			{0xABu, 0x40u},
1732:Generated_Source\PSoC5/cyfitter_cfg.c **** 			{0xAFu, 0x40u},
1733:Generated_Source\PSoC5/cyfitter_cfg.c **** 			{0xB1u, 0x40u},
1734:Generated_Source\PSoC5/cyfitter_cfg.c **** 			{0xB4u, 0x01u},
1735:Generated_Source\PSoC5/cyfitter_cfg.c **** 			{0xB7u, 0x02u},
1736:Generated_Source\PSoC5/cyfitter_cfg.c **** 			{0xC0u, 0x03u},
1737:Generated_Source\PSoC5/cyfitter_cfg.c **** 			{0xC2u, 0x07u},
1738:Generated_Source\PSoC5/cyfitter_cfg.c **** 			{0xC4u, 0x0Eu},
1739:Generated_Source\PSoC5/cyfitter_cfg.c **** 			{0xD4u, 0x04u},
1740:Generated_Source\PSoC5/cyfitter_cfg.c **** 			{0xD6u, 0x07u},
1741:Generated_Source\PSoC5/cyfitter_cfg.c **** 			{0xD8u, 0x02u},
1742:Generated_Source\PSoC5/cyfitter_cfg.c **** 			{0xDAu, 0x02u},
1743:Generated_Source\PSoC5/cyfitter_cfg.c **** 			{0xDEu, 0x03u},
1744:Generated_Source\PSoC5/cyfitter_cfg.c **** 			{0xE6u, 0x01u},
1745:Generated_Source\PSoC5/cyfitter_cfg.c **** 			{0xE8u, 0x01u},
1746:Generated_Source\PSoC5/cyfitter_cfg.c **** 			{0xEAu, 0x0Au},
ARM GAS  C:\Users\DGILLI~1\AppData\Local\Temp\ccW7tEoj.s 			page 42


1747:Generated_Source\PSoC5/cyfitter_cfg.c **** 			{0x03u, 0x10u},
1748:Generated_Source\PSoC5/cyfitter_cfg.c **** 			{0x09u, 0x01u},
1749:Generated_Source\PSoC5/cyfitter_cfg.c **** 			{0x0Au, 0x01u},
1750:Generated_Source\PSoC5/cyfitter_cfg.c **** 			{0x0Eu, 0x20u},
1751:Generated_Source\PSoC5/cyfitter_cfg.c **** 			{0x0Fu, 0x02u},
1752:Generated_Source\PSoC5/cyfitter_cfg.c **** 			{0x12u, 0x20u},
1753:Generated_Source\PSoC5/cyfitter_cfg.c **** 			{0x17u, 0x02u},
1754:Generated_Source\PSoC5/cyfitter_cfg.c **** 			{0x53u, 0x01u},
1755:Generated_Source\PSoC5/cyfitter_cfg.c **** 			{0x5Bu, 0x04u},
1756:Generated_Source\PSoC5/cyfitter_cfg.c **** 			{0x5Cu, 0x04u},
1757:Generated_Source\PSoC5/cyfitter_cfg.c **** 			{0x60u, 0x10u},
1758:Generated_Source\PSoC5/cyfitter_cfg.c **** 			{0x67u, 0x40u},
1759:Generated_Source\PSoC5/cyfitter_cfg.c **** 			{0x6Bu, 0x20u},
1760:Generated_Source\PSoC5/cyfitter_cfg.c **** 			{0x76u, 0x20u},
1761:Generated_Source\PSoC5/cyfitter_cfg.c **** 			{0x78u, 0x40u},
1762:Generated_Source\PSoC5/cyfitter_cfg.c **** 			{0x87u, 0x20u},
1763:Generated_Source\PSoC5/cyfitter_cfg.c **** 			{0x8Cu, 0x14u},
1764:Generated_Source\PSoC5/cyfitter_cfg.c **** 			{0x8Fu, 0x01u},
1765:Generated_Source\PSoC5/cyfitter_cfg.c **** 			{0x93u, 0x40u},
1766:Generated_Source\PSoC5/cyfitter_cfg.c **** 			{0x96u, 0x01u},
1767:Generated_Source\PSoC5/cyfitter_cfg.c **** 			{0x98u, 0x40u},
1768:Generated_Source\PSoC5/cyfitter_cfg.c **** 			{0x9Au, 0x20u},
1769:Generated_Source\PSoC5/cyfitter_cfg.c **** 			{0x9Bu, 0x04u},
1770:Generated_Source\PSoC5/cyfitter_cfg.c **** 			{0x9Fu, 0x12u},
1771:Generated_Source\PSoC5/cyfitter_cfg.c **** 			{0xA5u, 0x01u},
1772:Generated_Source\PSoC5/cyfitter_cfg.c **** 			{0xA6u, 0x30u},
1773:Generated_Source\PSoC5/cyfitter_cfg.c **** 			{0xA7u, 0x01u},
1774:Generated_Source\PSoC5/cyfitter_cfg.c **** 			{0xA9u, 0x01u},
1775:Generated_Source\PSoC5/cyfitter_cfg.c **** 			{0xAEu, 0x10u},
1776:Generated_Source\PSoC5/cyfitter_cfg.c **** 			{0xAFu, 0x20u},
1777:Generated_Source\PSoC5/cyfitter_cfg.c **** 			{0xB0u, 0x01u},
1778:Generated_Source\PSoC5/cyfitter_cfg.c **** 			{0xB1u, 0x20u},
1779:Generated_Source\PSoC5/cyfitter_cfg.c **** 			{0xB3u, 0x01u},
1780:Generated_Source\PSoC5/cyfitter_cfg.c **** 			{0xB4u, 0xD0u},
1781:Generated_Source\PSoC5/cyfitter_cfg.c **** 			{0xC0u, 0x08u},
1782:Generated_Source\PSoC5/cyfitter_cfg.c **** 			{0xC2u, 0x0Fu},
1783:Generated_Source\PSoC5/cyfitter_cfg.c **** 			{0xC4u, 0x0Cu},
1784:Generated_Source\PSoC5/cyfitter_cfg.c **** 			{0xD4u, 0x01u},
1785:Generated_Source\PSoC5/cyfitter_cfg.c **** 			{0xD6u, 0x03u},
1786:Generated_Source\PSoC5/cyfitter_cfg.c **** 			{0xD8u, 0x03u},
1787:Generated_Source\PSoC5/cyfitter_cfg.c **** 			{0xDAu, 0x02u},
1788:Generated_Source\PSoC5/cyfitter_cfg.c **** 			{0xDCu, 0x01u},
1789:Generated_Source\PSoC5/cyfitter_cfg.c **** 			{0xDEu, 0x04u},
1790:Generated_Source\PSoC5/cyfitter_cfg.c **** 			{0xE0u, 0x0Au},
1791:Generated_Source\PSoC5/cyfitter_cfg.c **** 			{0xE4u, 0x02u},
1792:Generated_Source\PSoC5/cyfitter_cfg.c **** 			{0xEAu, 0x0Bu},
1793:Generated_Source\PSoC5/cyfitter_cfg.c **** 			{0xEEu, 0x07u},
1794:Generated_Source\PSoC5/cyfitter_cfg.c **** 			{0x00u, 0x02u},
1795:Generated_Source\PSoC5/cyfitter_cfg.c **** 			{0x01u, 0x01u},
1796:Generated_Source\PSoC5/cyfitter_cfg.c **** 			{0x08u, 0x02u},
1797:Generated_Source\PSoC5/cyfitter_cfg.c **** 			{0x09u, 0x01u},
1798:Generated_Source\PSoC5/cyfitter_cfg.c **** 			{0x0Au, 0x02u},
1799:Generated_Source\PSoC5/cyfitter_cfg.c **** 			{0x0Bu, 0x01u},
1800:Generated_Source\PSoC5/cyfitter_cfg.c **** 			{0x10u, 0x02u},
1801:Generated_Source\PSoC5/cyfitter_cfg.c **** 			{0x1Au, 0x02u},
1802:Generated_Source\PSoC5/cyfitter_cfg.c **** 			{0x1Cu, 0x02u},
1803:Generated_Source\PSoC5/cyfitter_cfg.c **** 			{0x00u, 0x2Au},
ARM GAS  C:\Users\DGILLI~1\AppData\Local\Temp\ccW7tEoj.s 			page 43


1804:Generated_Source\PSoC5/cyfitter_cfg.c **** 			{0x03u, 0xC0u},
1805:Generated_Source\PSoC5/cyfitter_cfg.c **** 		};
1806:Generated_Source\PSoC5/cyfitter_cfg.c **** 
1807:Generated_Source\PSoC5/cyfitter_cfg.c **** 
1808:Generated_Source\PSoC5/cyfitter_cfg.c **** 
1809:Generated_Source\PSoC5/cyfitter_cfg.c **** 		CYPACKED typedef struct {
1810:Generated_Source\PSoC5/cyfitter_cfg.c **** 			void CYFAR *address;
1811:Generated_Source\PSoC5/cyfitter_cfg.c **** 			uint16 size;
1812:Generated_Source\PSoC5/cyfitter_cfg.c **** 		} CYPACKED_ATTR cfg_memset_t;
1813:Generated_Source\PSoC5/cyfitter_cfg.c **** 
1814:Generated_Source\PSoC5/cyfitter_cfg.c **** 
1815:Generated_Source\PSoC5/cyfitter_cfg.c **** 		CYPACKED typedef struct {
1816:Generated_Source\PSoC5/cyfitter_cfg.c **** 			void CYFAR *dest;
1817:Generated_Source\PSoC5/cyfitter_cfg.c **** 			const void CYCODE *src;
1818:Generated_Source\PSoC5/cyfitter_cfg.c **** 			uint16 size;
1819:Generated_Source\PSoC5/cyfitter_cfg.c **** 		} CYPACKED_ATTR cfg_memcpy_t;
1820:Generated_Source\PSoC5/cyfitter_cfg.c **** 
1821:Generated_Source\PSoC5/cyfitter_cfg.c **** 		static const cfg_memset_t CYCODE cfg_memset_list[] = {
1822:Generated_Source\PSoC5/cyfitter_cfg.c **** 			/* address, size */
1823:Generated_Source\PSoC5/cyfitter_cfg.c **** 			{(void CYFAR *)(CYREG_I2C_XCFG), 25u},
1824:Generated_Source\PSoC5/cyfitter_cfg.c **** 			{(void CYFAR *)(CYDEV_UCFG_B0_P0_U0_BASE), 4096u},
1825:Generated_Source\PSoC5/cyfitter_cfg.c **** 			{(void CYFAR *)(CYDEV_UCFG_B1_P2_U0_BASE), 2048u},
1826:Generated_Source\PSoC5/cyfitter_cfg.c **** 			{(void CYFAR *)(CYDEV_UCFG_DSI0_BASE), 2560u},
1827:Generated_Source\PSoC5/cyfitter_cfg.c **** 			{(void CYFAR *)(CYDEV_UCFG_DSI12_BASE), 512u},
1828:Generated_Source\PSoC5/cyfitter_cfg.c **** 			{(void CYFAR *)(CYREG_BCTL0_MDCLK_EN), 32u},
1829:Generated_Source\PSoC5/cyfitter_cfg.c **** 		};
1830:Generated_Source\PSoC5/cyfitter_cfg.c **** 
1831:Generated_Source\PSoC5/cyfitter_cfg.c **** 		/* IOPORT_3 Address: CYDEV_PRTDSI_PRT3_BASE Size (bytes): 7 */
1832:Generated_Source\PSoC5/cyfitter_cfg.c **** 		static const uint8 CYCODE BS_IOPORT_3_VAL[] = {
1833:Generated_Source\PSoC5/cyfitter_cfg.c **** 			0x95u, 0x3Cu, 0xFFu, 0xFFu, 0x00u, 0x00u, 0x00u};
1834:Generated_Source\PSoC5/cyfitter_cfg.c **** 
1835:Generated_Source\PSoC5/cyfitter_cfg.c **** 		/* IOPORT_4 Address: CYDEV_PRTDSI_PRT4_BASE Size (bytes): 7 */
1836:Generated_Source\PSoC5/cyfitter_cfg.c **** 		static const uint8 CYCODE BS_IOPORT_4_VAL[] = {
1837:Generated_Source\PSoC5/cyfitter_cfg.c **** 			0x06u, 0x1Cu, 0x3Fu, 0x3Fu, 0x00u, 0x00u, 0x00u};
1838:Generated_Source\PSoC5/cyfitter_cfg.c **** 
1839:Generated_Source\PSoC5/cyfitter_cfg.c **** 		/* IOPORT_7 Address: CYDEV_PRTDSI_PRT12_BASE Size (bytes): 6 */
1840:Generated_Source\PSoC5/cyfitter_cfg.c **** 		static const uint8 CYCODE BS_IOPORT_7_VAL[] = {
1841:Generated_Source\PSoC5/cyfitter_cfg.c **** 			0xA9u, 0x3Au, 0x40u, 0x4Fu, 0x00u, 0x00u};
1842:Generated_Source\PSoC5/cyfitter_cfg.c **** 
1843:Generated_Source\PSoC5/cyfitter_cfg.c **** 		/* IOPORT_8 Address: CYDEV_PRTDSI_PRT15_BASE Size (bytes): 7 */
1844:Generated_Source\PSoC5/cyfitter_cfg.c **** 		static const uint8 CYCODE BS_IOPORT_8_VAL[] = {
1845:Generated_Source\PSoC5/cyfitter_cfg.c **** 			0x05u, 0x0Cu, 0x00u, 0x0Fu, 0x40u, 0x00u, 0x00u};
1846:Generated_Source\PSoC5/cyfitter_cfg.c **** 
1847:Generated_Source\PSoC5/cyfitter_cfg.c **** 		static const cfg_memcpy_t CYCODE cfg_memcpy_list [] = {
1848:Generated_Source\PSoC5/cyfitter_cfg.c **** 			/* dest, src, size */
1849:Generated_Source\PSoC5/cyfitter_cfg.c **** 			{(void CYFAR *)(CYDEV_PRTDSI_PRT3_BASE), BS_IOPORT_3_VAL, 7u},
1850:Generated_Source\PSoC5/cyfitter_cfg.c **** 			{(void CYFAR *)(CYDEV_PRTDSI_PRT4_BASE), BS_IOPORT_4_VAL, 7u},
1851:Generated_Source\PSoC5/cyfitter_cfg.c **** 			{(void CYFAR *)(CYDEV_PRTDSI_PRT12_BASE), BS_IOPORT_7_VAL, 6u},
1852:Generated_Source\PSoC5/cyfitter_cfg.c **** 			{(void CYFAR *)(CYDEV_PRTDSI_PRT15_BASE), BS_IOPORT_8_VAL, 7u},
1853:Generated_Source\PSoC5/cyfitter_cfg.c **** 		};
1854:Generated_Source\PSoC5/cyfitter_cfg.c **** 
1855:Generated_Source\PSoC5/cyfitter_cfg.c **** 		uint8 CYDATA i;
1856:Generated_Source\PSoC5/cyfitter_cfg.c **** 
1857:Generated_Source\PSoC5/cyfitter_cfg.c **** 		/* Zero out critical memory blocks before beginning configuration */
1858:Generated_Source\PSoC5/cyfitter_cfg.c **** 		for (i = 0u; i < (sizeof(cfg_memset_list)/sizeof(cfg_memset_list[0])); i++)
 586              		.loc 1 1858 0
 587 0018 0023     		movs	r3, #0
ARM GAS  C:\Users\DGILLI~1\AppData\Local\Temp\ccW7tEoj.s 			page 44


 588 001a FB75     		strb	r3, [r7, #23]
 589 001c 13E0     		b	.L27
 590              	.L28:
 591              	.LBB4:
1859:Generated_Source\PSoC5/cyfitter_cfg.c **** 		{
1860:Generated_Source\PSoC5/cyfitter_cfg.c **** 			const cfg_memset_t CYCODE * CYDATA ms = &cfg_memset_list[i];
 592              		.loc 1 1860 0 discriminator 3
 593 001e FA7D     		ldrb	r2, [r7, #23]	@ zero_extendqisi2
 594 0020 1346     		mov	r3, r2
 595 0022 5B00     		lsls	r3, r3, #1
 596 0024 1344     		add	r3, r3, r2
 597 0026 5B00     		lsls	r3, r3, #1
 598 0028 4D4A     		ldr	r2, .L31+4
 599 002a 1344     		add	r3, r3, r2
 600 002c 3B61     		str	r3, [r7, #16]
1861:Generated_Source\PSoC5/cyfitter_cfg.c **** 			CYMEMZERO(ms->address, (size_t)(uint32)(ms->size));
 601              		.loc 1 1861 0 discriminator 3
 602 002e 3B69     		ldr	r3, [r7, #16]
 603 0030 1A68     		ldr	r2, [r3]	@ unaligned
 604 0032 3B69     		ldr	r3, [r7, #16]
 605 0034 9B88     		ldrh	r3, [r3, #4]	@ unaligned
 606 0036 9BB2     		uxth	r3, r3
 607 0038 1946     		mov	r1, r3
 608 003a 1046     		mov	r0, r2
 609 003c FFF7FEFF 		bl	CYMEMZERO
 610              	.LBE4:
1858:Generated_Source\PSoC5/cyfitter_cfg.c **** 		{
 611              		.loc 1 1858 0 discriminator 3
 612 0040 FB7D     		ldrb	r3, [r7, #23]	@ zero_extendqisi2
 613 0042 0133     		adds	r3, r3, #1
 614 0044 FB75     		strb	r3, [r7, #23]
 615              	.L27:
1858:Generated_Source\PSoC5/cyfitter_cfg.c **** 		{
 616              		.loc 1 1858 0 is_stmt 0 discriminator 1
 617 0046 FB7D     		ldrb	r3, [r7, #23]	@ zero_extendqisi2
 618 0048 052B     		cmp	r3, #5
 619 004a E8D9     		bls	.L28
1862:Generated_Source\PSoC5/cyfitter_cfg.c **** 		}
1863:Generated_Source\PSoC5/cyfitter_cfg.c **** 
1864:Generated_Source\PSoC5/cyfitter_cfg.c **** 		/* Copy device configuration data into registers */
1865:Generated_Source\PSoC5/cyfitter_cfg.c **** 		for (i = 0u; i < (sizeof(cfg_memcpy_list)/sizeof(cfg_memcpy_list[0])); i++)
 620              		.loc 1 1865 0 is_stmt 1
 621 004c 0023     		movs	r3, #0
 622 004e FB75     		strb	r3, [r7, #23]
 623 0050 1CE0     		b	.L29
 624              	.L30:
 625              	.LBB5:
1866:Generated_Source\PSoC5/cyfitter_cfg.c **** 		{
1867:Generated_Source\PSoC5/cyfitter_cfg.c **** 			const cfg_memcpy_t CYCODE * CYDATA mc = &cfg_memcpy_list[i];
 626              		.loc 1 1867 0 discriminator 3
 627 0052 FA7D     		ldrb	r2, [r7, #23]	@ zero_extendqisi2
 628 0054 1346     		mov	r3, r2
 629 0056 9B00     		lsls	r3, r3, #2
 630 0058 1344     		add	r3, r3, r2
 631 005a 5B00     		lsls	r3, r3, #1
 632 005c 414A     		ldr	r2, .L31+8
 633 005e 1344     		add	r3, r3, r2
ARM GAS  C:\Users\DGILLI~1\AppData\Local\Temp\ccW7tEoj.s 			page 45


 634 0060 FB60     		str	r3, [r7, #12]
1868:Generated_Source\PSoC5/cyfitter_cfg.c **** 			void * CYDATA destPtr = mc->dest;
 635              		.loc 1 1868 0 discriminator 3
 636 0062 FB68     		ldr	r3, [r7, #12]
 637 0064 1B68     		ldr	r3, [r3]	@ unaligned
 638 0066 BB60     		str	r3, [r7, #8]
1869:Generated_Source\PSoC5/cyfitter_cfg.c **** 			const void CYCODE * CYDATA srcPtr = mc->src;
 639              		.loc 1 1869 0 discriminator 3
 640 0068 FB68     		ldr	r3, [r7, #12]
 641 006a 5B68     		ldr	r3, [r3, #4]	@ unaligned
 642 006c 7B60     		str	r3, [r7, #4]
1870:Generated_Source\PSoC5/cyfitter_cfg.c **** 			uint16 CYDATA numBytes = mc->size;
 643              		.loc 1 1870 0 discriminator 3
 644 006e FB68     		ldr	r3, [r7, #12]
 645 0070 1A7A     		ldrb	r2, [r3, #8]	@ zero_extendqisi2
 646 0072 5B7A     		ldrb	r3, [r3, #9]	@ zero_extendqisi2
 647 0074 1B02     		lsls	r3, r3, #8
 648 0076 1343     		orrs	r3, r3, r2
 649 0078 7B80     		strh	r3, [r7, #2]	@ movhi
1871:Generated_Source\PSoC5/cyfitter_cfg.c **** 			CYCONFIGCPYCODE(destPtr, srcPtr, numBytes);
 650              		.loc 1 1871 0 discriminator 3
 651 007a 7B88     		ldrh	r3, [r7, #2]
 652 007c 1A46     		mov	r2, r3
 653 007e 7968     		ldr	r1, [r7, #4]
 654 0080 B868     		ldr	r0, [r7, #8]
 655 0082 FFF7FEFF 		bl	CYCONFIGCPYCODE
 656              	.LBE5:
1865:Generated_Source\PSoC5/cyfitter_cfg.c **** 		{
 657              		.loc 1 1865 0 discriminator 3
 658 0086 FB7D     		ldrb	r3, [r7, #23]	@ zero_extendqisi2
 659 0088 0133     		adds	r3, r3, #1
 660 008a FB75     		strb	r3, [r7, #23]
 661              	.L29:
1865:Generated_Source\PSoC5/cyfitter_cfg.c **** 		{
 662              		.loc 1 1865 0 is_stmt 0 discriminator 1
 663 008c FB7D     		ldrb	r3, [r7, #23]	@ zero_extendqisi2
 664 008e 032B     		cmp	r3, #3
 665 0090 DFD9     		bls	.L30
1872:Generated_Source\PSoC5/cyfitter_cfg.c **** 		}
1873:Generated_Source\PSoC5/cyfitter_cfg.c **** 
1874:Generated_Source\PSoC5/cyfitter_cfg.c **** 		cfg_write_bytes32(cy_cfg_addr_table, cy_cfg_data_table);
 666              		.loc 1 1874 0 is_stmt 1
 667 0092 3549     		ldr	r1, .L31+12
 668 0094 3548     		ldr	r0, .L31+16
 669 0096 FFF7FEFF 		bl	cfg_write_bytes32
1875:Generated_Source\PSoC5/cyfitter_cfg.c **** 
1876:Generated_Source\PSoC5/cyfitter_cfg.c **** 		/* Enable digital routing */
1877:Generated_Source\PSoC5/cyfitter_cfg.c **** 		CY_SET_XTND_REG8((void CYFAR *)CYREG_BCTL0_BANK_CTL, CY_GET_XTND_REG8((void CYFAR *)CYREG_BCTL0_B
 670              		.loc 1 1877 0
 671 009a 354A     		ldr	r2, .L31+20
 672 009c 344B     		ldr	r3, .L31+20
 673 009e 1B78     		ldrb	r3, [r3]
 674 00a0 DBB2     		uxtb	r3, r3
 675 00a2 43F00203 		orr	r3, r3, #2
 676 00a6 DBB2     		uxtb	r3, r3
 677 00a8 1370     		strb	r3, [r2]
1878:Generated_Source\PSoC5/cyfitter_cfg.c **** 		CY_SET_XTND_REG8((void CYFAR *)CYREG_BCTL1_BANK_CTL, CY_GET_XTND_REG8((void CYFAR *)CYREG_BCTL1_B
ARM GAS  C:\Users\DGILLI~1\AppData\Local\Temp\ccW7tEoj.s 			page 46


 678              		.loc 1 1878 0
 679 00aa 324A     		ldr	r2, .L31+24
 680 00ac 314B     		ldr	r3, .L31+24
 681 00ae 1B78     		ldrb	r3, [r3]
 682 00b0 DBB2     		uxtb	r3, r3
 683 00b2 43F00203 		orr	r3, r3, #2
 684 00b6 DBB2     		uxtb	r3, r3
 685 00b8 1370     		strb	r3, [r2]
1879:Generated_Source\PSoC5/cyfitter_cfg.c **** 
1880:Generated_Source\PSoC5/cyfitter_cfg.c **** 		/* Enable UDB array */
1881:Generated_Source\PSoC5/cyfitter_cfg.c **** 		CY_SET_XTND_REG8((void CYFAR *)CYREG_PM_ACT_CFG0, CY_GET_XTND_REG8((void CYFAR *)CYREG_PM_ACT_CFG
 686              		.loc 1 1881 0
 687 00ba 2F4A     		ldr	r2, .L31+28
 688 00bc 2E4B     		ldr	r3, .L31+28
 689 00be 1B78     		ldrb	r3, [r3]
 690 00c0 DBB2     		uxtb	r3, r3
 691 00c2 43F04003 		orr	r3, r3, #64
 692 00c6 DBB2     		uxtb	r3, r3
 693 00c8 1370     		strb	r3, [r2]
1882:Generated_Source\PSoC5/cyfitter_cfg.c **** 		CY_SET_XTND_REG8((void CYFAR *)CYREG_PM_AVAIL_CR2, CY_GET_XTND_REG8((void CYFAR *)CYREG_PM_AVAIL_
 694              		.loc 1 1882 0
 695 00ca 2C4A     		ldr	r2, .L31+32
 696 00cc 2B4B     		ldr	r3, .L31+32
 697 00ce 1B78     		ldrb	r3, [r3]
 698 00d0 DBB2     		uxtb	r3, r3
 699 00d2 43F01003 		orr	r3, r3, #16
 700 00d6 DBB2     		uxtb	r3, r3
 701 00d8 1370     		strb	r3, [r2]
 702              	.LBE3:
1883:Generated_Source\PSoC5/cyfitter_cfg.c **** 	}
1884:Generated_Source\PSoC5/cyfitter_cfg.c **** 
1885:Generated_Source\PSoC5/cyfitter_cfg.c **** 
1886:Generated_Source\PSoC5/cyfitter_cfg.c **** 	/* Perform second pass device configuration. These items must be configured in specific order afte
1887:Generated_Source\PSoC5/cyfitter_cfg.c **** 	CYCONFIGCPYCODE((void CYFAR *)(CYREG_PRT0_DR), (const void CYCODE *)(BS_IOPINS0_0_VAL), 10u);
 703              		.loc 1 1887 0
 704 00da 0A22     		movs	r2, #10
 705 00dc 2849     		ldr	r1, .L31+36
 706 00de 2948     		ldr	r0, .L31+40
 707 00e0 FFF7FEFF 		bl	CYCONFIGCPYCODE
1888:Generated_Source\PSoC5/cyfitter_cfg.c **** 	CYCONFIGCPYCODE((void CYFAR *)(CYREG_PRT12_DR), (const void CYCODE *)(BS_IOPINS0_7_VAL), 10u);
 708              		.loc 1 1888 0
 709 00e4 0A22     		movs	r2, #10
 710 00e6 2849     		ldr	r1, .L31+44
 711 00e8 2848     		ldr	r0, .L31+48
 712 00ea FFF7FEFF 		bl	CYCONFIGCPYCODE
1889:Generated_Source\PSoC5/cyfitter_cfg.c **** 	CYCONFIGCPYCODE((void CYFAR *)(CYREG_PRT15_DR), (const void CYCODE *)(BS_IOPINS0_8_VAL), 10u);
 713              		.loc 1 1889 0
 714 00ee 0A22     		movs	r2, #10
 715 00f0 2749     		ldr	r1, .L31+52
 716 00f2 2848     		ldr	r0, .L31+56
 717 00f4 FFF7FEFF 		bl	CYCONFIGCPYCODE
1890:Generated_Source\PSoC5/cyfitter_cfg.c **** 	CYCONFIGCPYCODE((void CYFAR *)(CYREG_PRT1_DM0), (const void CYCODE *)(BS_IOPINS0_1_VAL), 8u);
 718              		.loc 1 1890 0
 719 00f8 0822     		movs	r2, #8
 720 00fa 2749     		ldr	r1, .L31+60
 721 00fc 2748     		ldr	r0, .L31+64
 722 00fe FFF7FEFF 		bl	CYCONFIGCPYCODE
ARM GAS  C:\Users\DGILLI~1\AppData\Local\Temp\ccW7tEoj.s 			page 47


1891:Generated_Source\PSoC5/cyfitter_cfg.c **** 	CYCONFIGCPYCODE((void CYFAR *)(CYREG_PRT2_DM0), (const void CYCODE *)(BS_IOPINS0_2_VAL), 8u);
 723              		.loc 1 1891 0
 724 0102 0822     		movs	r2, #8
 725 0104 2649     		ldr	r1, .L31+68
 726 0106 2748     		ldr	r0, .L31+72
 727 0108 FFF7FEFF 		bl	CYCONFIGCPYCODE
1892:Generated_Source\PSoC5/cyfitter_cfg.c **** 	CYCONFIGCPYCODE((void CYFAR *)(CYREG_PRT3_DM0), (const void CYCODE *)(BS_IOPINS0_3_VAL), 8u);
 728              		.loc 1 1892 0
 729 010c 0822     		movs	r2, #8
 730 010e 2649     		ldr	r1, .L31+76
 731 0110 2648     		ldr	r0, .L31+80
 732 0112 FFF7FEFF 		bl	CYCONFIGCPYCODE
1893:Generated_Source\PSoC5/cyfitter_cfg.c **** 	CYCONFIGCPYCODE((void CYFAR *)(CYREG_PRT4_DM0), (const void CYCODE *)(BS_IOPINS0_4_VAL), 8u);
 733              		.loc 1 1893 0
 734 0116 0822     		movs	r2, #8
 735 0118 2549     		ldr	r1, .L31+84
 736 011a 2648     		ldr	r0, .L31+88
 737 011c FFF7FEFF 		bl	CYCONFIGCPYCODE
1894:Generated_Source\PSoC5/cyfitter_cfg.c **** 	CYCONFIGCPYCODE((void CYFAR *)(CYREG_PRT5_DM0), (const void CYCODE *)(BS_IOPINS0_5_VAL), 8u);
 738              		.loc 1 1894 0
 739 0120 0822     		movs	r2, #8
 740 0122 2549     		ldr	r1, .L31+92
 741 0124 2548     		ldr	r0, .L31+96
 742 0126 FFF7FEFF 		bl	CYCONFIGCPYCODE
1895:Generated_Source\PSoC5/cyfitter_cfg.c **** 	CYCONFIGCPYCODE((void CYFAR *)(CYREG_PRT6_DM0), (const void CYCODE *)(BS_IOPINS0_6_VAL), 8u);
 743              		.loc 1 1895 0
 744 012a 0822     		movs	r2, #8
 745 012c 2449     		ldr	r1, .L31+100
 746 012e 2548     		ldr	r0, .L31+104
 747 0130 FFF7FEFF 		bl	CYCONFIGCPYCODE
1896:Generated_Source\PSoC5/cyfitter_cfg.c **** 	/* Switch Boost to the precision bandgap reference from its internal reference */
1897:Generated_Source\PSoC5/cyfitter_cfg.c **** 	CY_SET_REG8((void CYXDATA *)CYREG_BOOST_CR2, (CY_GET_REG8((void CYXDATA *)CYREG_BOOST_CR2) | 0x08u
 748              		.loc 1 1897 0
 749 0134 244A     		ldr	r2, .L31+108
 750 0136 244B     		ldr	r3, .L31+108
 751 0138 1B78     		ldrb	r3, [r3]
 752 013a DBB2     		uxtb	r3, r3
 753 013c 43F00803 		orr	r3, r3, #8
 754 0140 DBB2     		uxtb	r3, r3
 755 0142 1370     		strb	r3, [r2]
1898:Generated_Source\PSoC5/cyfitter_cfg.c **** 
1899:Generated_Source\PSoC5/cyfitter_cfg.c **** 	/* Perform basic analog initialization to defaults */
1900:Generated_Source\PSoC5/cyfitter_cfg.c **** 	AnalogSetDefault();
 756              		.loc 1 1900 0
 757 0144 FFF7FEFF 		bl	AnalogSetDefault
1901:Generated_Source\PSoC5/cyfitter_cfg.c **** 
1902:Generated_Source\PSoC5/cyfitter_cfg.c **** 	/* Configure alternate active mode */
1903:Generated_Source\PSoC5/cyfitter_cfg.c **** 	CYCONFIGCPY((void CYFAR *)CYDEV_PM_STBY_BASE, (const void CYFAR *)CYDEV_PM_ACT_BASE, 14u);
 758              		.loc 1 1903 0
 759 0148 0E22     		movs	r2, #14
 760 014a 0B49     		ldr	r1, .L31+28
 761 014c 1F48     		ldr	r0, .L31+112
 762 014e FFF7FEFF 		bl	CYCONFIGCPY
1904:Generated_Source\PSoC5/cyfitter_cfg.c **** }
 763              		.loc 1 1904 0
 764 0152 00BF     		nop
 765 0154 1837     		adds	r7, r7, #24
ARM GAS  C:\Users\DGILLI~1\AppData\Local\Temp\ccW7tEoj.s 			page 48


 766              		.cfi_def_cfa_offset 8
 767 0156 BD46     		mov	sp, r7
 768              		.cfi_def_cfa_register 13
 769              		@ sp needed
 770 0158 80BD     		pop	{r7, pc}
 771              	.L32:
 772 015a 00BF     		.align	2
 773              	.L31:
 774 015c 00480040 		.word	1073760256
 775 0160 04000000 		.word	cfg_memset_list.5052
 776 0164 28000000 		.word	cfg_memcpy_list.5057
 777 0168 E0000000 		.word	cy_cfg_data_table.5042
 778 016c 50000000 		.word	cy_cfg_addr_table.5041
 779 0170 03500140 		.word	1073827843
 780 0174 13500140 		.word	1073827859
 781 0178 A0430040 		.word	1073759136
 782 017c C2430040 		.word	1073759170
 783 0180 900B0000 		.word	BS_IOPINS0_0_VAL.5032
 784 0184 00510040 		.word	1073762560
 785 0188 9C0B0000 		.word	BS_IOPINS0_7_VAL.5033
 786 018c C0510040 		.word	1073762752
 787 0190 A80B0000 		.word	BS_IOPINS0_8_VAL.5034
 788 0194 F0510040 		.word	1073762800
 789 0198 B40B0000 		.word	BS_IOPINS0_1_VAL.5035
 790 019c 12510040 		.word	1073762578
 791 01a0 BC0B0000 		.word	BS_IOPINS0_2_VAL.5036
 792 01a4 22510040 		.word	1073762594
 793 01a8 C40B0000 		.word	BS_IOPINS0_3_VAL.5037
 794 01ac 32510040 		.word	1073762610
 795 01b0 CC0B0000 		.word	BS_IOPINS0_4_VAL.5038
 796 01b4 42510040 		.word	1073762626
 797 01b8 D40B0000 		.word	BS_IOPINS0_5_VAL.5039
 798 01bc 52510040 		.word	1073762642
 799 01c0 DC0B0000 		.word	BS_IOPINS0_6_VAL.5040
 800 01c4 62510040 		.word	1073762658
 801 01c8 22430040 		.word	1073759010
 802 01cc B0430040 		.word	1073759152
 803              		.cfi_endproc
 804              	.LFE8:
 805              		.size	cyfitter_cfg, .-cyfitter_cfg
 806              		.section	.rodata
 807              		.align	2
 808              		.type	BS_CYDEV_CLKDIST_ACFG0_CFG0_VAL.5013, %object
 809              		.size	BS_CYDEV_CLKDIST_ACFG0_CFG0_VAL.5013, 4
 810              	BS_CYDEV_CLKDIST_ACFG0_CFG0_VAL.5013:
 811 0000 05       		.byte	5
 812 0001 00       		.byte	0
 813 0002 14       		.byte	20
 814 0003 01       		.byte	1
 815              		.align	2
 816              		.type	cfg_memset_list.5052, %object
 817              		.size	cfg_memset_list.5052, 36
 818              	cfg_memset_list.5052:
 819 0004 C8490040 		.word	1073760712
 820 0008 1900     		.short	25
 821 000a 00000140 		.4byte	1073807360
 822 000e 0010     		.short	4096
ARM GAS  C:\Users\DGILLI~1\AppData\Local\Temp\ccW7tEoj.s 			page 49


 823 0010 00140140 		.word	1073812480
 824 0014 0008     		.short	2048
 825 0016 00400140 		.4byte	1073823744
 826 001a 000A     		.short	2560
 827 001c 004C0140 		.word	1073826816
 828 0020 0002     		.short	512
 829 0022 00500140 		.4byte	1073827840
 830 0026 2000     		.short	32
 831              		.align	2
 832              		.type	cfg_memcpy_list.5057, %object
 833              		.size	cfg_memcpy_list.5057, 40
 834              	cfg_memcpy_list.5057:
 835 0028 18520040 		.word	1073762840
 836 002c FC0B0000 		.word	BS_IOPORT_3_VAL.5053
 837 0030 0700     		.short	7
 838 0032 20520040 		.4byte	1073762848
 839 0036 F40B0000 		.4byte	BS_IOPORT_4_VAL.5054
 840 003a 0700     		.short	7
 841 003c 60520040 		.word	1073762912
 842 0040 EC0B0000 		.word	BS_IOPORT_7_VAL.5055
 843 0044 0600     		.short	6
 844 0046 78520040 		.4byte	1073762936
 845 004a E40B0000 		.4byte	BS_IOPORT_8_VAL.5056
 846 004e 0700     		.short	7
 847              		.align	2
 848              		.type	cy_cfg_addr_table.5041, %object
 849              		.size	cy_cfg_addr_table.5041, 144
 850              	cy_cfg_addr_table.5041:
 851 0050 01450040 		.word	1073759489
 852 0054 0B520040 		.word	1073762827
 853 0058 03640040 		.word	1073767427
 854 005c 39000140 		.word	1073807417
 855 0060 3C010140 		.word	1073807676
 856 0064 37020140 		.word	1073807927
 857 0068 4D030140 		.word	1073808205
 858 006c 34040140 		.word	1073808436
 859 0070 43050140 		.word	1073808707
 860 0074 2E060140 		.word	1073808942
 861 0078 52070140 		.word	1073809234
 862 007c 13090140 		.word	1073809683
 863 0080 0D0B0140 		.word	1073810189
 864 0084 050D0140 		.word	1073810693
 865 0088 010F0140 		.word	1073811201
 866 008c 1D140140 		.word	1073812509
 867 0090 5F150140 		.word	1073812831
 868 0094 43160140 		.word	1073813059
 869 0098 54170140 		.word	1073813332
 870 009c 1F180140 		.word	1073813535
 871 00a0 46190140 		.word	1073813830
 872 00a4 0B1B0140 		.word	1073814283
 873 00a8 21400140 		.word	1073823777
 874 00ac 24410140 		.word	1073824036
 875 00b0 1C420140 		.word	1073824284
 876 00b4 1A430140 		.word	1073824538
 877 00b8 17440140 		.word	1073824791
 878 00bc 2D450140 		.word	1073825069
 879 00c0 18460140 		.word	1073825304
ARM GAS  C:\Users\DGILLI~1\AppData\Local\Temp\ccW7tEoj.s 			page 50


 880 00c4 1F470140 		.word	1073825567
 881 00c8 1D480140 		.word	1073825821
 882 00cc 36490140 		.word	1073826102
 883 00d0 2D4C0140 		.word	1073826861
 884 00d4 2F4D0140 		.word	1073827119
 885 00d8 09500140 		.word	1073827849
 886 00dc 02510140 		.word	1073828098
 887              		.align	2
 888              		.type	cy_cfg_data_table.5042, %object
 889              		.size	cy_cfg_data_table.5042, 2736
 890              	cy_cfg_data_table.5042:
 891 00e0 7E       		.byte	126
 892 00e1 02       		.byte	2
 893 00e2 00       		.byte	0
 894 00e3 5A       		.byte	90
 895 00e4 01       		.byte	1
 896 00e5 36       		.byte	54
 897 00e6 08       		.byte	8
 898 00e7 48       		.byte	72
 899 00e8 09       		.byte	9
 900 00e9 28       		.byte	40
 901 00ea 10       		.byte	16
 902 00eb 6A       		.byte	106
 903 00ec 11       		.byte	17
 904 00ed A3       		.byte	-93
 905 00ee 28       		.byte	40
 906 00ef A0       		.byte	-96
 907 00f0 29       		.byte	41
 908 00f1 C1       		.byte	-63
 909 00f2 30       		.byte	48
 910 00f3 50       		.byte	80
 911 00f4 31       		.byte	49
 912 00f5 90       		.byte	-112
 913 00f6 33       		.byte	51
 914 00f7 F0       		.byte	-16
 915 00f8 84       		.byte	-124
 916 00f9 72       		.byte	114
 917 00fa 85       		.byte	-123
 918 00fb 0F       		.byte	15
 919 00fc 86       		.byte	-122
 920 00fd 38       		.byte	56
 921 00fe 04       		.byte	4
 922 00ff 1C       		.byte	28
 923 0100 06       		.byte	6
 924 0101 02       		.byte	2
 925 0102 0A       		.byte	10
 926 0103 03       		.byte	3
 927 0104 0B       		.byte	11
 928 0105 01       		.byte	1
 929 0106 0C       		.byte	12
 930 0107 10       		.byte	16
 931 0108 0E       		.byte	14
 932 0109 0C       		.byte	12
 933 010a 0F       		.byte	15
 934 010b 05       		.byte	5
 935 010c 10       		.byte	16
 936 010d 09       		.byte	9
ARM GAS  C:\Users\DGILLI~1\AppData\Local\Temp\ccW7tEoj.s 			page 51


 937 010e 12       		.byte	18
 938 010f 10       		.byte	16
 939 0110 18       		.byte	24
 940 0111 0C       		.byte	12
 941 0112 1A       		.byte	26
 942 0113 11       		.byte	17
 943 0114 1B       		.byte	27
 944 0115 03       		.byte	3
 945 0116 1C       		.byte	28
 946 0117 10       		.byte	16
 947 0118 1F       		.byte	31
 948 0119 02       		.byte	2
 949 011a 20       		.byte	32
 950 011b 14       		.byte	20
 951 011c 25       		.byte	37
 952 011d 06       		.byte	6
 953 011e 27       		.byte	39
 954 011f 01       		.byte	1
 955 0120 2F       		.byte	47
 956 0121 06       		.byte	6
 957 0122 32       		.byte	50
 958 0123 1F       		.byte	31
 959 0124 35       		.byte	53
 960 0125 07       		.byte	7
 961 0126 3B       		.byte	59
 962 0127 20       		.byte	32
 963 0128 56       		.byte	86
 964 0129 08       		.byte	8
 965 012a 58       		.byte	88
 966 012b 04       		.byte	4
 967 012c 59       		.byte	89
 968 012d 04       		.byte	4
 969 012e 5B       		.byte	91
 970 012f 04       		.byte	4
 971 0130 5C       		.byte	92
 972 0131 11       		.byte	17
 973 0132 5D       		.byte	93
 974 0133 90       		.byte	-112
 975 0134 5F       		.byte	95
 976 0135 01       		.byte	1
 977 0136 83       		.byte	-125
 978 0137 02       		.byte	2
 979 0138 85       		.byte	-123
 980 0139 01       		.byte	1
 981 013a 8B       		.byte	-117
 982 013b 01       		.byte	1
 983 013c 8D       		.byte	-115
 984 013d 01       		.byte	1
 985 013e 93       		.byte	-109
 986 013f 02       		.byte	2
 987 0140 A7       		.byte	-89
 988 0141 01       		.byte	1
 989 0142 AB       		.byte	-85
 990 0143 01       		.byte	1
 991 0144 B1       		.byte	-79
 992 0145 01       		.byte	1
 993 0146 B7       		.byte	-73
ARM GAS  C:\Users\DGILLI~1\AppData\Local\Temp\ccW7tEoj.s 			page 52


 994 0147 02       		.byte	2
 995 0148 BF       		.byte	-65
 996 0149 41       		.byte	65
 997 014a C0       		.byte	-64
 998 014b 56       		.byte	86
 999 014c C1       		.byte	-63
 1000 014d 02       		.byte	2
 1001 014e C6       		.byte	-58
 1002 014f CB       		.byte	-53
 1003 0150 C7       		.byte	-57
 1004 0151 0E       		.byte	14
 1005 0152 C8       		.byte	-56
 1006 0153 1C       		.byte	28
 1007 0154 C9       		.byte	-55
 1008 0155 FF       		.byte	-1
 1009 0156 CA       		.byte	-54
 1010 0157 FF       		.byte	-1
 1011 0158 CB       		.byte	-53
 1012 0159 FF       		.byte	-1
 1013 015a CE       		.byte	-50
 1014 015b F0       		.byte	-16
 1015 015c CF       		.byte	-49
 1016 015d 44       		.byte	68
 1017 015e D0       		.byte	-48
 1018 015f 0C       		.byte	12
 1019 0160 D9       		.byte	-39
 1020 0161 04       		.byte	4
 1021 0162 DA       		.byte	-38
 1022 0163 04       		.byte	4
 1023 0164 DB       		.byte	-37
 1024 0165 04       		.byte	4
 1025 0166 DD       		.byte	-35
 1026 0167 01       		.byte	1
 1027 0168 DF       		.byte	-33
 1028 0169 01       		.byte	1
 1029 016a E6       		.byte	-26
 1030 016b C0       		.byte	-64
 1031 016c EA       		.byte	-22
 1032 016d 40       		.byte	64
 1033 016e EB       		.byte	-21
 1034 016f 02       		.byte	2
 1035 0170 00       		.byte	0
 1036 0171 50       		.byte	80
 1037 0172 03       		.byte	3
 1038 0173 20       		.byte	32
 1039 0174 08       		.byte	8
 1040 0175 02       		.byte	2
 1041 0176 09       		.byte	9
 1042 0177 A0       		.byte	-96
 1043 0178 12       		.byte	18
 1044 0179 40       		.byte	64
 1045 017a 18       		.byte	24
 1046 017b 10       		.byte	16
 1047 017c 20       		.byte	32
 1048 017d 04       		.byte	4
 1049 017e 21       		.byte	33
 1050 017f 20       		.byte	32
ARM GAS  C:\Users\DGILLI~1\AppData\Local\Temp\ccW7tEoj.s 			page 53


 1051 0180 24       		.byte	36
 1052 0181 02       		.byte	2
 1053 0182 27       		.byte	39
 1054 0183 80       		.byte	-128
 1055 0184 28       		.byte	40
 1056 0185 02       		.byte	2
 1057 0186 2B       		.byte	43
 1058 0187 21       		.byte	33
 1059 0188 2D       		.byte	45
 1060 0189 10       		.byte	16
 1061 018a 2F       		.byte	47
 1062 018b 20       		.byte	32
 1063 018c 31       		.byte	49
 1064 018d A0       		.byte	-96
 1065 018e 32       		.byte	50
 1066 018f 80       		.byte	-128
 1067 0190 37       		.byte	55
 1068 0191 01       		.byte	1
 1069 0192 38       		.byte	56
 1070 0193 40       		.byte	64
 1071 0194 39       		.byte	57
 1072 0195 10       		.byte	16
 1073 0196 3C       		.byte	60
 1074 0197 44       		.byte	68
 1075 0198 3D       		.byte	61
 1076 0199 01       		.byte	1
 1077 019a 3E       		.byte	62
 1078 019b 10       		.byte	16
 1079 019c 3F       		.byte	63
 1080 019d 60       		.byte	96
 1081 019e 45       		.byte	69
 1082 019f 20       		.byte	32
 1083 01a0 4D       		.byte	77
 1084 01a1 10       		.byte	16
 1085 01a2 4F       		.byte	79
 1086 01a3 40       		.byte	64
 1087 01a4 55       		.byte	85
 1088 01a5 08       		.byte	8
 1089 01a6 56       		.byte	86
 1090 01a7 40       		.byte	64
 1091 01a8 57       		.byte	87
 1092 01a9 10       		.byte	16
 1093 01aa 58       		.byte	88
 1094 01ab 20       		.byte	32
 1095 01ac 5A       		.byte	90
 1096 01ad 40       		.byte	64
 1097 01ae 5E       		.byte	94
 1098 01af 80       		.byte	-128
 1099 01b0 5F       		.byte	95
 1100 01b1 16       		.byte	22
 1101 01b2 66       		.byte	102
 1102 01b3 20       		.byte	32
 1103 01b4 67       		.byte	103
 1104 01b5 02       		.byte	2
 1105 01b6 6C       		.byte	108
 1106 01b7 12       		.byte	18
 1107 01b8 6F       		.byte	111
ARM GAS  C:\Users\DGILLI~1\AppData\Local\Temp\ccW7tEoj.s 			page 54


 1108 01b9 48       		.byte	72
 1109 01ba 74       		.byte	116
 1110 01bb 40       		.byte	64
 1111 01bc 75       		.byte	117
 1112 01bd 10       		.byte	16
 1113 01be 81       		.byte	-127
 1114 01bf 10       		.byte	16
 1115 01c0 82       		.byte	-126
 1116 01c1 40       		.byte	64
 1117 01c2 83       		.byte	-125
 1118 01c3 40       		.byte	64
 1119 01c4 87       		.byte	-121
 1120 01c5 1C       		.byte	28
 1121 01c6 88       		.byte	-120
 1122 01c7 40       		.byte	64
 1123 01c8 8A       		.byte	-118
 1124 01c9 20       		.byte	32
 1125 01ca 8C       		.byte	-116
 1126 01cb 10       		.byte	16
 1127 01cc 8E       		.byte	-114
 1128 01cd 40       		.byte	64
 1129 01ce C0       		.byte	-64
 1130 01cf 07       		.byte	7
 1131 01d0 C2       		.byte	-62
 1132 01d1 0B       		.byte	11
 1133 01d2 C4       		.byte	-60
 1134 01d3 08       		.byte	8
 1135 01d4 CA       		.byte	-54
 1136 01d5 6A       		.byte	106
 1137 01d6 CC       		.byte	-52
 1138 01d7 8C       		.byte	-116
 1139 01d8 CE       		.byte	-50
 1140 01d9 FC       		.byte	-4
 1141 01da D0       		.byte	-48
 1142 01db 20       		.byte	32
 1143 01dc D2       		.byte	-46
 1144 01dd 30       		.byte	48
 1145 01de D6       		.byte	-42
 1146 01df FC       		.byte	-4
 1147 01e0 D8       		.byte	-40
 1148 01e1 30       		.byte	48
 1149 01e2 E2       		.byte	-30
 1150 01e3 44       		.byte	68
 1151 01e4 E4       		.byte	-28
 1152 01e5 80       		.byte	-128
 1153 01e6 E6       		.byte	-26
 1154 01e7 60       		.byte	96
 1155 01e8 13       		.byte	19
 1156 01e9 01       		.byte	1
 1157 01ea 14       		.byte	20
 1158 01eb 02       		.byte	2
 1159 01ec 22       		.byte	34
 1160 01ed 01       		.byte	1
 1161 01ee 2A       		.byte	42
 1162 01ef 01       		.byte	1
 1163 01f0 2B       		.byte	43
 1164 01f1 01       		.byte	1
ARM GAS  C:\Users\DGILLI~1\AppData\Local\Temp\ccW7tEoj.s 			page 55


 1165 01f2 32       		.byte	50
 1166 01f3 01       		.byte	1
 1167 01f4 33       		.byte	51
 1168 01f5 01       		.byte	1
 1169 01f6 34       		.byte	52
 1170 01f7 02       		.byte	2
 1171 01f8 3E       		.byte	62
 1172 01f9 14       		.byte	20
 1173 01fa 3F       		.byte	63
 1174 01fb 04       		.byte	4
 1175 01fc 58       		.byte	88
 1176 01fd 04       		.byte	4
 1177 01fe 59       		.byte	89
 1178 01ff 04       		.byte	4
 1179 0200 5B       		.byte	91
 1180 0201 04       		.byte	4
 1181 0202 5F       		.byte	95
 1182 0203 01       		.byte	1
 1183 0204 84       		.byte	-124
 1184 0205 01       		.byte	1
 1185 0206 86       		.byte	-122
 1186 0207 0E       		.byte	14
 1187 0208 89       		.byte	-119
 1188 0209 04       		.byte	4
 1189 020a 8C       		.byte	-116
 1190 020b 01       		.byte	1
 1191 020c 8D       		.byte	-115
 1192 020d 02       		.byte	2
 1193 020e 8E       		.byte	-114
 1194 020f 06       		.byte	6
 1195 0210 8F       		.byte	-113
 1196 0211 04       		.byte	4
 1197 0212 93       		.byte	-109
 1198 0213 01       		.byte	1
 1199 0214 97       		.byte	-105
 1200 0215 02       		.byte	2
 1201 0216 98       		.byte	-104
 1202 0217 0C       		.byte	12
 1203 0218 9A       		.byte	-102
 1204 0219 03       		.byte	3
 1205 021a 9E       		.byte	-98
 1206 021b 0C       		.byte	12
 1207 021c A2       		.byte	-94
 1208 021d 08       		.byte	8
 1209 021e AA       		.byte	-86
 1210 021f 03       		.byte	3
 1211 0220 AB       		.byte	-85
 1212 0221 01       		.byte	1
 1213 0222 B1       		.byte	-79
 1214 0223 01       		.byte	1
 1215 0224 B4       		.byte	-76
 1216 0225 0F       		.byte	15
 1217 0226 B5       		.byte	-75
 1218 0227 06       		.byte	6
 1219 0228 BA       		.byte	-70
 1220 0229 20       		.byte	32
 1221 022a BF       		.byte	-65
ARM GAS  C:\Users\DGILLI~1\AppData\Local\Temp\ccW7tEoj.s 			page 56


 1222 022b 11       		.byte	17
 1223 022c C0       		.byte	-64
 1224 022d 04       		.byte	4
 1225 022e C6       		.byte	-58
 1226 022f 04       		.byte	4
 1227 0230 C9       		.byte	-55
 1228 0231 FF       		.byte	-1
 1229 0232 CA       		.byte	-54
 1230 0233 07       		.byte	7
 1231 0234 CB       		.byte	-53
 1232 0235 FF       		.byte	-1
 1233 0236 CC       		.byte	-52
 1234 0237 40       		.byte	64
 1235 0238 CD       		.byte	-51
 1236 0239 20       		.byte	32
 1237 023a CE       		.byte	-50
 1238 023b F0       		.byte	-16
 1239 023c CF       		.byte	-49
 1240 023d 05       		.byte	5
 1241 023e D0       		.byte	-48
 1242 023f 08       		.byte	8
 1243 0240 D8       		.byte	-40
 1244 0241 04       		.byte	4
 1245 0242 D9       		.byte	-39
 1246 0243 04       		.byte	4
 1247 0244 DA       		.byte	-38
 1248 0245 04       		.byte	4
 1249 0246 DB       		.byte	-37
 1250 0247 04       		.byte	4
 1251 0248 DC       		.byte	-36
 1252 0249 01       		.byte	1
 1253 024a DD       		.byte	-35
 1254 024b 01       		.byte	1
 1255 024c DF       		.byte	-33
 1256 024d 01       		.byte	1
 1257 024e E0       		.byte	-32
 1258 024f 40       		.byte	64
 1259 0250 E1       		.byte	-31
 1260 0251 A8       		.byte	-88
 1261 0252 E2       		.byte	-30
 1262 0253 40       		.byte	64
 1263 0254 E3       		.byte	-29
 1264 0255 20       		.byte	32
 1265 0256 00       		.byte	0
 1266 0257 44       		.byte	68
 1267 0258 08       		.byte	8
 1268 0259 02       		.byte	2
 1269 025a 09       		.byte	9
 1270 025b 82       		.byte	-126
 1271 025c 0A       		.byte	10
 1272 025d 04       		.byte	4
 1273 025e 0D       		.byte	13
 1274 025f 8C       		.byte	-116
 1275 0260 0F       		.byte	15
 1276 0261 02       		.byte	2
 1277 0262 11       		.byte	17
 1278 0263 10       		.byte	16
ARM GAS  C:\Users\DGILLI~1\AppData\Local\Temp\ccW7tEoj.s 			page 57


 1279 0264 12       		.byte	18
 1280 0265 80       		.byte	-128
 1281 0266 16       		.byte	22
 1282 0267 04       		.byte	4
 1283 0268 17       		.byte	23
 1284 0269 01       		.byte	1
 1285 026a 1A       		.byte	26
 1286 026b 0C       		.byte	12
 1287 026c 1B       		.byte	27
 1288 026d 20       		.byte	32
 1289 026e 1E       		.byte	30
 1290 026f 28       		.byte	40
 1291 0270 21       		.byte	33
 1292 0271 22       		.byte	34
 1293 0272 24       		.byte	36
 1294 0273 20       		.byte	32
 1295 0274 2A       		.byte	42
 1296 0275 10       		.byte	16
 1297 0276 2F       		.byte	47
 1298 0277 08       		.byte	8
 1299 0278 32       		.byte	50
 1300 0279 02       		.byte	2
 1301 027a 33       		.byte	51
 1302 027b 04       		.byte	4
 1303 027c 37       		.byte	55
 1304 027d 01       		.byte	1
 1305 027e 38       		.byte	56
 1306 027f 90       		.byte	-112
 1307 0280 41       		.byte	65
 1308 0281 01       		.byte	1
 1309 0282 51       		.byte	81
 1310 0283 10       		.byte	16
 1311 0284 52       		.byte	82
 1312 0285 80       		.byte	-128
 1313 0286 58       		.byte	88
 1314 0287 15       		.byte	21
 1315 0288 5A       		.byte	90
 1316 0289 80       		.byte	-128
 1317 028a 5C       		.byte	92
 1318 028b 28       		.byte	40
 1319 028c 5D       		.byte	93
 1320 028d 02       		.byte	2
 1321 028e 5F       		.byte	95
 1322 028f 40       		.byte	64
 1323 0290 62       		.byte	98
 1324 0291 20       		.byte	32
 1325 0292 63       		.byte	99
 1326 0293 A1       		.byte	-95
 1327 0294 65       		.byte	101
 1328 0295 20       		.byte	32
 1329 0296 66       		.byte	102
 1330 0297 0A       		.byte	10
 1331 0298 67       		.byte	103
 1332 0299 02       		.byte	2
 1333 029a 68       		.byte	104
 1334 029b 64       		.byte	100
 1335 029c 6A       		.byte	106
ARM GAS  C:\Users\DGILLI~1\AppData\Local\Temp\ccW7tEoj.s 			page 58


 1336 029d 40       		.byte	64
 1337 029e 71       		.byte	113
 1338 029f 40       		.byte	64
 1339 02a0 79       		.byte	121
 1340 02a1 30       		.byte	48
 1341 02a2 80       		.byte	-128
 1342 02a3 01       		.byte	1
 1343 02a4 81       		.byte	-127
 1344 02a5 05       		.byte	5
 1345 02a6 83       		.byte	-125
 1346 02a7 01       		.byte	1
 1347 02a8 84       		.byte	-124
 1348 02a9 40       		.byte	64
 1349 02aa 86       		.byte	-122
 1350 02ab 10       		.byte	16
 1351 02ac 87       		.byte	-121
 1352 02ad 02       		.byte	2
 1353 02ae 88       		.byte	-120
 1354 02af 10       		.byte	16
 1355 02b0 89       		.byte	-119
 1356 02b1 02       		.byte	2
 1357 02b2 8C       		.byte	-116
 1358 02b3 28       		.byte	40
 1359 02b4 8D       		.byte	-115
 1360 02b5 20       		.byte	32
 1361 02b6 90       		.byte	-112
 1362 02b7 16       		.byte	22
 1363 02b8 92       		.byte	-110
 1364 02b9 90       		.byte	-112
 1365 02ba 94       		.byte	-108
 1366 02bb 40       		.byte	64
 1367 02bc 95       		.byte	-107
 1368 02bd 11       		.byte	17
 1369 02be 98       		.byte	-104
 1370 02bf 05       		.byte	5
 1371 02c0 9B       		.byte	-101
 1372 02c1 80       		.byte	-128
 1373 02c2 9F       		.byte	-97
 1374 02c3 01       		.byte	1
 1375 02c4 A1       		.byte	-95
 1376 02c5 08       		.byte	8
 1377 02c6 A6       		.byte	-90
 1378 02c7 80       		.byte	-128
 1379 02c8 A7       		.byte	-89
 1380 02c9 21       		.byte	33
 1381 02ca A8       		.byte	-88
 1382 02cb 02       		.byte	2
 1383 02cc AB       		.byte	-85
 1384 02cd 02       		.byte	2
 1385 02ce AC       		.byte	-84
 1386 02cf 20       		.byte	32
 1387 02d0 AE       		.byte	-82
 1388 02d1 40       		.byte	64
 1389 02d2 B0       		.byte	-80
 1390 02d3 05       		.byte	5
 1391 02d4 B7       		.byte	-73
 1392 02d5 01       		.byte	1
ARM GAS  C:\Users\DGILLI~1\AppData\Local\Temp\ccW7tEoj.s 			page 59


 1393 02d6 C0       		.byte	-64
 1394 02d7 05       		.byte	5
 1395 02d8 C2       		.byte	-62
 1396 02d9 23       		.byte	35
 1397 02da C4       		.byte	-60
 1398 02db 5A       		.byte	90
 1399 02dc CA       		.byte	-54
 1400 02dd 24       		.byte	36
 1401 02de CC       		.byte	-52
 1402 02df 83       		.byte	-125
 1403 02e0 CE       		.byte	-50
 1404 02e1 0C       		.byte	12
 1405 02e2 D0       		.byte	-48
 1406 02e3 01       		.byte	1
 1407 02e4 D6       		.byte	-42
 1408 02e5 FF       		.byte	-1
 1409 02e6 D8       		.byte	-40
 1410 02e7 FF       		.byte	-1
 1411 02e8 E0       		.byte	-32
 1412 02e9 C6       		.byte	-58
 1413 02ea E4       		.byte	-28
 1414 02eb 03       		.byte	3
 1415 02ec E8       		.byte	-24
 1416 02ed 40       		.byte	64
 1417 02ee EE       		.byte	-18
 1418 02ef 08       		.byte	8
 1419 02f0 01       		.byte	1
 1420 02f1 10       		.byte	16
 1421 02f2 05       		.byte	5
 1422 02f3 08       		.byte	8
 1423 02f4 09       		.byte	9
 1424 02f5 18       		.byte	24
 1425 02f6 0F       		.byte	15
 1426 02f7 21       		.byte	33
 1427 02f8 11       		.byte	17
 1428 02f9 19       		.byte	25
 1429 02fa 13       		.byte	19
 1430 02fb 02       		.byte	2
 1431 02fc 15       		.byte	21
 1432 02fd 1F       		.byte	31
 1433 02fe 19       		.byte	25
 1434 02ff 19       		.byte	25
 1435 0300 1B       		.byte	27
 1436 0301 04       		.byte	4
 1437 0302 1D       		.byte	29
 1438 0303 21       		.byte	33
 1439 0304 23       		.byte	35
 1440 0305 01       		.byte	1
 1441 0306 2B       		.byte	43
 1442 0307 06       		.byte	6
 1443 0308 2D       		.byte	45
 1444 0309 07       		.byte	7
 1445 030a 2F       		.byte	47
 1446 030b 18       		.byte	24
 1447 030c 35       		.byte	53
 1448 030d 1F       		.byte	31
 1449 030e 37       		.byte	55
ARM GAS  C:\Users\DGILLI~1\AppData\Local\Temp\ccW7tEoj.s 			page 60


 1450 030f 20       		.byte	32
 1451 0310 39       		.byte	57
 1452 0311 80       		.byte	-128
 1453 0312 3B       		.byte	59
 1454 0313 28       		.byte	40
 1455 0314 56       		.byte	86
 1456 0315 02       		.byte	2
 1457 0316 57       		.byte	87
 1458 0317 12       		.byte	18
 1459 0318 59       		.byte	89
 1460 0319 04       		.byte	4
 1461 031a 5B       		.byte	91
 1462 031b 04       		.byte	4
 1463 031c 5C       		.byte	92
 1464 031d 10       		.byte	16
 1465 031e 5D       		.byte	93
 1466 031f 10       		.byte	16
 1467 0320 5F       		.byte	95
 1468 0321 01       		.byte	1
 1469 0322 84       		.byte	-124
 1470 0323 06       		.byte	6
 1471 0324 86       		.byte	-122
 1472 0325 08       		.byte	8
 1473 0326 8C       		.byte	-116
 1474 0327 06       		.byte	6
 1475 0328 8E       		.byte	-114
 1476 0329 18       		.byte	24
 1477 032a 92       		.byte	-110
 1478 032b 01       		.byte	1
 1479 032c 93       		.byte	-109
 1480 032d 01       		.byte	1
 1481 032e 94       		.byte	-108
 1482 032f 06       		.byte	6
 1483 0330 96       		.byte	-106
 1484 0331 08       		.byte	8
 1485 0332 98       		.byte	-104
 1486 0333 14       		.byte	20
 1487 0334 9A       		.byte	-102
 1488 0335 08       		.byte	8
 1489 0336 9E       		.byte	-98
 1490 0337 10       		.byte	16
 1491 0338 9F       		.byte	-97
 1492 0339 01       		.byte	1
 1493 033a A2       		.byte	-94
 1494 033b 01       		.byte	1
 1495 033c AA       		.byte	-86
 1496 033d 0A       		.byte	10
 1497 033e B0       		.byte	-80
 1498 033f 1E       		.byte	30
 1499 0340 B1       		.byte	-79
 1500 0341 01       		.byte	1
 1501 0342 B2       		.byte	-78
 1502 0343 01       		.byte	1
 1503 0344 BA       		.byte	-70
 1504 0345 02       		.byte	2
 1505 0346 BE       		.byte	-66
 1506 0347 04       		.byte	4
ARM GAS  C:\Users\DGILLI~1\AppData\Local\Temp\ccW7tEoj.s 			page 61


 1507 0348 BF       		.byte	-65
 1508 0349 01       		.byte	1
 1509 034a D4       		.byte	-44
 1510 034b 01       		.byte	1
 1511 034c D8       		.byte	-40
 1512 034d 04       		.byte	4
 1513 034e D9       		.byte	-39
 1514 034f 04       		.byte	4
 1515 0350 DB       		.byte	-37
 1516 0351 04       		.byte	4
 1517 0352 DC       		.byte	-36
 1518 0353 01       		.byte	1
 1519 0354 DD       		.byte	-35
 1520 0355 10       		.byte	16
 1521 0356 DF       		.byte	-33
 1522 0357 01       		.byte	1
 1523 0358 04       		.byte	4
 1524 0359 44       		.byte	68
 1525 035a 0E       		.byte	14
 1526 035b 94       		.byte	-108
 1527 035c 0F       		.byte	15
 1528 035d 02       		.byte	2
 1529 035e 15       		.byte	21
 1530 035f A0       		.byte	-96
 1531 0360 16       		.byte	22
 1532 0361 01       		.byte	1
 1533 0362 17       		.byte	23
 1534 0363 01       		.byte	1
 1535 0364 1C       		.byte	28
 1536 0365 40       		.byte	64
 1537 0366 1D       		.byte	29
 1538 0367 08       		.byte	8
 1539 0368 21       		.byte	33
 1540 0369 40       		.byte	64
 1541 036a 22       		.byte	34
 1542 036b 18       		.byte	24
 1543 036c 26       		.byte	38
 1544 036d 01       		.byte	1
 1545 036e 29       		.byte	41
 1546 036f 10       		.byte	16
 1547 0370 2A       		.byte	42
 1548 0371 01       		.byte	1
 1549 0372 2B       		.byte	43
 1550 0373 02       		.byte	2
 1551 0374 32       		.byte	50
 1552 0375 99       		.byte	-103
 1553 0376 35       		.byte	53
 1554 0377 80       		.byte	-128
 1555 0378 37       		.byte	55
 1556 0379 01       		.byte	1
 1557 037a 38       		.byte	56
 1558 037b 80       		.byte	-128
 1559 037c 3A       		.byte	58
 1560 037d 2A       		.byte	42
 1561 037e 59       		.byte	89
 1562 037f 04       		.byte	4
 1563 0380 5E       		.byte	94
ARM GAS  C:\Users\DGILLI~1\AppData\Local\Temp\ccW7tEoj.s 			page 62


 1564 0381 19       		.byte	25
 1565 0382 5F       		.byte	95
 1566 0383 80       		.byte	-128
 1567 0384 69       		.byte	105
 1568 0385 54       		.byte	84
 1569 0386 6D       		.byte	109
 1570 0387 AA       		.byte	-86
 1571 0388 72       		.byte	114
 1572 0389 2A       		.byte	42
 1573 038a 73       		.byte	115
 1574 038b 18       		.byte	24
 1575 038c 74       		.byte	116
 1576 038d 61       		.byte	97
 1577 038e 77       		.byte	119
 1578 038f 10       		.byte	16
 1579 0390 80       		.byte	-128
 1580 0391 20       		.byte	32
 1581 0392 85       		.byte	-123
 1582 0393 08       		.byte	8
 1583 0394 88       		.byte	-120
 1584 0395 40       		.byte	64
 1585 0396 8A       		.byte	-118
 1586 0397 02       		.byte	2
 1587 0398 8B       		.byte	-117
 1588 0399 08       		.byte	8
 1589 039a 8D       		.byte	-115
 1590 039b 10       		.byte	16
 1591 039c 90       		.byte	-112
 1592 039d 04       		.byte	4
 1593 039e 91       		.byte	-111
 1594 039f 20       		.byte	32
 1595 03a0 92       		.byte	-110
 1596 03a1 1D       		.byte	29
 1597 03a2 94       		.byte	-108
 1598 03a3 C0       		.byte	-64
 1599 03a4 95       		.byte	-107
 1600 03a5 03       		.byte	3
 1601 03a6 98       		.byte	-104
 1602 03a7 02       		.byte	2
 1603 03a8 99       		.byte	-103
 1604 03a9 40       		.byte	64
 1605 03aa 9B       		.byte	-101
 1606 03ab 80       		.byte	-128
 1607 03ac 9E       		.byte	-98
 1608 03ad 14       		.byte	20
 1609 03ae 9F       		.byte	-97
 1610 03af 07       		.byte	7
 1611 03b0 A0       		.byte	-96
 1612 03b1 04       		.byte	4
 1613 03b2 A2       		.byte	-94
 1614 03b3 04       		.byte	4
 1615 03b4 A5       		.byte	-91
 1616 03b5 05       		.byte	5
 1617 03b6 A6       		.byte	-90
 1618 03b7 22       		.byte	34
 1619 03b8 A7       		.byte	-89
 1620 03b9 59       		.byte	89
ARM GAS  C:\Users\DGILLI~1\AppData\Local\Temp\ccW7tEoj.s 			page 63


 1621 03ba AA       		.byte	-86
 1622 03bb 40       		.byte	64
 1623 03bc AB       		.byte	-85
 1624 03bd 01       		.byte	1
 1625 03be AF       		.byte	-81
 1626 03bf 40       		.byte	64
 1627 03c0 B0       		.byte	-80
 1628 03c1 20       		.byte	32
 1629 03c2 B1       		.byte	-79
 1630 03c3 24       		.byte	36
 1631 03c4 B2       		.byte	-78
 1632 03c5 01       		.byte	1
 1633 03c6 B4       		.byte	-76
 1634 03c7 10       		.byte	16
 1635 03c8 B6       		.byte	-74
 1636 03c9 0A       		.byte	10
 1637 03ca C0       		.byte	-64
 1638 03cb A0       		.byte	-96
 1639 03cc C2       		.byte	-62
 1640 03cd F0       		.byte	-16
 1641 03ce C4       		.byte	-60
 1642 03cf 50       		.byte	80
 1643 03d0 CA       		.byte	-54
 1644 03d1 0D       		.byte	13
 1645 03d2 CC       		.byte	-52
 1646 03d3 9F       		.byte	-97
 1647 03d4 CE       		.byte	-50
 1648 03d5 0F       		.byte	15
 1649 03d6 D6       		.byte	-42
 1650 03d7 F2       		.byte	-14
 1651 03d8 E6       		.byte	-26
 1652 03d9 20       		.byte	32
 1653 03da E8       		.byte	-24
 1654 03db F4       		.byte	-12
 1655 03dc EE       		.byte	-18
 1656 03dd 40       		.byte	64
 1657 03de 0B       		.byte	11
 1658 03df 01       		.byte	1
 1659 03e0 0E       		.byte	14
 1660 03e1 01       		.byte	1
 1661 03e2 13       		.byte	19
 1662 03e3 01       		.byte	1
 1663 03e4 2A       		.byte	42
 1664 03e5 01       		.byte	1
 1665 03e6 36       		.byte	54
 1666 03e7 01       		.byte	1
 1667 03e8 37       		.byte	55
 1668 03e9 01       		.byte	1
 1669 03ea 3E       		.byte	62
 1670 03eb 40       		.byte	64
 1671 03ec 3F       		.byte	63
 1672 03ed 40       		.byte	64
 1673 03ee 54       		.byte	84
 1674 03ef 18       		.byte	24
 1675 03f0 58       		.byte	88
 1676 03f1 04       		.byte	4
 1677 03f2 59       		.byte	89
ARM GAS  C:\Users\DGILLI~1\AppData\Local\Temp\ccW7tEoj.s 			page 64


 1678 03f3 04       		.byte	4
 1679 03f4 5B       		.byte	91
 1680 03f5 04       		.byte	4
 1681 03f6 5D       		.byte	93
 1682 03f7 10       		.byte	16
 1683 03f8 5F       		.byte	95
 1684 03f9 01       		.byte	1
 1685 03fa 80       		.byte	-128
 1686 03fb 02       		.byte	2
 1687 03fc 84       		.byte	-124
 1688 03fd 01       		.byte	1
 1689 03fe 85       		.byte	-123
 1690 03ff 06       		.byte	6
 1691 0400 88       		.byte	-120
 1692 0401 08       		.byte	8
 1693 0402 8B       		.byte	-117
 1694 0403 02       		.byte	2
 1695 0404 8C       		.byte	-116
 1696 0405 04       		.byte	4
 1697 0406 8D       		.byte	-115
 1698 0407 06       		.byte	6
 1699 0408 95       		.byte	-107
 1700 0409 04       		.byte	4
 1701 040a 96       		.byte	-106
 1702 040b 04       		.byte	4
 1703 040c 9A       		.byte	-102
 1704 040d 01       		.byte	1
 1705 040e 9E       		.byte	-98
 1706 040f 04       		.byte	4
 1707 0410 A0       		.byte	-96
 1708 0411 01       		.byte	1
 1709 0412 A3       		.byte	-93
 1710 0413 01       		.byte	1
 1711 0414 A4       		.byte	-92
 1712 0415 08       		.byte	8
 1713 0416 A8       		.byte	-88
 1714 0417 04       		.byte	4
 1715 0418 AB       		.byte	-85
 1716 0419 01       		.byte	1
 1717 041a AC       		.byte	-84
 1718 041b 08       		.byte	8
 1719 041c B0       		.byte	-80
 1720 041d 03       		.byte	3
 1721 041e B1       		.byte	-79
 1722 041f 06       		.byte	6
 1723 0420 B2       		.byte	-78
 1724 0421 04       		.byte	4
 1725 0422 B4       		.byte	-76
 1726 0423 08       		.byte	8
 1727 0424 B5       		.byte	-75
 1728 0425 01       		.byte	1
 1729 0426 B8       		.byte	-72
 1730 0427 0A       		.byte	10
 1731 0428 B9       		.byte	-71
 1732 0429 02       		.byte	2
 1733 042a BF       		.byte	-65
 1734 042b 11       		.byte	17
ARM GAS  C:\Users\DGILLI~1\AppData\Local\Temp\ccW7tEoj.s 			page 65


 1735 042c D6       		.byte	-42
 1736 042d 08       		.byte	8
 1737 042e D8       		.byte	-40
 1738 042f 04       		.byte	4
 1739 0430 D9       		.byte	-39
 1740 0431 04       		.byte	4
 1741 0432 DB       		.byte	-37
 1742 0433 04       		.byte	4
 1743 0434 DC       		.byte	-36
 1744 0435 01       		.byte	1
 1745 0436 DD       		.byte	-35
 1746 0437 90       		.byte	-112
 1747 0438 DF       		.byte	-33
 1748 0439 01       		.byte	1
 1749 043a 00       		.byte	0
 1750 043b 04       		.byte	4
 1751 043c 01       		.byte	1
 1752 043d 10       		.byte	16
 1753 043e 03       		.byte	3
 1754 043f 42       		.byte	66
 1755 0440 07       		.byte	7
 1756 0441 01       		.byte	1
 1757 0442 0A       		.byte	10
 1758 0443 2A       		.byte	42
 1759 0444 11       		.byte	17
 1760 0445 44       		.byte	68
 1761 0446 12       		.byte	18
 1762 0447 48       		.byte	72
 1763 0448 17       		.byte	23
 1764 0449 10       		.byte	16
 1765 044a 19       		.byte	25
 1766 044b 10       		.byte	16
 1767 044c 1A       		.byte	26
 1768 044d 04       		.byte	4
 1769 044e 1B       		.byte	27
 1770 044f 05       		.byte	5
 1771 0450 1E       		.byte	30
 1772 0451 02       		.byte	2
 1773 0452 21       		.byte	33
 1774 0453 01       		.byte	1
 1775 0454 23       		.byte	35
 1776 0455 04       		.byte	4
 1777 0456 24       		.byte	36
 1778 0457 02       		.byte	2
 1779 0458 2A       		.byte	42
 1780 0459 01       		.byte	1
 1781 045a 2B       		.byte	43
 1782 045b 04       		.byte	4
 1783 045c 32       		.byte	50
 1784 045d 04       		.byte	4
 1785 045e 37       		.byte	55
 1786 045f 01       		.byte	1
 1787 0460 38       		.byte	56
 1788 0461 54       		.byte	84
 1789 0462 39       		.byte	57
 1790 0463 20       		.byte	32
 1791 0464 3A       		.byte	58
ARM GAS  C:\Users\DGILLI~1\AppData\Local\Temp\ccW7tEoj.s 			page 66


 1792 0465 40       		.byte	64
 1793 0466 3E       		.byte	62
 1794 0467 20       		.byte	32
 1795 0468 58       		.byte	88
 1796 0469 10       		.byte	16
 1797 046a 5A       		.byte	90
 1798 046b 80       		.byte	-128
 1799 046c 5D       		.byte	93
 1800 046d 02       		.byte	2
 1801 046e 60       		.byte	96
 1802 046f 08       		.byte	8
 1803 0470 62       		.byte	98
 1804 0471 80       		.byte	-128
 1805 0472 64       		.byte	100
 1806 0473 02       		.byte	2
 1807 0474 67       		.byte	103
 1808 0475 04       		.byte	4
 1809 0476 68       		.byte	104
 1810 0477 A0       		.byte	-96
 1811 0478 6B       		.byte	107
 1812 0479 06       		.byte	6
 1813 047a 6D       		.byte	109
 1814 047b 01       		.byte	1
 1815 047c 6E       		.byte	110
 1816 047d 80       		.byte	-128
 1817 047e 6F       		.byte	111
 1818 047f 18       		.byte	24
 1819 0480 70       		.byte	112
 1820 0481 40       		.byte	64
 1821 0482 73       		.byte	115
 1822 0483 01       		.byte	1
 1823 0484 75       		.byte	117
 1824 0485 80       		.byte	-128
 1825 0486 76       		.byte	118
 1826 0487 A4       		.byte	-92
 1827 0488 80       		.byte	-128
 1828 0489 05       		.byte	5
 1829 048a 84       		.byte	-124
 1830 048b 14       		.byte	20
 1831 048c 88       		.byte	-120
 1832 048d 58       		.byte	88
 1833 048e 8C       		.byte	-116
 1834 048f 80       		.byte	-128
 1835 0490 8E       		.byte	-114
 1836 0491 01       		.byte	1
 1837 0492 90       		.byte	-112
 1838 0493 44       		.byte	68
 1839 0494 91       		.byte	-111
 1840 0495 74       		.byte	116
 1841 0496 92       		.byte	-110
 1842 0497 28       		.byte	40
 1843 0498 93       		.byte	-109
 1844 0499 10       		.byte	16
 1845 049a 94       		.byte	-108
 1846 049b 80       		.byte	-128
 1847 049c 95       		.byte	-107
 1848 049d 03       		.byte	3
ARM GAS  C:\Users\DGILLI~1\AppData\Local\Temp\ccW7tEoj.s 			page 67


 1849 049e 96       		.byte	-106
 1850 049f 02       		.byte	2
 1851 04a0 98       		.byte	-104
 1852 04a1 02       		.byte	2
 1853 04a2 99       		.byte	-103
 1854 04a3 40       		.byte	64
 1855 04a4 9A       		.byte	-102
 1856 04a5 02       		.byte	2
 1857 04a6 9D       		.byte	-99
 1858 04a7 94       		.byte	-108
 1859 04a8 9E       		.byte	-98
 1860 04a9 14       		.byte	20
 1861 04aa 9F       		.byte	-97
 1862 04ab 07       		.byte	7
 1863 04ac A0       		.byte	-96
 1864 04ad 04       		.byte	4
 1865 04ae A2       		.byte	-94
 1866 04af 08       		.byte	8
 1867 04b0 A6       		.byte	-90
 1868 04b1 E2       		.byte	-30
 1869 04b2 A7       		.byte	-89
 1870 04b3 0B       		.byte	11
 1871 04b4 AB       		.byte	-85
 1872 04b5 50       		.byte	80
 1873 04b6 AC       		.byte	-84
 1874 04b7 01       		.byte	1
 1875 04b8 AE       		.byte	-82
 1876 04b9 20       		.byte	32
 1877 04ba B1       		.byte	-79
 1878 04bb 40       		.byte	64
 1879 04bc B6       		.byte	-74
 1880 04bd 01       		.byte	1
 1881 04be B7       		.byte	-73
 1882 04bf 10       		.byte	16
 1883 04c0 C0       		.byte	-64
 1884 04c1 8F       		.byte	-113
 1885 04c2 C2       		.byte	-62
 1886 04c3 07       		.byte	7
 1887 04c4 C4       		.byte	-60
 1888 04c5 4F       		.byte	79
 1889 04c6 CA       		.byte	-54
 1890 04c7 05       		.byte	5
 1891 04c8 CC       		.byte	-52
 1892 04c9 82       		.byte	-126
 1893 04ca CE       		.byte	-50
 1894 04cb 2E       		.byte	46
 1895 04cc D6       		.byte	-42
 1896 04cd 8C       		.byte	-116
 1897 04ce D8       		.byte	-40
 1898 04cf 3C       		.byte	60
 1899 04d0 E0       		.byte	-32
 1900 04d1 08       		.byte	8
 1901 04d2 E2       		.byte	-30
 1902 04d3 10       		.byte	16
 1903 04d4 E4       		.byte	-28
 1904 04d5 03       		.byte	3
 1905 04d6 E6       		.byte	-26
ARM GAS  C:\Users\DGILLI~1\AppData\Local\Temp\ccW7tEoj.s 			page 68


 1906 04d7 88       		.byte	-120
 1907 04d8 E8       		.byte	-24
 1908 04d9 08       		.byte	8
 1909 04da EA       		.byte	-22
 1910 04db 10       		.byte	16
 1911 04dc EE       		.byte	-18
 1912 04dd 40       		.byte	64
 1913 04de 81       		.byte	-127
 1914 04df 20       		.byte	32
 1915 04e0 83       		.byte	-125
 1916 04e1 04       		.byte	4
 1917 04e2 86       		.byte	-122
 1918 04e3 02       		.byte	2
 1919 04e4 90       		.byte	-112
 1920 04e5 04       		.byte	4
 1921 04e6 93       		.byte	-109
 1922 04e7 10       		.byte	16
 1923 04e8 95       		.byte	-107
 1924 04e9 88       		.byte	-120
 1925 04ea 98       		.byte	-104
 1926 04eb 02       		.byte	2
 1927 04ec 99       		.byte	-103
 1928 04ed 40       		.byte	64
 1929 04ee A1       		.byte	-95
 1930 04ef 08       		.byte	8
 1931 04f0 A3       		.byte	-93
 1932 04f1 03       		.byte	3
 1933 04f2 A4       		.byte	-92
 1934 04f3 40       		.byte	64
 1935 04f4 A9       		.byte	-87
 1936 04f5 40       		.byte	64
 1937 04f6 AF       		.byte	-81
 1938 04f7 10       		.byte	16
 1939 04f8 E0       		.byte	-32
 1940 04f9 0C       		.byte	12
 1941 04fa E2       		.byte	-30
 1942 04fb 23       		.byte	35
 1943 04fc E4       		.byte	-28
 1944 04fd 43       		.byte	67
 1945 04fe E6       		.byte	-26
 1946 04ff 88       		.byte	-120
 1947 0500 E8       		.byte	-24
 1948 0501 01       		.byte	1
 1949 0502 EC       		.byte	-20
 1950 0503 20       		.byte	32
 1951 0504 84       		.byte	-124
 1952 0505 40       		.byte	64
 1953 0506 85       		.byte	-123
 1954 0507 04       		.byte	4
 1955 0508 8B       		.byte	-117
 1956 0509 03       		.byte	3
 1957 050a 90       		.byte	-112
 1958 050b 04       		.byte	4
 1959 050c 98       		.byte	-104
 1960 050d 02       		.byte	2
 1961 050e 99       		.byte	-103
 1962 050f 40       		.byte	64
ARM GAS  C:\Users\DGILLI~1\AppData\Local\Temp\ccW7tEoj.s 			page 69


 1963 0510 A1       		.byte	-95
 1964 0511 08       		.byte	8
 1965 0512 B0       		.byte	-80
 1966 0513 02       		.byte	2
 1967 0514 B1       		.byte	-79
 1968 0515 08       		.byte	8
 1969 0516 B4       		.byte	-76
 1970 0517 04       		.byte	4
 1971 0518 E0       		.byte	-32
 1972 0519 8A       		.byte	-118
 1973 051a E4       		.byte	-28
 1974 051b 90       		.byte	-112
 1975 051c E8       		.byte	-24
 1976 051d 04       		.byte	4
 1977 051e 89       		.byte	-119
 1978 051f 40       		.byte	64
 1979 0520 E0       		.byte	-32
 1980 0521 06       		.byte	6
 1981 0522 E2       		.byte	-30
 1982 0523 20       		.byte	32
 1983 0524 E4       		.byte	-28
 1984 0525 53       		.byte	83
 1985 0526 EE       		.byte	-18
 1986 0527 A8       		.byte	-88
 1987 0528 E2       		.byte	-30
 1988 0529 54       		.byte	84
 1989 052a 00       		.byte	0
 1990 052b 01       		.byte	1
 1991 052c 01       		.byte	1
 1992 052d 01       		.byte	1
 1993 052e 05       		.byte	5
 1994 052f 02       		.byte	2
 1995 0530 09       		.byte	9
 1996 0531 0C       		.byte	12
 1997 0532 0F       		.byte	15
 1998 0533 01       		.byte	1
 1999 0534 10       		.byte	16
 2000 0535 01       		.byte	1
 2001 0536 11       		.byte	17
 2002 0537 03       		.byte	3
 2003 0538 13       		.byte	19
 2004 0539 0C       		.byte	12
 2005 053a 14       		.byte	20
 2006 053b 01       		.byte	1
 2007 053c 15       		.byte	21
 2008 053d 0F       		.byte	15
 2009 053e 19       		.byte	25
 2010 053f 0C       		.byte	12
 2011 0540 1B       		.byte	27
 2012 0541 03       		.byte	3
 2013 0542 1D       		.byte	29
 2014 0543 03       		.byte	3
 2015 0544 21       		.byte	33
 2016 0545 08       		.byte	8
 2017 0546 27       		.byte	39
 2018 0547 03       		.byte	3
 2019 0548 28       		.byte	40
ARM GAS  C:\Users\DGILLI~1\AppData\Local\Temp\ccW7tEoj.s 			page 70


 2020 0549 01       		.byte	1
 2021 054a 29       		.byte	41
 2022 054b 04       		.byte	4
 2023 054c 2D       		.byte	45
 2024 054d 0F       		.byte	15
 2025 054e 32       		.byte	50
 2026 054f 01       		.byte	1
 2027 0550 37       		.byte	55
 2028 0551 0F       		.byte	15
 2029 0552 3B       		.byte	59
 2030 0553 80       		.byte	-128
 2031 0554 3E       		.byte	62
 2032 0555 04       		.byte	4
 2033 0556 58       		.byte	88
 2034 0557 04       		.byte	4
 2035 0558 59       		.byte	89
 2036 0559 04       		.byte	4
 2037 055a 5B       		.byte	91
 2038 055b 04       		.byte	4
 2039 055c 5C       		.byte	92
 2040 055d 10       		.byte	16
 2041 055e 5F       		.byte	95
 2042 055f 01       		.byte	1
 2043 0560 DB       		.byte	-37
 2044 0561 04       		.byte	4
 2045 0562 DF       		.byte	-33
 2046 0563 01       		.byte	1
 2047 0564 00       		.byte	0
 2048 0565 02       		.byte	2
 2049 0566 08       		.byte	8
 2050 0567 02       		.byte	2
 2051 0568 0A       		.byte	10
 2052 0569 20       		.byte	32
 2053 056a 12       		.byte	18
 2054 056b 08       		.byte	8
 2055 056c 19       		.byte	25
 2056 056d 04       		.byte	4
 2057 056e 20       		.byte	32
 2058 056f 02       		.byte	2
 2059 0570 22       		.byte	34
 2060 0571 40       		.byte	64
 2061 0572 28       		.byte	40
 2062 0573 02       		.byte	2
 2063 0574 2A       		.byte	42
 2064 0575 0A       		.byte	10
 2065 0576 2B       		.byte	43
 2066 0577 04       		.byte	4
 2067 0578 31       		.byte	49
 2068 0579 40       		.byte	64
 2069 057a 32       		.byte	50
 2070 057b 18       		.byte	24
 2071 057c 33       		.byte	51
 2072 057d 02       		.byte	2
 2073 057e 38       		.byte	56
 2074 057f 80       		.byte	-128
 2075 0580 39       		.byte	57
 2076 0581 0A       		.byte	10
ARM GAS  C:\Users\DGILLI~1\AppData\Local\Temp\ccW7tEoj.s 			page 71


 2077 0582 3B       		.byte	59
 2078 0583 10       		.byte	16
 2079 0584 58       		.byte	88
 2080 0585 40       		.byte	64
 2081 0586 59       		.byte	89
 2082 0587 10       		.byte	16
 2083 0588 5C       		.byte	92
 2084 0589 90       		.byte	-112
 2085 058a 5D       		.byte	93
 2086 058b 02       		.byte	2
 2087 058c 5F       		.byte	95
 2088 058d 04       		.byte	4
 2089 058e 64       		.byte	100
 2090 058f 01       		.byte	1
 2091 0590 66       		.byte	102
 2092 0591 20       		.byte	32
 2093 0592 67       		.byte	103
 2094 0593 A0       		.byte	-96
 2095 0594 68       		.byte	104
 2096 0595 10       		.byte	16
 2097 0596 69       		.byte	105
 2098 0597 20       		.byte	32
 2099 0598 6A       		.byte	106
 2100 0599 02       		.byte	2
 2101 059a 6B       		.byte	107
 2102 059b 01       		.byte	1
 2103 059c 6C       		.byte	108
 2104 059d 02       		.byte	2
 2105 059e 6D       		.byte	109
 2106 059f 20       		.byte	32
 2107 05a0 6E       		.byte	110
 2108 05a1 08       		.byte	8
 2109 05a2 6F       		.byte	111
 2110 05a3 80       		.byte	-128
 2111 05a4 70       		.byte	112
 2112 05a5 04       		.byte	4
 2113 05a6 71       		.byte	113
 2114 05a7 80       		.byte	-128
 2115 05a8 72       		.byte	114
 2116 05a9 04       		.byte	4
 2117 05aa 73       		.byte	115
 2118 05ab 80       		.byte	-128
 2119 05ac 74       		.byte	116
 2120 05ad 80       		.byte	-128
 2121 05ae 75       		.byte	117
 2122 05af 08       		.byte	8
 2123 05b0 76       		.byte	118
 2124 05b1 40       		.byte	64
 2125 05b2 77       		.byte	119
 2126 05b3 04       		.byte	4
 2127 05b4 80       		.byte	-128
 2128 05b5 80       		.byte	-128
 2129 05b6 81       		.byte	-127
 2130 05b7 08       		.byte	8
 2131 05b8 82       		.byte	-126
 2132 05b9 20       		.byte	32
 2133 05ba 86       		.byte	-122
ARM GAS  C:\Users\DGILLI~1\AppData\Local\Temp\ccW7tEoj.s 			page 72


 2134 05bb 04       		.byte	4
 2135 05bc 87       		.byte	-121
 2136 05bd D0       		.byte	-48
 2137 05be 88       		.byte	-120
 2138 05bf 01       		.byte	1
 2139 05c0 89       		.byte	-119
 2140 05c1 02       		.byte	2
 2141 05c2 8A       		.byte	-118
 2142 05c3 41       		.byte	65
 2143 05c4 8C       		.byte	-116
 2144 05c5 90       		.byte	-112
 2145 05c6 8E       		.byte	-114
 2146 05c7 04       		.byte	4
 2147 05c8 8F       		.byte	-113
 2148 05c9 04       		.byte	4
 2149 05ca 90       		.byte	-112
 2150 05cb 80       		.byte	-128
 2151 05cc 91       		.byte	-111
 2152 05cd 0A       		.byte	10
 2153 05ce 92       		.byte	-110
 2154 05cf 20       		.byte	32
 2155 05d0 93       		.byte	-109
 2156 05d1 14       		.byte	20
 2157 05d2 94       		.byte	-108
 2158 05d3 08       		.byte	8
 2159 05d4 95       		.byte	-107
 2160 05d5 20       		.byte	32
 2161 05d6 96       		.byte	-106
 2162 05d7 80       		.byte	-128
 2163 05d8 98       		.byte	-104
 2164 05d9 42       		.byte	66
 2165 05da 99       		.byte	-103
 2166 05db 50       		.byte	80
 2167 05dc 9A       		.byte	-102
 2168 05dd 0A       		.byte	10
 2169 05de 9D       		.byte	-99
 2170 05df 04       		.byte	4
 2171 05e0 9F       		.byte	-97
 2172 05e1 81       		.byte	-127
 2173 05e2 A2       		.byte	-94
 2174 05e3 08       		.byte	8
 2175 05e4 A3       		.byte	-93
 2176 05e5 06       		.byte	6
 2177 05e6 A4       		.byte	-92
 2178 05e7 12       		.byte	18
 2179 05e8 A5       		.byte	-91
 2180 05e9 90       		.byte	-112
 2181 05ea A9       		.byte	-87
 2182 05eb A0       		.byte	-96
 2183 05ec AB       		.byte	-85
 2184 05ed 04       		.byte	4
 2185 05ee AD       		.byte	-83
 2186 05ef 18       		.byte	24
 2187 05f0 AE       		.byte	-82
 2188 05f1 40       		.byte	64
 2189 05f2 AF       		.byte	-81
 2190 05f3 08       		.byte	8
ARM GAS  C:\Users\DGILLI~1\AppData\Local\Temp\ccW7tEoj.s 			page 73


 2191 05f4 B0       		.byte	-80
 2192 05f5 02       		.byte	2
 2193 05f6 B1       		.byte	-79
 2194 05f7 01       		.byte	1
 2195 05f8 B2       		.byte	-78
 2196 05f9 01       		.byte	1
 2197 05fa B3       		.byte	-77
 2198 05fb 05       		.byte	5
 2199 05fc B5       		.byte	-75
 2200 05fd 90       		.byte	-112
 2201 05fe B6       		.byte	-74
 2202 05ff 82       		.byte	-126
 2203 0600 B7       		.byte	-73
 2204 0601 10       		.byte	16
 2205 0602 C0       		.byte	-64
 2206 0603 08       		.byte	8
 2207 0604 C2       		.byte	-62
 2208 0605 0C       		.byte	12
 2209 0606 C4       		.byte	-60
 2210 0607 02       		.byte	2
 2211 0608 CA       		.byte	-54
 2212 0609 0F       		.byte	15
 2213 060a CC       		.byte	-52
 2214 060b 0F       		.byte	15
 2215 060c CE       		.byte	-50
 2216 060d 0F       		.byte	15
 2217 060e D6       		.byte	-42
 2218 060f FC       		.byte	-4
 2219 0610 D8       		.byte	-40
 2220 0611 F0       		.byte	-16
 2221 0612 E0       		.byte	-32
 2222 0613 92       		.byte	-110
 2223 0614 E2       		.byte	-30
 2224 0615 60       		.byte	96
 2225 0616 E4       		.byte	-28
 2226 0617 20       		.byte	32
 2227 0618 E6       		.byte	-26
 2228 0619 D0       		.byte	-48
 2229 061a E8       		.byte	-24
 2230 061b 02       		.byte	2
 2231 061c EA       		.byte	-22
 2232 061d 10       		.byte	16
 2233 061e EC       		.byte	-20
 2234 061f A0       		.byte	-96
 2235 0620 EE       		.byte	-18
 2236 0621 4D       		.byte	77
 2237 0622 13       		.byte	19
 2238 0623 01       		.byte	1
 2239 0624 2F       		.byte	47
 2240 0625 01       		.byte	1
 2241 0626 33       		.byte	51
 2242 0627 01       		.byte	1
 2243 0628 3F       		.byte	63
 2244 0629 04       		.byte	4
 2245 062a 59       		.byte	89
 2246 062b 04       		.byte	4
 2247 062c 5B       		.byte	91
ARM GAS  C:\Users\DGILLI~1\AppData\Local\Temp\ccW7tEoj.s 			page 74


 2248 062d 04       		.byte	4
 2249 062e 5F       		.byte	95
 2250 062f 01       		.byte	1
 2251 0630 82       		.byte	-126
 2252 0631 30       		.byte	48
 2253 0632 84       		.byte	-124
 2254 0633 30       		.byte	48
 2255 0634 85       		.byte	-123
 2256 0635 07       		.byte	7
 2257 0636 89       		.byte	-119
 2258 0637 07       		.byte	7
 2259 0638 8C       		.byte	-116
 2260 0639 30       		.byte	48
 2261 063a 8D       		.byte	-115
 2262 063b 01       		.byte	1
 2263 063c 8F       		.byte	-113
 2264 063d 0A       		.byte	10
 2265 063e 92       		.byte	-110
 2266 063f 30       		.byte	48
 2267 0640 94       		.byte	-108
 2268 0641 28       		.byte	40
 2269 0642 95       		.byte	-107
 2270 0643 15       		.byte	21
 2271 0644 96       		.byte	-106
 2272 0645 05       		.byte	5
 2273 0646 97       		.byte	-105
 2274 0647 02       		.byte	2
 2275 0648 9A       		.byte	-102
 2276 0649 30       		.byte	48
 2277 064a 9C       		.byte	-100
 2278 064b 01       		.byte	1
 2279 064c 9D       		.byte	-99
 2280 064d 0A       		.byte	10
 2281 064e 9E       		.byte	-98
 2282 064f 12       		.byte	18
 2283 0650 9F       		.byte	-97
 2284 0651 04       		.byte	4
 2285 0652 A0       		.byte	-96
 2286 0653 12       		.byte	18
 2287 0654 A2       		.byte	-94
 2288 0655 04       		.byte	4
 2289 0656 A4       		.byte	-92
 2290 0657 0F       		.byte	15
 2291 0658 A8       		.byte	-88
 2292 0659 0F       		.byte	15
 2293 065a AC       		.byte	-84
 2294 065b 35       		.byte	53
 2295 065c AD       		.byte	-83
 2296 065d 18       		.byte	24
 2297 065e AE       		.byte	-82
 2298 065f 0A       		.byte	10
 2299 0660 B0       		.byte	-80
 2300 0661 30       		.byte	48
 2301 0662 B3       		.byte	-77
 2302 0663 07       		.byte	7
 2303 0664 B6       		.byte	-74
 2304 0665 0F       		.byte	15
ARM GAS  C:\Users\DGILLI~1\AppData\Local\Temp\ccW7tEoj.s 			page 75


 2305 0666 B7       		.byte	-73
 2306 0667 18       		.byte	24
 2307 0668 B9       		.byte	-71
 2308 0669 80       		.byte	-128
 2309 066a BF       		.byte	-65
 2310 066b 40       		.byte	64
 2311 066c C0       		.byte	-64
 2312 066d 42       		.byte	66
 2313 066e C1       		.byte	-63
 2314 066f 06       		.byte	6
 2315 0670 C2       		.byte	-62
 2316 0671 05       		.byte	5
 2317 0672 C4       		.byte	-60
 2318 0673 01       		.byte	1
 2319 0674 C6       		.byte	-58
 2320 0675 C0       		.byte	-64
 2321 0676 C7       		.byte	-57
 2322 0677 E0       		.byte	-32
 2323 0678 C8       		.byte	-56
 2324 0679 28       		.byte	40
 2325 067a C9       		.byte	-55
 2326 067b FF       		.byte	-1
 2327 067c CA       		.byte	-54
 2328 067d FF       		.byte	-1
 2329 067e CB       		.byte	-53
 2330 067f FF       		.byte	-1
 2331 0680 CC       		.byte	-52
 2332 0681 62       		.byte	98
 2333 0682 CD       		.byte	-51
 2334 0683 A0       		.byte	-96
 2335 0684 CE       		.byte	-50
 2336 0685 F0       		.byte	-16
 2337 0686 CF       		.byte	-49
 2338 0687 41       		.byte	65
 2339 0688 D0       		.byte	-48
 2340 0689 0C       		.byte	12
 2341 068a D8       		.byte	-40
 2342 068b 04       		.byte	4
 2343 068c D9       		.byte	-39
 2344 068d 04       		.byte	4
 2345 068e DA       		.byte	-38
 2346 068f 04       		.byte	4
 2347 0690 DB       		.byte	-37
 2348 0691 04       		.byte	4
 2349 0692 DC       		.byte	-36
 2350 0693 11       		.byte	17
 2351 0694 DD       		.byte	-35
 2352 0695 01       		.byte	1
 2353 0696 DF       		.byte	-33
 2354 0697 01       		.byte	1
 2355 0698 E6       		.byte	-26
 2356 0699 40       		.byte	64
 2357 069a E7       		.byte	-25
 2358 069b 02       		.byte	2
 2359 069c E9       		.byte	-23
 2360 069d 10       		.byte	16
 2361 069e EA       		.byte	-22
ARM GAS  C:\Users\DGILLI~1\AppData\Local\Temp\ccW7tEoj.s 			page 76


 2362 069f 30       		.byte	48
 2363 06a0 EB       		.byte	-21
 2364 06a1 10       		.byte	16
 2365 06a2 ED       		.byte	-19
 2366 06a3 10       		.byte	16
 2367 06a4 EE       		.byte	-18
 2368 06a5 10       		.byte	16
 2369 06a6 EF       		.byte	-17
 2370 06a7 12       		.byte	18
 2371 06a8 00       		.byte	0
 2372 06a9 08       		.byte	8
 2373 06aa 03       		.byte	3
 2374 06ab 82       		.byte	-126
 2375 06ac 08       		.byte	8
 2376 06ad 02       		.byte	2
 2377 06ae 09       		.byte	9
 2378 06af 08       		.byte	8
 2379 06b0 0A       		.byte	10
 2380 06b1 04       		.byte	4
 2381 06b2 0B       		.byte	11
 2382 06b3 01       		.byte	1
 2383 06b4 10       		.byte	16
 2384 06b5 01       		.byte	1
 2385 06b6 11       		.byte	17
 2386 06b7 14       		.byte	20
 2387 06b8 12       		.byte	18
 2388 06b9 80       		.byte	-128
 2389 06ba 19       		.byte	25
 2390 06bb 42       		.byte	66
 2391 06bc 20       		.byte	32
 2392 06bd 01       		.byte	1
 2393 06be 21       		.byte	33
 2394 06bf 0C       		.byte	12
 2395 06c0 27       		.byte	39
 2396 06c1 10       		.byte	16
 2397 06c2 28       		.byte	40
 2398 06c3 01       		.byte	1
 2399 06c4 29       		.byte	41
 2400 06c5 40       		.byte	64
 2401 06c6 2E       		.byte	46
 2402 06c7 80       		.byte	-128
 2403 06c8 31       		.byte	49
 2404 06c9 08       		.byte	8
 2405 06ca 32       		.byte	50
 2406 06cb 80       		.byte	-128
 2407 06cc 37       		.byte	55
 2408 06cd 01       		.byte	1
 2409 06ce 38       		.byte	56
 2410 06cf 80       		.byte	-128
 2411 06d0 39       		.byte	57
 2412 06d1 14       		.byte	20
 2413 06d2 40       		.byte	64
 2414 06d3 81       		.byte	-127
 2415 06d4 42       		.byte	66
 2416 06d5 0C       		.byte	12
 2417 06d6 43       		.byte	67
 2418 06d7 02       		.byte	2
ARM GAS  C:\Users\DGILLI~1\AppData\Local\Temp\ccW7tEoj.s 			page 77


 2419 06d8 48       		.byte	72
 2420 06d9 04       		.byte	4
 2421 06da 4A       		.byte	74
 2422 06db 0A       		.byte	10
 2423 06dc 52       		.byte	82
 2424 06dd 11       		.byte	17
 2425 06de 59       		.byte	89
 2426 06df 28       		.byte	40
 2427 06e0 5A       		.byte	90
 2428 06e1 41       		.byte	65
 2429 06e2 5D       		.byte	93
 2430 06e3 01       		.byte	1
 2431 06e4 5E       		.byte	94
 2432 06e5 A0       		.byte	-96
 2433 06e6 5F       		.byte	95
 2434 06e7 08       		.byte	8
 2435 06e8 63       		.byte	99
 2436 06e9 02       		.byte	2
 2437 06ea 6C       		.byte	108
 2438 06eb 08       		.byte	8
 2439 06ec 6D       		.byte	109
 2440 06ed 80       		.byte	-128
 2441 06ee 6F       		.byte	111
 2442 06ef 60       		.byte	96
 2443 06f0 75       		.byte	117
 2444 06f1 80       		.byte	-128
 2445 06f2 79       		.byte	121
 2446 06f3 02       		.byte	2
 2447 06f4 7A       		.byte	122
 2448 06f5 80       		.byte	-128
 2449 06f6 82       		.byte	-126
 2450 06f7 40       		.byte	64
 2451 06f8 83       		.byte	-125
 2452 06f9 60       		.byte	96
 2453 06fa 85       		.byte	-123
 2454 06fb 40       		.byte	64
 2455 06fc 86       		.byte	-122
 2456 06fd 28       		.byte	40
 2457 06fe 88       		.byte	-120
 2458 06ff 08       		.byte	8
 2459 0700 8A       		.byte	-118
 2460 0701 11       		.byte	17
 2461 0702 8C       		.byte	-116
 2462 0703 82       		.byte	-126
 2463 0704 8D       		.byte	-115
 2464 0705 10       		.byte	16
 2465 0706 8E       		.byte	-114
 2466 0707 50       		.byte	80
 2467 0708 8F       		.byte	-113
 2468 0709 80       		.byte	-128
 2469 070a 90       		.byte	-112
 2470 070b 80       		.byte	-128
 2471 070c 91       		.byte	-111
 2472 070d 14       		.byte	20
 2473 070e 92       		.byte	-110
 2474 070f 24       		.byte	36
 2475 0710 93       		.byte	-109
ARM GAS  C:\Users\DGILLI~1\AppData\Local\Temp\ccW7tEoj.s 			page 78


 2476 0711 11       		.byte	17
 2477 0712 94       		.byte	-108
 2478 0713 08       		.byte	8
 2479 0714 96       		.byte	-106
 2480 0715 02       		.byte	2
 2481 0716 98       		.byte	-104
 2482 0717 40       		.byte	64
 2483 0718 9A       		.byte	-102
 2484 0719 82       		.byte	-126
 2485 071a 9D       		.byte	-99
 2486 071b 06       		.byte	6
 2487 071c 9E       		.byte	-98
 2488 071d 11       		.byte	17
 2489 071e 9F       		.byte	-97
 2490 071f 81       		.byte	-127
 2491 0720 A2       		.byte	-94
 2492 0721 88       		.byte	-120
 2493 0722 A4       		.byte	-92
 2494 0723 10       		.byte	16
 2495 0724 A6       		.byte	-90
 2496 0725 22       		.byte	34
 2497 0726 A7       		.byte	-89
 2498 0727 02       		.byte	2
 2499 0728 A8       		.byte	-88
 2500 0729 10       		.byte	16
 2501 072a AB       		.byte	-85
 2502 072b C0       		.byte	-64
 2503 072c AC       		.byte	-84
 2504 072d 20       		.byte	32
 2505 072e B1       		.byte	-79
 2506 072f 40       		.byte	64
 2507 0730 B2       		.byte	-78
 2508 0731 04       		.byte	4
 2509 0732 B6       		.byte	-74
 2510 0733 40       		.byte	64
 2511 0734 C0       		.byte	-64
 2512 0735 0D       		.byte	13
 2513 0736 C2       		.byte	-62
 2514 0737 0F       		.byte	15
 2515 0738 C4       		.byte	-60
 2516 0739 0F       		.byte	15
 2517 073a CA       		.byte	-54
 2518 073b 18       		.byte	24
 2519 073c CC       		.byte	-52
 2520 073d 8A       		.byte	-118
 2521 073e CE       		.byte	-50
 2522 073f 0E       		.byte	14
 2523 0740 D0       		.byte	-48
 2524 0741 0D       		.byte	13
 2525 0742 D2       		.byte	-46
 2526 0743 0C       		.byte	12
 2527 0744 D6       		.byte	-42
 2528 0745 FF       		.byte	-1
 2529 0746 D8       		.byte	-40
 2530 0747 08       		.byte	8
 2531 0748 E0       		.byte	-32
 2532 0749 88       		.byte	-120
ARM GAS  C:\Users\DGILLI~1\AppData\Local\Temp\ccW7tEoj.s 			page 79


 2533 074a E2       		.byte	-30
 2534 074b 04       		.byte	4
 2535 074c E6       		.byte	-26
 2536 074d 70       		.byte	112
 2537 074e EE       		.byte	-18
 2538 074f 02       		.byte	2
 2539 0750 00       		.byte	0
 2540 0751 02       		.byte	2
 2541 0752 01       		.byte	1
 2542 0753 04       		.byte	4
 2543 0754 06       		.byte	6
 2544 0755 01       		.byte	1
 2545 0756 08       		.byte	8
 2546 0757 01       		.byte	1
 2547 0758 09       		.byte	9
 2548 0759 07       		.byte	7
 2549 075a 0A       		.byte	10
 2550 075b 06       		.byte	6
 2551 075c 10       		.byte	16
 2552 075d 06       		.byte	6
 2553 075e 11       		.byte	17
 2554 075f 01       		.byte	1
 2555 0760 12       		.byte	18
 2556 0761 01       		.byte	1
 2557 0762 13       		.byte	19
 2558 0763 06       		.byte	6
 2559 0764 14       		.byte	20
 2560 0765 06       		.byte	6
 2561 0766 15       		.byte	21
 2562 0767 06       		.byte	6
 2563 0768 17       		.byte	23
 2564 0769 01       		.byte	1
 2565 076a 18       		.byte	24
 2566 076b 07       		.byte	7
 2567 076c 1B       		.byte	27
 2568 076d 01       		.byte	1
 2569 076e 1C       		.byte	28
 2570 076f 04       		.byte	4
 2571 0770 1D       		.byte	29
 2572 0771 06       		.byte	6
 2573 0772 1F       		.byte	31
 2574 0773 01       		.byte	1
 2575 0774 24       		.byte	36
 2576 0775 07       		.byte	7
 2577 0776 29       		.byte	41
 2578 0777 06       		.byte	6
 2579 0778 2D       		.byte	45
 2580 0779 02       		.byte	2
 2581 077a 30       		.byte	48
 2582 077b 07       		.byte	7
 2583 077c 37       		.byte	55
 2584 077d 07       		.byte	7
 2585 077e 3B       		.byte	59
 2586 077f 80       		.byte	-128
 2587 0780 58       		.byte	88
 2588 0781 04       		.byte	4
 2589 0782 59       		.byte	89
ARM GAS  C:\Users\DGILLI~1\AppData\Local\Temp\ccW7tEoj.s 			page 80


 2590 0783 04       		.byte	4
 2591 0784 5B       		.byte	91
 2592 0785 04       		.byte	4
 2593 0786 5C       		.byte	92
 2594 0787 11       		.byte	17
 2595 0788 5F       		.byte	95
 2596 0789 01       		.byte	1
 2597 078a DB       		.byte	-37
 2598 078b 04       		.byte	4
 2599 078c DF       		.byte	-33
 2600 078d 01       		.byte	1
 2601 078e 04       		.byte	4
 2602 078f 10       		.byte	16
 2603 0790 06       		.byte	6
 2604 0791 90       		.byte	-112
 2605 0792 07       		.byte	7
 2606 0793 10       		.byte	16
 2607 0794 0E       		.byte	14
 2608 0795 98       		.byte	-104
 2609 0796 0F       		.byte	15
 2610 0797 12       		.byte	18
 2611 0798 16       		.byte	22
 2612 0799 20       		.byte	32
 2613 079a 1D       		.byte	29
 2614 079b 02       		.byte	2
 2615 079c 26       		.byte	38
 2616 079d 40       		.byte	64
 2617 079e 2E       		.byte	46
 2618 079f 90       		.byte	-112
 2619 07a0 2F       		.byte	47
 2620 07a1 03       		.byte	3
 2621 07a2 36       		.byte	54
 2622 07a3 45       		.byte	69
 2623 07a4 37       		.byte	55
 2624 07a5 10       		.byte	16
 2625 07a6 3E       		.byte	62
 2626 07a7 20       		.byte	32
 2627 07a8 3F       		.byte	63
 2628 07a9 02       		.byte	2
 2629 07aa 58       		.byte	88
 2630 07ab 02       		.byte	2
 2631 07ac 59       		.byte	89
 2632 07ad 10       		.byte	16
 2633 07ae 5A       		.byte	90
 2634 07af 80       		.byte	-128
 2635 07b0 5B       		.byte	91
 2636 07b1 04       		.byte	4
 2637 07b2 5C       		.byte	92
 2638 07b3 A0       		.byte	-96
 2639 07b4 5E       		.byte	94
 2640 07b5 05       		.byte	5
 2641 07b6 60       		.byte	96
 2642 07b7 04       		.byte	4
 2643 07b8 61       		.byte	97
 2644 07b9 48       		.byte	72
 2645 07ba 62       		.byte	98
 2646 07bb 02       		.byte	2
ARM GAS  C:\Users\DGILLI~1\AppData\Local\Temp\ccW7tEoj.s 			page 81


 2647 07bc 65       		.byte	101
 2648 07bd 80       		.byte	-128
 2649 07be 68       		.byte	104
 2650 07bf 48       		.byte	72
 2651 07c0 69       		.byte	105
 2652 07c1 88       		.byte	-120
 2653 07c2 6D       		.byte	109
 2654 07c3 6A       		.byte	106
 2655 07c4 70       		.byte	112
 2656 07c5 05       		.byte	5
 2657 07c6 71       		.byte	113
 2658 07c7 20       		.byte	32
 2659 07c8 72       		.byte	114
 2660 07c9 02       		.byte	2
 2661 07ca 77       		.byte	119
 2662 07cb 02       		.byte	2
 2663 07cc 80       		.byte	-128
 2664 07cd 05       		.byte	5
 2665 07ce 81       		.byte	-127
 2666 07cf 10       		.byte	16
 2667 07d0 84       		.byte	-124
 2668 07d1 08       		.byte	8
 2669 07d2 86       		.byte	-122
 2670 07d3 22       		.byte	34
 2671 07d4 87       		.byte	-121
 2672 07d5 02       		.byte	2
 2673 07d6 8C       		.byte	-116
 2674 07d7 10       		.byte	16
 2675 07d8 8E       		.byte	-114
 2676 07d9 05       		.byte	5
 2677 07da 90       		.byte	-112
 2678 07db 04       		.byte	4
 2679 07dc 92       		.byte	-110
 2680 07dd 80       		.byte	-128
 2681 07de 93       		.byte	-109
 2682 07df 10       		.byte	16
 2683 07e0 95       		.byte	-107
 2684 07e1 88       		.byte	-120
 2685 07e2 98       		.byte	-104
 2686 07e3 02       		.byte	2
 2687 07e4 99       		.byte	-103
 2688 07e5 50       		.byte	80
 2689 07e6 9A       		.byte	-102
 2690 07e7 10       		.byte	16
 2691 07e8 9B       		.byte	-101
 2692 07e9 04       		.byte	4
 2693 07ea A1       		.byte	-95
 2694 07eb 08       		.byte	8
 2695 07ec A2       		.byte	-94
 2696 07ed 02       		.byte	2
 2697 07ee A3       		.byte	-93
 2698 07ef 03       		.byte	3
 2699 07f0 A4       		.byte	-92
 2700 07f1 40       		.byte	64
 2701 07f2 A5       		.byte	-91
 2702 07f3 20       		.byte	32
 2703 07f4 AA       		.byte	-86
ARM GAS  C:\Users\DGILLI~1\AppData\Local\Temp\ccW7tEoj.s 			page 82


 2704 07f5 40       		.byte	64
 2705 07f6 B2       		.byte	-78
 2706 07f7 10       		.byte	16
 2707 07f8 B5       		.byte	-75
 2708 07f9 10       		.byte	16
 2709 07fa C0       		.byte	-64
 2710 07fb 70       		.byte	112
 2711 07fc C2       		.byte	-62
 2712 07fd F0       		.byte	-16
 2713 07fe C4       		.byte	-60
 2714 07ff 20       		.byte	32
 2715 0800 CA       		.byte	-54
 2716 0801 30       		.byte	48
 2717 0802 CC       		.byte	-52
 2718 0803 F0       		.byte	-16
 2719 0804 CE       		.byte	-50
 2720 0805 A0       		.byte	-96
 2721 0806 D6       		.byte	-42
 2722 0807 FF       		.byte	-1
 2723 0808 D8       		.byte	-40
 2724 0809 1F       		.byte	31
 2725 080a E0       		.byte	-32
 2726 080b 53       		.byte	83
 2727 080c E2       		.byte	-30
 2728 080d 04       		.byte	4
 2729 080e E4       		.byte	-28
 2730 080f 0F       		.byte	15
 2731 0810 E6       		.byte	-26
 2732 0811 80       		.byte	-128
 2733 0812 E8       		.byte	-24
 2734 0813 80       		.byte	-128
 2735 0814 EA       		.byte	-22
 2736 0815 10       		.byte	16
 2737 0816 EC       		.byte	-20
 2738 0817 20       		.byte	32
 2739 0818 EE       		.byte	-18
 2740 0819 03       		.byte	3
 2741 081a 8D       		.byte	-115
 2742 081b 45       		.byte	69
 2743 081c 91       		.byte	-111
 2744 081d 40       		.byte	64
 2745 081e A1       		.byte	-95
 2746 081f 05       		.byte	5
 2747 0820 AB       		.byte	-85
 2748 0821 01       		.byte	1
 2749 0822 B2       		.byte	-78
 2750 0823 45       		.byte	69
 2751 0824 B4       		.byte	-76
 2752 0825 A0       		.byte	-96
 2753 0826 B5       		.byte	-75
 2754 0827 82       		.byte	-126
 2755 0828 E0       		.byte	-32
 2756 0829 02       		.byte	2
 2757 082a E8       		.byte	-24
 2758 082b 02       		.byte	2
 2759 082c EA       		.byte	-22
 2760 082d A0       		.byte	-96
ARM GAS  C:\Users\DGILLI~1\AppData\Local\Temp\ccW7tEoj.s 			page 83


 2761 082e EE       		.byte	-18
 2762 082f 19       		.byte	25
 2763 0830 00       		.byte	0
 2764 0831 80       		.byte	-128
 2765 0832 02       		.byte	2
 2766 0833 20       		.byte	32
 2767 0834 04       		.byte	4
 2768 0835 10       		.byte	16
 2769 0836 06       		.byte	6
 2770 0837 20       		.byte	32
 2771 0838 0A       		.byte	10
 2772 0839 20       		.byte	32
 2773 083a 0F       		.byte	15
 2774 083b 10       		.byte	16
 2775 083c 32       		.byte	50
 2776 083d 04       		.byte	4
 2777 083e 33       		.byte	51
 2778 083f 20       		.byte	32
 2779 0840 36       		.byte	54
 2780 0841 40       		.byte	64
 2781 0842 52       		.byte	82
 2782 0843 08       		.byte	8
 2783 0844 56       		.byte	86
 2784 0845 08       		.byte	8
 2785 0846 59       		.byte	89
 2786 0847 08       		.byte	8
 2787 0848 5A       		.byte	90
 2788 0849 80       		.byte	-128
 2789 084a 5E       		.byte	94
 2790 084b 40       		.byte	64
 2791 084c 62       		.byte	98
 2792 084d 02       		.byte	2
 2793 084e 6D       		.byte	109
 2794 084f 02       		.byte	2
 2795 0850 81       		.byte	-127
 2796 0851 08       		.byte	8
 2797 0852 82       		.byte	-126
 2798 0853 40       		.byte	64
 2799 0854 84       		.byte	-124
 2800 0855 40       		.byte	64
 2801 0856 86       		.byte	-122
 2802 0857 28       		.byte	40
 2803 0858 8A       		.byte	-118
 2804 0859 02       		.byte	2
 2805 085a 8B       		.byte	-117
 2806 085b 10       		.byte	16
 2807 085c 8E       		.byte	-114
 2808 085d 40       		.byte	64
 2809 085e 8F       		.byte	-113
 2810 085f 20       		.byte	32
 2811 0860 C0       		.byte	-64
 2812 0861 F0       		.byte	-16
 2813 0862 C2       		.byte	-62
 2814 0863 30       		.byte	48
 2815 0864 CC       		.byte	-52
 2816 0865 70       		.byte	112
 2817 0866 D4       		.byte	-44
ARM GAS  C:\Users\DGILLI~1\AppData\Local\Temp\ccW7tEoj.s 			page 84


 2818 0867 E0       		.byte	-32
 2819 0868 D6       		.byte	-42
 2820 0869 60       		.byte	96
 2821 086a D8       		.byte	-40
 2822 086b 40       		.byte	64
 2823 086c DC       		.byte	-36
 2824 086d 40       		.byte	64
 2825 086e E0       		.byte	-32
 2826 086f 50       		.byte	80
 2827 0870 E6       		.byte	-26
 2828 0871 E0       		.byte	-32
 2829 0872 00       		.byte	0
 2830 0873 08       		.byte	8
 2831 0874 01       		.byte	1
 2832 0875 40       		.byte	64
 2833 0876 05       		.byte	5
 2834 0877 42       		.byte	66
 2835 0878 09       		.byte	9
 2836 0879 80       		.byte	-128
 2837 087a 0A       		.byte	10
 2838 087b 20       		.byte	32
 2839 087c 0E       		.byte	14
 2840 087d 08       		.byte	8
 2841 087e 0F       		.byte	15
 2842 087f 40       		.byte	64
 2843 0880 51       		.byte	81
 2844 0881 10       		.byte	16
 2845 0882 57       		.byte	87
 2846 0883 20       		.byte	32
 2847 0884 58       		.byte	88
 2848 0885 80       		.byte	-128
 2849 0886 5B       		.byte	91
 2850 0887 08       		.byte	8
 2851 0888 5E       		.byte	94
 2852 0889 40       		.byte	64
 2853 088a 60       		.byte	96
 2854 088b 08       		.byte	8
 2855 088c 65       		.byte	101
 2856 088d 20       		.byte	32
 2857 088e 67       		.byte	103
 2858 088f 02       		.byte	2
 2859 0890 80       		.byte	-128
 2860 0891 20       		.byte	32
 2861 0892 83       		.byte	-125
 2862 0893 20       		.byte	32
 2863 0894 84       		.byte	-124
 2864 0895 08       		.byte	8
 2865 0896 89       		.byte	-119
 2866 0897 40       		.byte	64
 2867 0898 8D       		.byte	-115
 2868 0899 40       		.byte	64
 2869 089a 96       		.byte	-106
 2870 089b 08       		.byte	8
 2871 089c A5       		.byte	-91
 2872 089d 01       		.byte	1
 2873 089e A6       		.byte	-90
 2874 089f 40       		.byte	64
ARM GAS  C:\Users\DGILLI~1\AppData\Local\Temp\ccW7tEoj.s 			page 85


 2875 08a0 A8       		.byte	-88
 2876 08a1 10       		.byte	16
 2877 08a2 AA       		.byte	-86
 2878 08a3 08       		.byte	8
 2879 08a4 AE       		.byte	-82
 2880 08a5 20       		.byte	32
 2881 08a6 B6       		.byte	-74
 2882 08a7 10       		.byte	16
 2883 08a8 C0       		.byte	-64
 2884 08a9 F0       		.byte	-16
 2885 08aa C2       		.byte	-62
 2886 08ab F0       		.byte	-16
 2887 08ac D4       		.byte	-44
 2888 08ad E0       		.byte	-32
 2889 08ae D6       		.byte	-42
 2890 08af E0       		.byte	-32
 2891 08b0 D8       		.byte	-40
 2892 08b1 C0       		.byte	-64
 2893 08b2 E0       		.byte	-32
 2894 08b3 80       		.byte	-128
 2895 08b4 E6       		.byte	-26
 2896 08b5 30       		.byte	48
 2897 08b6 EA       		.byte	-22
 2898 08b7 20       		.byte	32
 2899 08b8 EC       		.byte	-20
 2900 08b9 C0       		.byte	-64
 2901 08ba 03       		.byte	3
 2902 08bb 40       		.byte	64
 2903 08bc 05       		.byte	5
 2904 08bd 01       		.byte	1
 2905 08be 3C       		.byte	60
 2906 08bf 20       		.byte	32
 2907 08c0 50       		.byte	80
 2908 08c1 40       		.byte	64
 2909 08c2 57       		.byte	87
 2910 08c3 20       		.byte	32
 2911 08c4 80       		.byte	-128
 2912 08c5 40       		.byte	64
 2913 08c6 85       		.byte	-123
 2914 08c7 10       		.byte	16
 2915 08c8 8A       		.byte	-118
 2916 08c9 02       		.byte	2
 2917 08ca 95       		.byte	-107
 2918 08cb 20       		.byte	32
 2919 08cc 96       		.byte	-106
 2920 08cd 08       		.byte	8
 2921 08ce 97       		.byte	-105
 2922 08cf 02       		.byte	2
 2923 08d0 9C       		.byte	-100
 2924 08d1 80       		.byte	-128
 2925 08d2 9D       		.byte	-99
 2926 08d3 20       		.byte	32
 2927 08d4 9F       		.byte	-97
 2928 08d5 08       		.byte	8
 2929 08d6 A4       		.byte	-92
 2930 08d7 20       		.byte	32
 2931 08d8 A5       		.byte	-91
ARM GAS  C:\Users\DGILLI~1\AppData\Local\Temp\ccW7tEoj.s 			page 86


 2932 08d9 01       		.byte	1
 2933 08da A6       		.byte	-90
 2934 08db 40       		.byte	64
 2935 08dc AA       		.byte	-86
 2936 08dd 10       		.byte	16
 2937 08de AC       		.byte	-84
 2938 08df 04       		.byte	4
 2939 08e0 B1       		.byte	-79
 2940 08e1 02       		.byte	2
 2941 08e2 B3       		.byte	-77
 2942 08e3 40       		.byte	64
 2943 08e4 B5       		.byte	-75
 2944 08e5 80       		.byte	-128
 2945 08e6 B6       		.byte	-74
 2946 08e7 44       		.byte	68
 2947 08e8 C0       		.byte	-64
 2948 08e9 30       		.byte	48
 2949 08ea CE       		.byte	-50
 2950 08eb 20       		.byte	32
 2951 08ec D4       		.byte	-44
 2952 08ed 60       		.byte	96
 2953 08ee E2       		.byte	-30
 2954 08ef C0       		.byte	-64
 2955 08f0 EC       		.byte	-20
 2956 08f1 60       		.byte	96
 2957 08f2 50       		.byte	80
 2958 08f3 40       		.byte	64
 2959 08f4 56       		.byte	86
 2960 08f5 80       		.byte	-128
 2961 08f6 5A       		.byte	90
 2962 08f7 40       		.byte	64
 2963 08f8 83       		.byte	-125
 2964 08f9 01       		.byte	1
 2965 08fa 86       		.byte	-122
 2966 08fb 04       		.byte	4
 2967 08fc 88       		.byte	-120
 2968 08fd 10       		.byte	16
 2969 08fe 8C       		.byte	-116
 2970 08ff 80       		.byte	-128
 2971 0900 96       		.byte	-106
 2972 0901 08       		.byte	8
 2973 0902 97       		.byte	-105
 2974 0903 02       		.byte	2
 2975 0904 9C       		.byte	-100
 2976 0905 80       		.byte	-128
 2977 0906 9F       		.byte	-97
 2978 0907 08       		.byte	8
 2979 0908 A0       		.byte	-96
 2980 0909 02       		.byte	2
 2981 090a A2       		.byte	-94
 2982 090b 02       		.byte	2
 2983 090c A4       		.byte	-92
 2984 090d 30       		.byte	48
 2985 090e A5       		.byte	-91
 2986 090f 01       		.byte	1
 2987 0910 A6       		.byte	-90
 2988 0911 40       		.byte	64
ARM GAS  C:\Users\DGILLI~1\AppData\Local\Temp\ccW7tEoj.s 			page 87


 2989 0912 A9       		.byte	-87
 2990 0913 01       		.byte	1
 2991 0914 AB       		.byte	-85
 2992 0915 40       		.byte	64
 2993 0916 AF       		.byte	-81
 2994 0917 20       		.byte	32
 2995 0918 B4       		.byte	-76
 2996 0919 02       		.byte	2
 2997 091a B5       		.byte	-75
 2998 091b 20       		.byte	32
 2999 091c D4       		.byte	-44
 3000 091d E0       		.byte	-32
 3001 091e E6       		.byte	-26
 3002 091f 30       		.byte	48
 3003 0920 E8       		.byte	-24
 3004 0921 20       		.byte	32
 3005 0922 EC       		.byte	-20
 3006 0923 80       		.byte	-128
 3007 0924 EE       		.byte	-18
 3008 0925 10       		.byte	16
 3009 0926 09       		.byte	9
 3010 0927 21       		.byte	33
 3011 0928 0C       		.byte	12
 3012 0929 20       		.byte	32
 3013 092a 0F       		.byte	15
 3014 092b 40       		.byte	64
 3015 092c 10       		.byte	16
 3016 092d 80       		.byte	-128
 3017 092e 11       		.byte	17
 3018 092f 01       		.byte	1
 3019 0930 14       		.byte	20
 3020 0931 20       		.byte	32
 3021 0932 15       		.byte	21
 3022 0933 04       		.byte	4
 3023 0934 5F       		.byte	95
 3024 0935 08       		.byte	8
 3025 0936 63       		.byte	99
 3026 0937 21       		.byte	33
 3027 0938 67       		.byte	103
 3028 0939 04       		.byte	4
 3029 093a 71       		.byte	113
 3030 093b 01       		.byte	1
 3031 093c 72       		.byte	114
 3032 093d 08       		.byte	8
 3033 093e 74       		.byte	116
 3034 093f 04       		.byte	4
 3035 0940 80       		.byte	-128
 3036 0941 80       		.byte	-128
 3037 0942 8D       		.byte	-115
 3038 0943 01       		.byte	1
 3039 0944 8E       		.byte	-114
 3040 0945 10       		.byte	16
 3041 0946 C2       		.byte	-62
 3042 0947 0F       		.byte	15
 3043 0948 C4       		.byte	-60
 3044 0949 0C       		.byte	12
 3045 094a D6       		.byte	-42
ARM GAS  C:\Users\DGILLI~1\AppData\Local\Temp\ccW7tEoj.s 			page 88


 3046 094b 03       		.byte	3
 3047 094c D8       		.byte	-40
 3048 094d 03       		.byte	3
 3049 094e DC       		.byte	-36
 3050 094f 05       		.byte	5
 3051 0950 DE       		.byte	-34
 3052 0951 04       		.byte	4
 3053 0952 E2       		.byte	-30
 3054 0953 0A       		.byte	10
 3055 0954 02       		.byte	2
 3056 0955 04       		.byte	4
 3057 0956 03       		.byte	3
 3058 0957 40       		.byte	64
 3059 0958 04       		.byte	4
 3060 0959 02       		.byte	2
 3061 095a 05       		.byte	5
 3062 095b 20       		.byte	32
 3063 095c 08       		.byte	8
 3064 095d 08       		.byte	8
 3065 095e 0A       		.byte	10
 3066 095f 04       		.byte	4
 3067 0960 0C       		.byte	12
 3068 0961 02       		.byte	2
 3069 0962 0D       		.byte	13
 3070 0963 10       		.byte	16
 3071 0964 50       		.byte	80
 3072 0965 80       		.byte	-128
 3073 0966 55       		.byte	85
 3074 0967 08       		.byte	8
 3075 0968 5B       		.byte	91
 3076 0969 20       		.byte	32
 3077 096a 5E       		.byte	94
 3078 096b 08       		.byte	8
 3079 096c 5F       		.byte	95
 3080 096d 80       		.byte	-128
 3081 096e 61       		.byte	97
 3082 096f 04       		.byte	4
 3083 0970 62       		.byte	98
 3084 0971 80       		.byte	-128
 3085 0972 66       		.byte	102
 3086 0973 01       		.byte	1
 3087 0974 69       		.byte	105
 3088 0975 08       		.byte	8
 3089 0976 83       		.byte	-125
 3090 0977 18       		.byte	24
 3091 0978 84       		.byte	-124
 3092 0979 04       		.byte	4
 3093 097a 86       		.byte	-122
 3094 097b 80       		.byte	-128
 3095 097c 88       		.byte	-120
 3096 097d 08       		.byte	8
 3097 097e 8B       		.byte	-117
 3098 097f 40       		.byte	64
 3099 0980 8D       		.byte	-115
 3100 0981 01       		.byte	1
 3101 0982 8E       		.byte	-114
 3102 0983 02       		.byte	2
ARM GAS  C:\Users\DGILLI~1\AppData\Local\Temp\ccW7tEoj.s 			page 89


 3103 0984 91       		.byte	-111
 3104 0985 05       		.byte	5
 3105 0986 93       		.byte	-109
 3106 0987 40       		.byte	64
 3107 0988 96       		.byte	-106
 3108 0989 20       		.byte	32
 3109 098a 97       		.byte	-105
 3110 098b 05       		.byte	5
 3111 098c 9D       		.byte	-99
 3112 098d 01       		.byte	1
 3113 098e 9E       		.byte	-98
 3114 098f 08       		.byte	8
 3115 0990 9F       		.byte	-97
 3116 0991 08       		.byte	8
 3117 0992 A4       		.byte	-92
 3118 0993 04       		.byte	4
 3119 0994 A7       		.byte	-89
 3120 0995 10       		.byte	16
 3121 0996 AC       		.byte	-84
 3122 0997 20       		.byte	32
 3123 0998 B0       		.byte	-80
 3124 0999 20       		.byte	32
 3125 099a B1       		.byte	-79
 3126 099b 20       		.byte	32
 3127 099c C0       		.byte	-64
 3128 099d 0F       		.byte	15
 3129 099e C2       		.byte	-62
 3130 099f 0F       		.byte	15
 3131 09a0 D4       		.byte	-44
 3132 09a1 07       		.byte	7
 3133 09a2 D6       		.byte	-42
 3134 09a3 07       		.byte	7
 3135 09a4 D8       		.byte	-40
 3136 09a5 03       		.byte	3
 3137 09a6 DA       		.byte	-38
 3138 09a7 02       		.byte	2
 3139 09a8 E2       		.byte	-30
 3140 09a9 05       		.byte	5
 3141 09aa E4       		.byte	-28
 3142 09ab 0A       		.byte	10
 3143 09ac EE       		.byte	-18
 3144 09ad 05       		.byte	5
 3145 09ae 84       		.byte	-124
 3146 09af 80       		.byte	-128
 3147 09b0 85       		.byte	-123
 3148 09b1 08       		.byte	8
 3149 09b2 8F       		.byte	-113
 3150 09b3 01       		.byte	1
 3151 09b4 90       		.byte	-112
 3152 09b5 02       		.byte	2
 3153 09b6 91       		.byte	-111
 3154 09b7 05       		.byte	5
 3155 09b8 92       		.byte	-110
 3156 09b9 04       		.byte	4
 3157 09ba 95       		.byte	-107
 3158 09bb 08       		.byte	8
 3159 09bc 96       		.byte	-106
ARM GAS  C:\Users\DGILLI~1\AppData\Local\Temp\ccW7tEoj.s 			page 90


 3160 09bd 20       		.byte	32
 3161 09be 97       		.byte	-105
 3162 09bf 05       		.byte	5
 3163 09c0 9A       		.byte	-102
 3164 09c1 84       		.byte	-124
 3165 09c2 9B       		.byte	-101
 3166 09c3 40       		.byte	64
 3167 09c4 9D       		.byte	-99
 3168 09c5 04       		.byte	4
 3169 09c6 9E       		.byte	-98
 3170 09c7 09       		.byte	9
 3171 09c8 9F       		.byte	-97
 3172 09c9 A0       		.byte	-96
 3173 09ca A2       		.byte	-94
 3174 09cb 0A       		.byte	10
 3175 09cc A4       		.byte	-92
 3176 09cd 80       		.byte	-128
 3177 09ce A5       		.byte	-91
 3178 09cf 08       		.byte	8
 3179 09d0 A6       		.byte	-90
 3180 09d1 84       		.byte	-124
 3181 09d2 AA       		.byte	-86
 3182 09d3 08       		.byte	8
 3183 09d4 B1       		.byte	-79
 3184 09d5 30       		.byte	48
 3185 09d6 B4       		.byte	-76
 3186 09d7 02       		.byte	2
 3187 09d8 E4       		.byte	-28
 3188 09d9 08       		.byte	8
 3189 09da EA       		.byte	-22
 3190 09db 04       		.byte	4
 3191 09dc EE       		.byte	-18
 3192 09dd 06       		.byte	6
 3193 09de 0A       		.byte	10
 3194 09df 20       		.byte	32
 3195 09e0 0B       		.byte	11
 3196 09e1 08       		.byte	8
 3197 09e2 0F       		.byte	15
 3198 09e3 40       		.byte	64
 3199 09e4 50       		.byte	80
 3200 09e5 80       		.byte	-128
 3201 09e6 82       		.byte	-126
 3202 09e7 0D       		.byte	13
 3203 09e8 85       		.byte	-123
 3204 09e9 04       		.byte	4
 3205 09ea 86       		.byte	-122
 3206 09eb 44       		.byte	68
 3207 09ec 87       		.byte	-121
 3208 09ed 04       		.byte	4
 3209 09ee 8A       		.byte	-118
 3210 09ef 20       		.byte	32
 3211 09f0 8B       		.byte	-117
 3212 09f1 10       		.byte	16
 3213 09f2 8C       		.byte	-116
 3214 09f3 80       		.byte	-128
 3215 09f4 90       		.byte	-112
 3216 09f5 02       		.byte	2
ARM GAS  C:\Users\DGILLI~1\AppData\Local\Temp\ccW7tEoj.s 			page 91


 3217 09f6 91       		.byte	-111
 3218 09f7 05       		.byte	5
 3219 09f8 92       		.byte	-110
 3220 09f9 04       		.byte	4
 3221 09fa 95       		.byte	-107
 3222 09fb 08       		.byte	8
 3223 09fc 96       		.byte	-106
 3224 09fd 20       		.byte	32
 3225 09fe 9A       		.byte	-102
 3226 09ff 84       		.byte	-124
 3227 0a00 9B       		.byte	-101
 3228 0a01 40       		.byte	64
 3229 0a02 9D       		.byte	-99
 3230 0a03 04       		.byte	4
 3231 0a04 9E       		.byte	-98
 3232 0a05 09       		.byte	9
 3233 0a06 9F       		.byte	-97
 3234 0a07 80       		.byte	-128
 3235 0a08 A2       		.byte	-94
 3236 0a09 0A       		.byte	10
 3237 0a0a A6       		.byte	-90
 3238 0a0b 84       		.byte	-124
 3239 0a0c AB       		.byte	-85
 3240 0a0d 20       		.byte	32
 3241 0a0e B3       		.byte	-77
 3242 0a0f 04       		.byte	4
 3243 0a10 C2       		.byte	-62
 3244 0a11 0E       		.byte	14
 3245 0a12 D4       		.byte	-44
 3246 0a13 04       		.byte	4
 3247 0a14 E2       		.byte	-30
 3248 0a15 04       		.byte	4
 3249 0a16 E4       		.byte	-28
 3250 0a17 02       		.byte	2
 3251 0a18 E6       		.byte	-26
 3252 0a19 01       		.byte	1
 3253 0a1a EC       		.byte	-20
 3254 0a1b 04       		.byte	4
 3255 0a1c 02       		.byte	2
 3256 0a1d 20       		.byte	32
 3257 0a1e 03       		.byte	3
 3258 0a1f 02       		.byte	2
 3259 0a20 05       		.byte	5
 3260 0a21 82       		.byte	-126
 3261 0a22 52       		.byte	82
 3262 0a23 10       		.byte	16
 3263 0a24 54       		.byte	84
 3264 0a25 40       		.byte	64
 3265 0a26 56       		.byte	86
 3266 0a27 02       		.byte	2
 3267 0a28 5A       		.byte	90
 3268 0a29 80       		.byte	-128
 3269 0a2a 82       		.byte	-126
 3270 0a2b 42       		.byte	66
 3271 0a2c 84       		.byte	-124
 3272 0a2d 40       		.byte	64
 3273 0a2e 87       		.byte	-121
ARM GAS  C:\Users\DGILLI~1\AppData\Local\Temp\ccW7tEoj.s 			page 92


 3274 0a2f 02       		.byte	2
 3275 0a30 89       		.byte	-119
 3276 0a31 02       		.byte	2
 3277 0a32 8A       		.byte	-118
 3278 0a33 10       		.byte	16
 3279 0a34 8D       		.byte	-115
 3280 0a35 28       		.byte	40
 3281 0a36 96       		.byte	-106
 3282 0a37 40       		.byte	64
 3283 0a38 9F       		.byte	-97
 3284 0a39 08       		.byte	8
 3285 0a3a A0       		.byte	-96
 3286 0a3b 02       		.byte	2
 3287 0a3c A2       		.byte	-94
 3288 0a3d 02       		.byte	2
 3289 0a3e A4       		.byte	-92
 3290 0a3f 20       		.byte	32
 3291 0a40 A5       		.byte	-91
 3292 0a41 01       		.byte	1
 3293 0a42 A8       		.byte	-88
 3294 0a43 40       		.byte	64
 3295 0a44 AE       		.byte	-82
 3296 0a45 C0       		.byte	-64
 3297 0a46 C0       		.byte	-64
 3298 0a47 F0       		.byte	-16
 3299 0a48 D4       		.byte	-44
 3300 0a49 E0       		.byte	-32
 3301 0a4a D6       		.byte	-42
 3302 0a4b 20       		.byte	32
 3303 0a4c E2       		.byte	-30
 3304 0a4d 40       		.byte	64
 3305 0a4e E4       		.byte	-28
 3306 0a4f 40       		.byte	64
 3307 0a50 E6       		.byte	-26
 3308 0a51 A0       		.byte	-96
 3309 0a52 EA       		.byte	-22
 3310 0a53 C0       		.byte	-64
 3311 0a54 EE       		.byte	-18
 3312 0a55 40       		.byte	64
 3313 0a56 03       		.byte	3
 3314 0a57 41       		.byte	65
 3315 0a58 04       		.byte	4
 3316 0a59 08       		.byte	8
 3317 0a5a 05       		.byte	5
 3318 0a5b 40       		.byte	64
 3319 0a5c 09       		.byte	9
 3320 0a5d 02       		.byte	2
 3321 0a5e 0A       		.byte	10
 3322 0a5f 02       		.byte	2
 3323 0a60 0C       		.byte	12
 3324 0a61 80       		.byte	-128
 3325 0a62 0E       		.byte	14
 3326 0a63 40       		.byte	64
 3327 0a64 10       		.byte	16
 3328 0a65 20       		.byte	32
 3329 0a66 17       		.byte	23
 3330 0a67 02       		.byte	2
ARM GAS  C:\Users\DGILLI~1\AppData\Local\Temp\ccW7tEoj.s 			page 93


 3331 0a68 51       		.byte	81
 3332 0a69 08       		.byte	8
 3333 0a6a 55       		.byte	85
 3334 0a6b 20       		.byte	32
 3335 0a6c 56       		.byte	86
 3336 0a6d 02       		.byte	2
 3337 0a6e 58       		.byte	88
 3338 0a6f 48       		.byte	72
 3339 0a70 5E       		.byte	94
 3340 0a71 01       		.byte	1
 3341 0a72 62       		.byte	98
 3342 0a73 04       		.byte	4
 3343 0a74 66       		.byte	102
 3344 0a75 01       		.byte	1
 3345 0a76 70       		.byte	112
 3346 0a77 02       		.byte	2
 3347 0a78 75       		.byte	117
 3348 0a79 20       		.byte	32
 3349 0a7a 7E       		.byte	126
 3350 0a7b 02       		.byte	2
 3351 0a7c 80       		.byte	-128
 3352 0a7d 08       		.byte	8
 3353 0a7e 82       		.byte	-126
 3354 0a7f 40       		.byte	64
 3355 0a80 83       		.byte	-125
 3356 0a81 40       		.byte	64
 3357 0a82 84       		.byte	-124
 3358 0a83 C0       		.byte	-64
 3359 0a84 86       		.byte	-122
 3360 0a85 01       		.byte	1
 3361 0a86 89       		.byte	-119
 3362 0a87 62       		.byte	98
 3363 0a88 8A       		.byte	-118
 3364 0a89 01       		.byte	1
 3365 0a8a 8C       		.byte	-116
 3366 0a8b 04       		.byte	4
 3367 0a8c 8E       		.byte	-114
 3368 0a8d 07       		.byte	7
 3369 0a8e 9F       		.byte	-97
 3370 0a8f 03       		.byte	3
 3371 0a90 A0       		.byte	-96
 3372 0a91 02       		.byte	2
 3373 0a92 A1       		.byte	-95
 3374 0a93 28       		.byte	40
 3375 0a94 A2       		.byte	-94
 3376 0a95 02       		.byte	2
 3377 0a96 A4       		.byte	-92
 3378 0a97 20       		.byte	32
 3379 0a98 AA       		.byte	-86
 3380 0a99 40       		.byte	64
 3381 0a9a AE       		.byte	-82
 3382 0a9b 20       		.byte	32
 3383 0a9c AF       		.byte	-81
 3384 0a9d 02       		.byte	2
 3385 0a9e B1       		.byte	-79
 3386 0a9f 80       		.byte	-128
 3387 0aa0 B3       		.byte	-77
ARM GAS  C:\Users\DGILLI~1\AppData\Local\Temp\ccW7tEoj.s 			page 94


 3388 0aa1 01       		.byte	1
 3389 0aa2 B5       		.byte	-75
 3390 0aa3 01       		.byte	1
 3391 0aa4 B7       		.byte	-73
 3392 0aa5 08       		.byte	8
 3393 0aa6 C0       		.byte	-64
 3394 0aa7 F0       		.byte	-16
 3395 0aa8 C2       		.byte	-62
 3396 0aa9 F0       		.byte	-16
 3397 0aaa C4       		.byte	-60
 3398 0aab 30       		.byte	48
 3399 0aac D4       		.byte	-44
 3400 0aad E0       		.byte	-32
 3401 0aae D6       		.byte	-42
 3402 0aaf E0       		.byte	-32
 3403 0ab0 D8       		.byte	-40
 3404 0ab1 C0       		.byte	-64
 3405 0ab2 DC       		.byte	-36
 3406 0ab3 C0       		.byte	-64
 3407 0ab4 DE       		.byte	-34
 3408 0ab5 20       		.byte	32
 3409 0ab6 E0       		.byte	-32
 3410 0ab7 30       		.byte	48
 3411 0ab8 E4       		.byte	-28
 3412 0ab9 C0       		.byte	-64
 3413 0aba E6       		.byte	-26
 3414 0abb 30       		.byte	48
 3415 0abc E8       		.byte	-24
 3416 0abd 10       		.byte	16
 3417 0abe EA       		.byte	-22
 3418 0abf 20       		.byte	32
 3419 0ac0 EC       		.byte	-20
 3420 0ac1 40       		.byte	64
 3421 0ac2 00       		.byte	0
 3422 0ac3 10       		.byte	16
 3423 0ac4 04       		.byte	4
 3424 0ac5 40       		.byte	64
 3425 0ac6 09       		.byte	9
 3426 0ac7 20       		.byte	32
 3427 0ac8 0C       		.byte	12
 3428 0ac9 81       		.byte	-127
 3429 0aca 10       		.byte	16
 3430 0acb 40       		.byte	64
 3431 0acc 13       		.byte	19
 3432 0acd 10       		.byte	16
 3433 0ace 16       		.byte	22
 3434 0acf 20       		.byte	32
 3435 0ad0 52       		.byte	82
 3436 0ad1 08       		.byte	8
 3437 0ad2 5E       		.byte	94
 3438 0ad3 80       		.byte	-128
 3439 0ad4 61       		.byte	97
 3440 0ad5 40       		.byte	64
 3441 0ad6 62       		.byte	98
 3442 0ad7 02       		.byte	2
 3443 0ad8 66       		.byte	102
 3444 0ad9 80       		.byte	-128
ARM GAS  C:\Users\DGILLI~1\AppData\Local\Temp\ccW7tEoj.s 			page 95


 3445 0ada 6B       		.byte	107
 3446 0adb 20       		.byte	32
 3447 0adc 79       		.byte	121
 3448 0add 01       		.byte	1
 3449 0ade 7D       		.byte	125
 3450 0adf 04       		.byte	4
 3451 0ae0 81       		.byte	-127
 3452 0ae1 04       		.byte	4
 3453 0ae2 82       		.byte	-126
 3454 0ae3 04       		.byte	4
 3455 0ae4 83       		.byte	-125
 3456 0ae5 14       		.byte	20
 3457 0ae6 86       		.byte	-122
 3458 0ae7 80       		.byte	-128
 3459 0ae8 87       		.byte	-121
 3460 0ae9 C0       		.byte	-64
 3461 0aea 8A       		.byte	-118
 3462 0aeb 01       		.byte	1
 3463 0aec 91       		.byte	-111
 3464 0aed 05       		.byte	5
 3465 0aee 97       		.byte	-105
 3466 0aef 10       		.byte	16
 3467 0af0 99       		.byte	-103
 3468 0af1 40       		.byte	64
 3469 0af2 9A       		.byte	-102
 3470 0af3 80       		.byte	-128
 3471 0af4 9D       		.byte	-99
 3472 0af5 04       		.byte	4
 3473 0af6 9F       		.byte	-97
 3474 0af7 82       		.byte	-126
 3475 0af8 A2       		.byte	-94
 3476 0af9 4A       		.byte	74
 3477 0afa A6       		.byte	-90
 3478 0afb A4       		.byte	-92
 3479 0afc AB       		.byte	-85
 3480 0afd 40       		.byte	64
 3481 0afe AF       		.byte	-81
 3482 0aff 40       		.byte	64
 3483 0b00 B1       		.byte	-79
 3484 0b01 40       		.byte	64
 3485 0b02 B4       		.byte	-76
 3486 0b03 01       		.byte	1
 3487 0b04 B7       		.byte	-73
 3488 0b05 02       		.byte	2
 3489 0b06 C0       		.byte	-64
 3490 0b07 03       		.byte	3
 3491 0b08 C2       		.byte	-62
 3492 0b09 07       		.byte	7
 3493 0b0a C4       		.byte	-60
 3494 0b0b 0E       		.byte	14
 3495 0b0c D4       		.byte	-44
 3496 0b0d 04       		.byte	4
 3497 0b0e D6       		.byte	-42
 3498 0b0f 07       		.byte	7
 3499 0b10 D8       		.byte	-40
 3500 0b11 02       		.byte	2
 3501 0b12 DA       		.byte	-38
ARM GAS  C:\Users\DGILLI~1\AppData\Local\Temp\ccW7tEoj.s 			page 96


 3502 0b13 02       		.byte	2
 3503 0b14 DE       		.byte	-34
 3504 0b15 03       		.byte	3
 3505 0b16 E6       		.byte	-26
 3506 0b17 01       		.byte	1
 3507 0b18 E8       		.byte	-24
 3508 0b19 01       		.byte	1
 3509 0b1a EA       		.byte	-22
 3510 0b1b 0A       		.byte	10
 3511 0b1c 03       		.byte	3
 3512 0b1d 10       		.byte	16
 3513 0b1e 09       		.byte	9
 3514 0b1f 01       		.byte	1
 3515 0b20 0A       		.byte	10
 3516 0b21 01       		.byte	1
 3517 0b22 0E       		.byte	14
 3518 0b23 20       		.byte	32
 3519 0b24 0F       		.byte	15
 3520 0b25 02       		.byte	2
 3521 0b26 12       		.byte	18
 3522 0b27 20       		.byte	32
 3523 0b28 17       		.byte	23
 3524 0b29 02       		.byte	2
 3525 0b2a 53       		.byte	83
 3526 0b2b 01       		.byte	1
 3527 0b2c 5B       		.byte	91
 3528 0b2d 04       		.byte	4
 3529 0b2e 5C       		.byte	92
 3530 0b2f 04       		.byte	4
 3531 0b30 60       		.byte	96
 3532 0b31 10       		.byte	16
 3533 0b32 67       		.byte	103
 3534 0b33 40       		.byte	64
 3535 0b34 6B       		.byte	107
 3536 0b35 20       		.byte	32
 3537 0b36 76       		.byte	118
 3538 0b37 20       		.byte	32
 3539 0b38 78       		.byte	120
 3540 0b39 40       		.byte	64
 3541 0b3a 87       		.byte	-121
 3542 0b3b 20       		.byte	32
 3543 0b3c 8C       		.byte	-116
 3544 0b3d 14       		.byte	20
 3545 0b3e 8F       		.byte	-113
 3546 0b3f 01       		.byte	1
 3547 0b40 93       		.byte	-109
 3548 0b41 40       		.byte	64
 3549 0b42 96       		.byte	-106
 3550 0b43 01       		.byte	1
 3551 0b44 98       		.byte	-104
 3552 0b45 40       		.byte	64
 3553 0b46 9A       		.byte	-102
 3554 0b47 20       		.byte	32
 3555 0b48 9B       		.byte	-101
 3556 0b49 04       		.byte	4
 3557 0b4a 9F       		.byte	-97
 3558 0b4b 12       		.byte	18
ARM GAS  C:\Users\DGILLI~1\AppData\Local\Temp\ccW7tEoj.s 			page 97


 3559 0b4c A5       		.byte	-91
 3560 0b4d 01       		.byte	1
 3561 0b4e A6       		.byte	-90
 3562 0b4f 30       		.byte	48
 3563 0b50 A7       		.byte	-89
 3564 0b51 01       		.byte	1
 3565 0b52 A9       		.byte	-87
 3566 0b53 01       		.byte	1
 3567 0b54 AE       		.byte	-82
 3568 0b55 10       		.byte	16
 3569 0b56 AF       		.byte	-81
 3570 0b57 20       		.byte	32
 3571 0b58 B0       		.byte	-80
 3572 0b59 01       		.byte	1
 3573 0b5a B1       		.byte	-79
 3574 0b5b 20       		.byte	32
 3575 0b5c B3       		.byte	-77
 3576 0b5d 01       		.byte	1
 3577 0b5e B4       		.byte	-76
 3578 0b5f D0       		.byte	-48
 3579 0b60 C0       		.byte	-64
 3580 0b61 08       		.byte	8
 3581 0b62 C2       		.byte	-62
 3582 0b63 0F       		.byte	15
 3583 0b64 C4       		.byte	-60
 3584 0b65 0C       		.byte	12
 3585 0b66 D4       		.byte	-44
 3586 0b67 01       		.byte	1
 3587 0b68 D6       		.byte	-42
 3588 0b69 03       		.byte	3
 3589 0b6a D8       		.byte	-40
 3590 0b6b 03       		.byte	3
 3591 0b6c DA       		.byte	-38
 3592 0b6d 02       		.byte	2
 3593 0b6e DC       		.byte	-36
 3594 0b6f 01       		.byte	1
 3595 0b70 DE       		.byte	-34
 3596 0b71 04       		.byte	4
 3597 0b72 E0       		.byte	-32
 3598 0b73 0A       		.byte	10
 3599 0b74 E4       		.byte	-28
 3600 0b75 02       		.byte	2
 3601 0b76 EA       		.byte	-22
 3602 0b77 0B       		.byte	11
 3603 0b78 EE       		.byte	-18
 3604 0b79 07       		.byte	7
 3605 0b7a 00       		.byte	0
 3606 0b7b 02       		.byte	2
 3607 0b7c 01       		.byte	1
 3608 0b7d 01       		.byte	1
 3609 0b7e 08       		.byte	8
 3610 0b7f 02       		.byte	2
 3611 0b80 09       		.byte	9
 3612 0b81 01       		.byte	1
 3613 0b82 0A       		.byte	10
 3614 0b83 02       		.byte	2
 3615 0b84 0B       		.byte	11
ARM GAS  C:\Users\DGILLI~1\AppData\Local\Temp\ccW7tEoj.s 			page 98


 3616 0b85 01       		.byte	1
 3617 0b86 10       		.byte	16
 3618 0b87 02       		.byte	2
 3619 0b88 1A       		.byte	26
 3620 0b89 02       		.byte	2
 3621 0b8a 1C       		.byte	28
 3622 0b8b 02       		.byte	2
 3623 0b8c 00       		.byte	0
 3624 0b8d 2A       		.byte	42
 3625 0b8e 03       		.byte	3
 3626 0b8f C0       		.byte	-64
 3627              		.align	2
 3628              		.type	BS_IOPINS0_0_VAL.5032, %object
 3629              		.size	BS_IOPINS0_0_VAL.5032, 10
 3630              	BS_IOPINS0_0_VAL.5032:
 3631 0b90 01       		.byte	1
 3632 0b91 00       		.byte	0
 3633 0b92 00       		.byte	0
 3634 0b93 FF       		.byte	-1
 3635 0b94 FE       		.byte	-2
 3636 0b95 00       		.byte	0
 3637 0b96 FF       		.byte	-1
 3638 0b97 00       		.byte	0
 3639 0b98 00       		.byte	0
 3640 0b99 00       		.byte	0
 3641 0b9a 0000     		.align	2
 3642              		.type	BS_IOPINS0_7_VAL.5033, %object
 3643              		.size	BS_IOPINS0_7_VAL.5033, 10
 3644              	BS_IOPINS0_7_VAL.5033:
 3645 0b9c 70       		.byte	112
 3646 0b9d 00       		.byte	0
 3647 0b9e 00       		.byte	0
 3648 0b9f CF       		.byte	-49
 3649 0ba0 FF       		.byte	-1
 3650 0ba1 00       		.byte	0
 3651 0ba2 FF       		.byte	-1
 3652 0ba3 CF       		.byte	-49
 3653 0ba4 00       		.byte	0
 3654 0ba5 00       		.byte	0
 3655 0ba6 0000     		.align	2
 3656              		.type	BS_IOPINS0_8_VAL.5034, %object
 3657              		.size	BS_IOPINS0_8_VAL.5034, 10
 3658              	BS_IOPINS0_8_VAL.5034:
 3659 0ba8 40       		.byte	64
 3660 0ba9 00       		.byte	0
 3661 0baa 00       		.byte	0
 3662 0bab 0F       		.byte	15
 3663 0bac 0F       		.byte	15
 3664 0bad 00       		.byte	0
 3665 0bae 0F       		.byte	15
 3666 0baf 0F       		.byte	15
 3667 0bb0 C0       		.byte	-64
 3668 0bb1 00       		.byte	0
 3669 0bb2 0000     		.align	2
 3670              		.type	BS_IOPINS0_1_VAL.5035, %object
 3671              		.size	BS_IOPINS0_1_VAL.5035, 8
 3672              	BS_IOPINS0_1_VAL.5035:
ARM GAS  C:\Users\DGILLI~1\AppData\Local\Temp\ccW7tEoj.s 			page 99


 3673 0bb4 00       		.byte	0
 3674 0bb5 EF       		.byte	-17
 3675 0bb6 EF       		.byte	-17
 3676 0bb7 00       		.byte	0
 3677 0bb8 EC       		.byte	-20
 3678 0bb9 EC       		.byte	-20
 3679 0bba 00       		.byte	0
 3680 0bbb 00       		.byte	0
 3681              		.align	2
 3682              		.type	BS_IOPINS0_2_VAL.5036, %object
 3683              		.size	BS_IOPINS0_2_VAL.5036, 8
 3684              	BS_IOPINS0_2_VAL.5036:
 3685 0bbc 00       		.byte	0
 3686 0bbd FF       		.byte	-1
 3687 0bbe FF       		.byte	-1
 3688 0bbf 00       		.byte	0
 3689 0bc0 FF       		.byte	-1
 3690 0bc1 FF       		.byte	-1
 3691 0bc2 00       		.byte	0
 3692 0bc3 00       		.byte	0
 3693              		.align	2
 3694              		.type	BS_IOPINS0_3_VAL.5037, %object
 3695              		.size	BS_IOPINS0_3_VAL.5037, 8
 3696              	BS_IOPINS0_3_VAL.5037:
 3697 0bc4 00       		.byte	0
 3698 0bc5 FF       		.byte	-1
 3699 0bc6 FF       		.byte	-1
 3700 0bc7 00       		.byte	0
 3701 0bc8 FF       		.byte	-1
 3702 0bc9 FF       		.byte	-1
 3703 0bca 00       		.byte	0
 3704 0bcb 00       		.byte	0
 3705              		.align	2
 3706              		.type	BS_IOPINS0_4_VAL.5038, %object
 3707              		.size	BS_IOPINS0_4_VAL.5038, 8
 3708              	BS_IOPINS0_4_VAL.5038:
 3709 0bcc 00       		.byte	0
 3710 0bcd 3F       		.byte	63
 3711 0bce 3F       		.byte	63
 3712 0bcf 00       		.byte	0
 3713 0bd0 3F       		.byte	63
 3714 0bd1 3F       		.byte	63
 3715 0bd2 00       		.byte	0
 3716 0bd3 00       		.byte	0
 3717              		.align	2
 3718              		.type	BS_IOPINS0_5_VAL.5039, %object
 3719              		.size	BS_IOPINS0_5_VAL.5039, 8
 3720              	BS_IOPINS0_5_VAL.5039:
 3721 0bd4 00       		.byte	0
 3722 0bd5 F1       		.byte	-15
 3723 0bd6 F1       		.byte	-15
 3724 0bd7 00       		.byte	0
 3725 0bd8 F1       		.byte	-15
 3726 0bd9 F1       		.byte	-15
 3727 0bda 00       		.byte	0
 3728 0bdb 00       		.byte	0
 3729              		.align	2
ARM GAS  C:\Users\DGILLI~1\AppData\Local\Temp\ccW7tEoj.s 			page 100


 3730              		.type	BS_IOPINS0_6_VAL.5040, %object
 3731              		.size	BS_IOPINS0_6_VAL.5040, 8
 3732              	BS_IOPINS0_6_VAL.5040:
 3733 0bdc 00       		.byte	0
 3734 0bdd F0       		.byte	-16
 3735 0bde F0       		.byte	-16
 3736 0bdf 00       		.byte	0
 3737 0be0 F0       		.byte	-16
 3738 0be1 F0       		.byte	-16
 3739 0be2 00       		.byte	0
 3740 0be3 00       		.byte	0
 3741              		.align	2
 3742              		.type	BS_IOPORT_8_VAL.5056, %object
 3743              		.size	BS_IOPORT_8_VAL.5056, 7
 3744              	BS_IOPORT_8_VAL.5056:
 3745 0be4 05       		.byte	5
 3746 0be5 0C       		.byte	12
 3747 0be6 00       		.byte	0
 3748 0be7 0F       		.byte	15
 3749 0be8 40       		.byte	64
 3750 0be9 00       		.byte	0
 3751 0bea 00       		.byte	0
 3752 0beb 00       		.align	2
 3753              		.type	BS_IOPORT_7_VAL.5055, %object
 3754              		.size	BS_IOPORT_7_VAL.5055, 6
 3755              	BS_IOPORT_7_VAL.5055:
 3756 0bec A9       		.byte	-87
 3757 0bed 3A       		.byte	58
 3758 0bee 40       		.byte	64
 3759 0bef 4F       		.byte	79
 3760 0bf0 00       		.byte	0
 3761 0bf1 00       		.byte	0
 3762 0bf2 0000     		.align	2
 3763              		.type	BS_IOPORT_4_VAL.5054, %object
 3764              		.size	BS_IOPORT_4_VAL.5054, 7
 3765              	BS_IOPORT_4_VAL.5054:
 3766 0bf4 06       		.byte	6
 3767 0bf5 1C       		.byte	28
 3768 0bf6 3F       		.byte	63
 3769 0bf7 3F       		.byte	63
 3770 0bf8 00       		.byte	0
 3771 0bf9 00       		.byte	0
 3772 0bfa 00       		.byte	0
 3773 0bfb 00       		.align	2
 3774              		.type	BS_IOPORT_3_VAL.5053, %object
 3775              		.size	BS_IOPORT_3_VAL.5053, 7
 3776              	BS_IOPORT_3_VAL.5053:
 3777 0bfc 95       		.byte	-107
 3778 0bfd 3C       		.byte	60
 3779 0bfe FF       		.byte	-1
 3780 0bff FF       		.byte	-1
 3781 0c00 00       		.byte	0
 3782 0c01 00       		.byte	0
 3783 0c02 00       		.byte	0
 3784              		.text
 3785              	.Letext0:
 3786              		.file 2 "c:\\program files (x86)\\cypress\\psoc creator\\4.2\\psoc creator\\import\\gnu\\arm\\5.4.
ARM GAS  C:\Users\DGILLI~1\AppData\Local\Temp\ccW7tEoj.s 			page 101


 3787              		.file 3 "Generated_Source\\PSoC5\\cytypes.h"
 3788              		.section	.debug_info,"",%progbits
 3789              	.Ldebug_info0:
 3790 0000 37060000 		.4byte	0x637
 3791 0004 0400     		.2byte	0x4
 3792 0006 00000000 		.4byte	.Ldebug_abbrev0
 3793 000a 04       		.byte	0x4
 3794 000b 01       		.uleb128 0x1
 3795 000c 2B000000 		.4byte	.LASF68
 3796 0010 0C       		.byte	0xc
 3797 0011 14040000 		.4byte	.LASF69
 3798 0015 AB030000 		.4byte	.LASF70
 3799 0019 00000000 		.4byte	.Ldebug_ranges0+0
 3800 001d 00000000 		.4byte	0
 3801 0021 00000000 		.4byte	.Ldebug_line0
 3802 0025 02       		.uleb128 0x2
 3803 0026 04       		.byte	0x4
 3804 0027 05       		.byte	0x5
 3805 0028 696E7400 		.ascii	"int\000"
 3806 002c 03       		.uleb128 0x3
 3807 002d 10000000 		.4byte	.LASF12
 3808 0031 02       		.byte	0x2
 3809 0032 D8       		.byte	0xd8
 3810 0033 37000000 		.4byte	0x37
 3811 0037 04       		.uleb128 0x4
 3812 0038 04       		.byte	0x4
 3813 0039 07       		.byte	0x7
 3814 003a FF010000 		.4byte	.LASF0
 3815 003e 04       		.uleb128 0x4
 3816 003f 08       		.byte	0x8
 3817 0040 05       		.byte	0x5
 3818 0041 4A010000 		.4byte	.LASF1
 3819 0045 04       		.uleb128 0x4
 3820 0046 08       		.byte	0x8
 3821 0047 04       		.byte	0x4
 3822 0048 90020000 		.4byte	.LASF2
 3823 004c 04       		.uleb128 0x4
 3824 004d 01       		.byte	0x1
 3825 004e 06       		.byte	0x6
 3826 004f 58010000 		.4byte	.LASF3
 3827 0053 04       		.uleb128 0x4
 3828 0054 01       		.byte	0x1
 3829 0055 08       		.byte	0x8
 3830 0056 04030000 		.4byte	.LASF4
 3831 005a 04       		.uleb128 0x4
 3832 005b 02       		.byte	0x2
 3833 005c 05       		.byte	0x5
 3834 005d 12030000 		.4byte	.LASF5
 3835 0061 04       		.uleb128 0x4
 3836 0062 02       		.byte	0x2
 3837 0063 07       		.byte	0x7
 3838 0064 53020000 		.4byte	.LASF6
 3839 0068 04       		.uleb128 0x4
 3840 0069 04       		.byte	0x4
 3841 006a 05       		.byte	0x5
 3842 006b A6010000 		.4byte	.LASF7
 3843 006f 04       		.uleb128 0x4
ARM GAS  C:\Users\DGILLI~1\AppData\Local\Temp\ccW7tEoj.s 			page 102


 3844 0070 04       		.byte	0x4
 3845 0071 07       		.byte	0x7
 3846 0072 15020000 		.4byte	.LASF8
 3847 0076 04       		.uleb128 0x4
 3848 0077 08       		.byte	0x8
 3849 0078 07       		.byte	0x7
 3850 0079 D5000000 		.4byte	.LASF9
 3851 007d 04       		.uleb128 0x4
 3852 007e 04       		.byte	0x4
 3853 007f 07       		.byte	0x7
 3854 0080 87020000 		.4byte	.LASF10
 3855 0084 05       		.uleb128 0x5
 3856 0085 04       		.byte	0x4
 3857 0086 04       		.uleb128 0x4
 3858 0087 01       		.byte	0x1
 3859 0088 08       		.byte	0x8
 3860 0089 69030000 		.4byte	.LASF11
 3861 008d 06       		.uleb128 0x6
 3862 008e B5010000 		.4byte	.LASF13
 3863 0092 03       		.byte	0x3
 3864 0093 9201     		.2byte	0x192
 3865 0095 53000000 		.4byte	0x53
 3866 0099 06       		.uleb128 0x6
 3867 009a 00000000 		.4byte	.LASF14
 3868 009e 03       		.byte	0x3
 3869 009f 9301     		.2byte	0x193
 3870 00a1 61000000 		.4byte	0x61
 3871 00a5 06       		.uleb128 0x6
 3872 00a6 D2010000 		.4byte	.LASF15
 3873 00aa 03       		.byte	0x3
 3874 00ab 9401     		.2byte	0x194
 3875 00ad 6F000000 		.4byte	0x6f
 3876 00b1 04       		.uleb128 0x4
 3877 00b2 04       		.byte	0x4
 3878 00b3 04       		.byte	0x4
 3879 00b4 E1020000 		.4byte	.LASF16
 3880 00b8 04       		.uleb128 0x4
 3881 00b9 08       		.byte	0x8
 3882 00ba 04       		.byte	0x4
 3883 00bb BB010000 		.4byte	.LASF17
 3884 00bf 06       		.uleb128 0x6
 3885 00c0 FF020000 		.4byte	.LASF18
 3886 00c4 03       		.byte	0x3
 3887 00c5 3C02     		.2byte	0x23c
 3888 00c7 CB000000 		.4byte	0xcb
 3889 00cb 07       		.uleb128 0x7
 3890 00cc 8D000000 		.4byte	0x8d
 3891 00d0 06       		.uleb128 0x6
 3892 00d1 AF010000 		.4byte	.LASF19
 3893 00d5 03       		.byte	0x3
 3894 00d6 3D02     		.2byte	0x23d
 3895 00d8 DC000000 		.4byte	0xdc
 3896 00dc 07       		.uleb128 0x7
 3897 00dd 99000000 		.4byte	0x99
 3898 00e1 08       		.uleb128 0x8
 3899 00e2 02       		.byte	0x2
 3900 00e3 01       		.byte	0x1
ARM GAS  C:\Users\DGILLI~1\AppData\Local\Temp\ccW7tEoj.s 			page 103


 3901 00e4 98       		.byte	0x98
 3902 00e5 02010000 		.4byte	0x102
 3903 00e9 09       		.uleb128 0x9
 3904 00ea 8B030000 		.4byte	.LASF20
 3905 00ee 01       		.byte	0x1
 3906 00ef 9A       		.byte	0x9a
 3907 00f0 8D000000 		.4byte	0x8d
 3908 00f4 00       		.byte	0
 3909 00f5 09       		.uleb128 0x9
 3910 00f6 F9010000 		.4byte	.LASF21
 3911 00fa 01       		.byte	0x1
 3912 00fb 9B       		.byte	0x9b
 3913 00fc 8D000000 		.4byte	0x8d
 3914 0100 01       		.byte	0x1
 3915 0101 00       		.byte	0
 3916 0102 03       		.uleb128 0x3
 3917 0103 56030000 		.4byte	.LASF22
 3918 0107 01       		.byte	0x1
 3919 0108 9C       		.byte	0x9c
 3920 0109 E1000000 		.4byte	0xe1
 3921 010d 0A       		.uleb128 0xa
 3922 010e 76010000 		.4byte	.LASF23
 3923 0112 01       		.byte	0x1
 3924 0113 4D       		.byte	0x4d
 3925 0114 00000000 		.4byte	.LFB0
 3926 0118 1C000000 		.4byte	.LFE0-.LFB0
 3927 011c 01       		.uleb128 0x1
 3928 011d 9C       		.byte	0x9c
 3929 011e 3B010000 		.4byte	0x13b
 3930 0122 0B       		.uleb128 0xb
 3931 0123 7300     		.ascii	"s\000"
 3932 0125 01       		.byte	0x1
 3933 0126 4D       		.byte	0x4d
 3934 0127 84000000 		.4byte	0x84
 3935 012b 02       		.uleb128 0x2
 3936 012c 91       		.byte	0x91
 3937 012d 74       		.sleb128 -12
 3938 012e 0B       		.uleb128 0xb
 3939 012f 6E00     		.ascii	"n\000"
 3940 0131 01       		.byte	0x1
 3941 0132 4D       		.byte	0x4d
 3942 0133 2C000000 		.4byte	0x2c
 3943 0137 02       		.uleb128 0x2
 3944 0138 91       		.byte	0x91
 3945 0139 70       		.sleb128 -16
 3946 013a 00       		.byte	0
 3947 013b 0A       		.uleb128 0xa
 3948 013c 08040000 		.4byte	.LASF24
 3949 0140 01       		.byte	0x1
 3950 0141 54       		.byte	0x54
 3951 0142 00000000 		.4byte	.LFB1
 3952 0146 1E000000 		.4byte	.LFE1-.LFB1
 3953 014a 01       		.uleb128 0x1
 3954 014b 9C       		.byte	0x9c
 3955 014c 79010000 		.4byte	0x179
 3956 0150 0C       		.uleb128 0xc
 3957 0151 DC020000 		.4byte	.LASF25
ARM GAS  C:\Users\DGILLI~1\AppData\Local\Temp\ccW7tEoj.s 			page 104


 3958 0155 01       		.byte	0x1
 3959 0156 54       		.byte	0x54
 3960 0157 84000000 		.4byte	0x84
 3961 015b 02       		.uleb128 0x2
 3962 015c 91       		.byte	0x91
 3963 015d 74       		.sleb128 -12
 3964 015e 0B       		.uleb128 0xb
 3965 015f 73726300 		.ascii	"src\000"
 3966 0163 01       		.byte	0x1
 3967 0164 54       		.byte	0x54
 3968 0165 79010000 		.4byte	0x179
 3969 0169 02       		.uleb128 0x2
 3970 016a 91       		.byte	0x91
 3971 016b 70       		.sleb128 -16
 3972 016c 0B       		.uleb128 0xb
 3973 016d 6E00     		.ascii	"n\000"
 3974 016f 01       		.byte	0x1
 3975 0170 54       		.byte	0x54
 3976 0171 2C000000 		.4byte	0x2c
 3977 0175 02       		.uleb128 0x2
 3978 0176 91       		.byte	0x91
 3979 0177 6C       		.sleb128 -20
 3980 0178 00       		.byte	0
 3981 0179 0D       		.uleb128 0xd
 3982 017a 04       		.byte	0x4
 3983 017b 7F010000 		.4byte	0x17f
 3984 017f 0E       		.uleb128 0xe
 3985 0180 0A       		.uleb128 0xa
 3986 0181 77020000 		.4byte	.LASF26
 3987 0185 01       		.byte	0x1
 3988 0186 5B       		.byte	0x5b
 3989 0187 00000000 		.4byte	.LFB2
 3990 018b 1E000000 		.4byte	.LFE2-.LFB2
 3991 018f 01       		.uleb128 0x1
 3992 0190 9C       		.byte	0x9c
 3993 0191 BE010000 		.4byte	0x1be
 3994 0195 0C       		.uleb128 0xc
 3995 0196 DC020000 		.4byte	.LASF25
 3996 019a 01       		.byte	0x1
 3997 019b 5B       		.byte	0x5b
 3998 019c 84000000 		.4byte	0x84
 3999 01a0 02       		.uleb128 0x2
 4000 01a1 91       		.byte	0x91
 4001 01a2 74       		.sleb128 -12
 4002 01a3 0B       		.uleb128 0xb
 4003 01a4 73726300 		.ascii	"src\000"
 4004 01a8 01       		.byte	0x1
 4005 01a9 5B       		.byte	0x5b
 4006 01aa 79010000 		.4byte	0x179
 4007 01ae 02       		.uleb128 0x2
 4008 01af 91       		.byte	0x91
 4009 01b0 70       		.sleb128 -16
 4010 01b1 0B       		.uleb128 0xb
 4011 01b2 6E00     		.ascii	"n\000"
 4012 01b4 01       		.byte	0x1
 4013 01b5 5B       		.byte	0x5b
 4014 01b6 2C000000 		.4byte	0x2c
ARM GAS  C:\Users\DGILLI~1\AppData\Local\Temp\ccW7tEoj.s 			page 105


 4015 01ba 02       		.uleb128 0x2
 4016 01bb 91       		.byte	0x91
 4017 01bc 6C       		.sleb128 -20
 4018 01bd 00       		.byte	0
 4019 01be 0F       		.uleb128 0xf
 4020 01bf 17000000 		.4byte	.LASF27
 4021 01c3 01       		.byte	0x1
 4022 01c4 7F       		.byte	0x7f
 4023 01c5 00000000 		.4byte	.LFB3
 4024 01c9 0C000000 		.4byte	.LFE3-.LFB3
 4025 01cd 01       		.uleb128 0x1
 4026 01ce 9C       		.byte	0x9c
 4027 01cf E2010000 		.4byte	0x1e2
 4028 01d3 0C       		.uleb128 0xc
 4029 01d4 8B010000 		.4byte	.LASF28
 4030 01d8 01       		.byte	0x1
 4031 01d9 7F       		.byte	0x7f
 4032 01da 8D000000 		.4byte	0x8d
 4033 01de 02       		.uleb128 0x2
 4034 01df 91       		.byte	0x91
 4035 01e0 77       		.sleb128 -9
 4036 01e1 00       		.byte	0
 4037 01e2 0F       		.uleb128 0xf
 4038 01e3 3C020000 		.4byte	.LASF29
 4039 01e7 01       		.byte	0x1
 4040 01e8 AF       		.byte	0xaf
 4041 01e9 00000000 		.4byte	.LFB4
 4042 01ed 74000000 		.4byte	.LFE4-.LFB4
 4043 01f1 01       		.uleb128 0x1
 4044 01f2 9C       		.byte	0x9c
 4045 01f3 52020000 		.4byte	0x252
 4046 01f7 0C       		.uleb128 0xc
 4047 01f8 FC000000 		.4byte	.LASF30
 4048 01fc 01       		.byte	0x1
 4049 01fd AF       		.byte	0xaf
 4050 01fe 52020000 		.4byte	0x252
 4051 0202 02       		.uleb128 0x2
 4052 0203 91       		.byte	0x91
 4053 0204 64       		.sleb128 -28
 4054 0205 0C       		.uleb128 0xc
 4055 0206 CA000000 		.4byte	.LASF31
 4056 020a 01       		.byte	0x1
 4057 020b AF       		.byte	0xaf
 4058 020c 5D020000 		.4byte	0x25d
 4059 0210 02       		.uleb128 0x2
 4060 0211 91       		.byte	0x91
 4061 0212 60       		.sleb128 -32
 4062 0213 10       		.uleb128 0x10
 4063 0214 6900     		.ascii	"i\000"
 4064 0216 01       		.byte	0x1
 4065 0217 B2       		.byte	0xb2
 4066 0218 A5000000 		.4byte	0xa5
 4067 021c 02       		.uleb128 0x2
 4068 021d 91       		.byte	0x91
 4069 021e 74       		.sleb128 -12
 4070 021f 10       		.uleb128 0x10
 4071 0220 6A00     		.ascii	"j\000"
ARM GAS  C:\Users\DGILLI~1\AppData\Local\Temp\ccW7tEoj.s 			page 106


 4072 0222 01       		.byte	0x1
 4073 0223 B2       		.byte	0xb2
 4074 0224 A5000000 		.4byte	0xa5
 4075 0228 02       		.uleb128 0x2
 4076 0229 91       		.byte	0x91
 4077 022a 70       		.sleb128 -16
 4078 022b 11       		.uleb128 0x11
 4079 022c 14000000 		.4byte	.LBB2
 4080 0230 4A000000 		.4byte	.LBE2-.LBB2
 4081 0234 12       		.uleb128 0x12
 4082 0235 07000000 		.4byte	.LASF32
 4083 0239 01       		.byte	0x1
 4084 023a B5       		.byte	0xb5
 4085 023b A5000000 		.4byte	0xa5
 4086 023f 02       		.uleb128 0x2
 4087 0240 91       		.byte	0x91
 4088 0241 68       		.sleb128 -24
 4089 0242 12       		.uleb128 0x12
 4090 0243 D9010000 		.4byte	.LASF33
 4091 0247 01       		.byte	0x1
 4092 0248 B6       		.byte	0xb6
 4093 0249 8D000000 		.4byte	0x8d
 4094 024d 02       		.uleb128 0x2
 4095 024e 91       		.byte	0x91
 4096 024f 6F       		.sleb128 -17
 4097 0250 00       		.byte	0
 4098 0251 00       		.byte	0
 4099 0252 0D       		.uleb128 0xd
 4100 0253 04       		.byte	0x4
 4101 0254 58020000 		.4byte	0x258
 4102 0258 13       		.uleb128 0x13
 4103 0259 A5000000 		.4byte	0xa5
 4104 025d 0D       		.uleb128 0xd
 4105 025e 04       		.byte	0x4
 4106 025f 63020000 		.4byte	0x263
 4107 0263 13       		.uleb128 0x13
 4108 0264 02010000 		.4byte	0x102
 4109 0268 0A       		.uleb128 0xa
 4110 0269 80010000 		.4byte	.LASF34
 4111 026d 01       		.byte	0x1
 4112 026e D2       		.byte	0xd2
 4113 026f 00000000 		.4byte	.LFB5
 4114 0273 2C010000 		.4byte	.LFE5-.LFB5
 4115 0277 01       		.uleb128 0x1
 4116 0278 9C       		.byte	0x9c
 4117 0279 AB020000 		.4byte	0x2ab
 4118 027d 12       		.uleb128 0x12
 4119 027e 19010000 		.4byte	.LASF35
 4120 0282 01       		.byte	0x1
 4121 0283 D5       		.byte	0xd5
 4122 0284 C0020000 		.4byte	0x2c0
 4123 0288 05       		.uleb128 0x5
 4124 0289 03       		.byte	0x3
 4125 028a 00000000 		.4byte	BS_CYDEV_CLKDIST_ACFG0_CFG0_VAL.5013
 4126 028e 12       		.uleb128 0x12
 4127 028f 27020000 		.4byte	.LASF36
 4128 0293 01       		.byte	0x1
ARM GAS  C:\Users\DGILLI~1\AppData\Local\Temp\ccW7tEoj.s 			page 107


 4129 0294 D8       		.byte	0xd8
 4130 0295 A5000000 		.4byte	0xa5
 4131 0299 02       		.uleb128 0x2
 4132 029a 91       		.byte	0x91
 4133 029b 74       		.sleb128 -12
 4134 029c 12       		.uleb128 0x12
 4135 029d 2D030000 		.4byte	.LASF37
 4136 02a1 01       		.byte	0x1
 4137 02a2 D9       		.byte	0xd9
 4138 02a3 8D000000 		.4byte	0x8d
 4139 02a7 02       		.uleb128 0x2
 4140 02a8 91       		.byte	0x91
 4141 02a9 73       		.sleb128 -13
 4142 02aa 00       		.byte	0
 4143 02ab 14       		.uleb128 0x14
 4144 02ac BB020000 		.4byte	0x2bb
 4145 02b0 BB020000 		.4byte	0x2bb
 4146 02b4 15       		.uleb128 0x15
 4147 02b5 7D000000 		.4byte	0x7d
 4148 02b9 03       		.byte	0x3
 4149 02ba 00       		.byte	0
 4150 02bb 13       		.uleb128 0x13
 4151 02bc 8D000000 		.4byte	0x8d
 4152 02c0 13       		.uleb128 0x13
 4153 02c1 AB020000 		.4byte	0x2ab
 4154 02c5 16       		.uleb128 0x16
 4155 02c6 39010000 		.4byte	.LASF38
 4156 02ca 01       		.byte	0x1
 4157 02cb 1E01     		.2byte	0x11e
 4158 02cd 00000000 		.4byte	.LFB6
 4159 02d1 44000000 		.4byte	.LFE6-.LFB6
 4160 02d5 01       		.uleb128 0x1
 4161 02d6 9C       		.byte	0x9c
 4162 02d7 EB020000 		.4byte	0x2eb
 4163 02db 17       		.uleb128 0x17
 4164 02dc 9C020000 		.4byte	.LASF39
 4165 02e0 01       		.byte	0x1
 4166 02e1 2001     		.2byte	0x120
 4167 02e3 8D000000 		.4byte	0x8d
 4168 02e7 02       		.uleb128 0x2
 4169 02e8 91       		.byte	0x91
 4170 02e9 77       		.sleb128 -9
 4171 02ea 00       		.byte	0
 4172 02eb 18       		.uleb128 0x18
 4173 02ec 75030000 		.4byte	.LASF42
 4174 02f0 01       		.byte	0x1
 4175 02f1 3801     		.2byte	0x138
 4176 02f3 00000000 		.4byte	.LFB7
 4177 02f7 28000000 		.4byte	.LFE7-.LFB7
 4178 02fb 01       		.uleb128 0x1
 4179 02fc 9C       		.byte	0x9c
 4180 02fd 20030000 		.4byte	0x320
 4181 0301 19       		.uleb128 0x19
 4182 0302 A3030000 		.4byte	.LASF40
 4183 0306 01       		.byte	0x1
 4184 0307 3801     		.2byte	0x138
 4185 0309 8D000000 		.4byte	0x8d
ARM GAS  C:\Users\DGILLI~1\AppData\Local\Temp\ccW7tEoj.s 			page 108


 4186 030d 02       		.uleb128 0x2
 4187 030e 91       		.byte	0x91
 4188 030f 6F       		.sleb128 -17
 4189 0310 17       		.uleb128 0x17
 4190 0311 DF010000 		.4byte	.LASF41
 4191 0315 01       		.byte	0x1
 4192 0316 3A01     		.2byte	0x13a
 4193 0318 8D000000 		.4byte	0x8d
 4194 031c 02       		.uleb128 0x2
 4195 031d 91       		.byte	0x91
 4196 031e 77       		.sleb128 -9
 4197 031f 00       		.byte	0
 4198 0320 1A       		.uleb128 0x1a
 4199 0321 63040000 		.4byte	.LASF43
 4200 0325 01       		.byte	0x1
 4201 0326 5A01     		.2byte	0x15a
 4202 0328 00000000 		.4byte	.LFB8
 4203 032c D0010000 		.4byte	.LFE8-.LFB8
 4204 0330 01       		.uleb128 0x1
 4205 0331 9C       		.byte	0x9c
 4206 0332 8E050000 		.4byte	0x58e
 4207 0336 17       		.uleb128 0x17
 4208 0337 1C030000 		.4byte	.LASF44
 4209 033b 01       		.byte	0x1
 4210 033c 5D01     		.2byte	0x15d
 4211 033e 9E050000 		.4byte	0x59e
 4212 0342 05       		.uleb128 0x5
 4213 0343 03       		.byte	0x3
 4214 0344 900B0000 		.4byte	BS_IOPINS0_0_VAL.5032
 4215 0348 17       		.uleb128 0x17
 4216 0349 B9000000 		.4byte	.LASF45
 4217 034d 01       		.byte	0x1
 4218 034e 6101     		.2byte	0x161
 4219 0350 A3050000 		.4byte	0x5a3
 4220 0354 05       		.uleb128 0x5
 4221 0355 03       		.byte	0x3
 4222 0356 9C0B0000 		.4byte	BS_IOPINS0_7_VAL.5033
 4223 035a 17       		.uleb128 0x17
 4224 035b 35030000 		.4byte	.LASF46
 4225 035f 01       		.byte	0x1
 4226 0360 6501     		.2byte	0x165
 4227 0362 A8050000 		.4byte	0x5a8
 4228 0366 05       		.uleb128 0x5
 4229 0367 03       		.byte	0x3
 4230 0368 A80B0000 		.4byte	BS_IOPINS0_8_VAL.5034
 4231 036c 17       		.uleb128 0x17
 4232 036d E8010000 		.4byte	.LASF47
 4233 0371 01       		.byte	0x1
 4234 0372 6901     		.2byte	0x169
 4235 0374 BD050000 		.4byte	0x5bd
 4236 0378 05       		.uleb128 0x5
 4237 0379 03       		.byte	0x3
 4238 037a B40B0000 		.4byte	BS_IOPINS0_1_VAL.5035
 4239 037e 17       		.uleb128 0x17
 4240 037f 42040000 		.4byte	.LASF48
 4241 0383 01       		.byte	0x1
 4242 0384 6D01     		.2byte	0x16d
ARM GAS  C:\Users\DGILLI~1\AppData\Local\Temp\ccW7tEoj.s 			page 109


 4243 0386 C2050000 		.4byte	0x5c2
 4244 038a 05       		.uleb128 0x5
 4245 038b 03       		.byte	0x3
 4246 038c BC0B0000 		.4byte	BS_IOPINS0_2_VAL.5036
 4247 0390 17       		.uleb128 0x17
 4248 0391 CB020000 		.4byte	.LASF49
 4249 0395 01       		.byte	0x1
 4250 0396 7101     		.2byte	0x171
 4251 0398 C7050000 		.4byte	0x5c7
 4252 039c 05       		.uleb128 0x5
 4253 039d 03       		.byte	0x3
 4254 039e C40B0000 		.4byte	BS_IOPINS0_3_VAL.5037
 4255 03a2 17       		.uleb128 0x17
 4256 03a3 95010000 		.4byte	.LASF50
 4257 03a7 01       		.byte	0x1
 4258 03a8 7501     		.2byte	0x175
 4259 03aa CC050000 		.4byte	0x5cc
 4260 03ae 05       		.uleb128 0x5
 4261 03af 03       		.byte	0x3
 4262 03b0 CC0B0000 		.4byte	BS_IOPINS0_4_VAL.5038
 4263 03b4 17       		.uleb128 0x17
 4264 03b5 92030000 		.4byte	.LASF51
 4265 03b9 01       		.byte	0x1
 4266 03ba 7901     		.2byte	0x179
 4267 03bc D1050000 		.4byte	0x5d1
 4268 03c0 05       		.uleb128 0x5
 4269 03c1 03       		.byte	0x3
 4270 03c2 D40B0000 		.4byte	BS_IOPINS0_5_VAL.5039
 4271 03c6 17       		.uleb128 0x17
 4272 03c7 66020000 		.4byte	.LASF52
 4273 03cb 01       		.byte	0x1
 4274 03cc 7D01     		.2byte	0x17d
 4275 03ce D6050000 		.4byte	0x5d6
 4276 03d2 05       		.uleb128 0x5
 4277 03d3 03       		.byte	0x3
 4278 03d4 DC0B0000 		.4byte	BS_IOPINS0_6_VAL.5040
 4279 03d8 11       		.uleb128 0x11
 4280 03d9 18000000 		.4byte	.LBB3
 4281 03dd C2000000 		.4byte	.LBE3-.LBB3
 4282 03e1 17       		.uleb128 0x17
 4283 03e2 64010000 		.4byte	.LASF53
 4284 03e6 01       		.byte	0x1
 4285 03e7 8D01     		.2byte	0x18d
 4286 03e9 EB050000 		.4byte	0x5eb
 4287 03ed 05       		.uleb128 0x5
 4288 03ee 03       		.byte	0x3
 4289 03ef 50000000 		.4byte	cy_cfg_addr_table.5041
 4290 03f3 17       		.uleb128 0x17
 4291 03f4 07010000 		.4byte	.LASF54
 4292 03f8 01       		.byte	0x1
 4293 03f9 B401     		.2byte	0x1b4
 4294 03fb 01060000 		.4byte	0x601
 4295 03ff 05       		.uleb128 0x5
 4296 0400 03       		.byte	0x3
 4297 0401 E0000000 		.4byte	cy_cfg_data_table.5042
 4298 0405 1B       		.uleb128 0x1b
 4299 0406 06       		.byte	0x6
ARM GAS  C:\Users\DGILLI~1\AppData\Local\Temp\ccW7tEoj.s 			page 110


 4300 0407 01       		.byte	0x1
 4301 0408 1107     		.2byte	0x711
 4302 040a 29040000 		.4byte	0x429
 4303 040e 1C       		.uleb128 0x1c
 4304 040f 3A040000 		.4byte	.LASF55
 4305 0413 01       		.byte	0x1
 4306 0414 1207     		.2byte	0x712
 4307 0416 84000000 		.4byte	0x84
 4308 041a 00       		.byte	0
 4309 041b 1C       		.uleb128 0x1c
 4310 041c 4E020000 		.4byte	.LASF56
 4311 0420 01       		.byte	0x1
 4312 0421 1307     		.2byte	0x713
 4313 0423 99000000 		.4byte	0x99
 4314 0427 04       		.byte	0x4
 4315 0428 00       		.byte	0
 4316 0429 06       		.uleb128 0x6
 4317 042a AE020000 		.4byte	.LASF57
 4318 042e 01       		.byte	0x1
 4319 042f 1407     		.2byte	0x714
 4320 0431 05040000 		.4byte	0x405
 4321 0435 1B       		.uleb128 0x1b
 4322 0436 0A       		.byte	0xa
 4323 0437 01       		.byte	0x1
 4324 0438 1707     		.2byte	0x717
 4325 043a 66040000 		.4byte	0x466
 4326 043e 1C       		.uleb128 0x1c
 4327 043f DC020000 		.4byte	.LASF25
 4328 0443 01       		.byte	0x1
 4329 0444 1807     		.2byte	0x718
 4330 0446 84000000 		.4byte	0x84
 4331 044a 00       		.byte	0
 4332 044b 1D       		.uleb128 0x1d
 4333 044c 73726300 		.ascii	"src\000"
 4334 0450 01       		.byte	0x1
 4335 0451 1907     		.2byte	0x719
 4336 0453 79010000 		.4byte	0x179
 4337 0457 04       		.byte	0x4
 4338 0458 1C       		.uleb128 0x1c
 4339 0459 4E020000 		.4byte	.LASF56
 4340 045d 01       		.byte	0x1
 4341 045e 1A07     		.2byte	0x71a
 4342 0460 99000000 		.4byte	0x99
 4343 0464 08       		.byte	0x8
 4344 0465 00       		.byte	0
 4345 0466 06       		.uleb128 0x6
 4346 0467 2F020000 		.4byte	.LASF58
 4347 046b 01       		.byte	0x1
 4348 046c 1B07     		.2byte	0x71b
 4349 046e 35040000 		.4byte	0x435
 4350 0472 14       		.uleb128 0x14
 4351 0473 82040000 		.4byte	0x482
 4352 0477 82040000 		.4byte	0x482
 4353 047b 15       		.uleb128 0x15
 4354 047c 7D000000 		.4byte	0x7d
 4355 0480 05       		.byte	0x5
 4356 0481 00       		.byte	0
ARM GAS  C:\Users\DGILLI~1\AppData\Local\Temp\ccW7tEoj.s 			page 111


 4357 0482 13       		.uleb128 0x13
 4358 0483 29040000 		.4byte	0x429
 4359 0487 17       		.uleb128 0x17
 4360 0488 BB020000 		.4byte	.LASF59
 4361 048c 01       		.byte	0x1
 4362 048d 1D07     		.2byte	0x71d
 4363 048f 99040000 		.4byte	0x499
 4364 0493 05       		.uleb128 0x5
 4365 0494 03       		.byte	0x3
 4366 0495 04000000 		.4byte	cfg_memset_list.5052
 4367 0499 13       		.uleb128 0x13
 4368 049a 72040000 		.4byte	0x472
 4369 049e 17       		.uleb128 0x17
 4370 049f EC000000 		.4byte	.LASF60
 4371 04a3 01       		.byte	0x1
 4372 04a4 2807     		.2byte	0x728
 4373 04a6 16060000 		.4byte	0x616
 4374 04aa 05       		.uleb128 0x5
 4375 04ab 03       		.byte	0x3
 4376 04ac FC0B0000 		.4byte	BS_IOPORT_3_VAL.5053
 4377 04b0 17       		.uleb128 0x17
 4378 04b1 46030000 		.4byte	.LASF61
 4379 04b5 01       		.byte	0x1
 4380 04b6 2C07     		.2byte	0x72c
 4381 04b8 1B060000 		.4byte	0x61b
 4382 04bc 05       		.uleb128 0x5
 4383 04bd 03       		.byte	0x3
 4384 04be F40B0000 		.4byte	BS_IOPORT_4_VAL.5054
 4385 04c2 17       		.uleb128 0x17
 4386 04c3 E7020000 		.4byte	.LASF62
 4387 04c7 01       		.byte	0x1
 4388 04c8 3007     		.2byte	0x730
 4389 04ca 30060000 		.4byte	0x630
 4390 04ce 05       		.uleb128 0x5
 4391 04cf 03       		.byte	0x3
 4392 04d0 EC0B0000 		.4byte	BS_IOPORT_7_VAL.5055
 4393 04d4 17       		.uleb128 0x17
 4394 04d5 C2010000 		.4byte	.LASF63
 4395 04d9 01       		.byte	0x1
 4396 04da 3407     		.2byte	0x734
 4397 04dc 35060000 		.4byte	0x635
 4398 04e0 05       		.uleb128 0x5
 4399 04e1 03       		.byte	0x3
 4400 04e2 E40B0000 		.4byte	BS_IOPORT_8_VAL.5056
 4401 04e6 14       		.uleb128 0x14
 4402 04e7 F6040000 		.4byte	0x4f6
 4403 04eb F6040000 		.4byte	0x4f6
 4404 04ef 15       		.uleb128 0x15
 4405 04f0 7D000000 		.4byte	0x7d
 4406 04f4 03       		.byte	0x3
 4407 04f5 00       		.byte	0
 4408 04f6 13       		.uleb128 0x13
 4409 04f7 66040000 		.4byte	0x466
 4410 04fb 17       		.uleb128 0x17
 4411 04fc 53040000 		.4byte	.LASF64
 4412 0500 01       		.byte	0x1
 4413 0501 3707     		.2byte	0x737
ARM GAS  C:\Users\DGILLI~1\AppData\Local\Temp\ccW7tEoj.s 			page 112


 4414 0503 0D050000 		.4byte	0x50d
 4415 0507 05       		.uleb128 0x5
 4416 0508 03       		.byte	0x3
 4417 0509 28000000 		.4byte	cfg_memcpy_list.5057
 4418 050d 13       		.uleb128 0x13
 4419 050e E6040000 		.4byte	0x4e6
 4420 0512 1E       		.uleb128 0x1e
 4421 0513 6900     		.ascii	"i\000"
 4422 0515 01       		.byte	0x1
 4423 0516 3F07     		.2byte	0x73f
 4424 0518 8D000000 		.4byte	0x8d
 4425 051c 02       		.uleb128 0x2
 4426 051d 91       		.byte	0x91
 4427 051e 77       		.sleb128 -9
 4428 051f 1F       		.uleb128 0x1f
 4429 0520 1E000000 		.4byte	.LBB4
 4430 0524 22000000 		.4byte	.LBE4-.LBB4
 4431 0528 41050000 		.4byte	0x541
 4432 052c 1E       		.uleb128 0x1e
 4433 052d 6D7300   		.ascii	"ms\000"
 4434 0530 01       		.byte	0x1
 4435 0531 4407     		.2byte	0x744
 4436 0533 3A050000 		.4byte	0x53a
 4437 0537 02       		.uleb128 0x2
 4438 0538 91       		.byte	0x91
 4439 0539 70       		.sleb128 -16
 4440 053a 0D       		.uleb128 0xd
 4441 053b 04       		.byte	0x4
 4442 053c 82040000 		.4byte	0x482
 4443 0540 00       		.byte	0
 4444 0541 11       		.uleb128 0x11
 4445 0542 52000000 		.4byte	.LBB5
 4446 0546 34000000 		.4byte	.LBE5-.LBB5
 4447 054a 1E       		.uleb128 0x1e
 4448 054b 6D6300   		.ascii	"mc\000"
 4449 054e 01       		.byte	0x1
 4450 054f 4B07     		.2byte	0x74b
 4451 0551 58050000 		.4byte	0x558
 4452 0555 02       		.uleb128 0x2
 4453 0556 91       		.byte	0x91
 4454 0557 6C       		.sleb128 -20
 4455 0558 0D       		.uleb128 0xd
 4456 0559 04       		.byte	0x4
 4457 055a F6040000 		.4byte	0x4f6
 4458 055e 17       		.uleb128 0x17
 4459 055f F7020000 		.4byte	.LASF65
 4460 0563 01       		.byte	0x1
 4461 0564 4C07     		.2byte	0x74c
 4462 0566 84000000 		.4byte	0x84
 4463 056a 02       		.uleb128 0x2
 4464 056b 91       		.byte	0x91
 4465 056c 68       		.sleb128 -24
 4466 056d 17       		.uleb128 0x17
 4467 056e 6E030000 		.4byte	.LASF66
 4468 0572 01       		.byte	0x1
 4469 0573 4D07     		.2byte	0x74d
 4470 0575 79010000 		.4byte	0x179
ARM GAS  C:\Users\DGILLI~1\AppData\Local\Temp\ccW7tEoj.s 			page 113


 4471 0579 02       		.uleb128 0x2
 4472 057a 91       		.byte	0x91
 4473 057b 64       		.sleb128 -28
 4474 057c 17       		.uleb128 0x17
 4475 057d 0C020000 		.4byte	.LASF67
 4476 0581 01       		.byte	0x1
 4477 0582 4E07     		.2byte	0x74e
 4478 0584 99000000 		.4byte	0x99
 4479 0588 02       		.uleb128 0x2
 4480 0589 91       		.byte	0x91
 4481 058a 62       		.sleb128 -30
 4482 058b 00       		.byte	0
 4483 058c 00       		.byte	0
 4484 058d 00       		.byte	0
 4485 058e 14       		.uleb128 0x14
 4486 058f BB020000 		.4byte	0x2bb
 4487 0593 9E050000 		.4byte	0x59e
 4488 0597 15       		.uleb128 0x15
 4489 0598 7D000000 		.4byte	0x7d
 4490 059c 09       		.byte	0x9
 4491 059d 00       		.byte	0
 4492 059e 13       		.uleb128 0x13
 4493 059f 8E050000 		.4byte	0x58e
 4494 05a3 13       		.uleb128 0x13
 4495 05a4 8E050000 		.4byte	0x58e
 4496 05a8 13       		.uleb128 0x13
 4497 05a9 8E050000 		.4byte	0x58e
 4498 05ad 14       		.uleb128 0x14
 4499 05ae BB020000 		.4byte	0x2bb
 4500 05b2 BD050000 		.4byte	0x5bd
 4501 05b6 15       		.uleb128 0x15
 4502 05b7 7D000000 		.4byte	0x7d
 4503 05bb 07       		.byte	0x7
 4504 05bc 00       		.byte	0
 4505 05bd 13       		.uleb128 0x13
 4506 05be AD050000 		.4byte	0x5ad
 4507 05c2 13       		.uleb128 0x13
 4508 05c3 AD050000 		.4byte	0x5ad
 4509 05c7 13       		.uleb128 0x13
 4510 05c8 AD050000 		.4byte	0x5ad
 4511 05cc 13       		.uleb128 0x13
 4512 05cd AD050000 		.4byte	0x5ad
 4513 05d1 13       		.uleb128 0x13
 4514 05d2 AD050000 		.4byte	0x5ad
 4515 05d6 13       		.uleb128 0x13
 4516 05d7 AD050000 		.4byte	0x5ad
 4517 05db 14       		.uleb128 0x14
 4518 05dc 58020000 		.4byte	0x258
 4519 05e0 EB050000 		.4byte	0x5eb
 4520 05e4 15       		.uleb128 0x15
 4521 05e5 7D000000 		.4byte	0x7d
 4522 05e9 23       		.byte	0x23
 4523 05ea 00       		.byte	0
 4524 05eb 13       		.uleb128 0x13
 4525 05ec DB050000 		.4byte	0x5db
 4526 05f0 14       		.uleb128 0x14
 4527 05f1 63020000 		.4byte	0x263
ARM GAS  C:\Users\DGILLI~1\AppData\Local\Temp\ccW7tEoj.s 			page 114


 4528 05f5 01060000 		.4byte	0x601
 4529 05f9 20       		.uleb128 0x20
 4530 05fa 7D000000 		.4byte	0x7d
 4531 05fe 5705     		.2byte	0x557
 4532 0600 00       		.byte	0
 4533 0601 13       		.uleb128 0x13
 4534 0602 F0050000 		.4byte	0x5f0
 4535 0606 14       		.uleb128 0x14
 4536 0607 BB020000 		.4byte	0x2bb
 4537 060b 16060000 		.4byte	0x616
 4538 060f 15       		.uleb128 0x15
 4539 0610 7D000000 		.4byte	0x7d
 4540 0614 06       		.byte	0x6
 4541 0615 00       		.byte	0
 4542 0616 13       		.uleb128 0x13
 4543 0617 06060000 		.4byte	0x606
 4544 061b 13       		.uleb128 0x13
 4545 061c 06060000 		.4byte	0x606
 4546 0620 14       		.uleb128 0x14
 4547 0621 BB020000 		.4byte	0x2bb
 4548 0625 30060000 		.4byte	0x630
 4549 0629 15       		.uleb128 0x15
 4550 062a 7D000000 		.4byte	0x7d
 4551 062e 05       		.byte	0x5
 4552 062f 00       		.byte	0
 4553 0630 13       		.uleb128 0x13
 4554 0631 20060000 		.4byte	0x620
 4555 0635 13       		.uleb128 0x13
 4556 0636 06060000 		.4byte	0x606
 4557 063a 00       		.byte	0
 4558              		.section	.debug_abbrev,"",%progbits
 4559              	.Ldebug_abbrev0:
 4560 0000 01       		.uleb128 0x1
 4561 0001 11       		.uleb128 0x11
 4562 0002 01       		.byte	0x1
 4563 0003 25       		.uleb128 0x25
 4564 0004 0E       		.uleb128 0xe
 4565 0005 13       		.uleb128 0x13
 4566 0006 0B       		.uleb128 0xb
 4567 0007 03       		.uleb128 0x3
 4568 0008 0E       		.uleb128 0xe
 4569 0009 1B       		.uleb128 0x1b
 4570 000a 0E       		.uleb128 0xe
 4571 000b 55       		.uleb128 0x55
 4572 000c 17       		.uleb128 0x17
 4573 000d 11       		.uleb128 0x11
 4574 000e 01       		.uleb128 0x1
 4575 000f 10       		.uleb128 0x10
 4576 0010 17       		.uleb128 0x17
 4577 0011 00       		.byte	0
 4578 0012 00       		.byte	0
 4579 0013 02       		.uleb128 0x2
 4580 0014 24       		.uleb128 0x24
 4581 0015 00       		.byte	0
 4582 0016 0B       		.uleb128 0xb
 4583 0017 0B       		.uleb128 0xb
 4584 0018 3E       		.uleb128 0x3e
ARM GAS  C:\Users\DGILLI~1\AppData\Local\Temp\ccW7tEoj.s 			page 115


 4585 0019 0B       		.uleb128 0xb
 4586 001a 03       		.uleb128 0x3
 4587 001b 08       		.uleb128 0x8
 4588 001c 00       		.byte	0
 4589 001d 00       		.byte	0
 4590 001e 03       		.uleb128 0x3
 4591 001f 16       		.uleb128 0x16
 4592 0020 00       		.byte	0
 4593 0021 03       		.uleb128 0x3
 4594 0022 0E       		.uleb128 0xe
 4595 0023 3A       		.uleb128 0x3a
 4596 0024 0B       		.uleb128 0xb
 4597 0025 3B       		.uleb128 0x3b
 4598 0026 0B       		.uleb128 0xb
 4599 0027 49       		.uleb128 0x49
 4600 0028 13       		.uleb128 0x13
 4601 0029 00       		.byte	0
 4602 002a 00       		.byte	0
 4603 002b 04       		.uleb128 0x4
 4604 002c 24       		.uleb128 0x24
 4605 002d 00       		.byte	0
 4606 002e 0B       		.uleb128 0xb
 4607 002f 0B       		.uleb128 0xb
 4608 0030 3E       		.uleb128 0x3e
 4609 0031 0B       		.uleb128 0xb
 4610 0032 03       		.uleb128 0x3
 4611 0033 0E       		.uleb128 0xe
 4612 0034 00       		.byte	0
 4613 0035 00       		.byte	0
 4614 0036 05       		.uleb128 0x5
 4615 0037 0F       		.uleb128 0xf
 4616 0038 00       		.byte	0
 4617 0039 0B       		.uleb128 0xb
 4618 003a 0B       		.uleb128 0xb
 4619 003b 00       		.byte	0
 4620 003c 00       		.byte	0
 4621 003d 06       		.uleb128 0x6
 4622 003e 16       		.uleb128 0x16
 4623 003f 00       		.byte	0
 4624 0040 03       		.uleb128 0x3
 4625 0041 0E       		.uleb128 0xe
 4626 0042 3A       		.uleb128 0x3a
 4627 0043 0B       		.uleb128 0xb
 4628 0044 3B       		.uleb128 0x3b
 4629 0045 05       		.uleb128 0x5
 4630 0046 49       		.uleb128 0x49
 4631 0047 13       		.uleb128 0x13
 4632 0048 00       		.byte	0
 4633 0049 00       		.byte	0
 4634 004a 07       		.uleb128 0x7
 4635 004b 35       		.uleb128 0x35
 4636 004c 00       		.byte	0
 4637 004d 49       		.uleb128 0x49
 4638 004e 13       		.uleb128 0x13
 4639 004f 00       		.byte	0
 4640 0050 00       		.byte	0
 4641 0051 08       		.uleb128 0x8
ARM GAS  C:\Users\DGILLI~1\AppData\Local\Temp\ccW7tEoj.s 			page 116


 4642 0052 13       		.uleb128 0x13
 4643 0053 01       		.byte	0x1
 4644 0054 0B       		.uleb128 0xb
 4645 0055 0B       		.uleb128 0xb
 4646 0056 3A       		.uleb128 0x3a
 4647 0057 0B       		.uleb128 0xb
 4648 0058 3B       		.uleb128 0x3b
 4649 0059 0B       		.uleb128 0xb
 4650 005a 01       		.uleb128 0x1
 4651 005b 13       		.uleb128 0x13
 4652 005c 00       		.byte	0
 4653 005d 00       		.byte	0
 4654 005e 09       		.uleb128 0x9
 4655 005f 0D       		.uleb128 0xd
 4656 0060 00       		.byte	0
 4657 0061 03       		.uleb128 0x3
 4658 0062 0E       		.uleb128 0xe
 4659 0063 3A       		.uleb128 0x3a
 4660 0064 0B       		.uleb128 0xb
 4661 0065 3B       		.uleb128 0x3b
 4662 0066 0B       		.uleb128 0xb
 4663 0067 49       		.uleb128 0x49
 4664 0068 13       		.uleb128 0x13
 4665 0069 38       		.uleb128 0x38
 4666 006a 0B       		.uleb128 0xb
 4667 006b 00       		.byte	0
 4668 006c 00       		.byte	0
 4669 006d 0A       		.uleb128 0xa
 4670 006e 2E       		.uleb128 0x2e
 4671 006f 01       		.byte	0x1
 4672 0070 03       		.uleb128 0x3
 4673 0071 0E       		.uleb128 0xe
 4674 0072 3A       		.uleb128 0x3a
 4675 0073 0B       		.uleb128 0xb
 4676 0074 3B       		.uleb128 0x3b
 4677 0075 0B       		.uleb128 0xb
 4678 0076 27       		.uleb128 0x27
 4679 0077 19       		.uleb128 0x19
 4680 0078 11       		.uleb128 0x11
 4681 0079 01       		.uleb128 0x1
 4682 007a 12       		.uleb128 0x12
 4683 007b 06       		.uleb128 0x6
 4684 007c 40       		.uleb128 0x40
 4685 007d 18       		.uleb128 0x18
 4686 007e 9642     		.uleb128 0x2116
 4687 0080 19       		.uleb128 0x19
 4688 0081 01       		.uleb128 0x1
 4689 0082 13       		.uleb128 0x13
 4690 0083 00       		.byte	0
 4691 0084 00       		.byte	0
 4692 0085 0B       		.uleb128 0xb
 4693 0086 05       		.uleb128 0x5
 4694 0087 00       		.byte	0
 4695 0088 03       		.uleb128 0x3
 4696 0089 08       		.uleb128 0x8
 4697 008a 3A       		.uleb128 0x3a
 4698 008b 0B       		.uleb128 0xb
ARM GAS  C:\Users\DGILLI~1\AppData\Local\Temp\ccW7tEoj.s 			page 117


 4699 008c 3B       		.uleb128 0x3b
 4700 008d 0B       		.uleb128 0xb
 4701 008e 49       		.uleb128 0x49
 4702 008f 13       		.uleb128 0x13
 4703 0090 02       		.uleb128 0x2
 4704 0091 18       		.uleb128 0x18
 4705 0092 00       		.byte	0
 4706 0093 00       		.byte	0
 4707 0094 0C       		.uleb128 0xc
 4708 0095 05       		.uleb128 0x5
 4709 0096 00       		.byte	0
 4710 0097 03       		.uleb128 0x3
 4711 0098 0E       		.uleb128 0xe
 4712 0099 3A       		.uleb128 0x3a
 4713 009a 0B       		.uleb128 0xb
 4714 009b 3B       		.uleb128 0x3b
 4715 009c 0B       		.uleb128 0xb
 4716 009d 49       		.uleb128 0x49
 4717 009e 13       		.uleb128 0x13
 4718 009f 02       		.uleb128 0x2
 4719 00a0 18       		.uleb128 0x18
 4720 00a1 00       		.byte	0
 4721 00a2 00       		.byte	0
 4722 00a3 0D       		.uleb128 0xd
 4723 00a4 0F       		.uleb128 0xf
 4724 00a5 00       		.byte	0
 4725 00a6 0B       		.uleb128 0xb
 4726 00a7 0B       		.uleb128 0xb
 4727 00a8 49       		.uleb128 0x49
 4728 00a9 13       		.uleb128 0x13
 4729 00aa 00       		.byte	0
 4730 00ab 00       		.byte	0
 4731 00ac 0E       		.uleb128 0xe
 4732 00ad 26       		.uleb128 0x26
 4733 00ae 00       		.byte	0
 4734 00af 00       		.byte	0
 4735 00b0 00       		.byte	0
 4736 00b1 0F       		.uleb128 0xf
 4737 00b2 2E       		.uleb128 0x2e
 4738 00b3 01       		.byte	0x1
 4739 00b4 03       		.uleb128 0x3
 4740 00b5 0E       		.uleb128 0xe
 4741 00b6 3A       		.uleb128 0x3a
 4742 00b7 0B       		.uleb128 0xb
 4743 00b8 3B       		.uleb128 0x3b
 4744 00b9 0B       		.uleb128 0xb
 4745 00ba 27       		.uleb128 0x27
 4746 00bb 19       		.uleb128 0x19
 4747 00bc 11       		.uleb128 0x11
 4748 00bd 01       		.uleb128 0x1
 4749 00be 12       		.uleb128 0x12
 4750 00bf 06       		.uleb128 0x6
 4751 00c0 40       		.uleb128 0x40
 4752 00c1 18       		.uleb128 0x18
 4753 00c2 9742     		.uleb128 0x2117
 4754 00c4 19       		.uleb128 0x19
 4755 00c5 01       		.uleb128 0x1
ARM GAS  C:\Users\DGILLI~1\AppData\Local\Temp\ccW7tEoj.s 			page 118


 4756 00c6 13       		.uleb128 0x13
 4757 00c7 00       		.byte	0
 4758 00c8 00       		.byte	0
 4759 00c9 10       		.uleb128 0x10
 4760 00ca 34       		.uleb128 0x34
 4761 00cb 00       		.byte	0
 4762 00cc 03       		.uleb128 0x3
 4763 00cd 08       		.uleb128 0x8
 4764 00ce 3A       		.uleb128 0x3a
 4765 00cf 0B       		.uleb128 0xb
 4766 00d0 3B       		.uleb128 0x3b
 4767 00d1 0B       		.uleb128 0xb
 4768 00d2 49       		.uleb128 0x49
 4769 00d3 13       		.uleb128 0x13
 4770 00d4 02       		.uleb128 0x2
 4771 00d5 18       		.uleb128 0x18
 4772 00d6 00       		.byte	0
 4773 00d7 00       		.byte	0
 4774 00d8 11       		.uleb128 0x11
 4775 00d9 0B       		.uleb128 0xb
 4776 00da 01       		.byte	0x1
 4777 00db 11       		.uleb128 0x11
 4778 00dc 01       		.uleb128 0x1
 4779 00dd 12       		.uleb128 0x12
 4780 00de 06       		.uleb128 0x6
 4781 00df 00       		.byte	0
 4782 00e0 00       		.byte	0
 4783 00e1 12       		.uleb128 0x12
 4784 00e2 34       		.uleb128 0x34
 4785 00e3 00       		.byte	0
 4786 00e4 03       		.uleb128 0x3
 4787 00e5 0E       		.uleb128 0xe
 4788 00e6 3A       		.uleb128 0x3a
 4789 00e7 0B       		.uleb128 0xb
 4790 00e8 3B       		.uleb128 0x3b
 4791 00e9 0B       		.uleb128 0xb
 4792 00ea 49       		.uleb128 0x49
 4793 00eb 13       		.uleb128 0x13
 4794 00ec 02       		.uleb128 0x2
 4795 00ed 18       		.uleb128 0x18
 4796 00ee 00       		.byte	0
 4797 00ef 00       		.byte	0
 4798 00f0 13       		.uleb128 0x13
 4799 00f1 26       		.uleb128 0x26
 4800 00f2 00       		.byte	0
 4801 00f3 49       		.uleb128 0x49
 4802 00f4 13       		.uleb128 0x13
 4803 00f5 00       		.byte	0
 4804 00f6 00       		.byte	0
 4805 00f7 14       		.uleb128 0x14
 4806 00f8 01       		.uleb128 0x1
 4807 00f9 01       		.byte	0x1
 4808 00fa 49       		.uleb128 0x49
 4809 00fb 13       		.uleb128 0x13
 4810 00fc 01       		.uleb128 0x1
 4811 00fd 13       		.uleb128 0x13
 4812 00fe 00       		.byte	0
ARM GAS  C:\Users\DGILLI~1\AppData\Local\Temp\ccW7tEoj.s 			page 119


 4813 00ff 00       		.byte	0
 4814 0100 15       		.uleb128 0x15
 4815 0101 21       		.uleb128 0x21
 4816 0102 00       		.byte	0
 4817 0103 49       		.uleb128 0x49
 4818 0104 13       		.uleb128 0x13
 4819 0105 2F       		.uleb128 0x2f
 4820 0106 0B       		.uleb128 0xb
 4821 0107 00       		.byte	0
 4822 0108 00       		.byte	0
 4823 0109 16       		.uleb128 0x16
 4824 010a 2E       		.uleb128 0x2e
 4825 010b 01       		.byte	0x1
 4826 010c 03       		.uleb128 0x3
 4827 010d 0E       		.uleb128 0xe
 4828 010e 3A       		.uleb128 0x3a
 4829 010f 0B       		.uleb128 0xb
 4830 0110 3B       		.uleb128 0x3b
 4831 0111 05       		.uleb128 0x5
 4832 0112 27       		.uleb128 0x27
 4833 0113 19       		.uleb128 0x19
 4834 0114 11       		.uleb128 0x11
 4835 0115 01       		.uleb128 0x1
 4836 0116 12       		.uleb128 0x12
 4837 0117 06       		.uleb128 0x6
 4838 0118 40       		.uleb128 0x40
 4839 0119 18       		.uleb128 0x18
 4840 011a 9742     		.uleb128 0x2117
 4841 011c 19       		.uleb128 0x19
 4842 011d 01       		.uleb128 0x1
 4843 011e 13       		.uleb128 0x13
 4844 011f 00       		.byte	0
 4845 0120 00       		.byte	0
 4846 0121 17       		.uleb128 0x17
 4847 0122 34       		.uleb128 0x34
 4848 0123 00       		.byte	0
 4849 0124 03       		.uleb128 0x3
 4850 0125 0E       		.uleb128 0xe
 4851 0126 3A       		.uleb128 0x3a
 4852 0127 0B       		.uleb128 0xb
 4853 0128 3B       		.uleb128 0x3b
 4854 0129 05       		.uleb128 0x5
 4855 012a 49       		.uleb128 0x49
 4856 012b 13       		.uleb128 0x13
 4857 012c 02       		.uleb128 0x2
 4858 012d 18       		.uleb128 0x18
 4859 012e 00       		.byte	0
 4860 012f 00       		.byte	0
 4861 0130 18       		.uleb128 0x18
 4862 0131 2E       		.uleb128 0x2e
 4863 0132 01       		.byte	0x1
 4864 0133 3F       		.uleb128 0x3f
 4865 0134 19       		.uleb128 0x19
 4866 0135 03       		.uleb128 0x3
 4867 0136 0E       		.uleb128 0xe
 4868 0137 3A       		.uleb128 0x3a
 4869 0138 0B       		.uleb128 0xb
ARM GAS  C:\Users\DGILLI~1\AppData\Local\Temp\ccW7tEoj.s 			page 120


 4870 0139 3B       		.uleb128 0x3b
 4871 013a 05       		.uleb128 0x5
 4872 013b 27       		.uleb128 0x27
 4873 013c 19       		.uleb128 0x19
 4874 013d 11       		.uleb128 0x11
 4875 013e 01       		.uleb128 0x1
 4876 013f 12       		.uleb128 0x12
 4877 0140 06       		.uleb128 0x6
 4878 0141 40       		.uleb128 0x40
 4879 0142 18       		.uleb128 0x18
 4880 0143 9742     		.uleb128 0x2117
 4881 0145 19       		.uleb128 0x19
 4882 0146 01       		.uleb128 0x1
 4883 0147 13       		.uleb128 0x13
 4884 0148 00       		.byte	0
 4885 0149 00       		.byte	0
 4886 014a 19       		.uleb128 0x19
 4887 014b 05       		.uleb128 0x5
 4888 014c 00       		.byte	0
 4889 014d 03       		.uleb128 0x3
 4890 014e 0E       		.uleb128 0xe
 4891 014f 3A       		.uleb128 0x3a
 4892 0150 0B       		.uleb128 0xb
 4893 0151 3B       		.uleb128 0x3b
 4894 0152 05       		.uleb128 0x5
 4895 0153 49       		.uleb128 0x49
 4896 0154 13       		.uleb128 0x13
 4897 0155 02       		.uleb128 0x2
 4898 0156 18       		.uleb128 0x18
 4899 0157 00       		.byte	0
 4900 0158 00       		.byte	0
 4901 0159 1A       		.uleb128 0x1a
 4902 015a 2E       		.uleb128 0x2e
 4903 015b 01       		.byte	0x1
 4904 015c 3F       		.uleb128 0x3f
 4905 015d 19       		.uleb128 0x19
 4906 015e 03       		.uleb128 0x3
 4907 015f 0E       		.uleb128 0xe
 4908 0160 3A       		.uleb128 0x3a
 4909 0161 0B       		.uleb128 0xb
 4910 0162 3B       		.uleb128 0x3b
 4911 0163 05       		.uleb128 0x5
 4912 0164 27       		.uleb128 0x27
 4913 0165 19       		.uleb128 0x19
 4914 0166 11       		.uleb128 0x11
 4915 0167 01       		.uleb128 0x1
 4916 0168 12       		.uleb128 0x12
 4917 0169 06       		.uleb128 0x6
 4918 016a 40       		.uleb128 0x40
 4919 016b 18       		.uleb128 0x18
 4920 016c 9642     		.uleb128 0x2116
 4921 016e 19       		.uleb128 0x19
 4922 016f 01       		.uleb128 0x1
 4923 0170 13       		.uleb128 0x13
 4924 0171 00       		.byte	0
 4925 0172 00       		.byte	0
 4926 0173 1B       		.uleb128 0x1b
ARM GAS  C:\Users\DGILLI~1\AppData\Local\Temp\ccW7tEoj.s 			page 121


 4927 0174 13       		.uleb128 0x13
 4928 0175 01       		.byte	0x1
 4929 0176 0B       		.uleb128 0xb
 4930 0177 0B       		.uleb128 0xb
 4931 0178 3A       		.uleb128 0x3a
 4932 0179 0B       		.uleb128 0xb
 4933 017a 3B       		.uleb128 0x3b
 4934 017b 05       		.uleb128 0x5
 4935 017c 01       		.uleb128 0x1
 4936 017d 13       		.uleb128 0x13
 4937 017e 00       		.byte	0
 4938 017f 00       		.byte	0
 4939 0180 1C       		.uleb128 0x1c
 4940 0181 0D       		.uleb128 0xd
 4941 0182 00       		.byte	0
 4942 0183 03       		.uleb128 0x3
 4943 0184 0E       		.uleb128 0xe
 4944 0185 3A       		.uleb128 0x3a
 4945 0186 0B       		.uleb128 0xb
 4946 0187 3B       		.uleb128 0x3b
 4947 0188 05       		.uleb128 0x5
 4948 0189 49       		.uleb128 0x49
 4949 018a 13       		.uleb128 0x13
 4950 018b 38       		.uleb128 0x38
 4951 018c 0B       		.uleb128 0xb
 4952 018d 00       		.byte	0
 4953 018e 00       		.byte	0
 4954 018f 1D       		.uleb128 0x1d
 4955 0190 0D       		.uleb128 0xd
 4956 0191 00       		.byte	0
 4957 0192 03       		.uleb128 0x3
 4958 0193 08       		.uleb128 0x8
 4959 0194 3A       		.uleb128 0x3a
 4960 0195 0B       		.uleb128 0xb
 4961 0196 3B       		.uleb128 0x3b
 4962 0197 05       		.uleb128 0x5
 4963 0198 49       		.uleb128 0x49
 4964 0199 13       		.uleb128 0x13
 4965 019a 38       		.uleb128 0x38
 4966 019b 0B       		.uleb128 0xb
 4967 019c 00       		.byte	0
 4968 019d 00       		.byte	0
 4969 019e 1E       		.uleb128 0x1e
 4970 019f 34       		.uleb128 0x34
 4971 01a0 00       		.byte	0
 4972 01a1 03       		.uleb128 0x3
 4973 01a2 08       		.uleb128 0x8
 4974 01a3 3A       		.uleb128 0x3a
 4975 01a4 0B       		.uleb128 0xb
 4976 01a5 3B       		.uleb128 0x3b
 4977 01a6 05       		.uleb128 0x5
 4978 01a7 49       		.uleb128 0x49
 4979 01a8 13       		.uleb128 0x13
 4980 01a9 02       		.uleb128 0x2
 4981 01aa 18       		.uleb128 0x18
 4982 01ab 00       		.byte	0
 4983 01ac 00       		.byte	0
ARM GAS  C:\Users\DGILLI~1\AppData\Local\Temp\ccW7tEoj.s 			page 122


 4984 01ad 1F       		.uleb128 0x1f
 4985 01ae 0B       		.uleb128 0xb
 4986 01af 01       		.byte	0x1
 4987 01b0 11       		.uleb128 0x11
 4988 01b1 01       		.uleb128 0x1
 4989 01b2 12       		.uleb128 0x12
 4990 01b3 06       		.uleb128 0x6
 4991 01b4 01       		.uleb128 0x1
 4992 01b5 13       		.uleb128 0x13
 4993 01b6 00       		.byte	0
 4994 01b7 00       		.byte	0
 4995 01b8 20       		.uleb128 0x20
 4996 01b9 21       		.uleb128 0x21
 4997 01ba 00       		.byte	0
 4998 01bb 49       		.uleb128 0x49
 4999 01bc 13       		.uleb128 0x13
 5000 01bd 2F       		.uleb128 0x2f
 5001 01be 05       		.uleb128 0x5
 5002 01bf 00       		.byte	0
 5003 01c0 00       		.byte	0
 5004 01c1 00       		.byte	0
 5005              		.section	.debug_aranges,"",%progbits
 5006 0000 5C000000 		.4byte	0x5c
 5007 0004 0200     		.2byte	0x2
 5008 0006 00000000 		.4byte	.Ldebug_info0
 5009 000a 04       		.byte	0x4
 5010 000b 00       		.byte	0
 5011 000c 0000     		.2byte	0
 5012 000e 0000     		.2byte	0
 5013 0010 00000000 		.4byte	.LFB0
 5014 0014 1C000000 		.4byte	.LFE0-.LFB0
 5015 0018 00000000 		.4byte	.LFB1
 5016 001c 1E000000 		.4byte	.LFE1-.LFB1
 5017 0020 00000000 		.4byte	.LFB2
 5018 0024 1E000000 		.4byte	.LFE2-.LFB2
 5019 0028 00000000 		.4byte	.LFB3
 5020 002c 0C000000 		.4byte	.LFE3-.LFB3
 5021 0030 00000000 		.4byte	.LFB4
 5022 0034 74000000 		.4byte	.LFE4-.LFB4
 5023 0038 00000000 		.4byte	.LFB5
 5024 003c 2C010000 		.4byte	.LFE5-.LFB5
 5025 0040 00000000 		.4byte	.LFB6
 5026 0044 44000000 		.4byte	.LFE6-.LFB6
 5027 0048 00000000 		.4byte	.LFB7
 5028 004c 28000000 		.4byte	.LFE7-.LFB7
 5029 0050 00000000 		.4byte	.LFB8
 5030 0054 D0010000 		.4byte	.LFE8-.LFB8
 5031 0058 00000000 		.4byte	0
 5032 005c 00000000 		.4byte	0
 5033              		.section	.debug_ranges,"",%progbits
 5034              	.Ldebug_ranges0:
 5035 0000 00000000 		.4byte	.LFB0
 5036 0004 1C000000 		.4byte	.LFE0
 5037 0008 00000000 		.4byte	.LFB1
 5038 000c 1E000000 		.4byte	.LFE1
 5039 0010 00000000 		.4byte	.LFB2
 5040 0014 1E000000 		.4byte	.LFE2
ARM GAS  C:\Users\DGILLI~1\AppData\Local\Temp\ccW7tEoj.s 			page 123


 5041 0018 00000000 		.4byte	.LFB3
 5042 001c 0C000000 		.4byte	.LFE3
 5043 0020 00000000 		.4byte	.LFB4
 5044 0024 74000000 		.4byte	.LFE4
 5045 0028 00000000 		.4byte	.LFB5
 5046 002c 2C010000 		.4byte	.LFE5
 5047 0030 00000000 		.4byte	.LFB6
 5048 0034 44000000 		.4byte	.LFE6
 5049 0038 00000000 		.4byte	.LFB7
 5050 003c 28000000 		.4byte	.LFE7
 5051 0040 00000000 		.4byte	.LFB8
 5052 0044 D0010000 		.4byte	.LFE8
 5053 0048 00000000 		.4byte	0
 5054 004c 00000000 		.4byte	0
 5055              		.section	.debug_line,"",%progbits
 5056              	.Ldebug_line0:
 5057 0000 20020000 		.section	.debug_str,"MS",%progbits,1
 5057      0200CB00 
 5057      00000201 
 5057      FB0E0D00 
 5057      01010101 
 5058              	.LASF14:
 5059 0000 75696E74 		.ascii	"uint16\000"
 5059      313600
 5060              	.LASF32:
 5061 0007 62617365 		.ascii	"baseAddr\000"
 5061      41646472 
 5061      00
 5062              	.LASF12:
 5063 0010 73697A65 		.ascii	"size_t\000"
 5063      5F7400
 5064              	.LASF27:
 5065 0017 4379436C 		.ascii	"CyClockStartupError\000"
 5065      6F636B53 
 5065      74617274 
 5065      75704572 
 5065      726F7200 
 5066              	.LASF68:
 5067 002b 474E5520 		.ascii	"GNU C11 5.4.1 20160609 (release) [ARM/embedded-5-br"
 5067      43313120 
 5067      352E342E 
 5067      31203230 
 5067      31363036 
 5068 005e 616E6368 		.ascii	"anch revision 237715] -mcpu=cortex-m3 -mthumb -g -O"
 5068      20726576 
 5068      6973696F 
 5068      6E203233 
 5068      37373135 
 5069 0091 30202D66 		.ascii	"0 -ffunction-sections -ffat-lto-objects\000"
 5069      66756E63 
 5069      74696F6E 
 5069      2D736563 
 5069      74696F6E 
 5070              	.LASF45:
 5071 00b9 42535F49 		.ascii	"BS_IOPINS0_7_VAL\000"
 5071      4F50494E 
 5071      53305F37 
ARM GAS  C:\Users\DGILLI~1\AppData\Local\Temp\ccW7tEoj.s 			page 124


 5071      5F56414C 
 5071      00
 5072              	.LASF31:
 5073 00ca 64617461 		.ascii	"data_table\000"
 5073      5F746162 
 5073      6C6500
 5074              	.LASF9:
 5075 00d5 6C6F6E67 		.ascii	"long long unsigned int\000"
 5075      206C6F6E 
 5075      6720756E 
 5075      7369676E 
 5075      65642069 
 5076              	.LASF60:
 5077 00ec 42535F49 		.ascii	"BS_IOPORT_3_VAL\000"
 5077      4F504F52 
 5077      545F335F 
 5077      56414C00 
 5078              	.LASF30:
 5079 00fc 61646472 		.ascii	"addr_table\000"
 5079      5F746162 
 5079      6C6500
 5080              	.LASF54:
 5081 0107 63795F63 		.ascii	"cy_cfg_data_table\000"
 5081      66675F64 
 5081      6174615F 
 5081      7461626C 
 5081      6500
 5082              	.LASF35:
 5083 0119 42535F43 		.ascii	"BS_CYDEV_CLKDIST_ACFG0_CFG0_VAL\000"
 5083      59444556 
 5083      5F434C4B 
 5083      44495354 
 5083      5F414346 
 5084              	.LASF38:
 5085 0139 416E616C 		.ascii	"AnalogSetDefault\000"
 5085      6F675365 
 5085      74446566 
 5085      61756C74 
 5085      00
 5086              	.LASF1:
 5087 014a 6C6F6E67 		.ascii	"long long int\000"
 5087      206C6F6E 
 5087      6720696E 
 5087      7400
 5088              	.LASF3:
 5089 0158 7369676E 		.ascii	"signed char\000"
 5089      65642063 
 5089      68617200 
 5090              	.LASF53:
 5091 0164 63795F63 		.ascii	"cy_cfg_addr_table\000"
 5091      66675F61 
 5091      6464725F 
 5091      7461626C 
 5091      6500
 5092              	.LASF23:
 5093 0176 43594D45 		.ascii	"CYMEMZERO\000"
 5093      4D5A4552 
ARM GAS  C:\Users\DGILLI~1\AppData\Local\Temp\ccW7tEoj.s 			page 125


 5093      4F00
 5094              	.LASF34:
 5095 0180 436C6F63 		.ascii	"ClockSetup\000"
 5095      6B536574 
 5095      757000
 5096              	.LASF28:
 5097 018b 6572726F 		.ascii	"errorCode\000"
 5097      72436F64 
 5097      6500
 5098              	.LASF50:
 5099 0195 42535F49 		.ascii	"BS_IOPINS0_4_VAL\000"
 5099      4F50494E 
 5099      53305F34 
 5099      5F56414C 
 5099      00
 5100              	.LASF7:
 5101 01a6 6C6F6E67 		.ascii	"long int\000"
 5101      20696E74 
 5101      00
 5102              	.LASF19:
 5103 01af 72656731 		.ascii	"reg16\000"
 5103      3600
 5104              	.LASF13:
 5105 01b5 75696E74 		.ascii	"uint8\000"
 5105      3800
 5106              	.LASF17:
 5107 01bb 646F7562 		.ascii	"double\000"
 5107      6C6500
 5108              	.LASF63:
 5109 01c2 42535F49 		.ascii	"BS_IOPORT_8_VAL\000"
 5109      4F504F52 
 5109      545F385F 
 5109      56414C00 
 5110              	.LASF15:
 5111 01d2 75696E74 		.ascii	"uint32\000"
 5111      333200
 5112              	.LASF33:
 5113 01d9 636F756E 		.ascii	"count\000"
 5113      7400
 5114              	.LASF41:
 5115 01df 72656756 		.ascii	"regValue\000"
 5115      616C7565 
 5115      00
 5116              	.LASF47:
 5117 01e8 42535F49 		.ascii	"BS_IOPINS0_1_VAL\000"
 5117      4F50494E 
 5117      53305F31 
 5117      5F56414C 
 5117      00
 5118              	.LASF21:
 5119 01f9 76616C75 		.ascii	"value\000"
 5119      6500
 5120              	.LASF0:
 5121 01ff 756E7369 		.ascii	"unsigned int\000"
 5121      676E6564 
 5121      20696E74 
 5121      00
ARM GAS  C:\Users\DGILLI~1\AppData\Local\Temp\ccW7tEoj.s 			page 126


 5122              	.LASF67:
 5123 020c 6E756D42 		.ascii	"numBytes\000"
 5123      79746573 
 5123      00
 5124              	.LASF8:
 5125 0215 6C6F6E67 		.ascii	"long unsigned int\000"
 5125      20756E73 
 5125      69676E65 
 5125      6420696E 
 5125      7400
 5126              	.LASF36:
 5127 0227 74696D65 		.ascii	"timeout\000"
 5127      6F757400 
 5128              	.LASF58:
 5129 022f 6366675F 		.ascii	"cfg_memcpy_t\000"
 5129      6D656D63 
 5129      70795F74 
 5129      00
 5130              	.LASF29:
 5131 023c 6366675F 		.ascii	"cfg_write_bytes32\000"
 5131      77726974 
 5131      655F6279 
 5131      74657333 
 5131      3200
 5132              	.LASF56:
 5133 024e 73697A65 		.ascii	"size\000"
 5133      00
 5134              	.LASF6:
 5135 0253 73686F72 		.ascii	"short unsigned int\000"
 5135      7420756E 
 5135      7369676E 
 5135      65642069 
 5135      6E7400
 5136              	.LASF52:
 5137 0266 42535F49 		.ascii	"BS_IOPINS0_6_VAL\000"
 5137      4F50494E 
 5137      53305F36 
 5137      5F56414C 
 5137      00
 5138              	.LASF26:
 5139 0277 4359434F 		.ascii	"CYCONFIGCPYCODE\000"
 5139      4E464947 
 5139      43505943 
 5139      4F444500 
 5140              	.LASF10:
 5141 0287 73697A65 		.ascii	"sizetype\000"
 5141      74797065 
 5141      00
 5142              	.LASF2:
 5143 0290 6C6F6E67 		.ascii	"long double\000"
 5143      20646F75 
 5143      626C6500 
 5144              	.LASF39:
 5145 029c 62675F78 		.ascii	"bg_xover_inl_trim\000"
 5145      6F766572 
 5145      5F696E6C 
 5145      5F747269 
ARM GAS  C:\Users\DGILLI~1\AppData\Local\Temp\ccW7tEoj.s 			page 127


 5145      6D00
 5146              	.LASF57:
 5147 02ae 6366675F 		.ascii	"cfg_memset_t\000"
 5147      6D656D73 
 5147      65745F74 
 5147      00
 5148              	.LASF59:
 5149 02bb 6366675F 		.ascii	"cfg_memset_list\000"
 5149      6D656D73 
 5149      65745F6C 
 5149      69737400 
 5150              	.LASF49:
 5151 02cb 42535F49 		.ascii	"BS_IOPINS0_3_VAL\000"
 5151      4F50494E 
 5151      53305F33 
 5151      5F56414C 
 5151      00
 5152              	.LASF25:
 5153 02dc 64657374 		.ascii	"dest\000"
 5153      00
 5154              	.LASF16:
 5155 02e1 666C6F61 		.ascii	"float\000"
 5155      7400
 5156              	.LASF62:
 5157 02e7 42535F49 		.ascii	"BS_IOPORT_7_VAL\000"
 5157      4F504F52 
 5157      545F375F 
 5157      56414C00 
 5158              	.LASF65:
 5159 02f7 64657374 		.ascii	"destPtr\000"
 5159      50747200 
 5160              	.LASF18:
 5161 02ff 72656738 		.ascii	"reg8\000"
 5161      00
 5162              	.LASF4:
 5163 0304 756E7369 		.ascii	"unsigned char\000"
 5163      676E6564 
 5163      20636861 
 5163      7200
 5164              	.LASF5:
 5165 0312 73686F72 		.ascii	"short int\000"
 5165      7420696E 
 5165      7400
 5166              	.LASF44:
 5167 031c 42535F49 		.ascii	"BS_IOPINS0_0_VAL\000"
 5167      4F50494E 
 5167      53305F30 
 5167      5F56414C 
 5167      00
 5168              	.LASF37:
 5169 032d 706C6C4C 		.ascii	"pllLock\000"
 5169      6F636B00 
 5170              	.LASF46:
 5171 0335 42535F49 		.ascii	"BS_IOPINS0_8_VAL\000"
 5171      4F50494E 
 5171      53305F38 
 5171      5F56414C 
ARM GAS  C:\Users\DGILLI~1\AppData\Local\Temp\ccW7tEoj.s 			page 128


 5171      00
 5172              	.LASF61:
 5173 0346 42535F49 		.ascii	"BS_IOPORT_4_VAL\000"
 5173      4F504F52 
 5173      545F345F 
 5173      56414C00 
 5174              	.LASF22:
 5175 0356 63795F63 		.ascii	"cy_cfg_addrvalue_t\000"
 5175      66675F61 
 5175      64647276 
 5175      616C7565 
 5175      5F7400
 5176              	.LASF11:
 5177 0369 63686172 		.ascii	"char\000"
 5177      00
 5178              	.LASF66:
 5179 036e 73726350 		.ascii	"srcPtr\000"
 5179      747200
 5180              	.LASF42:
 5181 0375 53657441 		.ascii	"SetAnalogRoutingPumps\000"
 5181      6E616C6F 
 5181      67526F75 
 5181      74696E67 
 5181      50756D70 
 5182              	.LASF20:
 5183 038b 6F666673 		.ascii	"offset\000"
 5183      657400
 5184              	.LASF51:
 5185 0392 42535F49 		.ascii	"BS_IOPINS0_5_VAL\000"
 5185      4F50494E 
 5185      53305F35 
 5185      5F56414C 
 5185      00
 5186              	.LASF40:
 5187 03a3 656E6162 		.ascii	"enabled\000"
 5187      6C656400 
 5188              	.LASF70:
 5189 03ab 433A5C55 		.ascii	"C:\\Users\\dgilliland\\Documents\\GitHub\\RPI_PSOC5"
 5189      73657273 
 5189      5C646769 
 5189      6C6C696C 
 5189      616E645C 
 5190 03d9 5C525049 		.ascii	"\\RPI_PSOC5_Serial_01\\RPS_PSOC5_Serial_01.cydsn\000"
 5190      5F50534F 
 5190      43355F53 
 5190      65726961 
 5190      6C5F3031 
 5191              	.LASF24:
 5192 0408 4359434F 		.ascii	"CYCONFIGCPY\000"
 5192      4E464947 
 5192      43505900 
 5193              	.LASF69:
 5194 0414 47656E65 		.ascii	"Generated_Source\\PSoC5\\cyfitter_cfg.c\000"
 5194      72617465 
 5194      645F536F 
 5194      75726365 
 5194      5C50536F 
ARM GAS  C:\Users\DGILLI~1\AppData\Local\Temp\ccW7tEoj.s 			page 129


 5195              	.LASF55:
 5196 043a 61646472 		.ascii	"address\000"
 5196      65737300 
 5197              	.LASF48:
 5198 0442 42535F49 		.ascii	"BS_IOPINS0_2_VAL\000"
 5198      4F50494E 
 5198      53305F32 
 5198      5F56414C 
 5198      00
 5199              	.LASF64:
 5200 0453 6366675F 		.ascii	"cfg_memcpy_list\000"
 5200      6D656D63 
 5200      70795F6C 
 5200      69737400 
 5201              	.LASF43:
 5202 0463 63796669 		.ascii	"cyfitter_cfg\000"
 5202      74746572 
 5202      5F636667 
 5202      00
 5203              		.ident	"GCC: (GNU Tools for ARM Embedded Processors) 5.4.1 20160609 (release) [ARM/embedded-5-bran
