ARM GAS  C:\Users\DGILLI~1\AppData\Local\Temp\cc8fShIz.s 			page 1


   1              		.syntax unified
   2              		.cpu cortex-m3
   3              		.fpu softvfp
   4              		.eabi_attribute 20, 1
   5              		.eabi_attribute 21, 1
   6              		.eabi_attribute 23, 3
   7              		.eabi_attribute 24, 1
   8              		.eabi_attribute 25, 1
   9              		.eabi_attribute 26, 1
  10              		.eabi_attribute 30, 6
  11              		.eabi_attribute 34, 1
  12              		.eabi_attribute 18, 4
  13              		.thumb
  14              		.syntax unified
  15              		.file	"ExtEEPROM.c"
  16              		.text
  17              	.Ltext0:
  18              		.cfi_sections	.debug_frame
  19              		.section	.text.readEEPROM,"ax",%progbits
  20              		.align	2
  21              		.global	readEEPROM
  22              		.thumb
  23              		.thumb_func
  24              		.type	readEEPROM, %function
  25              	readEEPROM:
  26              	.LFB63:
  27              		.file 1 "ExtEEPROM.c"
   1:ExtEEPROM.c   **** /* ========================================
   2:ExtEEPROM.c   ****  *
   3:ExtEEPROM.c   ****  * Copyright LAND BOARDS, LLC, 2019
   4:ExtEEPROM.c   ****  * All Rights Reserved
   5:ExtEEPROM.c   ****  * UNPUBLISHED, LICENSED SOFTWARE.
   6:ExtEEPROM.c   ****  *
   7:ExtEEPROM.c   ****  * CONFIDENTIAL AND PROPRIETARY INFORMATION
   8:ExtEEPROM.c   ****  * WHICH IS THE PROPERTY OF Land Boards.
   9:ExtEEPROM.c   ****  *
  10:ExtEEPROM.c   ****  * ========================================
  11:ExtEEPROM.c   **** */
  12:ExtEEPROM.c   **** 
  13:ExtEEPROM.c   **** #include "ExtEEPROM.h"
  14:ExtEEPROM.c   **** 
  15:ExtEEPROM.c   **** void readEEPROM(char *eepromBuffer)
  16:ExtEEPROM.c   **** {
  28              		.loc 1 16 0
  29              		.cfi_startproc
  30              		@ args = 0, pretend = 0, frame = 16
  31              		@ frame_needed = 1, uses_anonymous_args = 0
  32              		@ link register save eliminated.
  33 0000 80B4     		push	{r7}
  34              		.cfi_def_cfa_offset 4
  35              		.cfi_offset 7, -4
  36 0002 85B0     		sub	sp, sp, #20
  37              		.cfi_def_cfa_offset 24
  38 0004 00AF     		add	r7, sp, #0
  39              		.cfi_def_cfa_register 7
  40 0006 7860     		str	r0, [r7, #4]
  41              	.LBB2:
ARM GAS  C:\Users\DGILLI~1\AppData\Local\Temp\cc8fShIz.s 			page 2


  17:ExtEEPROM.c   ****     for (uint16 val = 0; val < 0x200; val++)
  42              		.loc 1 17 0
  43 0008 0023     		movs	r3, #0
  44 000a FB81     		strh	r3, [r7, #14]	@ movhi
  45 000c 08E0     		b	.L2
  46              	.L3:
  18:ExtEEPROM.c   ****     {
  19:ExtEEPROM.c   ****         eepromBuffer[val] = (char) val;     // Fill with data = lowest 8-bits of address (temporary
  47              		.loc 1 19 0 discriminator 3
  48 000e FB89     		ldrh	r3, [r7, #14]
  49 0010 7A68     		ldr	r2, [r7, #4]
  50 0012 1344     		add	r3, r3, r2
  51 0014 FA89     		ldrh	r2, [r7, #14]	@ movhi
  52 0016 D2B2     		uxtb	r2, r2
  53 0018 1A70     		strb	r2, [r3]
  17:ExtEEPROM.c   ****     for (uint16 val = 0; val < 0x200; val++)
  54              		.loc 1 17 0 discriminator 3
  55 001a FB89     		ldrh	r3, [r7, #14]
  56 001c 0133     		adds	r3, r3, #1
  57 001e FB81     		strh	r3, [r7, #14]	@ movhi
  58              	.L2:
  17:ExtEEPROM.c   ****     for (uint16 val = 0; val < 0x200; val++)
  59              		.loc 1 17 0 is_stmt 0 discriminator 1
  60 0020 FB89     		ldrh	r3, [r7, #14]
  61 0022 B3F5007F 		cmp	r3, #512
  62 0026 F2D3     		bcc	.L3
  63              	.LBE2:
  20:ExtEEPROM.c   ****     }
  21:ExtEEPROM.c   **** }
  64              		.loc 1 21 0 is_stmt 1
  65 0028 00BF     		nop
  66 002a 1437     		adds	r7, r7, #20
  67              		.cfi_def_cfa_offset 4
  68 002c BD46     		mov	sp, r7
  69              		.cfi_def_cfa_register 13
  70              		@ sp needed
  71 002e 80BC     		pop	{r7}
  72              		.cfi_restore 7
  73              		.cfi_def_cfa_offset 0
  74 0030 7047     		bx	lr
  75              		.cfi_endproc
  76              	.LFE63:
  77              		.size	readEEPROM, .-readEEPROM
  78 0032 00BF     		.section	.rodata
  79              		.align	2
  80              	.LC0:
  81 0000 25303478 		.ascii	"%04x\000"
  81      00
  82 0005 000000   		.align	2
  83              	.LC1:
  84 0008 20253032 		.ascii	" %02x\000"
  84      7800
  85 000e 0000     		.align	2
  86              	.LC2:
  87 0010 0A0D00   		.ascii	"\012\015\000"
  88              		.section	.text.dumpEEPROM,"ax",%progbits
  89              		.align	2
ARM GAS  C:\Users\DGILLI~1\AppData\Local\Temp\cc8fShIz.s 			page 3


  90              		.global	dumpEEPROM
  91              		.thumb
  92              		.thumb_func
  93              		.type	dumpEEPROM, %function
  94              	dumpEEPROM:
  95              	.LFB64:
  22:ExtEEPROM.c   **** 
  23:ExtEEPROM.c   **** void dumpEEPROM(char * eepromBuffer)
  24:ExtEEPROM.c   **** {
  96              		.loc 1 24 0
  97              		.cfi_startproc
  98              		@ args = 0, pretend = 0, frame = 88
  99              		@ frame_needed = 1, uses_anonymous_args = 0
 100 0000 80B5     		push	{r7, lr}
 101              		.cfi_def_cfa_offset 8
 102              		.cfi_offset 7, -8
 103              		.cfi_offset 14, -4
 104 0002 96B0     		sub	sp, sp, #88
 105              		.cfi_def_cfa_offset 96
 106 0004 00AF     		add	r7, sp, #0
 107              		.cfi_def_cfa_register 7
 108 0006 7860     		str	r0, [r7, #4]
  25:ExtEEPROM.c   ****     char lineBuffer[8];
  26:ExtEEPROM.c   ****     lineBuffer[0] = 0;
 109              		.loc 1 26 0
 110 0008 0023     		movs	r3, #0
 111 000a 87F84C30 		strb	r3, [r7, #76]
  27:ExtEEPROM.c   ****     uint16 linesLoop = 0;
 112              		.loc 1 27 0
 113 000e 0023     		movs	r3, #0
 114 0010 A7F85630 		strh	r3, [r7, #86]	@ movhi
  28:ExtEEPROM.c   ****     uint16 charsLoop = 0;
 115              		.loc 1 28 0
 116 0014 0023     		movs	r3, #0
 117 0016 A7F85430 		strh	r3, [r7, #84]	@ movhi
  29:ExtEEPROM.c   ****     for (linesLoop = 0; linesLoop < 16; linesLoop++)
 118              		.loc 1 29 0
 119 001a 0023     		movs	r3, #0
 120 001c A7F85630 		strh	r3, [r7, #86]	@ movhi
 121 0020 57E0     		b	.L5
 122              	.L9:
 123              	.LBB3:
  30:ExtEEPROM.c   ****     {
  31:ExtEEPROM.c   ****         char lineString[65];
  32:ExtEEPROM.c   ****         lineString[0] = 0;
 124              		.loc 1 32 0
 125 0022 0023     		movs	r3, #0
 126 0024 3B72     		strb	r3, [r7, #8]
  33:ExtEEPROM.c   ****         sprintf(lineString,"%04x",linesLoop<<4);
 127              		.loc 1 33 0
 128 0026 B7F85630 		ldrh	r3, [r7, #86]
 129 002a 1A01     		lsls	r2, r3, #4
 130 002c 07F10803 		add	r3, r7, #8
 131 0030 2C49     		ldr	r1, .L10
 132 0032 1846     		mov	r0, r3
 133 0034 FFF7FEFF 		bl	sprintf
  34:ExtEEPROM.c   ****         for (charsLoop = 0; charsLoop < 16; charsLoop++)
ARM GAS  C:\Users\DGILLI~1\AppData\Local\Temp\cc8fShIz.s 			page 4


 134              		.loc 1 34 0
 135 0038 0023     		movs	r3, #0
 136 003a A7F85430 		strh	r3, [r7, #84]	@ movhi
 137 003e 1DE0     		b	.L6
 138              	.L7:
  35:ExtEEPROM.c   ****         {
  36:ExtEEPROM.c   ****             sprintf(lineBuffer, " %02x",eepromBuffer[(linesLoop<<4)+charsLoop]);
 139              		.loc 1 36 0 discriminator 3
 140 0040 B7F85630 		ldrh	r3, [r7, #86]
 141 0044 1A01     		lsls	r2, r3, #4
 142 0046 B7F85430 		ldrh	r3, [r7, #84]
 143 004a 1344     		add	r3, r3, r2
 144 004c 1A46     		mov	r2, r3
 145 004e 7B68     		ldr	r3, [r7, #4]
 146 0050 1344     		add	r3, r3, r2
 147 0052 1B78     		ldrb	r3, [r3]	@ zero_extendqisi2
 148 0054 1A46     		mov	r2, r3
 149 0056 07F14C03 		add	r3, r7, #76
 150 005a 2349     		ldr	r1, .L10+4
 151 005c 1846     		mov	r0, r3
 152 005e FFF7FEFF 		bl	sprintf
  37:ExtEEPROM.c   ****             strcat(lineString, lineBuffer);
 153              		.loc 1 37 0 discriminator 3
 154 0062 07F14C02 		add	r2, r7, #76
 155 0066 07F10803 		add	r3, r7, #8
 156 006a 1146     		mov	r1, r2
 157 006c 1846     		mov	r0, r3
 158 006e FFF7FEFF 		bl	strcat
  34:ExtEEPROM.c   ****         for (charsLoop = 0; charsLoop < 16; charsLoop++)
 159              		.loc 1 34 0 discriminator 3
 160 0072 B7F85430 		ldrh	r3, [r7, #84]
 161 0076 0133     		adds	r3, r3, #1
 162 0078 A7F85430 		strh	r3, [r7, #84]	@ movhi
 163              	.L6:
  34:ExtEEPROM.c   ****         for (charsLoop = 0; charsLoop < 16; charsLoop++)
 164              		.loc 1 34 0 is_stmt 0 discriminator 1
 165 007c B7F85430 		ldrh	r3, [r7, #84]
 166 0080 0F2B     		cmp	r3, #15
 167 0082 DDD9     		bls	.L7
  38:ExtEEPROM.c   ****         }
  39:ExtEEPROM.c   ****         strcat(lineString, "\n\r");
 168              		.loc 1 39 0 is_stmt 1
 169 0084 07F10803 		add	r3, r7, #8
 170 0088 1846     		mov	r0, r3
 171 008a FFF7FEFF 		bl	strlen
 172 008e 0346     		mov	r3, r0
 173 0090 1A46     		mov	r2, r3
 174 0092 07F10803 		add	r3, r7, #8
 175 0096 1344     		add	r3, r3, r2
 176 0098 144A     		ldr	r2, .L10+8
 177 009a 1188     		ldrh	r1, [r2]	@ unaligned
 178 009c 9278     		ldrb	r2, [r2, #2]
 179 009e 1980     		strh	r1, [r3]	@ unaligned
 180 00a0 9A70     		strb	r2, [r3, #2]
  40:ExtEEPROM.c   ****         USBUART_PutData(lineString, strlen(lineString));
 181              		.loc 1 40 0
 182 00a2 07F10803 		add	r3, r7, #8
ARM GAS  C:\Users\DGILLI~1\AppData\Local\Temp\cc8fShIz.s 			page 5


 183 00a6 1846     		mov	r0, r3
 184 00a8 FFF7FEFF 		bl	strlen
 185 00ac 0346     		mov	r3, r0
 186 00ae 9AB2     		uxth	r2, r3
 187 00b0 07F10803 		add	r3, r7, #8
 188 00b4 1146     		mov	r1, r2
 189 00b6 1846     		mov	r0, r3
 190 00b8 FFF7FEFF 		bl	USBUART_PutData
  41:ExtEEPROM.c   ****         while (0u == USBUART_CDCIsReady());
 191              		.loc 1 41 0
 192 00bc 00BF     		nop
 193              	.L8:
 194              		.loc 1 41 0 is_stmt 0 discriminator 1
 195 00be FFF7FEFF 		bl	USBUART_CDCIsReady
 196 00c2 0346     		mov	r3, r0
 197 00c4 002B     		cmp	r3, #0
 198 00c6 FAD0     		beq	.L8
 199              	.LBE3:
  29:ExtEEPROM.c   ****     {
 200              		.loc 1 29 0 is_stmt 1 discriminator 2
 201 00c8 B7F85630 		ldrh	r3, [r7, #86]
 202 00cc 0133     		adds	r3, r3, #1
 203 00ce A7F85630 		strh	r3, [r7, #86]	@ movhi
 204              	.L5:
  29:ExtEEPROM.c   ****     {
 205              		.loc 1 29 0 is_stmt 0 discriminator 1
 206 00d2 B7F85630 		ldrh	r3, [r7, #86]
 207 00d6 0F2B     		cmp	r3, #15
 208 00d8 A3D9     		bls	.L9
  42:ExtEEPROM.c   ****     }
  43:ExtEEPROM.c   **** }
 209              		.loc 1 43 0 is_stmt 1
 210 00da 00BF     		nop
 211 00dc 5837     		adds	r7, r7, #88
 212              		.cfi_def_cfa_offset 8
 213 00de BD46     		mov	sp, r7
 214              		.cfi_def_cfa_register 13
 215              		@ sp needed
 216 00e0 80BD     		pop	{r7, pc}
 217              	.L11:
 218 00e2 00BF     		.align	2
 219              	.L10:
 220 00e4 00000000 		.word	.LC0
 221 00e8 08000000 		.word	.LC1
 222 00ec 10000000 		.word	.LC2
 223              		.cfi_endproc
 224              	.LFE64:
 225              		.size	dumpEEPROM, .-dumpEEPROM
 226              		.text
 227              	.Letext0:
 228              		.file 2 "c:\\program files (x86)\\cypress\\psoc creator\\4.2\\psoc creator\\import\\gnu\\arm\\5.4.
 229              		.file 3 "c:\\program files (x86)\\cypress\\psoc creator\\4.2\\psoc creator\\import\\gnu\\arm\\5.4.
 230              		.file 4 "Generated_Source\\PSoC5/cytypes.h"
 231              		.file 5 "<built-in>"
 232              		.file 6 "Generated_Source\\PSoC5/core_cm3.h"