ARM GAS  C:\Users\HPz420\AppData\Local\Temp\ccHbnLmd.s 			page 1


   1              		.syntax unified
   2              		.cpu cortex-m3
   3              		.fpu softvfp
   4              		.eabi_attribute 20, 1
   5              		.eabi_attribute 21, 1
   6              		.eabi_attribute 23, 3
   7              		.eabi_attribute 24, 1
   8              		.eabi_attribute 25, 1
   9              		.eabi_attribute 26, 1
  10              		.eabi_attribute 30, 6
  11              		.eabi_attribute 34, 1
  12              		.eabi_attribute 18, 4
  13              		.thumb
  14              		.syntax unified
  15              		.file	"main.c"
  16              		.text
  17              	.Ltext0:
  18              		.cfi_sections	.debug_frame
  19              		.section	.rodata
  20              		.align	2
  21              	.LC0:
  22 0000 52656164 		.ascii	"Read from the EEPROM\012\015\000"
  22      2066726F 
  22      6D207468 
  22      65204545 
  22      50524F4D 
  23 0017 00       		.align	2
  24              	.LC1:
  25 0018 4D757374 		.ascii	"Must first select card type\012\015\000"
  25      20666972 
  25      73742073 
  25      656C6563 
  25      74206361 
  26 0036 0000     		.align	2
  27              	.LC2:
  28 0038 57726974 		.ascii	"Write to the EEPROM...\000"
  28      6520746F 
  28      20746865 
  28      20454550 
  28      524F4D2E 
  29 004f 00       		.align	2
  30              	.LC3:
  31 0050 436F6D70 		.ascii	"Completed EEPROM write\012\015\000"
  31      6C657465 
  31      64204545 
  31      50524F4D 
  31      20777269 
  32 0069 000000   		.align	2
  33              	.LC4:
  34 006c 426C696E 		.ascii	"Blinking the LEDs on the RPP-UIO-16 card, please wa"
  34      6B696E67 
  34      20746865 
  34      204C4544 
  34      73206F6E 
  35 009f 69740A0D 		.ascii	"it\012\015\000"
  35      00
  36              		.align	2
ARM GAS  C:\Users\HPz420\AppData\Local\Temp\ccHbnLmd.s 			page 2


  37              	.LC5:
  38 00a4 436F6D70 		.ascii	"Completed blinking the LEDs on the RPP-UIO-16 card\012"
  38      6C657465 
  38      6420626C 
  38      696E6B69 
  38      6E672074 
  39 00d7 0D00     		.ascii	"\015\000"
  40 00d9 000000   		.align	2
  41              	.LC6:
  42 00dc 43617264 		.ascii	"Card not yet implemented\012\015\000"
  42      206E6F74 
  42      20796574 
  42      20696D70 
  42      6C656D65 
  43 00f7 00       		.align	2
  44              	.LC7:
  45 00f8 53656C65 		.ascii	"Selected RPP-UIO-16 card\012\015\000"
  45      63746564 
  45      20525050 
  45      2D55494F 
  45      2D313620 
  46 0113 00       		.align	2
  47              	.LC8:
  48 0114 53656C65 		.ascii	"Selected RPPSOC card\012\015\000"
  48      63746564 
  48      20525050 
  48      534F4320 
  48      63617264 
  49 012b 00       		.align	2
  50              	.LC9:
  51 012c 53656C65 		.ascii	"Selected RASPI-PLUS-GVS-CFG card\012\015\000"
  51      63746564 
  51      20524153 
  51      50492D50 
  51      4C55532D 
  52 014f 00       		.align	2
  53              	.LC10:
  54 0150 4C616E64 		.ascii	"Land Boards, LLC - RPi Card Test Station\012\015\000"
  54      20426F61 
  54      7264732C 
  54      204C4C43 
  54      202D2052 
  55 017b 00       		.align	2
  56              	.LC11:
  57 017c 31202D20 		.ascii	"1 - Select RPP-UIO-16 Card\012\015\000"
  57      53656C65 
  57      63742052 
  57      50502D55 
  57      494F2D31 
  58 0199 000000   		.align	2
  59              	.LC12:
  60 019c 32202D20 		.ascii	"2 - Select RPPSOC Card\012\015\000"
  60      53656C65 
  60      63742052 
  60      5050534F 
  60      43204361 
  61 01b5 000000   		.align	2
ARM GAS  C:\Users\HPz420\AppData\Local\Temp\ccHbnLmd.s 			page 3


  62              	.LC13:
  63 01b8 33202D20 		.ascii	"3 - Select RASPI-PLUS-GVS-CFG Card\012\015\000"
  63      53656C65 
  63      63742052 
  63      41535049 
  63      2D504C55 
  64 01dd 000000   		.align	2
  65              	.LC14:
  66 01e0 52202D20 		.ascii	"R - Read EEPROM\012\015\000"
  66      52656164 
  66      20454550 
  66      524F4D0A 
  66      0D00
  67 01f2 0000     		.align	2
  68              	.LC15:
  69 01f4 57202D20 		.ascii	"W - Write EEPROM\012\015\000"
  69      57726974 
  69      65204545 
  69      50524F4D 
  69      0A0D00
  70 0207 00       		.align	2
  71              	.LC16:
  72 0208 42202D20 		.ascii	"B - Bounce LED across Card GPIOs\012\015\000"
  72      426F756E 
  72      6365204C 
  72      45442061 
  72      63726F73 
  73 022b 00       		.align	2
  74              	.LC17:
  75 022c 3F202D20 		.ascii	"? - Print this menu\012\015\000"
  75      5072696E 
  75      74207468 
  75      6973206D 
  75      656E750A 
  76              		.section	.text.main,"ax",%progbits
  77              		.align	2
  78              		.global	main
  79              		.thumb
  80              		.thumb_func
  81              		.type	main, %function
  82              	main:
  83              	.LFB64:
  84              		.file 1 "main.c"
   1:main.c        **** /*******************************************************************************
   2:main.c        **** * File Name: main.c
   3:main.c        **** *
   4:main.c        **** * Version: 2.0
   5:main.c        **** *
   6:main.c        **** * Description:
   7:main.c        **** *   The component is enumerated as a Virtual Com port. Receives data from the 
   8:main.c        **** *   hyper terminal, then sends back the received data.
   9:main.c        **** *
  10:main.c        **** * Related Document:
  11:main.c        **** *  Universal Serial Bus Specification Revision 2.0
  12:main.c        **** *  Universal Serial Bus Class Definitions for Communications Devices
  13:main.c        **** *  Revision 1.2
  14:main.c        **** *
ARM GAS  C:\Users\HPz420\AppData\Local\Temp\ccHbnLmd.s 			page 4


  15:main.c        **** ********************************************************************************
  16:main.c        **** * Copyright 2015, Cypress Semiconductor Corporation. All rights reserved.
  17:main.c        **** * This software is owned by Cypress Semiconductor Corporation and is protected
  18:main.c        **** * by and subject to worldwide patent and copyright laws and treaties.
  19:main.c        **** * Therefore, you may use this software only as provided in the license agreement
  20:main.c        **** * accompanying the software package from which you obtained this software.
  21:main.c        **** * CYPRESS AND ITS SUPPLIERS MAKE NO WARRANTY OF ANY KIND, EXPRESS OR IMPLIED,
  22:main.c        **** * WITH REGARD TO THIS SOFTWARE, INCLUDING, BUT NOT LIMITED TO, NONINFRINGEMENT,
  23:main.c        **** * IMPLIED WARRANTIES OF MERCHANTABILITY AND FITNESS FOR A PARTICULAR PURPOSE.
  24:main.c        **** *******************************************************************************/
  25:main.c        **** 
  26:main.c        **** #include <project.h>
  27:main.c        **** #include "stdio.h"
  28:main.c        **** #include "Test_RPP-UIO_16.h"
  29:main.c        **** #include "ExtEEPROM.h"
  30:main.c        **** #include "EEPROM_Images.h"
  31:main.c        **** 
  32:main.c        **** #if defined (__GNUC__)
  33:main.c        ****     /* Add an explicit reference to the floating point printf library */
  34:main.c        ****     /* to allow usage of the floating point conversion specifiers. */
  35:main.c        ****     /* This is not linked in by default with the newlib-nano library. */
  36:main.c        **** //    asm (".global _printf_float");
  37:main.c        **** #endif
  38:main.c        **** 
  39:main.c        **** #define USBFS_DEVICE    (0u)
  40:main.c        **** 
  41:main.c        **** /* The inBuffer size is equal to the maximum packet size of the IN and OUT bulk
  42:main.c        **** * endpoints.
  43:main.c        **** */
  44:main.c        **** #define USBUART_Buffer_SIZE (64u)
  45:main.c        **** 
  46:main.c        **** void putStringToUSB(char * stringToPutOutUSB);
  47:main.c        **** 
  48:main.c        **** /*******************************************************************************
  49:main.c        **** * Function Name: main
  50:main.c        **** ********************************************************************************
  51:main.c        **** *
  52:main.c        **** * Summary:
  53:main.c        **** *  The main function performs the following actions:
  54:main.c        **** *   1. Waits until VBUS becomes valid and starts the USBFS component which is
  55:main.c        **** *      enumerated as virtual Com port.
  56:main.c        **** *   2. Waits until the device is enumerated by the host.
  57:main.c        **** *   3. Waits for data coming from the hyper terminal
  58:main.c        **** *   4. Parse command.
  59:main.c        **** *
  60:main.c        **** * Parameters:
  61:main.c        **** *  None.
  62:main.c        **** *
  63:main.c        **** * Return:
  64:main.c        **** *  None.
  65:main.c        **** *
  66:main.c        **** *******************************************************************************/
  67:main.c        **** int main()
  68:main.c        **** {
  85              		.loc 1 68 0
  86              		.cfi_startproc
  87              		@ args = 0, pretend = 0, frame = 328
ARM GAS  C:\Users\HPz420\AppData\Local\Temp\ccHbnLmd.s 			page 5


  88              		@ frame_needed = 1, uses_anonymous_args = 0
  89 0000 80B5     		push	{r7, lr}
  90              		.cfi_def_cfa_offset 8
  91              		.cfi_offset 7, -8
  92              		.cfi_offset 14, -4
  93 0002 D2B0     		sub	sp, sp, #328
  94              		.cfi_def_cfa_offset 336
  95 0004 00AF     		add	r7, sp, #0
  96              		.cfi_def_cfa_register 7
  69:main.c        ****     uint16 inCount;
  70:main.c        ****     uint8 inBuffer[USBUART_Buffer_SIZE];
  71:main.c        ****     uint8 eepromBuffer[256];
  72:main.c        ****     uint16 cardType = UNSELECTED_CARD;
  97              		.loc 1 72 0
  98 0006 0023     		movs	r3, #0
  99 0008 A7F84631 		strh	r3, [r7, #326]	@ movhi
  73:main.c        ****         
  74:main.c        ****     CyGlobalIntEnable;
 100              		.loc 1 74 0
 101              		.syntax unified
 102              	@ 74 "main.c" 1
 103 000c 62B6     		CPSIE   i
 104              	@ 0 "" 2
  75:main.c        **** 
  76:main.c        ****     /* Start USBFS operation with 5-V operation. */
  77:main.c        ****     USBUART_Start(USBFS_DEVICE, USBUART_5V_OPERATION);
 105              		.loc 1 77 0
 106              		.thumb
 107              		.syntax unified
 108 000e 0121     		movs	r1, #1
 109 0010 0020     		movs	r0, #0
 110 0012 FFF7FEFF 		bl	USBUART_Start
  78:main.c        **** 
  79:main.c        ****     // enable I2C interrupts
  80:main.c        **** 	I2C_EEPROM_EnableInt();  
 111              		.loc 1 80 0
 112 0016 674B     		ldr	r3, .L23
 113 0018 4FF40042 		mov	r2, #32768
 114 001c 1A60     		str	r2, [r3]
  81:main.c        **** 	//Start I2C
  82:main.c        **** 	I2C_EEPROM_Start(); 
 115              		.loc 1 82 0
 116 001e FFF7FEFF 		bl	I2C_EEPROM_Start
 117              	.L22:
  83:main.c        ****     
  84:main.c        ****     for(;;)
  85:main.c        ****     {
  86:main.c        ****         /* Host can send double SET_INTERFACE request. */
  87:main.c        ****         if (0u != USBUART_IsConfigurationChanged())
 118              		.loc 1 87 0
 119 0022 FFF7FEFF 		bl	USBUART_IsConfigurationChanged
 120 0026 0346     		mov	r3, r0
 121 0028 002B     		cmp	r3, #0
 122 002a 06D0     		beq	.L2
  88:main.c        ****         {
  89:main.c        ****             /* Initialize IN endpoints when device is configured. */
  90:main.c        ****             if (0u != USBUART_GetConfiguration())
ARM GAS  C:\Users\HPz420\AppData\Local\Temp\ccHbnLmd.s 			page 6


 123              		.loc 1 90 0
 124 002c FFF7FEFF 		bl	USBUART_GetConfiguration
 125 0030 0346     		mov	r3, r0
 126 0032 002B     		cmp	r3, #0
 127 0034 01D0     		beq	.L2
  91:main.c        ****             {
  92:main.c        ****                 /* Enumeration is done, enable OUT endpoint to receive data 
  93:main.c        ****                  * from host. */
  94:main.c        ****                 USBUART_CDC_Init();
 128              		.loc 1 94 0
 129 0036 FFF7FEFF 		bl	USBUART_CDC_Init
 130              	.L2:
  95:main.c        ****             }
  96:main.c        ****         }
  97:main.c        **** 
  98:main.c        ****         /* Service USB CDC when device is configured. */
  99:main.c        ****         if (0u != USBUART_GetConfiguration())
 131              		.loc 1 99 0
 132 003a FFF7FEFF 		bl	USBUART_GetConfiguration
 133 003e 0346     		mov	r3, r0
 134 0040 002B     		cmp	r3, #0
 135 0042 EED0     		beq	.L22
 100:main.c        ****         {
 101:main.c        ****             /* Check for input data from host. */
 102:main.c        ****             if (0u != USBUART_DataIsReady())
 136              		.loc 1 102 0
 137 0044 FFF7FEFF 		bl	USBUART_DataIsReady
 138 0048 0346     		mov	r3, r0
 139 004a 002B     		cmp	r3, #0
 140 004c E9D0     		beq	.L22
 103:main.c        ****             {
 104:main.c        ****                 /* Read received data and re-enable OUT endpoint. */
 105:main.c        ****                 inCount = USBUART_GetAll(inBuffer);
 141              		.loc 1 105 0
 142 004e 07F58273 		add	r3, r7, #260
 143 0052 1846     		mov	r0, r3
 144 0054 FFF7FEFF 		bl	USBUART_GetAll
 145 0058 0346     		mov	r3, r0
 146 005a A7F84431 		strh	r3, [r7, #324]	@ movhi
 106:main.c        **** 
 107:main.c        ****                 if (0u != inCount)
 147              		.loc 1 107 0
 148 005e B7F84431 		ldrh	r3, [r7, #324]
 149 0062 002B     		cmp	r3, #0
 150 0064 DDD0     		beq	.L22
 108:main.c        ****                 {
 109:main.c        ****                     /* Wait until component is ready to send data to host. */
 110:main.c        ****                     while (0u == USBUART_CDCIsReady());
 151              		.loc 1 110 0
 152 0066 00BF     		nop
 153              	.L4:
 154              		.loc 1 110 0 is_stmt 0 discriminator 1
 155 0068 FFF7FEFF 		bl	USBUART_CDCIsReady
 156 006c 0346     		mov	r3, r0
 157 006e 002B     		cmp	r3, #0
 158 0070 FAD0     		beq	.L4
 111:main.c        ****                     if ((inBuffer[0] == 'r') || (inBuffer[0] == 'R'))
ARM GAS  C:\Users\HPz420\AppData\Local\Temp\ccHbnLmd.s 			page 7


 159              		.loc 1 111 0 is_stmt 1
 160 0072 97F80431 		ldrb	r3, [r7, #260]	@ zero_extendqisi2
 161 0076 722B     		cmp	r3, #114
 162 0078 03D0     		beq	.L5
 163              		.loc 1 111 0 is_stmt 0 discriminator 1
 164 007a 97F80431 		ldrb	r3, [r7, #260]	@ zero_extendqisi2
 165 007e 522B     		cmp	r3, #82
 166 0080 11D1     		bne	.L6
 167              	.L5:
 112:main.c        ****                     {
 113:main.c        ****                         putStringToUSB("Read from the EEPROM\n\r");
 168              		.loc 1 113 0 is_stmt 1
 169 0082 4D48     		ldr	r0, .L23+4
 170 0084 FFF7FEFF 		bl	putStringToUSB
 114:main.c        ****                         readEEPROM(eepromBuffer);
 171              		.loc 1 114 0
 172 0088 3B1D     		adds	r3, r7, #4
 173 008a 1846     		mov	r0, r3
 174 008c FFF7FEFF 		bl	readEEPROM
 115:main.c        ****                         dumpEEPROM(eepromBuffer);
 175              		.loc 1 115 0
 176 0090 3B1D     		adds	r3, r7, #4
 177 0092 1846     		mov	r0, r3
 178 0094 FFF7FEFF 		bl	dumpEEPROM
 116:main.c        ****                         while (0u == USBUART_CDCIsReady());
 179              		.loc 1 116 0
 180 0098 00BF     		nop
 181              	.L7:
 182              		.loc 1 116 0 is_stmt 0 discriminator 1
 183 009a FFF7FEFF 		bl	USBUART_CDCIsReady
 184 009e 0346     		mov	r3, r0
 185 00a0 002B     		cmp	r3, #0
 186 00a2 FAD0     		beq	.L7
 111:main.c        ****                     {
 187              		.loc 1 111 0 is_stmt 1
 188 00a4 75E0     		b	.L8
 189              	.L6:
 117:main.c        ****                     }
 118:main.c        ****                     else if ((inBuffer[0] == 'w') || (inBuffer[0] == 'W'))
 190              		.loc 1 118 0
 191 00a6 97F80431 		ldrb	r3, [r7, #260]	@ zero_extendqisi2
 192 00aa 772B     		cmp	r3, #119
 193 00ac 03D0     		beq	.L9
 194              		.loc 1 118 0 is_stmt 0 discriminator 1
 195 00ae 97F80431 		ldrb	r3, [r7, #260]	@ zero_extendqisi2
 196 00b2 572B     		cmp	r3, #87
 197 00b4 13D1     		bne	.L10
 198              	.L9:
 119:main.c        ****                     {
 120:main.c        ****                         if (cardType == UNSELECTED_CARD)
 199              		.loc 1 120 0 is_stmt 1
 200 00b6 B7F84631 		ldrh	r3, [r7, #326]
 201 00ba 002B     		cmp	r3, #0
 202 00bc 03D1     		bne	.L11
 121:main.c        ****                         {
 122:main.c        ****                             putStringToUSB("Must first select card type\n\r");
 203              		.loc 1 122 0
ARM GAS  C:\Users\HPz420\AppData\Local\Temp\ccHbnLmd.s 			page 8


 204 00be 3F48     		ldr	r0, .L23+8
 205 00c0 FFF7FEFF 		bl	putStringToUSB
 120:main.c        ****                         {
 206              		.loc 1 120 0
 207 00c4 65E0     		b	.L8
 208              	.L11:
 123:main.c        ****                         }
 124:main.c        ****                         else
 125:main.c        ****                         {
 126:main.c        ****                             putStringToUSB("Write to the EEPROM...");
 209              		.loc 1 126 0
 210 00c6 3E48     		ldr	r0, .L23+12
 211 00c8 FFF7FEFF 		bl	putStringToUSB
 127:main.c        ****                             writeEEPROM(cardType);
 212              		.loc 1 127 0
 213 00cc B7F84631 		ldrh	r3, [r7, #326]
 214 00d0 1846     		mov	r0, r3
 215 00d2 FFF7FEFF 		bl	writeEEPROM
 128:main.c        ****                             putStringToUSB("Completed EEPROM write\n\r");
 216              		.loc 1 128 0
 217 00d6 3B48     		ldr	r0, .L23+16
 218 00d8 FFF7FEFF 		bl	putStringToUSB
 120:main.c        ****                         {
 219              		.loc 1 120 0
 220 00dc 59E0     		b	.L8
 221              	.L10:
 129:main.c        ****                         }
 130:main.c        ****                     }
 131:main.c        ****                     else if ((inBuffer[0] == 'b') || (inBuffer[0] == 'B'))
 222              		.loc 1 131 0
 223 00de 97F80431 		ldrb	r3, [r7, #260]	@ zero_extendqisi2
 224 00e2 622B     		cmp	r3, #98
 225 00e4 03D0     		beq	.L13
 226              		.loc 1 131 0 is_stmt 0 discriminator 1
 227 00e6 97F80431 		ldrb	r3, [r7, #260]	@ zero_extendqisi2
 228 00ea 422B     		cmp	r3, #66
 229 00ec 18D1     		bne	.L14
 230              	.L13:
 132:main.c        ****                     {
 133:main.c        ****                         if (cardType == UNSELECTED_CARD)
 231              		.loc 1 133 0 is_stmt 1
 232 00ee B7F84631 		ldrh	r3, [r7, #326]
 233 00f2 002B     		cmp	r3, #0
 234 00f4 03D1     		bne	.L15
 134:main.c        ****                         {
 135:main.c        ****                             putStringToUSB("Must first select card type\n\r");
 235              		.loc 1 135 0
 236 00f6 3148     		ldr	r0, .L23+8
 237 00f8 FFF7FEFF 		bl	putStringToUSB
 133:main.c        ****                         {
 238              		.loc 1 133 0
 239 00fc 49E0     		b	.L8
 240              	.L15:
 136:main.c        ****                         }
 137:main.c        ****                         else if (cardType == RPPUIO16)
 241              		.loc 1 137 0
 242 00fe B7F84631 		ldrh	r3, [r7, #326]
ARM GAS  C:\Users\HPz420\AppData\Local\Temp\ccHbnLmd.s 			page 9


 243 0102 012B     		cmp	r3, #1
 244 0104 08D1     		bne	.L17
 138:main.c        ****                         {
 139:main.c        ****                             putStringToUSB("Blinking the LEDs on the RPP-UIO-16 card, please wait\n
 245              		.loc 1 139 0
 246 0106 3048     		ldr	r0, .L23+20
 247 0108 FFF7FEFF 		bl	putStringToUSB
 140:main.c        ****                             testRPPUIO16();
 248              		.loc 1 140 0
 249 010c FFF7FEFF 		bl	testRPPUIO16
 141:main.c        ****                             putStringToUSB("Completed blinking the LEDs on the RPP-UIO-16 card\n\r"
 250              		.loc 1 141 0
 251 0110 2E48     		ldr	r0, .L23+24
 252 0112 FFF7FEFF 		bl	putStringToUSB
 133:main.c        ****                         {
 253              		.loc 1 133 0
 254 0116 3CE0     		b	.L8
 255              	.L17:
 142:main.c        ****                         }
 143:main.c        ****                         else
 144:main.c        ****                         {
 145:main.c        ****                             putStringToUSB("Card not yet implemented\n\r");
 256              		.loc 1 145 0
 257 0118 2D48     		ldr	r0, .L23+28
 258 011a FFF7FEFF 		bl	putStringToUSB
 133:main.c        ****                         {
 259              		.loc 1 133 0
 260 011e 38E0     		b	.L8
 261              	.L14:
 146:main.c        ****                         }
 147:main.c        ****                     }
 148:main.c        ****                     else if (inBuffer[0] == '1')
 262              		.loc 1 148 0
 263 0120 97F80431 		ldrb	r3, [r7, #260]	@ zero_extendqisi2
 264 0124 312B     		cmp	r3, #49
 265 0126 06D1     		bne	.L18
 149:main.c        ****                     {
 150:main.c        ****                         cardType = RPPUIO16;
 266              		.loc 1 150 0
 267 0128 0123     		movs	r3, #1
 268 012a A7F84631 		strh	r3, [r7, #326]	@ movhi
 151:main.c        ****                         putStringToUSB("Selected RPP-UIO-16 card\n\r");
 269              		.loc 1 151 0
 270 012e 2948     		ldr	r0, .L23+32
 271 0130 FFF7FEFF 		bl	putStringToUSB
 272 0134 2DE0     		b	.L8
 273              	.L18:
 152:main.c        ****                     }
 153:main.c        ****                     else if (inBuffer[0] == '2')
 274              		.loc 1 153 0
 275 0136 97F80431 		ldrb	r3, [r7, #260]	@ zero_extendqisi2
 276 013a 322B     		cmp	r3, #50
 277 013c 06D1     		bne	.L19
 154:main.c        ****                     {
 155:main.c        ****                         cardType = RPPSOC;
 278              		.loc 1 155 0
 279 013e 0323     		movs	r3, #3
ARM GAS  C:\Users\HPz420\AppData\Local\Temp\ccHbnLmd.s 			page 10


 280 0140 A7F84631 		strh	r3, [r7, #326]	@ movhi
 156:main.c        ****                         putStringToUSB("Selected RPPSOC card\n\r");
 281              		.loc 1 156 0
 282 0144 2448     		ldr	r0, .L23+36
 283 0146 FFF7FEFF 		bl	putStringToUSB
 284 014a 22E0     		b	.L8
 285              	.L19:
 157:main.c        ****                     }
 158:main.c        ****                     else if (inBuffer[0] == '3')
 286              		.loc 1 158 0
 287 014c 97F80431 		ldrb	r3, [r7, #260]	@ zero_extendqisi2
 288 0150 332B     		cmp	r3, #51
 289 0152 06D1     		bne	.L20
 159:main.c        ****                     {
 160:main.c        ****                         cardType = RPPGVSCFG;
 290              		.loc 1 160 0
 291 0154 0223     		movs	r3, #2
 292 0156 A7F84631 		strh	r3, [r7, #326]	@ movhi
 161:main.c        ****                         putStringToUSB("Selected RASPI-PLUS-GVS-CFG card\n\r");
 293              		.loc 1 161 0
 294 015a 2048     		ldr	r0, .L23+40
 295 015c FFF7FEFF 		bl	putStringToUSB
 296 0160 17E0     		b	.L8
 297              	.L20:
 162:main.c        ****                     }
 163:main.c        ****                     else
 164:main.c        ****                     {
 165:main.c        ****                         putStringToUSB("Land Boards, LLC - RPi Card Test Station\n\r");
 298              		.loc 1 165 0
 299 0162 1F48     		ldr	r0, .L23+44
 300 0164 FFF7FEFF 		bl	putStringToUSB
 166:main.c        ****                         putStringToUSB("1 - Select RPP-UIO-16 Card\n\r");
 301              		.loc 1 166 0
 302 0168 1E48     		ldr	r0, .L23+48
 303 016a FFF7FEFF 		bl	putStringToUSB
 167:main.c        ****                         putStringToUSB("2 - Select RPPSOC Card\n\r");
 304              		.loc 1 167 0
 305 016e 1E48     		ldr	r0, .L23+52
 306 0170 FFF7FEFF 		bl	putStringToUSB
 168:main.c        ****                         putStringToUSB("3 - Select RASPI-PLUS-GVS-CFG Card\n\r");
 307              		.loc 1 168 0
 308 0174 1D48     		ldr	r0, .L23+56
 309 0176 FFF7FEFF 		bl	putStringToUSB
 169:main.c        ****                         putStringToUSB("R - Read EEPROM\n\r");
 310              		.loc 1 169 0
 311 017a 1D48     		ldr	r0, .L23+60
 312 017c FFF7FEFF 		bl	putStringToUSB
 170:main.c        ****                         putStringToUSB("W - Write EEPROM\n\r");
 313              		.loc 1 170 0
 314 0180 1C48     		ldr	r0, .L23+64
 315 0182 FFF7FEFF 		bl	putStringToUSB
 171:main.c        ****                         putStringToUSB("B - Bounce LED across Card GPIOs\n\r");
 316              		.loc 1 171 0
 317 0186 1C48     		ldr	r0, .L23+68
 318 0188 FFF7FEFF 		bl	putStringToUSB
 172:main.c        ****                         putStringToUSB("? - Print this menu\n\r");
 319              		.loc 1 172 0
ARM GAS  C:\Users\HPz420\AppData\Local\Temp\ccHbnLmd.s 			page 11


 320 018c 1B48     		ldr	r0, .L23+72
 321 018e FFF7FEFF 		bl	putStringToUSB
 322              	.L8:
 173:main.c        ****                     }
 174:main.c        ****                     /* If the last sent packet is exactly the maximum packet 
 175:main.c        ****                     *  size, it is followed by a zero-length packet to assure
 176:main.c        ****                     *  that the end of the segment is properly identified by 
 177:main.c        ****                     *  the terminal.
 178:main.c        ****                     */
 179:main.c        ****                     if (USBUART_Buffer_SIZE == inCount)
 323              		.loc 1 179 0
 324 0192 B7F84431 		ldrh	r3, [r7, #324]
 325 0196 402B     		cmp	r3, #64
 326 0198 7FF443AF 		bne	.L22
 180:main.c        ****                     {
 181:main.c        ****                         /* Wait until component is ready to send data to PC. */
 182:main.c        ****                         while (0u == USBUART_CDCIsReady())
 327              		.loc 1 182 0
 328 019c 00BF     		nop
 329              	.L21:
 330              		.loc 1 182 0 is_stmt 0 discriminator 1
 331 019e FFF7FEFF 		bl	USBUART_CDCIsReady
 332 01a2 0346     		mov	r3, r0
 333 01a4 002B     		cmp	r3, #0
 334 01a6 FAD0     		beq	.L21
 183:main.c        ****                         {
 184:main.c        ****                         }
 185:main.c        **** 
 186:main.c        ****                         /* Send zero-length packet to PC. */
 187:main.c        ****                         USBUART_PutData(NULL, 0u);
 335              		.loc 1 187 0 is_stmt 1
 336 01a8 0021     		movs	r1, #0
 337 01aa 0020     		movs	r0, #0
 338 01ac FFF7FEFF 		bl	USBUART_PutData
 188:main.c        ****                     }
 189:main.c        ****                 }
 190:main.c        ****             }
 191:main.c        ****         }
 192:main.c        ****     }
 339              		.loc 1 192 0
 340 01b0 37E7     		b	.L22
 341              	.L24:
 342 01b2 00BF     		.align	2
 343              	.L23:
 344 01b4 00E100E0 		.word	-536813312
 345 01b8 00000000 		.word	.LC0
 346 01bc 18000000 		.word	.LC1
 347 01c0 38000000 		.word	.LC2
 348 01c4 50000000 		.word	.LC3
 349 01c8 6C000000 		.word	.LC4
 350 01cc A4000000 		.word	.LC5
 351 01d0 DC000000 		.word	.LC6
 352 01d4 F8000000 		.word	.LC7
 353 01d8 14010000 		.word	.LC8
 354 01dc 2C010000 		.word	.LC9
 355 01e0 50010000 		.word	.LC10
 356 01e4 7C010000 		.word	.LC11
ARM GAS  C:\Users\HPz420\AppData\Local\Temp\ccHbnLmd.s 			page 12


 357 01e8 9C010000 		.word	.LC12
 358 01ec B8010000 		.word	.LC13
 359 01f0 E0010000 		.word	.LC14
 360 01f4 F4010000 		.word	.LC15
 361 01f8 08020000 		.word	.LC16
 362 01fc 2C020000 		.word	.LC17
 363              		.cfi_endproc
 364              	.LFE64:
 365              		.size	main, .-main
 366              		.section	.text.putStringToUSB,"ax",%progbits
 367              		.align	2
 368              		.global	putStringToUSB
 369              		.thumb
 370              		.thumb_func
 371              		.type	putStringToUSB, %function
 372              	putStringToUSB:
 373              	.LFB65:
 193:main.c        **** }
 194:main.c        **** 
 195:main.c        **** void putStringToUSB(char * stringToPutOutUSB)
 196:main.c        **** {
 374              		.loc 1 196 0
 375              		.cfi_startproc
 376              		@ args = 0, pretend = 0, frame = 8
 377              		@ frame_needed = 1, uses_anonymous_args = 0
 378 0000 80B5     		push	{r7, lr}
 379              		.cfi_def_cfa_offset 8
 380              		.cfi_offset 7, -8
 381              		.cfi_offset 14, -4
 382 0002 82B0     		sub	sp, sp, #8
 383              		.cfi_def_cfa_offset 16
 384 0004 00AF     		add	r7, sp, #0
 385              		.cfi_def_cfa_register 7
 386 0006 7860     		str	r0, [r7, #4]
 197:main.c        ****     USBUART_PutData((uint8 *)stringToPutOutUSB, strlen(stringToPutOutUSB));
 387              		.loc 1 197 0
 388 0008 7868     		ldr	r0, [r7, #4]
 389 000a FFF7FEFF 		bl	strlen
 390 000e 0346     		mov	r3, r0
 391 0010 9BB2     		uxth	r3, r3
 392 0012 1946     		mov	r1, r3
 393 0014 7868     		ldr	r0, [r7, #4]
 394 0016 FFF7FEFF 		bl	USBUART_PutData
 198:main.c        ****     while (0u == USBUART_CDCIsReady());
 395              		.loc 1 198 0
 396 001a 00BF     		nop
 397              	.L26:
 398              		.loc 1 198 0 is_stmt 0 discriminator 1
 399 001c FFF7FEFF 		bl	USBUART_CDCIsReady
 400 0020 0346     		mov	r3, r0
 401 0022 002B     		cmp	r3, #0
 402 0024 FAD0     		beq	.L26
 199:main.c        **** }
 403              		.loc 1 199 0 is_stmt 1
 404 0026 00BF     		nop
 405 0028 0837     		adds	r7, r7, #8
 406              		.cfi_def_cfa_offset 8
ARM GAS  C:\Users\HPz420\AppData\Local\Temp\ccHbnLmd.s 			page 13


 407 002a BD46     		mov	sp, r7
 408              		.cfi_def_cfa_register 13
 409              		@ sp needed
 410 002c 80BD     		pop	{r7, pc}
 411              		.cfi_endproc
 412              	.LFE65:
 413              		.size	putStringToUSB, .-putStringToUSB
 414              		.text
 415              	.Letext0:
 416              		.file 2 "c:\\program files (x86)\\cypress\\psoc creator\\4.2\\psoc creator\\import\\gnu\\arm\\5.4.
 417              		.file 3 "c:\\program files (x86)\\cypress\\psoc creator\\4.2\\psoc creator\\import\\gnu\\arm\\5.4.
 418              		.file 4 "Generated_Source\\PSoC5/cytypes.h"
 419              		.file 5 "EEPROM_Images.h"
 420              		.file 6 "Generated_Source\\PSoC5/core_cm3.h"