ARM GAS  C:\Users\doug_000\AppData\Local\Temp\ccT7HEp7.s 			page 1


   1              		.syntax unified
   2              		.cpu cortex-m3
   3              		.fpu softvfp
   4              		.eabi_attribute 20, 1
   5              		.eabi_attribute 21, 1
   6              		.eabi_attribute 23, 3
   7              		.eabi_attribute 24, 1
   8              		.eabi_attribute 25, 1
   9              		.eabi_attribute 26, 1
  10              		.eabi_attribute 30, 6
  11              		.eabi_attribute 34, 1
  12              		.eabi_attribute 18, 4
  13              		.thumb
  14              		.syntax unified
  15              		.file	"PSoC_Menu.c"
  16              		.text
  17              	.Ltext0:
  18              		.cfi_sections	.debug_frame
  19              		.comm	receiveBuffer,80,4
  20              		.comm	receiveBufferPtr,1,1
  21              		.comm	gotCRorLF,1,1
  22              		.global	cardType
  23              		.bss
  24              		.align	1
  25              		.type	cardType, %object
  26              		.size	cardType, 2
  27              	cardType:
  28 0000 0000     		.space	2
  29              		.section	.rodata
  30              		.align	2
  31              	.LC0:
  32 0000 0A0D4C61 		.ascii	"\012\015Land Boards, LLC - RPi Card Test Station\012"
  32      6E642042 
  32      6F617264 
  32      732C204C 
  32      4C43202D 
  33 002b 0D00     		.ascii	"\015\000"
  34 002d 000000   		.align	2
  35              	.LC1:
  36 0030 31202D20 		.ascii	"1 - Select RPP-UIO-16 Card\012\015\000"
  36      53656C65 
  36      63742052 
  36      50502D55 
  36      494F2D31 
  37 004d 000000   		.align	2
  38              	.LC2:
  39 0050 32202D20 		.ascii	"2 - Select RPPSOC Card\012\015\000"
  39      53656C65 
  39      63742052 
  39      5050534F 
  39      43204361 
  40 0069 000000   		.align	2
  41              	.LC3:
  42 006c 33202D20 		.ascii	"3 - Select RASPI-PLUS-GVS-CFG Card\012\015\000"
  42      53656C65 
  42      63742052 
  42      41535049 
ARM GAS  C:\Users\doug_000\AppData\Local\Temp\ccT7HEp7.s 			page 2


  42      2D504C55 
  43 0091 000000   		.align	2
  44              	.LC4:
  45 0094 34202D20 		.ascii	"4 - Select RASPI-GVS Card\012\015\000"
  45      53656C65 
  45      63742052 
  45      41535049 
  45      2D475653 
  46              		.align	2
  47              	.LC5:
  48 00b0 35202D20 		.ascii	"5 - Select RASPI-PLUS-GVS Card\012\015\000"
  48      53656C65 
  48      63742052 
  48      41535049 
  48      2D504C55 
  49 00d1 000000   		.align	2
  50              	.LC6:
  51 00d4 36202D20 		.ascii	"6 - Select RPI-I2C-HUB Card\012\015\000"
  51      53656C65 
  51      63742052 
  51      50492D49 
  51      32432D48 
  52 00f2 0000     		.align	2
  53              	.LC7:
  54 00f4 52202D20 		.ascii	"R - Read EEPROM\012\015\000"
  54      52656164 
  54      20454550 
  54      524F4D0A 
  54      0D00
  55 0106 0000     		.align	2
  56              	.LC8:
  57 0108 57202D20 		.ascii	"W - Write EEPROM\012\015\000"
  57      57726974 
  57      65204545 
  57      50524F4D 
  57      0A0D00
  58 011b 00       		.align	2
  59              	.LC9:
  60 011c 42202D20 		.ascii	"B - Bounce LED across Card GPIOs\012\015\000"
  60      426F756E 
  60      6365204C 
  60      45442061 
  60      63726F73 
  61 013f 00       		.align	2
  62              	.LC10:
  63 0140 3F202D20 		.ascii	"? - Print this menu\012\015\000"
  63      5072696E 
  63      74207468 
  63      6973206D 
  63      656E750A 
  64              		.section	.text.printMenuOptions,"ax",%progbits
  65              		.align	2
  66              		.global	printMenuOptions
  67              		.thumb
  68              		.thumb_func
  69              		.type	printMenuOptions, %function
  70              	printMenuOptions:
ARM GAS  C:\Users\doug_000\AppData\Local\Temp\ccT7HEp7.s 			page 3


  71              	.LFB63:
  72              		.file 1 "PSoC_Menu.c"
   1:PSoC_Menu.c   **** /* ========================================
   2:PSoC_Menu.c   ****  *
   3:PSoC_Menu.c   ****  * Copyright LAND BOARDS, LLC, 2019
   4:PSoC_Menu.c   ****  * All Rights Reserved
   5:PSoC_Menu.c   ****  * UNPUBLISHED, LICENSED SOFTWARE.
   6:PSoC_Menu.c   ****  *
   7:PSoC_Menu.c   ****  * CONFIDENTIAL AND PROPRIETARY INFORMATION
   8:PSoC_Menu.c   ****  * WHICH IS THE PROPERTY OF Land Boards.
   9:PSoC_Menu.c   ****  *
  10:PSoC_Menu.c   ****  * ========================================
  11:PSoC_Menu.c   **** */
  12:PSoC_Menu.c   **** 
  13:PSoC_Menu.c   **** #include <project.h>
  14:PSoC_Menu.c   **** #include "RPI_PSOC5.h"
  15:PSoC_Menu.c   **** 
  16:PSoC_Menu.c   **** uint8 receiveBuffer[80];
  17:PSoC_Menu.c   **** uint8 receiveBufferPtr;
  18:PSoC_Menu.c   **** uint8 gotCRorLF;
  19:PSoC_Menu.c   **** uint16 cardType = UNSELECTED_CARD;
  20:PSoC_Menu.c   **** 
  21:PSoC_Menu.c   **** ////////////////////////////////////////////////////////////////////////////
  22:PSoC_Menu.c   **** // void printMenu(void) - Print the menu
  23:PSoC_Menu.c   **** 
  24:PSoC_Menu.c   **** void printMenuOptions(void)
  25:PSoC_Menu.c   **** {
  73              		.loc 1 25 0
  74              		.cfi_startproc
  75              		@ args = 0, pretend = 0, frame = 0
  76              		@ frame_needed = 1, uses_anonymous_args = 0
  77 0000 80B5     		push	{r7, lr}
  78              		.cfi_def_cfa_offset 8
  79              		.cfi_offset 7, -8
  80              		.cfi_offset 14, -4
  81 0002 00AF     		add	r7, sp, #0
  82              		.cfi_def_cfa_register 7
  26:PSoC_Menu.c   ****     putStringToUSB("\n\rLand Boards, LLC - RPi Card Test Station\n\r");
  83              		.loc 1 26 0
  84 0004 1148     		ldr	r0, .L2
  85 0006 FFF7FEFF 		bl	putStringToUSB
  27:PSoC_Menu.c   ****     putStringToUSB("1 - Select RPP-UIO-16 Card\n\r");
  86              		.loc 1 27 0
  87 000a 1148     		ldr	r0, .L2+4
  88 000c FFF7FEFF 		bl	putStringToUSB
  28:PSoC_Menu.c   ****     putStringToUSB("2 - Select RPPSOC Card\n\r");
  89              		.loc 1 28 0
  90 0010 1048     		ldr	r0, .L2+8
  91 0012 FFF7FEFF 		bl	putStringToUSB
  29:PSoC_Menu.c   ****     putStringToUSB("3 - Select RASPI-PLUS-GVS-CFG Card\n\r");
  92              		.loc 1 29 0
  93 0016 1048     		ldr	r0, .L2+12
  94 0018 FFF7FEFF 		bl	putStringToUSB
  30:PSoC_Menu.c   ****     putStringToUSB("4 - Select RASPI-GVS Card\n\r");
  95              		.loc 1 30 0
  96 001c 0F48     		ldr	r0, .L2+16
  97 001e FFF7FEFF 		bl	putStringToUSB
ARM GAS  C:\Users\doug_000\AppData\Local\Temp\ccT7HEp7.s 			page 4


  31:PSoC_Menu.c   ****     putStringToUSB("5 - Select RASPI-PLUS-GVS Card\n\r");
  98              		.loc 1 31 0
  99 0022 0F48     		ldr	r0, .L2+20
 100 0024 FFF7FEFF 		bl	putStringToUSB
  32:PSoC_Menu.c   ****     putStringToUSB("6 - Select RPI-I2C-HUB Card\n\r");
 101              		.loc 1 32 0
 102 0028 0E48     		ldr	r0, .L2+24
 103 002a FFF7FEFF 		bl	putStringToUSB
  33:PSoC_Menu.c   ****     putStringToUSB("R - Read EEPROM\n\r");
 104              		.loc 1 33 0
 105 002e 0E48     		ldr	r0, .L2+28
 106 0030 FFF7FEFF 		bl	putStringToUSB
  34:PSoC_Menu.c   ****     putStringToUSB("W - Write EEPROM\n\r");
 107              		.loc 1 34 0
 108 0034 0D48     		ldr	r0, .L2+32
 109 0036 FFF7FEFF 		bl	putStringToUSB
  35:PSoC_Menu.c   ****     putStringToUSB("B - Bounce LED across Card GPIOs\n\r");
 110              		.loc 1 35 0
 111 003a 0D48     		ldr	r0, .L2+36
 112 003c FFF7FEFF 		bl	putStringToUSB
  36:PSoC_Menu.c   ****     putStringToUSB("? - Print this menu\n\r");
 113              		.loc 1 36 0
 114 0040 0C48     		ldr	r0, .L2+40
 115 0042 FFF7FEFF 		bl	putStringToUSB
  37:PSoC_Menu.c   **** }
 116              		.loc 1 37 0
 117 0046 00BF     		nop
 118 0048 80BD     		pop	{r7, pc}
 119              	.L3:
 120 004a 00BF     		.align	2
 121              	.L2:
 122 004c 00000000 		.word	.LC0
 123 0050 30000000 		.word	.LC1
 124 0054 50000000 		.word	.LC2
 125 0058 6C000000 		.word	.LC3
 126 005c 94000000 		.word	.LC4
 127 0060 B0000000 		.word	.LC5
 128 0064 D4000000 		.word	.LC6
 129 0068 F4000000 		.word	.LC7
 130 006c 08010000 		.word	.LC8
 131 0070 1C010000 		.word	.LC9
 132 0074 40010000 		.word	.LC10
 133              		.cfi_endproc
 134              	.LFE63:
 135              		.size	printMenuOptions, .-printMenuOptions
 136              		.section	.rodata
 137 0156 0000     		.align	2
 138              	.LC11:
 139 0158 52656164 		.ascii	"Read from the EEPROM\012\015\000"
 139      2066726F 
 139      6D207468 
 139      65204545 
 139      50524F4D 
 140 016f 00       		.align	2
 141              	.LC12:
 142 0170 4D757374 		.ascii	"Must first select card type\012\015\000"
 142      20666972 
ARM GAS  C:\Users\doug_000\AppData\Local\Temp\ccT7HEp7.s 			page 5


 142      73742073 
 142      656C6563 
 142      74206361 
 143 018e 0000     		.align	2
 144              	.LC13:
 145 0190 57726974 		.ascii	"Write to the EEPROM...\000"
 145      6520746F 
 145      20746865 
 145      20454550 
 145      524F4D2E 
 146 01a7 00       		.align	2
 147              	.LC14:
 148 01a8 436F6D70 		.ascii	"Completed EEPROM write\012\015\000"
 148      6C657465 
 148      64204545 
 148      50524F4D 
 148      20777269 
 149 01c1 000000   		.align	2
 150              	.LC15:
 151 01c4 45455052 		.ascii	"EEPROM write failed (does this card have an EEPROM?"
 151      4F4D2077 
 151      72697465 
 151      20666169 
 151      6C656420 
 152 01f7 0A0D00   		.ascii	"\012\015\000"
 153 01fa 0000     		.align	2
 154              	.LC16:
 155 01fc 426C696E 		.ascii	"Blinking the LEDs on the RasPI-PLUS-GVS-CFG card, p"
 155      6B696E67 
 155      20746865 
 155      204C4544 
 155      73206F6E 
 156 022f 6C656173 		.ascii	"lease wait\012\015\000"
 156      65207761 
 156      69740A0D 
 156      00
 157              		.align	2
 158              	.LC17:
 159 023c 436F6D70 		.ascii	"Completed blinking the LEDs on the RasPI-PLUS-GVS-C"
 159      6C657465 
 159      6420626C 
 159      696E6B69 
 159      6E672074 
 160 026f 46472063 		.ascii	"FG card\012\015\000"
 160      6172640A 
 160      0D00
 161 0279 000000   		.align	2
 162              	.LC18:
 163 027c 426C696E 		.ascii	"Blinking the LEDs on the RASPI-PLUS-GVS card, pleas"
 163      6B696E67 
 163      20746865 
 163      204C4544 
 163      73206F6E 
 164 02af 65207761 		.ascii	"e wait\012\015\000"
 164      69740A0D 
 164      00
 165              		.align	2
ARM GAS  C:\Users\doug_000\AppData\Local\Temp\ccT7HEp7.s 			page 6


 166              	.LC19:
 167 02b8 436F6D70 		.ascii	"Completed blinking the LEDs on the RASPI-PLUS-GVS c"
 167      6C657465 
 167      6420626C 
 167      696E6B69 
 167      6E672074 
 168 02eb 6172640A 		.ascii	"ard\012\015\000"
 168      0D00
 169 02f1 000000   		.align	2
 170              	.LC20:
 171 02f4 426C696E 		.ascii	"Blinking the LEDs on the RASPI-GVS card, please wai"
 171      6B696E67 
 171      20746865 
 171      204C4544 
 171      73206F6E 
 172 0327 740A0D00 		.ascii	"t\012\015\000"
 173 032b 00       		.align	2
 174              	.LC21:
 175 032c 436F6D70 		.ascii	"Completed blinking the LEDs on the RASPI-GVS card\012"
 175      6C657465 
 175      6420626C 
 175      696E6B69 
 175      6E672074 
 176 035e 0D00     		.ascii	"\015\000"
 177              		.align	2
 178              	.LC22:
 179 0360 426C696E 		.ascii	"Blinking the LEDs on the RPP-UIO-16 card, please wa"
 179      6B696E67 
 179      20746865 
 179      204C4544 
 179      73206F6E 
 180 0393 69740A0D 		.ascii	"it\012\015\000"
 180      00
 181              		.align	2
 182              	.LC23:
 183 0398 436F6D70 		.ascii	"Completed blinking the LEDs on the RPP-UIO-16 card\012"
 183      6C657465 
 183      6420626C 
 183      696E6B69 
 183      6E672074 
 184 03cb 0D00     		.ascii	"\015\000"
 185 03cd 000000   		.align	2
 186              	.LC24:
 187 03d0 426C696E 		.ascii	"Blinking the DIGIO-8 Card LEDs, please wait\012\015"
 187      6B696E67 
 187      20746865 
 187      20444947 
 187      494F2D38 
 188 03fd 00       		.ascii	"\000"
 189 03fe 0000     		.align	2
 190              	.LC25:
 191 0400 436F6D70 		.ascii	"Completed blinking the LEDs\012\015\000"
 191      6C657465 
 191      6420626C 
 191      696E6B69 
 191      6E672074 
 192 041e 0000     		.align	2
ARM GAS  C:\Users\doug_000\AppData\Local\Temp\ccT7HEp7.s 			page 7


 193              	.LC26:
 194 0420 43617264 		.ascii	"Card not yet implemented\012\015\000"
 194      206E6F74 
 194      20796574 
 194      20696D70 
 194      6C656D65 
 195 043b 00       		.align	2
 196              	.LC27:
 197 043c 53656C65 		.ascii	"Selected RPP-UIO-16 card\012\015\000"
 197      63746564 
 197      20525050 
 197      2D55494F 
 197      2D313620 
 198 0457 00       		.align	2
 199              	.LC28:
 200 0458 53656C65 		.ascii	"Selected RPPSOC card\012\015\000"
 200      63746564 
 200      20525050 
 200      534F4320 
 200      63617264 
 201 046f 00       		.align	2
 202              	.LC29:
 203 0470 53656C65 		.ascii	"Selected RASPI-PLUS-GVS-CFG card\012\015\000"
 203      63746564 
 203      20524153 
 203      50492D50 
 203      4C55532D 
 204 0493 00       		.align	2
 205              	.LC30:
 206 0494 53656C65 		.ascii	"Selected RASPIGVS card\012\015\000"
 206      63746564 
 206      20524153 
 206      50494756 
 206      53206361 
 207 04ad 000000   		.align	2
 208              	.LC31:
 209 04b0 53656C65 		.ascii	"Selected RASPI-PLUS-GVS card\012\015\000"
 209      63746564 
 209      20524153 
 209      50492D50 
 209      4C55532D 
 210 04cf 00       		.align	2
 211              	.LC32:
 212 04d0 53656C65 		.ascii	"Selected RPI-I2C-HUB card\012\015\000"
 212      63746564 
 212      20525049 
 212      2D493243 
 212      2D485542 
 213              		.align	2
 214              	.LC33:
 215 04ec 4552524F 		.ascii	"ERROR - Unrecognized option\000"
 215      52202D20 
 215      556E7265 
 215      636F676E 
 215      697A6564 
 216              		.section	.text.psocMenu,"ax",%progbits
 217              		.align	2
ARM GAS  C:\Users\doug_000\AppData\Local\Temp\ccT7HEp7.s 			page 8


 218              		.global	psocMenu
 219              		.thumb
 220              		.thumb_func
 221              		.type	psocMenu, %function
 222              	psocMenu:
 223              	.LFB64:
  38:PSoC_Menu.c   **** 
  39:PSoC_Menu.c   **** ////////////////////////////////////////////////////////////////////////////
  40:PSoC_Menu.c   **** // void psocMenu(void)
  41:PSoC_Menu.c   **** //	uint8 uartReadBuffer[USBUART_Buffer_SIZE];
  42:PSoC_Menu.c   **** //    uint16 uartReadBufferOff = 0;
  43:PSoC_Menu.c   **** 
  44:PSoC_Menu.c   **** void psocMenu(void)
  45:PSoC_Menu.c   **** {
 224              		.loc 1 45 0
 225              		.cfi_startproc
 226              		@ args = 0, pretend = 0, frame = 256
 227              		@ frame_needed = 1, uses_anonymous_args = 0
 228 0000 80B5     		push	{r7, lr}
 229              		.cfi_def_cfa_offset 8
 230              		.cfi_offset 7, -8
 231              		.cfi_offset 14, -4
 232 0002 C0B0     		sub	sp, sp, #256
 233              		.cfi_def_cfa_offset 264
 234 0004 00AF     		add	r7, sp, #0
 235              		.cfi_def_cfa_register 7
  46:PSoC_Menu.c   ****     uint8 eepromBuffer[256];
  47:PSoC_Menu.c   **** 
  48:PSoC_Menu.c   ****     while (0u == USBUART_CDCIsReady());
 236              		.loc 1 48 0
 237 0006 00BF     		nop
 238              	.L5:
 239              		.loc 1 48 0 is_stmt 0 discriminator 1
 240 0008 FFF7FEFF 		bl	USBUART_CDCIsReady
 241 000c 0346     		mov	r3, r0
 242 000e 002B     		cmp	r3, #0
 243 0010 FAD0     		beq	.L5
  49:PSoC_Menu.c   ****     if ((receiveBuffer[0] == 'r') || (receiveBuffer[0] == 'R'))
 244              		.loc 1 49 0 is_stmt 1
 245 0012 734B     		ldr	r3, .L31
 246 0014 1B78     		ldrb	r3, [r3]	@ zero_extendqisi2
 247 0016 722B     		cmp	r3, #114
 248 0018 03D0     		beq	.L6
 249              		.loc 1 49 0 is_stmt 0 discriminator 1
 250 001a 714B     		ldr	r3, .L31
 251 001c 1B78     		ldrb	r3, [r3]	@ zero_extendqisi2
 252 001e 522B     		cmp	r3, #82
 253 0020 11D1     		bne	.L7
 254              	.L6:
  50:PSoC_Menu.c   ****     {
  51:PSoC_Menu.c   ****         putStringToUSB("Read from the EEPROM\n\r");
 255              		.loc 1 51 0 is_stmt 1
 256 0022 7048     		ldr	r0, .L31+4
 257 0024 FFF7FEFF 		bl	putStringToUSB
  52:PSoC_Menu.c   ****         readEEPROM(eepromBuffer);
 258              		.loc 1 52 0
 259 0028 3B46     		mov	r3, r7
ARM GAS  C:\Users\doug_000\AppData\Local\Temp\ccT7HEp7.s 			page 9


 260 002a 1846     		mov	r0, r3
 261 002c FFF7FEFF 		bl	readEEPROM
  53:PSoC_Menu.c   ****         dumpEEPROM(eepromBuffer);
 262              		.loc 1 53 0
 263 0030 3B46     		mov	r3, r7
 264 0032 1846     		mov	r0, r3
 265 0034 FFF7FEFF 		bl	dumpEEPROM
  54:PSoC_Menu.c   ****         while (0u == USBUART_CDCIsReady());
 266              		.loc 1 54 0
 267 0038 00BF     		nop
 268              	.L8:
 269              		.loc 1 54 0 is_stmt 0 discriminator 1
 270 003a FFF7FEFF 		bl	USBUART_CDCIsReady
 271 003e 0346     		mov	r3, r0
 272 0040 002B     		cmp	r3, #0
 273 0042 FAD0     		beq	.L8
  49:PSoC_Menu.c   ****     {
 274              		.loc 1 49 0 is_stmt 1
 275 0044 C5E0     		b	.L9
 276              	.L7:
  55:PSoC_Menu.c   ****     }
  56:PSoC_Menu.c   ****     else if ((receiveBuffer[0] == 'w') || (receiveBuffer[0] == 'W'))
 277              		.loc 1 56 0
 278 0046 664B     		ldr	r3, .L31
 279 0048 1B78     		ldrb	r3, [r3]	@ zero_extendqisi2
 280 004a 772B     		cmp	r3, #119
 281 004c 03D0     		beq	.L10
 282              		.loc 1 56 0 is_stmt 0 discriminator 1
 283 004e 644B     		ldr	r3, .L31
 284 0050 1B78     		ldrb	r3, [r3]	@ zero_extendqisi2
 285 0052 572B     		cmp	r3, #87
 286 0054 1AD1     		bne	.L11
 287              	.L10:
  57:PSoC_Menu.c   ****     {
  58:PSoC_Menu.c   ****         if (cardType == UNSELECTED_CARD)
 288              		.loc 1 58 0 is_stmt 1
 289 0056 644B     		ldr	r3, .L31+8
 290 0058 1B88     		ldrh	r3, [r3]
 291 005a 002B     		cmp	r3, #0
 292 005c 03D1     		bne	.L12
  59:PSoC_Menu.c   ****         {
  60:PSoC_Menu.c   ****             putStringToUSB("Must first select card type\n\r");
 293              		.loc 1 60 0
 294 005e 6348     		ldr	r0, .L31+12
 295 0060 FFF7FEFF 		bl	putStringToUSB
  58:PSoC_Menu.c   ****         {
 296              		.loc 1 58 0
 297 0064 B5E0     		b	.L9
 298              	.L12:
  61:PSoC_Menu.c   ****         }
  62:PSoC_Menu.c   ****         else
  63:PSoC_Menu.c   ****         {
  64:PSoC_Menu.c   ****             putStringToUSB("Write to the EEPROM...");
 299              		.loc 1 64 0
 300 0066 6248     		ldr	r0, .L31+16
 301 0068 FFF7FEFF 		bl	putStringToUSB
  65:PSoC_Menu.c   ****             if (writeEEPROM(cardType) == 1)
ARM GAS  C:\Users\doug_000\AppData\Local\Temp\ccT7HEp7.s 			page 10


 302              		.loc 1 65 0
 303 006c 5E4B     		ldr	r3, .L31+8
 304 006e 1B88     		ldrh	r3, [r3]
 305 0070 1846     		mov	r0, r3
 306 0072 FFF7FEFF 		bl	writeEEPROM
 307 0076 0346     		mov	r3, r0
 308 0078 012B     		cmp	r3, #1
 309 007a 03D1     		bne	.L14
  66:PSoC_Menu.c   ****                 putStringToUSB("Completed EEPROM write\n\r");
 310              		.loc 1 66 0
 311 007c 5D48     		ldr	r0, .L31+20
 312 007e FFF7FEFF 		bl	putStringToUSB
  58:PSoC_Menu.c   ****         {
 313              		.loc 1 58 0
 314 0082 A6E0     		b	.L9
 315              	.L14:
  67:PSoC_Menu.c   ****             else
  68:PSoC_Menu.c   ****                 putStringToUSB("EEPROM write failed (does this card have an EEPROM?\n\r");
 316              		.loc 1 68 0
 317 0084 5C48     		ldr	r0, .L31+24
 318 0086 FFF7FEFF 		bl	putStringToUSB
  58:PSoC_Menu.c   ****         {
 319              		.loc 1 58 0
 320 008a A2E0     		b	.L9
 321              	.L11:
  69:PSoC_Menu.c   ****         }
  70:PSoC_Menu.c   ****     }
  71:PSoC_Menu.c   ****     else if ((receiveBuffer[0] == 'b') || (receiveBuffer[0] == 'B'))
 322              		.loc 1 71 0
 323 008c 544B     		ldr	r3, .L31
 324 008e 1B78     		ldrb	r3, [r3]	@ zero_extendqisi2
 325 0090 622B     		cmp	r3, #98
 326 0092 03D0     		beq	.L15
 327              		.loc 1 71 0 is_stmt 0 discriminator 1
 328 0094 524B     		ldr	r3, .L31
 329 0096 1B78     		ldrb	r3, [r3]	@ zero_extendqisi2
 330 0098 422B     		cmp	r3, #66
 331 009a 4CD1     		bne	.L16
 332              	.L15:
  72:PSoC_Menu.c   ****     {
  73:PSoC_Menu.c   ****         if (cardType == UNSELECTED_CARD)
 333              		.loc 1 73 0 is_stmt 1
 334 009c 524B     		ldr	r3, .L31+8
 335 009e 1B88     		ldrh	r3, [r3]
 336 00a0 002B     		cmp	r3, #0
 337 00a2 03D1     		bne	.L17
  74:PSoC_Menu.c   ****         {
  75:PSoC_Menu.c   ****             putStringToUSB("Must first select card type\n\r");
 338              		.loc 1 75 0
 339 00a4 5148     		ldr	r0, .L31+12
 340 00a6 FFF7FEFF 		bl	putStringToUSB
  73:PSoC_Menu.c   ****         {
 341              		.loc 1 73 0
 342 00aa 92E0     		b	.L9
 343              	.L17:
  76:PSoC_Menu.c   ****         }
  77:PSoC_Menu.c   ****         else if (cardType == RPPGVSCFG)
ARM GAS  C:\Users\doug_000\AppData\Local\Temp\ccT7HEp7.s 			page 11


 344              		.loc 1 77 0
 345 00ac 4E4B     		ldr	r3, .L31+8
 346 00ae 1B88     		ldrh	r3, [r3]
 347 00b0 022B     		cmp	r3, #2
 348 00b2 08D1     		bne	.L19
  78:PSoC_Menu.c   ****         {
  79:PSoC_Menu.c   ****             putStringToUSB("Blinking the LEDs on the RasPI-PLUS-GVS-CFG card, please wait\n\r");
 349              		.loc 1 79 0
 350 00b4 5148     		ldr	r0, .L31+28
 351 00b6 FFF7FEFF 		bl	putStringToUSB
  80:PSoC_Menu.c   ****             testRPPUIO16();
 352              		.loc 1 80 0
 353 00ba FFF7FEFF 		bl	testRPPUIO16
  81:PSoC_Menu.c   ****             putStringToUSB("Completed blinking the LEDs on the RasPI-PLUS-GVS-CFG card\n\r");
 354              		.loc 1 81 0
 355 00be 5048     		ldr	r0, .L31+32
 356 00c0 FFF7FEFF 		bl	putStringToUSB
  73:PSoC_Menu.c   ****         {
 357              		.loc 1 73 0
 358 00c4 85E0     		b	.L9
 359              	.L19:
  82:PSoC_Menu.c   ****         }
  83:PSoC_Menu.c   ****         else if (cardType == RASPIPLUSGVS)
 360              		.loc 1 83 0
 361 00c6 484B     		ldr	r3, .L31+8
 362 00c8 1B88     		ldrh	r3, [r3]
 363 00ca 052B     		cmp	r3, #5
 364 00cc 08D1     		bne	.L20
  84:PSoC_Menu.c   ****         {
  85:PSoC_Menu.c   ****             putStringToUSB("Blinking the LEDs on the RASPI-PLUS-GVS card, please wait\n\r");
 365              		.loc 1 85 0
 366 00ce 4D48     		ldr	r0, .L31+36
 367 00d0 FFF7FEFF 		bl	putStringToUSB
  86:PSoC_Menu.c   ****             testRPPGVS();
 368              		.loc 1 86 0
 369 00d4 FFF7FEFF 		bl	testRPPGVS
  87:PSoC_Menu.c   ****             putStringToUSB("Completed blinking the LEDs on the RASPI-PLUS-GVS card\n\r");
 370              		.loc 1 87 0
 371 00d8 4B48     		ldr	r0, .L31+40
 372 00da FFF7FEFF 		bl	putStringToUSB
  73:PSoC_Menu.c   ****         {
 373              		.loc 1 73 0
 374 00de 78E0     		b	.L9
 375              	.L20:
  88:PSoC_Menu.c   ****         }
  89:PSoC_Menu.c   ****         else if (cardType == RASPIGVS)
 376              		.loc 1 89 0
 377 00e0 414B     		ldr	r3, .L31+8
 378 00e2 1B88     		ldrh	r3, [r3]
 379 00e4 042B     		cmp	r3, #4
 380 00e6 08D1     		bne	.L21
  90:PSoC_Menu.c   ****         {
  91:PSoC_Menu.c   ****             putStringToUSB("Blinking the LEDs on the RASPI-GVS card, please wait\n\r");
 381              		.loc 1 91 0
 382 00e8 4848     		ldr	r0, .L31+44
 383 00ea FFF7FEFF 		bl	putStringToUSB
  92:PSoC_Menu.c   ****             testRASPIGVS();
ARM GAS  C:\Users\doug_000\AppData\Local\Temp\ccT7HEp7.s 			page 12


 384              		.loc 1 92 0
 385 00ee FFF7FEFF 		bl	testRASPIGVS
  93:PSoC_Menu.c   ****             putStringToUSB("Completed blinking the LEDs on the RASPI-GVS card\n\r");
 386              		.loc 1 93 0
 387 00f2 4748     		ldr	r0, .L31+48
 388 00f4 FFF7FEFF 		bl	putStringToUSB
  73:PSoC_Menu.c   ****         {
 389              		.loc 1 73 0
 390 00f8 6BE0     		b	.L9
 391              	.L21:
  94:PSoC_Menu.c   ****         }
  95:PSoC_Menu.c   ****         else if (cardType == RPPUIO16)
 392              		.loc 1 95 0
 393 00fa 3B4B     		ldr	r3, .L31+8
 394 00fc 1B88     		ldrh	r3, [r3]
 395 00fe 012B     		cmp	r3, #1
 396 0100 08D1     		bne	.L22
  96:PSoC_Menu.c   ****         {
  97:PSoC_Menu.c   ****             putStringToUSB("Blinking the LEDs on the RPP-UIO-16 card, please wait\n\r");
 397              		.loc 1 97 0
 398 0102 4448     		ldr	r0, .L31+52
 399 0104 FFF7FEFF 		bl	putStringToUSB
  98:PSoC_Menu.c   ****             testRPPUIO16();
 400              		.loc 1 98 0
 401 0108 FFF7FEFF 		bl	testRPPUIO16
  99:PSoC_Menu.c   ****             putStringToUSB("Completed blinking the LEDs on the RPP-UIO-16 card\n\r");
 402              		.loc 1 99 0
 403 010c 4248     		ldr	r0, .L31+56
 404 010e FFF7FEFF 		bl	putStringToUSB
  73:PSoC_Menu.c   ****         {
 405              		.loc 1 73 0
 406 0112 5EE0     		b	.L9
 407              	.L22:
 100:PSoC_Menu.c   ****         }
 101:PSoC_Menu.c   ****         else if (cardType == RPII2CHUB)
 408              		.loc 1 101 0
 409 0114 344B     		ldr	r3, .L31+8
 410 0116 1B88     		ldrh	r3, [r3]
 411 0118 062B     		cmp	r3, #6
 412 011a 08D1     		bne	.L23
 102:PSoC_Menu.c   ****         {
 103:PSoC_Menu.c   ****             putStringToUSB("Blinking the DIGIO-8 Card LEDs, please wait\n\r");
 413              		.loc 1 103 0
 414 011c 3F48     		ldr	r0, .L31+60
 415 011e FFF7FEFF 		bl	putStringToUSB
 104:PSoC_Menu.c   ****             testRPIHUB();
 416              		.loc 1 104 0
 417 0122 FFF7FEFF 		bl	testRPIHUB
 105:PSoC_Menu.c   ****             putStringToUSB("Completed blinking the LEDs\n\r");
 418              		.loc 1 105 0
 419 0126 3E48     		ldr	r0, .L31+64
 420 0128 FFF7FEFF 		bl	putStringToUSB
  73:PSoC_Menu.c   ****         {
 421              		.loc 1 73 0
 422 012c 51E0     		b	.L9
 423              	.L23:
 106:PSoC_Menu.c   ****         }
ARM GAS  C:\Users\doug_000\AppData\Local\Temp\ccT7HEp7.s 			page 13


 107:PSoC_Menu.c   ****         else
 108:PSoC_Menu.c   ****         {
 109:PSoC_Menu.c   ****             putStringToUSB("Card not yet implemented\n\r");
 424              		.loc 1 109 0
 425 012e 3D48     		ldr	r0, .L31+68
 426 0130 FFF7FEFF 		bl	putStringToUSB
  73:PSoC_Menu.c   ****         {
 427              		.loc 1 73 0
 428 0134 4DE0     		b	.L9
 429              	.L16:
 110:PSoC_Menu.c   ****         }
 111:PSoC_Menu.c   ****     }
 112:PSoC_Menu.c   ****     else if (receiveBuffer[0] == '1')
 430              		.loc 1 112 0
 431 0136 2A4B     		ldr	r3, .L31
 432 0138 1B78     		ldrb	r3, [r3]	@ zero_extendqisi2
 433 013a 312B     		cmp	r3, #49
 434 013c 06D1     		bne	.L24
 113:PSoC_Menu.c   ****     {
 114:PSoC_Menu.c   ****         cardType = RPPUIO16;
 435              		.loc 1 114 0
 436 013e 2A4B     		ldr	r3, .L31+8
 437 0140 0122     		movs	r2, #1
 438 0142 1A80     		strh	r2, [r3]	@ movhi
 115:PSoC_Menu.c   ****         putStringToUSB("Selected RPP-UIO-16 card\n\r");
 439              		.loc 1 115 0
 440 0144 3848     		ldr	r0, .L31+72
 441 0146 FFF7FEFF 		bl	putStringToUSB
 442 014a 42E0     		b	.L9
 443              	.L24:
 116:PSoC_Menu.c   ****     }
 117:PSoC_Menu.c   ****     else if (receiveBuffer[0] == '2')
 444              		.loc 1 117 0
 445 014c 244B     		ldr	r3, .L31
 446 014e 1B78     		ldrb	r3, [r3]	@ zero_extendqisi2
 447 0150 322B     		cmp	r3, #50
 448 0152 06D1     		bne	.L25
 118:PSoC_Menu.c   ****     {
 119:PSoC_Menu.c   ****         cardType = RPPSOC;
 449              		.loc 1 119 0
 450 0154 244B     		ldr	r3, .L31+8
 451 0156 0322     		movs	r2, #3
 452 0158 1A80     		strh	r2, [r3]	@ movhi
 120:PSoC_Menu.c   ****         putStringToUSB("Selected RPPSOC card\n\r");
 453              		.loc 1 120 0
 454 015a 3448     		ldr	r0, .L31+76
 455 015c FFF7FEFF 		bl	putStringToUSB
 456 0160 37E0     		b	.L9
 457              	.L25:
 121:PSoC_Menu.c   ****     }
 122:PSoC_Menu.c   ****     else if (receiveBuffer[0] == '3')
 458              		.loc 1 122 0
 459 0162 1F4B     		ldr	r3, .L31
 460 0164 1B78     		ldrb	r3, [r3]	@ zero_extendqisi2
 461 0166 332B     		cmp	r3, #51
 462 0168 06D1     		bne	.L26
 123:PSoC_Menu.c   ****     {
ARM GAS  C:\Users\doug_000\AppData\Local\Temp\ccT7HEp7.s 			page 14


 124:PSoC_Menu.c   ****         cardType = RPPGVSCFG;
 463              		.loc 1 124 0
 464 016a 1F4B     		ldr	r3, .L31+8
 465 016c 0222     		movs	r2, #2
 466 016e 1A80     		strh	r2, [r3]	@ movhi
 125:PSoC_Menu.c   ****         putStringToUSB("Selected RASPI-PLUS-GVS-CFG card\n\r");
 467              		.loc 1 125 0
 468 0170 2F48     		ldr	r0, .L31+80
 469 0172 FFF7FEFF 		bl	putStringToUSB
 470 0176 2CE0     		b	.L9
 471              	.L26:
 126:PSoC_Menu.c   ****     }
 127:PSoC_Menu.c   ****     else if (receiveBuffer[0] == '4')
 472              		.loc 1 127 0
 473 0178 194B     		ldr	r3, .L31
 474 017a 1B78     		ldrb	r3, [r3]	@ zero_extendqisi2
 475 017c 342B     		cmp	r3, #52
 476 017e 06D1     		bne	.L27
 128:PSoC_Menu.c   ****     {
 129:PSoC_Menu.c   ****         cardType = RASPIGVS;
 477              		.loc 1 129 0
 478 0180 194B     		ldr	r3, .L31+8
 479 0182 0422     		movs	r2, #4
 480 0184 1A80     		strh	r2, [r3]	@ movhi
 130:PSoC_Menu.c   ****         putStringToUSB("Selected RASPIGVS card\n\r");
 481              		.loc 1 130 0
 482 0186 2B48     		ldr	r0, .L31+84
 483 0188 FFF7FEFF 		bl	putStringToUSB
 484 018c 21E0     		b	.L9
 485              	.L27:
 131:PSoC_Menu.c   ****     }
 132:PSoC_Menu.c   ****     else if (receiveBuffer[0] == '5')
 486              		.loc 1 132 0
 487 018e 144B     		ldr	r3, .L31
 488 0190 1B78     		ldrb	r3, [r3]	@ zero_extendqisi2
 489 0192 352B     		cmp	r3, #53
 490 0194 06D1     		bne	.L28
 133:PSoC_Menu.c   ****     {
 134:PSoC_Menu.c   ****         cardType = RASPIPLUSGVS;
 491              		.loc 1 134 0
 492 0196 144B     		ldr	r3, .L31+8
 493 0198 0522     		movs	r2, #5
 494 019a 1A80     		strh	r2, [r3]	@ movhi
 135:PSoC_Menu.c   ****         putStringToUSB("Selected RASPI-PLUS-GVS card\n\r");
 495              		.loc 1 135 0
 496 019c 2648     		ldr	r0, .L31+88
 497 019e FFF7FEFF 		bl	putStringToUSB
 498 01a2 16E0     		b	.L9
 499              	.L28:
 136:PSoC_Menu.c   ****     }
 137:PSoC_Menu.c   ****     else if (receiveBuffer[0] == '6')
 500              		.loc 1 137 0
 501 01a4 0E4B     		ldr	r3, .L31
 502 01a6 1B78     		ldrb	r3, [r3]	@ zero_extendqisi2
 503 01a8 362B     		cmp	r3, #54
 504 01aa 06D1     		bne	.L29
 138:PSoC_Menu.c   ****     {
ARM GAS  C:\Users\doug_000\AppData\Local\Temp\ccT7HEp7.s 			page 15


 139:PSoC_Menu.c   ****         cardType = RPII2CHUB;
 505              		.loc 1 139 0
 506 01ac 0E4B     		ldr	r3, .L31+8
 507 01ae 0622     		movs	r2, #6
 508 01b0 1A80     		strh	r2, [r3]	@ movhi
 140:PSoC_Menu.c   ****         putStringToUSB("Selected RPI-I2C-HUB card\n\r");
 509              		.loc 1 140 0
 510 01b2 2248     		ldr	r0, .L31+92
 511 01b4 FFF7FEFF 		bl	putStringToUSB
 512 01b8 0BE0     		b	.L9
 513              	.L29:
 141:PSoC_Menu.c   ****     }
 142:PSoC_Menu.c   ****     else if (receiveBuffer[0] == '?')
 514              		.loc 1 142 0
 515 01ba 094B     		ldr	r3, .L31
 516 01bc 1B78     		ldrb	r3, [r3]	@ zero_extendqisi2
 517 01be 3F2B     		cmp	r3, #63
 518 01c0 02D1     		bne	.L30
 143:PSoC_Menu.c   ****     {
 144:PSoC_Menu.c   ****         printMenuOptions();
 519              		.loc 1 144 0
 520 01c2 FFF7FEFF 		bl	printMenuOptions
 521 01c6 04E0     		b	.L9
 522              	.L30:
 145:PSoC_Menu.c   ****     }
 146:PSoC_Menu.c   ****     else
 147:PSoC_Menu.c   ****     {
 148:PSoC_Menu.c   ****         putStringToUSB("ERROR - Unrecognized option");
 523              		.loc 1 148 0
 524 01c8 1D48     		ldr	r0, .L31+96
 525 01ca FFF7FEFF 		bl	putStringToUSB
 149:PSoC_Menu.c   ****         printMenuOptions();
 526              		.loc 1 149 0
 527 01ce FFF7FEFF 		bl	printMenuOptions
 528              	.L9:
 150:PSoC_Menu.c   ****     }
 151:PSoC_Menu.c   ****     clearReceiveBuffer();
 529              		.loc 1 151 0
 530 01d2 FFF7FEFF 		bl	clearReceiveBuffer
 152:PSoC_Menu.c   **** }
 531              		.loc 1 152 0
 532 01d6 00BF     		nop
 533 01d8 07F58077 		add	r7, r7, #256
 534              		.cfi_def_cfa_offset 8
 535 01dc BD46     		mov	sp, r7
 536              		.cfi_def_cfa_register 13
 537              		@ sp needed
 538 01de 80BD     		pop	{r7, pc}
 539              	.L32:
 540              		.align	2
 541              	.L31:
 542 01e0 00000000 		.word	receiveBuffer
 543 01e4 58010000 		.word	.LC11
 544 01e8 00000000 		.word	cardType
 545 01ec 70010000 		.word	.LC12
 546 01f0 90010000 		.word	.LC13
 547 01f4 A8010000 		.word	.LC14
ARM GAS  C:\Users\doug_000\AppData\Local\Temp\ccT7HEp7.s 			page 16


 548 01f8 C4010000 		.word	.LC15
 549 01fc FC010000 		.word	.LC16
 550 0200 3C020000 		.word	.LC17
 551 0204 7C020000 		.word	.LC18
 552 0208 B8020000 		.word	.LC19
 553 020c F4020000 		.word	.LC20
 554 0210 2C030000 		.word	.LC21
 555 0214 60030000 		.word	.LC22
 556 0218 98030000 		.word	.LC23
 557 021c D0030000 		.word	.LC24
 558 0220 00040000 		.word	.LC25
 559 0224 20040000 		.word	.LC26
 560 0228 3C040000 		.word	.LC27
 561 022c 58040000 		.word	.LC28
 562 0230 70040000 		.word	.LC29
 563 0234 94040000 		.word	.LC30
 564 0238 B0040000 		.word	.LC31
 565 023c D0040000 		.word	.LC32
 566 0240 EC040000 		.word	.LC33
 567              		.cfi_endproc
 568              	.LFE64:
 569              		.size	psocMenu, .-psocMenu
 570              		.section	.text.clearReceiveBuffer,"ax",%progbits
 571              		.align	2
 572              		.global	clearReceiveBuffer
 573              		.thumb
 574              		.thumb_func
 575              		.type	clearReceiveBuffer, %function
 576              	clearReceiveBuffer:
 577              	.LFB65:
 153:PSoC_Menu.c   **** 
 154:PSoC_Menu.c   **** ////////////////////////////////////////////////////////////////////////////
 155:PSoC_Menu.c   **** // void clearReceiveBuffer(void)
 156:PSoC_Menu.c   **** 
 157:PSoC_Menu.c   **** void clearReceiveBuffer(void)
 158:PSoC_Menu.c   **** {
 578              		.loc 1 158 0
 579              		.cfi_startproc
 580              		@ args = 0, pretend = 0, frame = 0
 581              		@ frame_needed = 1, uses_anonymous_args = 0
 582              		@ link register save eliminated.
 583 0000 80B4     		push	{r7}
 584              		.cfi_def_cfa_offset 4
 585              		.cfi_offset 7, -4
 586 0002 00AF     		add	r7, sp, #0
 587              		.cfi_def_cfa_register 7
 159:PSoC_Menu.c   ****     receiveBufferPtr = 0;
 588              		.loc 1 159 0
 589 0004 064B     		ldr	r3, .L34
 590 0006 0022     		movs	r2, #0
 591 0008 1A70     		strb	r2, [r3]
 160:PSoC_Menu.c   ****     receiveBuffer[0] = 0;
 592              		.loc 1 160 0
 593 000a 064B     		ldr	r3, .L34+4
 594 000c 0022     		movs	r2, #0
 595 000e 1A70     		strb	r2, [r3]
 161:PSoC_Menu.c   ****     gotCRorLF = 0;
ARM GAS  C:\Users\doug_000\AppData\Local\Temp\ccT7HEp7.s 			page 17


 596              		.loc 1 161 0
 597 0010 054B     		ldr	r3, .L34+8
 598 0012 0022     		movs	r2, #0
 599 0014 1A70     		strb	r2, [r3]
 162:PSoC_Menu.c   **** }
 600              		.loc 1 162 0
 601 0016 00BF     		nop
 602 0018 BD46     		mov	sp, r7
 603              		.cfi_def_cfa_register 13
 604              		@ sp needed
 605 001a 80BC     		pop	{r7}
 606              		.cfi_restore 7
 607              		.cfi_def_cfa_offset 0
 608 001c 7047     		bx	lr
 609              	.L35:
 610 001e 00BF     		.align	2
 611              	.L34:
 612 0020 00000000 		.word	receiveBufferPtr
 613 0024 00000000 		.word	receiveBuffer
 614 0028 00000000 		.word	gotCRorLF
 615              		.cfi_endproc
 616              	.LFE65:
 617              		.size	clearReceiveBuffer, .-clearReceiveBuffer
 618              		.section	.rodata
 619              		.align	2
 620              	.LC34:
 621 0508 0A0D00   		.ascii	"\012\015\000"
 622              		.section	.text.addToReceiveBuffer,"ax",%progbits
 623              		.align	2
 624              		.global	addToReceiveBuffer
 625              		.thumb
 626              		.thumb_func
 627              		.type	addToReceiveBuffer, %function
 628              	addToReceiveBuffer:
 629              	.LFB66:
 163:PSoC_Menu.c   **** 
 164:PSoC_Menu.c   **** ////////////////////////////////////////////////////////////////////////////
 165:PSoC_Menu.c   **** // void addToReceiveBuffer(uint16, uint8 *)
 166:PSoC_Menu.c   **** 
 167:PSoC_Menu.c   **** void addToReceiveBuffer(uint16 inCount, uint8 * inBuffer)
 168:PSoC_Menu.c   **** {
 630              		.loc 1 168 0
 631              		.cfi_startproc
 632              		@ args = 0, pretend = 0, frame = 96
 633              		@ frame_needed = 1, uses_anonymous_args = 0
 634 0000 80B5     		push	{r7, lr}
 635              		.cfi_def_cfa_offset 8
 636              		.cfi_offset 7, -8
 637              		.cfi_offset 14, -4
 638 0002 98B0     		sub	sp, sp, #96
 639              		.cfi_def_cfa_offset 104
 640 0004 00AF     		add	r7, sp, #0
 641              		.cfi_def_cfa_register 7
 642 0006 0346     		mov	r3, r0
 643 0008 3960     		str	r1, [r7]
 644 000a FB80     		strh	r3, [r7, #6]	@ movhi
 169:PSoC_Menu.c   ****     uint8 echoString[80];
ARM GAS  C:\Users\doug_000\AppData\Local\Temp\ccT7HEp7.s 			page 18


 170:PSoC_Menu.c   ****     echoString[0] = 0;
 645              		.loc 1 170 0
 646 000c 0023     		movs	r3, #0
 647 000e 3B73     		strb	r3, [r7, #12]
 648              	.LBB2:
 171:PSoC_Menu.c   ****     for (uint8 receiveCt = 0; receiveCt < inCount; receiveCt++)
 649              		.loc 1 171 0
 650 0010 0023     		movs	r3, #0
 651 0012 87F85F30 		strb	r3, [r7, #95]
 652 0016 74E0     		b	.L37
 653              	.L42:
 172:PSoC_Menu.c   ****     {
 173:PSoC_Menu.c   ****         // First check if the character is an end of line
 174:PSoC_Menu.c   ****         if ((inBuffer[receiveCt] == 0x0a) || (inBuffer[receiveCt] == 0x0d))
 654              		.loc 1 174 0
 655 0018 97F85F30 		ldrb	r3, [r7, #95]	@ zero_extendqisi2
 656 001c 3A68     		ldr	r2, [r7]
 657 001e 1344     		add	r3, r3, r2
 658 0020 1B78     		ldrb	r3, [r3]	@ zero_extendqisi2
 659 0022 0A2B     		cmp	r3, #10
 660 0024 06D0     		beq	.L38
 661              		.loc 1 174 0 is_stmt 0 discriminator 1
 662 0026 97F85F30 		ldrb	r3, [r7, #95]	@ zero_extendqisi2
 663 002a 3A68     		ldr	r2, [r7]
 664 002c 1344     		add	r3, r3, r2
 665 002e 1B78     		ldrb	r3, [r3]	@ zero_extendqisi2
 666 0030 0D2B     		cmp	r3, #13
 667 0032 06D1     		bne	.L39
 668              	.L38:
 175:PSoC_Menu.c   ****         {
 176:PSoC_Menu.c   ****             gotCRorLF = 1;
 669              		.loc 1 176 0 is_stmt 1
 670 0034 384B     		ldr	r3, .L43
 671 0036 0122     		movs	r2, #1
 672 0038 1A70     		strb	r2, [r3]
 177:PSoC_Menu.c   ****             putStringToUSB("\n\r");
 673              		.loc 1 177 0
 674 003a 3848     		ldr	r0, .L43+4
 675 003c FFF7FEFF 		bl	putStringToUSB
 676 0040 5AE0     		b	.L40
 677              	.L39:
 178:PSoC_Menu.c   ****         }
 179:PSoC_Menu.c   ****         // check if the character is not a RUBOUT and if the line length is OK
 180:PSoC_Menu.c   ****         else if ((inBuffer[receiveCt] != 0x7f) && (receiveCt < 80))
 678              		.loc 1 180 0
 679 0042 97F85F30 		ldrb	r3, [r7, #95]	@ zero_extendqisi2
 680 0046 3A68     		ldr	r2, [r7]
 681 0048 1344     		add	r3, r3, r2
 682 004a 1B78     		ldrb	r3, [r3]	@ zero_extendqisi2
 683 004c 7F2B     		cmp	r3, #127
 684 004e 35D0     		beq	.L41
 685              		.loc 1 180 0 is_stmt 0 discriminator 1
 686 0050 97F85F30 		ldrb	r3, [r7, #95]	@ zero_extendqisi2
 687 0054 4F2B     		cmp	r3, #79
 688 0056 31D8     		bhi	.L41
 181:PSoC_Menu.c   ****         {
 182:PSoC_Menu.c   ****             receiveBuffer[receiveBufferPtr] = inBuffer[receiveCt];
ARM GAS  C:\Users\doug_000\AppData\Local\Temp\ccT7HEp7.s 			page 19


 689              		.loc 1 182 0 is_stmt 1
 690 0058 314B     		ldr	r3, .L43+8
 691 005a 1B78     		ldrb	r3, [r3]	@ zero_extendqisi2
 692 005c 1946     		mov	r1, r3
 693 005e 97F85F30 		ldrb	r3, [r7, #95]	@ zero_extendqisi2
 694 0062 3A68     		ldr	r2, [r7]
 695 0064 1344     		add	r3, r3, r2
 696 0066 1A78     		ldrb	r2, [r3]	@ zero_extendqisi2
 697 0068 2E4B     		ldr	r3, .L43+12
 698 006a 5A54     		strb	r2, [r3, r1]
 183:PSoC_Menu.c   ****             receiveBufferPtr++;
 699              		.loc 1 183 0
 700 006c 2C4B     		ldr	r3, .L43+8
 701 006e 1B78     		ldrb	r3, [r3]	@ zero_extendqisi2
 702 0070 0133     		adds	r3, r3, #1
 703 0072 DAB2     		uxtb	r2, r3
 704 0074 2A4B     		ldr	r3, .L43+8
 705 0076 1A70     		strb	r2, [r3]
 184:PSoC_Menu.c   ****             echoString[inCount] = 0;
 706              		.loc 1 184 0
 707 0078 FB88     		ldrh	r3, [r7, #6]
 708 007a 07F16002 		add	r2, r7, #96
 709 007e 1344     		add	r3, r3, r2
 710 0080 0022     		movs	r2, #0
 711 0082 03F8542C 		strb	r2, [r3, #-84]
 185:PSoC_Menu.c   ****             echoString[receiveCt] = inBuffer[receiveCt];
 712              		.loc 1 185 0
 713 0086 97F85F30 		ldrb	r3, [r7, #95]	@ zero_extendqisi2
 714 008a 97F85F20 		ldrb	r2, [r7, #95]	@ zero_extendqisi2
 715 008e 3968     		ldr	r1, [r7]
 716 0090 0A44     		add	r2, r2, r1
 717 0092 1278     		ldrb	r2, [r2]	@ zero_extendqisi2
 718 0094 07F16001 		add	r1, r7, #96
 719 0098 0B44     		add	r3, r3, r1
 720 009a 03F8542C 		strb	r2, [r3, #-84]
 186:PSoC_Menu.c   ****             echoString[receiveCt+1] = 0;
 721              		.loc 1 186 0
 722 009e 97F85F30 		ldrb	r3, [r7, #95]	@ zero_extendqisi2
 723 00a2 0133     		adds	r3, r3, #1
 724 00a4 07F16002 		add	r2, r7, #96
 725 00a8 1344     		add	r3, r3, r2
 726 00aa 0022     		movs	r2, #0
 727 00ac 03F8542C 		strb	r2, [r3, #-84]
 187:PSoC_Menu.c   ****             putStringToUSB((char *)echoString);
 728              		.loc 1 187 0
 729 00b0 07F10C03 		add	r3, r7, #12
 730 00b4 1846     		mov	r0, r3
 731 00b6 FFF7FEFF 		bl	putStringToUSB
 732 00ba 1DE0     		b	.L40
 733              	.L41:
 188:PSoC_Menu.c   ****         }
 189:PSoC_Menu.c   ****         // If the character is rubout and not the 0th character
 190:PSoC_Menu.c   ****         else if ((receiveBufferPtr > 0) && (inBuffer[receiveCt] == 0x7f))
 734              		.loc 1 190 0
 735 00bc 184B     		ldr	r3, .L43+8
 736 00be 1B78     		ldrb	r3, [r3]	@ zero_extendqisi2
 737 00c0 002B     		cmp	r3, #0
ARM GAS  C:\Users\doug_000\AppData\Local\Temp\ccT7HEp7.s 			page 20


 738 00c2 19D0     		beq	.L40
 739              		.loc 1 190 0 is_stmt 0 discriminator 1
 740 00c4 97F85F30 		ldrb	r3, [r7, #95]	@ zero_extendqisi2
 741 00c8 3A68     		ldr	r2, [r7]
 742 00ca 1344     		add	r3, r3, r2
 743 00cc 1B78     		ldrb	r3, [r3]	@ zero_extendqisi2
 744 00ce 7F2B     		cmp	r3, #127
 745 00d0 12D1     		bne	.L40
 191:PSoC_Menu.c   ****         {
 192:PSoC_Menu.c   ****             receiveBufferPtr--;
 746              		.loc 1 192 0 is_stmt 1
 747 00d2 134B     		ldr	r3, .L43+8
 748 00d4 1B78     		ldrb	r3, [r3]	@ zero_extendqisi2
 749 00d6 013B     		subs	r3, r3, #1
 750 00d8 DAB2     		uxtb	r2, r3
 751 00da 114B     		ldr	r3, .L43+8
 752 00dc 1A70     		strb	r2, [r3]
 193:PSoC_Menu.c   ****             echoString[0] = 0x08;       // Backspace
 753              		.loc 1 193 0
 754 00de 0823     		movs	r3, #8
 755 00e0 3B73     		strb	r3, [r7, #12]
 194:PSoC_Menu.c   ****             echoString[1] = 0x20;       // Space
 756              		.loc 1 194 0
 757 00e2 2023     		movs	r3, #32
 758 00e4 7B73     		strb	r3, [r7, #13]
 195:PSoC_Menu.c   ****             echoString[2] = 0x08;       // Backspace
 759              		.loc 1 195 0
 760 00e6 0823     		movs	r3, #8
 761 00e8 BB73     		strb	r3, [r7, #14]
 196:PSoC_Menu.c   ****             echoString[3] = 0;
 762              		.loc 1 196 0
 763 00ea 0023     		movs	r3, #0
 764 00ec FB73     		strb	r3, [r7, #15]
 197:PSoC_Menu.c   ****             putStringToUSB((char *)echoString);
 765              		.loc 1 197 0
 766 00ee 07F10C03 		add	r3, r7, #12
 767 00f2 1846     		mov	r0, r3
 768 00f4 FFF7FEFF 		bl	putStringToUSB
 769              	.L40:
 171:PSoC_Menu.c   ****     {
 770              		.loc 1 171 0 discriminator 2
 771 00f8 97F85F30 		ldrb	r3, [r7, #95]	@ zero_extendqisi2
 772 00fc 0133     		adds	r3, r3, #1
 773 00fe 87F85F30 		strb	r3, [r7, #95]
 774              	.L37:
 171:PSoC_Menu.c   ****     {
 775              		.loc 1 171 0 is_stmt 0 discriminator 1
 776 0102 97F85F30 		ldrb	r3, [r7, #95]	@ zero_extendqisi2
 777 0106 9BB2     		uxth	r3, r3
 778 0108 FA88     		ldrh	r2, [r7, #6]
 779 010a 9A42     		cmp	r2, r3
 780 010c 84D8     		bhi	.L42
 781              	.LBE2:
 198:PSoC_Menu.c   ****         }
 199:PSoC_Menu.c   ****     }
 200:PSoC_Menu.c   **** }
 782              		.loc 1 200 0 is_stmt 1
ARM GAS  C:\Users\doug_000\AppData\Local\Temp\ccT7HEp7.s 			page 21


 783 010e 00BF     		nop
 784 0110 6037     		adds	r7, r7, #96
 785              		.cfi_def_cfa_offset 8
 786 0112 BD46     		mov	sp, r7
 787              		.cfi_def_cfa_register 13
 788              		@ sp needed
 789 0114 80BD     		pop	{r7, pc}
 790              	.L44:
 791 0116 00BF     		.align	2
 792              	.L43:
 793 0118 00000000 		.word	gotCRorLF
 794 011c 08050000 		.word	.LC34
 795 0120 00000000 		.word	receiveBufferPtr
 796 0124 00000000 		.word	receiveBuffer
 797              		.cfi_endproc
 798              	.LFE66:
 799              		.size	addToReceiveBuffer, .-addToReceiveBuffer
 800              		.section	.text.putStringToUSB,"ax",%progbits
 801              		.align	2
 802              		.global	putStringToUSB
 803              		.thumb
 804              		.thumb_func
 805              		.type	putStringToUSB, %function
 806              	putStringToUSB:
 807              	.LFB67:
 201:PSoC_Menu.c   **** 
 202:PSoC_Menu.c   **** ////////////////////////////////////////////////////////////////////////////
 203:PSoC_Menu.c   **** // void putStringToUSB(char *)
 204:PSoC_Menu.c   **** 
 205:PSoC_Menu.c   **** void putStringToUSB(char * stringToPutOutUSB)
 206:PSoC_Menu.c   **** {
 808              		.loc 1 206 0
 809              		.cfi_startproc
 810              		@ args = 0, pretend = 0, frame = 8
 811              		@ frame_needed = 1, uses_anonymous_args = 0
 812 0000 80B5     		push	{r7, lr}
 813              		.cfi_def_cfa_offset 8
 814              		.cfi_offset 7, -8
 815              		.cfi_offset 14, -4
 816 0002 82B0     		sub	sp, sp, #8
 817              		.cfi_def_cfa_offset 16
 818 0004 00AF     		add	r7, sp, #0
 819              		.cfi_def_cfa_register 7
 820 0006 7860     		str	r0, [r7, #4]
 207:PSoC_Menu.c   ****     USBUART_PutData((uint8 *)stringToPutOutUSB, strlen(stringToPutOutUSB));
 821              		.loc 1 207 0
 822 0008 7868     		ldr	r0, [r7, #4]
 823 000a FFF7FEFF 		bl	strlen
 824 000e 0346     		mov	r3, r0
 825 0010 9BB2     		uxth	r3, r3
 826 0012 1946     		mov	r1, r3
 827 0014 7868     		ldr	r0, [r7, #4]
 828 0016 FFF7FEFF 		bl	USBUART_PutData
 208:PSoC_Menu.c   ****     while (0u == USBUART_CDCIsReady());
 829              		.loc 1 208 0
 830 001a 00BF     		nop
 831              	.L46:
ARM GAS  C:\Users\doug_000\AppData\Local\Temp\ccT7HEp7.s 			page 22


 832              		.loc 1 208 0 is_stmt 0 discriminator 1
 833 001c FFF7FEFF 		bl	USBUART_CDCIsReady
 834 0020 0346     		mov	r3, r0
 835 0022 002B     		cmp	r3, #0
 836 0024 FAD0     		beq	.L46
 209:PSoC_Menu.c   **** }
 837              		.loc 1 209 0 is_stmt 1
 838 0026 00BF     		nop
 839 0028 0837     		adds	r7, r7, #8
 840              		.cfi_def_cfa_offset 8
 841 002a BD46     		mov	sp, r7
 842              		.cfi_def_cfa_register 13
 843              		@ sp needed
 844 002c 80BD     		pop	{r7, pc}
 845              		.cfi_endproc
 846              	.LFE67:
 847              		.size	putStringToUSB, .-putStringToUSB
 848              		.section	.text.asciiNibbleToVal,"ax",%progbits
 849              		.align	2
 850              		.global	asciiNibbleToVal
 851              		.thumb
 852              		.thumb_func
 853              		.type	asciiNibbleToVal, %function
 854              	asciiNibbleToVal:
 855              	.LFB68:
 210:PSoC_Menu.c   **** 
 211:PSoC_Menu.c   **** ////////////////////////////////////////////////////////////////////////////
 212:PSoC_Menu.c   **** // asciiNibbleToVal(uint8)
 213:PSoC_Menu.c   **** 
 214:PSoC_Menu.c   **** uint32 asciiNibbleToVal(uint8 charVal)
 215:PSoC_Menu.c   **** {
 856              		.loc 1 215 0
 857              		.cfi_startproc
 858              		@ args = 0, pretend = 0, frame = 8
 859              		@ frame_needed = 1, uses_anonymous_args = 0
 860              		@ link register save eliminated.
 861 0000 80B4     		push	{r7}
 862              		.cfi_def_cfa_offset 4
 863              		.cfi_offset 7, -4
 864 0002 83B0     		sub	sp, sp, #12
 865              		.cfi_def_cfa_offset 16
 866 0004 00AF     		add	r7, sp, #0
 867              		.cfi_def_cfa_register 7
 868 0006 0346     		mov	r3, r0
 869 0008 FB71     		strb	r3, [r7, #7]
 216:PSoC_Menu.c   ****     if ((charVal >= '0') && (charVal <= '9'))
 870              		.loc 1 216 0
 871 000a FB79     		ldrb	r3, [r7, #7]	@ zero_extendqisi2
 872 000c 2F2B     		cmp	r3, #47
 873 000e 05D9     		bls	.L48
 874              		.loc 1 216 0 is_stmt 0 discriminator 1
 875 0010 FB79     		ldrb	r3, [r7, #7]	@ zero_extendqisi2
 876 0012 392B     		cmp	r3, #57
 877 0014 02D8     		bhi	.L48
 217:PSoC_Menu.c   ****         return (charVal-'0');
 878              		.loc 1 217 0 is_stmt 1
 879 0016 FB79     		ldrb	r3, [r7, #7]	@ zero_extendqisi2
ARM GAS  C:\Users\doug_000\AppData\Local\Temp\ccT7HEp7.s 			page 23


 880 0018 303B     		subs	r3, r3, #48
 881 001a 12E0     		b	.L49
 882              	.L48:
 218:PSoC_Menu.c   ****     else if ((charVal >= 'A') && (charVal <= 'F'))
 883              		.loc 1 218 0
 884 001c FB79     		ldrb	r3, [r7, #7]	@ zero_extendqisi2
 885 001e 402B     		cmp	r3, #64
 886 0020 05D9     		bls	.L50
 887              		.loc 1 218 0 is_stmt 0 discriminator 1
 888 0022 FB79     		ldrb	r3, [r7, #7]	@ zero_extendqisi2
 889 0024 462B     		cmp	r3, #70
 890 0026 02D8     		bhi	.L50
 219:PSoC_Menu.c   ****         return (charVal-'A'+10);
 891              		.loc 1 219 0 is_stmt 1
 892 0028 FB79     		ldrb	r3, [r7, #7]	@ zero_extendqisi2
 893 002a 373B     		subs	r3, r3, #55
 894 002c 09E0     		b	.L49
 895              	.L50:
 220:PSoC_Menu.c   ****     else if ((charVal >= 'a') && (charVal <= 'f'))
 896              		.loc 1 220 0
 897 002e FB79     		ldrb	r3, [r7, #7]	@ zero_extendqisi2
 898 0030 602B     		cmp	r3, #96
 899 0032 05D9     		bls	.L51
 900              		.loc 1 220 0 is_stmt 0 discriminator 1
 901 0034 FB79     		ldrb	r3, [r7, #7]	@ zero_extendqisi2
 902 0036 662B     		cmp	r3, #102
 903 0038 02D8     		bhi	.L51
 221:PSoC_Menu.c   ****         return (charVal-'a'+10);
 904              		.loc 1 221 0 is_stmt 1
 905 003a FB79     		ldrb	r3, [r7, #7]	@ zero_extendqisi2
 906 003c 573B     		subs	r3, r3, #87
 907 003e 00E0     		b	.L49
 908              	.L51:
 222:PSoC_Menu.c   ****     return(0);
 909              		.loc 1 222 0
 910 0040 0023     		movs	r3, #0
 911              	.L49:
 223:PSoC_Menu.c   **** }
 912              		.loc 1 223 0
 913 0042 1846     		mov	r0, r3
 914 0044 0C37     		adds	r7, r7, #12
 915              		.cfi_def_cfa_offset 4
 916 0046 BD46     		mov	sp, r7
 917              		.cfi_def_cfa_register 13
 918              		@ sp needed
 919 0048 80BC     		pop	{r7}
 920              		.cfi_restore 7
 921              		.cfi_def_cfa_offset 0
 922 004a 7047     		bx	lr
 923              		.cfi_endproc
 924              	.LFE68:
 925              		.size	asciiNibbleToVal, .-asciiNibbleToVal
 926              		.section	.text.extractLong,"ax",%progbits
 927              		.align	2
 928              		.global	extractLong
 929              		.thumb
 930              		.thumb_func
ARM GAS  C:\Users\doug_000\AppData\Local\Temp\ccT7HEp7.s 			page 24


 931              		.type	extractLong, %function
 932              	extractLong:
 933              	.LFB69:
 224:PSoC_Menu.c   **** 
 225:PSoC_Menu.c   **** ////////////////////////////////////////////////////////////////////////////
 226:PSoC_Menu.c   **** // uint32 extractLong(uint8 *)
 227:PSoC_Menu.c   **** 
 228:PSoC_Menu.c   **** uint32 extractLong(uint8 * commandString)
 229:PSoC_Menu.c   **** {
 934              		.loc 1 229 0
 935              		.cfi_startproc
 936              		@ args = 0, pretend = 0, frame = 16
 937              		@ frame_needed = 1, uses_anonymous_args = 0
 938 0000 80B5     		push	{r7, lr}
 939              		.cfi_def_cfa_offset 8
 940              		.cfi_offset 7, -8
 941              		.cfi_offset 14, -4
 942 0002 84B0     		sub	sp, sp, #16
 943              		.cfi_def_cfa_offset 24
 944 0004 00AF     		add	r7, sp, #0
 945              		.cfi_def_cfa_register 7
 946 0006 7860     		str	r0, [r7, #4]
 230:PSoC_Menu.c   ****     uint8 linePtr = 1;
 947              		.loc 1 230 0
 948 0008 0123     		movs	r3, #1
 949 000a FB73     		strb	r3, [r7, #15]
 231:PSoC_Menu.c   ****     uint32 rVal = 0;
 950              		.loc 1 231 0
 951 000c 0023     		movs	r3, #0
 952 000e BB60     		str	r3, [r7, #8]
 232:PSoC_Menu.c   ****     while ((commandString[linePtr] != 0) && (linePtr < 32) && (commandString[linePtr] != '\n') && (
 953              		.loc 1 232 0
 954 0010 10E0     		b	.L53
 955              	.L55:
 233:PSoC_Menu.c   ****     {
 234:PSoC_Menu.c   ****         rVal <<= 4;
 956              		.loc 1 234 0
 957 0012 BB68     		ldr	r3, [r7, #8]
 958 0014 1B01     		lsls	r3, r3, #4
 959 0016 BB60     		str	r3, [r7, #8]
 235:PSoC_Menu.c   ****         rVal |= asciiNibbleToVal(commandString[linePtr]);
 960              		.loc 1 235 0
 961 0018 FB7B     		ldrb	r3, [r7, #15]	@ zero_extendqisi2
 962 001a 7A68     		ldr	r2, [r7, #4]
 963 001c 1344     		add	r3, r3, r2
 964 001e 1B78     		ldrb	r3, [r3]	@ zero_extendqisi2
 965 0020 1846     		mov	r0, r3
 966 0022 FFF7FEFF 		bl	asciiNibbleToVal
 967 0026 0246     		mov	r2, r0
 968 0028 BB68     		ldr	r3, [r7, #8]
 969 002a 1343     		orrs	r3, r3, r2
 970 002c BB60     		str	r3, [r7, #8]
 236:PSoC_Menu.c   ****         linePtr++;
 971              		.loc 1 236 0
 972 002e FB7B     		ldrb	r3, [r7, #15]	@ zero_extendqisi2
 973 0030 0133     		adds	r3, r3, #1
 974 0032 FB73     		strb	r3, [r7, #15]
ARM GAS  C:\Users\doug_000\AppData\Local\Temp\ccT7HEp7.s 			page 25


 975              	.L53:
 232:PSoC_Menu.c   ****     {
 976              		.loc 1 232 0
 977 0034 FB7B     		ldrb	r3, [r7, #15]	@ zero_extendqisi2
 978 0036 7A68     		ldr	r2, [r7, #4]
 979 0038 1344     		add	r3, r3, r2
 980 003a 1B78     		ldrb	r3, [r3]	@ zero_extendqisi2
 981 003c 002B     		cmp	r3, #0
 982 003e 0ED0     		beq	.L54
 232:PSoC_Menu.c   ****     {
 983              		.loc 1 232 0 is_stmt 0 discriminator 1
 984 0040 FB7B     		ldrb	r3, [r7, #15]	@ zero_extendqisi2
 985 0042 1F2B     		cmp	r3, #31
 986 0044 0BD8     		bhi	.L54
 232:PSoC_Menu.c   ****     {
 987              		.loc 1 232 0 discriminator 2
 988 0046 FB7B     		ldrb	r3, [r7, #15]	@ zero_extendqisi2
 989 0048 7A68     		ldr	r2, [r7, #4]
 990 004a 1344     		add	r3, r3, r2
 991 004c 1B78     		ldrb	r3, [r3]	@ zero_extendqisi2
 992 004e 0A2B     		cmp	r3, #10
 993 0050 05D0     		beq	.L54
 232:PSoC_Menu.c   ****     {
 994              		.loc 1 232 0 discriminator 3
 995 0052 FB7B     		ldrb	r3, [r7, #15]	@ zero_extendqisi2
 996 0054 7A68     		ldr	r2, [r7, #4]
 997 0056 1344     		add	r3, r3, r2
 998 0058 1B78     		ldrb	r3, [r3]	@ zero_extendqisi2
 999 005a 0D2B     		cmp	r3, #13
 1000 005c D9D1     		bne	.L55
 1001              	.L54:
 237:PSoC_Menu.c   ****     }
 238:PSoC_Menu.c   ****     return (rVal);
 1002              		.loc 1 238 0 is_stmt 1
 1003 005e BB68     		ldr	r3, [r7, #8]
 239:PSoC_Menu.c   **** }
 1004              		.loc 1 239 0
 1005 0060 1846     		mov	r0, r3
 1006 0062 1037     		adds	r7, r7, #16
 1007              		.cfi_def_cfa_offset 8
 1008 0064 BD46     		mov	sp, r7
 1009              		.cfi_def_cfa_register 13
 1010              		@ sp needed
 1011 0066 80BD     		pop	{r7, pc}
 1012              		.cfi_endproc
 1013              	.LFE69:
 1014              		.size	extractLong, .-extractLong
 1015              		.text
 1016              	.Letext0:
 1017              		.file 2 "c:\\program files (x86)\\cypress\\psoc creator\\4.3\\psoc creator\\import\\gnu\\arm\\5.4.
 1018              		.file 3 "c:\\program files (x86)\\cypress\\psoc creator\\4.3\\psoc creator\\import\\gnu\\arm\\5.4.
 1019              		.file 4 "Generated_Source\\PSoC5/cytypes.h"
 1020              		.file 5 "Generated_Source\\PSoC5/core_cm3.h"
 1021              		.file 6 "RPI_PSOC5.h"