ARM GAS  C:\Users\HPz420\AppData\Local\Temp\ccWW5KDo.s 			page 1


   1              		.syntax unified
   2              		.cpu cortex-m3
   3              		.fpu softvfp
   4              		.eabi_attribute 20, 1
   5              		.eabi_attribute 21, 1
   6              		.eabi_attribute 23, 3
   7              		.eabi_attribute 24, 1
   8              		.eabi_attribute 25, 1
   9              		.eabi_attribute 26, 1
  10              		.eabi_attribute 30, 6
  11              		.eabi_attribute 34, 1
  12              		.eabi_attribute 18, 4
  13              		.thumb
  14              		.syntax unified
  15              		.file	"RasPi_Pins.c"
  16              		.text
  17              	.Ltext0:
  18              		.cfi_sections	.debug_frame
  19              		.section	.text.setRasPiPin,"ax",%progbits
  20              		.align	2
  21              		.global	setRasPiPin
  22              		.thumb
  23              		.thumb_func
  24              		.type	setRasPiPin, %function
  25              	setRasPiPin:
  26              	.LFB63:
  27              		.file 1 "RasPi_Pins.c"
   1:RasPi_Pins.c  **** /* ========================================
   2:RasPi_Pins.c  ****  *
   3:RasPi_Pins.c  ****  * Copyright YOUR COMPANY, THE YEAR
   4:RasPi_Pins.c  ****  * All Rights Reserved
   5:RasPi_Pins.c  ****  * UNPUBLISHED, LICENSED SOFTWARE.
   6:RasPi_Pins.c  ****  *
   7:RasPi_Pins.c  ****  * CONFIDENTIAL AND PROPRIETARY INFORMATION
   8:RasPi_Pins.c  ****  * WHICH IS THE PROPERTY OF your company.
   9:RasPi_Pins.c  ****  *
  10:RasPi_Pins.c  ****  * ========================================
  11:RasPi_Pins.c  **** */
  12:RasPi_Pins.c  **** 
  13:RasPi_Pins.c  **** #include "RasPi_Pins.h"
  14:RasPi_Pins.c  **** 
  15:RasPi_Pins.c  **** void setRasPiPin(uint8 bcmPinNum, uint8 value)
  16:RasPi_Pins.c  **** {
  28              		.loc 1 16 0
  29              		.cfi_startproc
  30              		@ args = 0, pretend = 0, frame = 8
  31              		@ frame_needed = 1, uses_anonymous_args = 0
  32 0000 80B5     		push	{r7, lr}
  33              		.cfi_def_cfa_offset 8
  34              		.cfi_offset 7, -8
  35              		.cfi_offset 14, -4
  36 0002 82B0     		sub	sp, sp, #8
  37              		.cfi_def_cfa_offset 16
  38 0004 00AF     		add	r7, sp, #0
  39              		.cfi_def_cfa_register 7
  40 0006 0346     		mov	r3, r0
  41 0008 0A46     		mov	r2, r1
ARM GAS  C:\Users\HPz420\AppData\Local\Temp\ccWW5KDo.s 			page 2


  42 000a FB71     		strb	r3, [r7, #7]
  43 000c 1346     		mov	r3, r2
  44 000e BB71     		strb	r3, [r7, #6]
  17:RasPi_Pins.c  ****     switch (bcmPinNum)
  45              		.loc 1 17 0
  46 0010 FB79     		ldrb	r3, [r7, #7]	@ zero_extendqisi2
  47 0012 192B     		cmp	r3, #25
  48 0014 00F2A480 		bhi	.L25
  49 0018 01A2     		adr	r2, .L4
  50 001a 52F823F0 		ldr	pc, [r2, r3, lsl #2]
  51 001e 00BF     		.p2align 2
  52              	.L4:
  53 0020 89000000 		.word	.L3+1
  54 0024 99000000 		.word	.L5+1
  55 0028 A3000000 		.word	.L6+1
  56 002c AD000000 		.word	.L7+1
  57 0030 B7000000 		.word	.L8+1
  58 0034 C1000000 		.word	.L9+1
  59 0038 CB000000 		.word	.L10+1
  60 003c D5000000 		.word	.L11+1
  61 0040 DF000000 		.word	.L12+1
  62 0044 E9000000 		.word	.L13+1
  63 0048 F3000000 		.word	.L14+1
  64 004c 61010000 		.word	.L25+1
  65 0050 61010000 		.word	.L25+1
  66 0054 61010000 		.word	.L25+1
  67 0058 61010000 		.word	.L25+1
  68 005c 61010000 		.word	.L25+1
  69 0060 FD000000 		.word	.L15+1
  70 0064 07010000 		.word	.L16+1
  71 0068 11010000 		.word	.L17+1
  72 006c 1B010000 		.word	.L18+1
  73 0070 25010000 		.word	.L19+1
  74 0074 2F010000 		.word	.L20+1
  75 0078 39010000 		.word	.L21+1
  76 007c 43010000 		.word	.L22+1
  77 0080 4D010000 		.word	.L23+1
  78 0084 57010000 		.word	.L24+1
  79              		.p2align 1
  80              	.L3:
  18:RasPi_Pins.c  ****     {
  19:RasPi_Pins.c  ****         case IO_2:
  20:RasPi_Pins.c  ****             IO_2_SetDriveMode(PIN_DM_STRONG);
  81              		.loc 1 20 0
  82 0088 0C20     		movs	r0, #12
  83 008a FFF7FEFF 		bl	IO_2_SetDriveMode
  21:RasPi_Pins.c  ****             IO_2_Write(value);
  84              		.loc 1 21 0
  85 008e BB79     		ldrb	r3, [r7, #6]	@ zero_extendqisi2
  86 0090 1846     		mov	r0, r3
  87 0092 FFF7FEFF 		bl	IO_2_Write
  22:RasPi_Pins.c  ****             break;
  88              		.loc 1 22 0
  89 0096 63E0     		b	.L2
  90              	.L5:
  23:RasPi_Pins.c  ****         case IO_3:
  24:RasPi_Pins.c  ****             IO_3_Write(value);
ARM GAS  C:\Users\HPz420\AppData\Local\Temp\ccWW5KDo.s 			page 3


  91              		.loc 1 24 0
  92 0098 BB79     		ldrb	r3, [r7, #6]	@ zero_extendqisi2
  93 009a 1846     		mov	r0, r3
  94 009c FFF7FEFF 		bl	IO_3_Write
  25:RasPi_Pins.c  ****             break;
  95              		.loc 1 25 0
  96 00a0 5EE0     		b	.L2
  97              	.L6:
  26:RasPi_Pins.c  ****         case IO_4:
  27:RasPi_Pins.c  ****             IO_4_Write(value);
  98              		.loc 1 27 0
  99 00a2 BB79     		ldrb	r3, [r7, #6]	@ zero_extendqisi2
 100 00a4 1846     		mov	r0, r3
 101 00a6 FFF7FEFF 		bl	IO_4_Write
  28:RasPi_Pins.c  ****             break;
 102              		.loc 1 28 0
 103 00aa 59E0     		b	.L2
 104              	.L7:
  29:RasPi_Pins.c  ****         case IO_14:
  30:RasPi_Pins.c  ****             IO_14_Write(value);
 105              		.loc 1 30 0
 106 00ac BB79     		ldrb	r3, [r7, #6]	@ zero_extendqisi2
 107 00ae 1846     		mov	r0, r3
 108 00b0 FFF7FEFF 		bl	IO_14_Write
  31:RasPi_Pins.c  ****             break;
 109              		.loc 1 31 0
 110 00b4 54E0     		b	.L2
 111              	.L8:
  32:RasPi_Pins.c  ****         case IO_15:
  33:RasPi_Pins.c  ****             IO_15_Write(value);
 112              		.loc 1 33 0
 113 00b6 BB79     		ldrb	r3, [r7, #6]	@ zero_extendqisi2
 114 00b8 1846     		mov	r0, r3
 115 00ba FFF7FEFF 		bl	IO_15_Write
  34:RasPi_Pins.c  ****             break;
 116              		.loc 1 34 0
 117 00be 4FE0     		b	.L2
 118              	.L9:
  35:RasPi_Pins.c  ****         case IO_17:
  36:RasPi_Pins.c  ****             IO_17_Write(value);
 119              		.loc 1 36 0
 120 00c0 BB79     		ldrb	r3, [r7, #6]	@ zero_extendqisi2
 121 00c2 1846     		mov	r0, r3
 122 00c4 FFF7FEFF 		bl	IO_17_Write
  37:RasPi_Pins.c  ****             break;
 123              		.loc 1 37 0
 124 00c8 4AE0     		b	.L2
 125              	.L10:
  38:RasPi_Pins.c  ****         case IO_18:
  39:RasPi_Pins.c  ****             IO_18_Write(value);
 126              		.loc 1 39 0
 127 00ca BB79     		ldrb	r3, [r7, #6]	@ zero_extendqisi2
 128 00cc 1846     		mov	r0, r3
 129 00ce FFF7FEFF 		bl	IO_18_Write
  40:RasPi_Pins.c  ****             break;
 130              		.loc 1 40 0
 131 00d2 45E0     		b	.L2
ARM GAS  C:\Users\HPz420\AppData\Local\Temp\ccWW5KDo.s 			page 4


 132              	.L11:
  41:RasPi_Pins.c  ****         case IO_27:
  42:RasPi_Pins.c  ****             IO_27_Write(value);
 133              		.loc 1 42 0
 134 00d4 BB79     		ldrb	r3, [r7, #6]	@ zero_extendqisi2
 135 00d6 1846     		mov	r0, r3
 136 00d8 FFF7FEFF 		bl	IO_27_Write
  43:RasPi_Pins.c  ****             break;
 137              		.loc 1 43 0
 138 00dc 40E0     		b	.L2
 139              	.L12:
  44:RasPi_Pins.c  ****         case IO_22:
  45:RasPi_Pins.c  ****             IO_22_Write(value);
 140              		.loc 1 45 0
 141 00de BB79     		ldrb	r3, [r7, #6]	@ zero_extendqisi2
 142 00e0 1846     		mov	r0, r3
 143 00e2 FFF7FEFF 		bl	IO_22_Write
  46:RasPi_Pins.c  ****             break;
 144              		.loc 1 46 0
 145 00e6 3BE0     		b	.L2
 146              	.L13:
  47:RasPi_Pins.c  ****         case IO_23:
  48:RasPi_Pins.c  ****             IO_23_Write(value);
 147              		.loc 1 48 0
 148 00e8 BB79     		ldrb	r3, [r7, #6]	@ zero_extendqisi2
 149 00ea 1846     		mov	r0, r3
 150 00ec FFF7FEFF 		bl	IO_23_Write
  49:RasPi_Pins.c  ****             break;
 151              		.loc 1 49 0
 152 00f0 36E0     		b	.L2
 153              	.L14:
  50:RasPi_Pins.c  ****         case IO_24:
  51:RasPi_Pins.c  ****             IO_24_Write(value);
 154              		.loc 1 51 0
 155 00f2 BB79     		ldrb	r3, [r7, #6]	@ zero_extendqisi2
 156 00f4 1846     		mov	r0, r3
 157 00f6 FFF7FEFF 		bl	IO_24_Write
  52:RasPi_Pins.c  ****             break;
 158              		.loc 1 52 0
 159 00fa 31E0     		b	.L2
 160              	.L15:
  53:RasPi_Pins.c  ****         case IO_7:
  54:RasPi_Pins.c  ****             IO_7_Write(value);
 161              		.loc 1 54 0
 162 00fc BB79     		ldrb	r3, [r7, #6]	@ zero_extendqisi2
 163 00fe 1846     		mov	r0, r3
 164 0100 FFF7FEFF 		bl	IO_7_Write
  55:RasPi_Pins.c  ****             break;
 165              		.loc 1 55 0
 166 0104 2CE0     		b	.L2
 167              	.L16:
  56:RasPi_Pins.c  ****         case IO_5:
  57:RasPi_Pins.c  ****             IO_5_Write(value);
 168              		.loc 1 57 0
 169 0106 BB79     		ldrb	r3, [r7, #6]	@ zero_extendqisi2
 170 0108 1846     		mov	r0, r3
 171 010a FFF7FEFF 		bl	IO_5_Write
ARM GAS  C:\Users\HPz420\AppData\Local\Temp\ccWW5KDo.s 			page 5


  58:RasPi_Pins.c  ****             break;
 172              		.loc 1 58 0
 173 010e 27E0     		b	.L2
 174              	.L17:
  59:RasPi_Pins.c  ****         case IO_6:
  60:RasPi_Pins.c  ****             IO_6_Write(value);
 175              		.loc 1 60 0
 176 0110 BB79     		ldrb	r3, [r7, #6]	@ zero_extendqisi2
 177 0112 1846     		mov	r0, r3
 178 0114 FFF7FEFF 		bl	IO_6_Write
  61:RasPi_Pins.c  ****             break;
 179              		.loc 1 61 0
 180 0118 22E0     		b	.L2
 181              	.L18:
  62:RasPi_Pins.c  ****         case IO_12:
  63:RasPi_Pins.c  ****             IO_12_Write(value);
 182              		.loc 1 63 0
 183 011a BB79     		ldrb	r3, [r7, #6]	@ zero_extendqisi2
 184 011c 1846     		mov	r0, r3
 185 011e FFF7FEFF 		bl	IO_12_Write
  64:RasPi_Pins.c  ****             break;
 186              		.loc 1 64 0
 187 0122 1DE0     		b	.L2
 188              	.L19:
  65:RasPi_Pins.c  ****         case IO_13:
  66:RasPi_Pins.c  ****             IO_13_Write(value);
 189              		.loc 1 66 0
 190 0124 BB79     		ldrb	r3, [r7, #6]	@ zero_extendqisi2
 191 0126 1846     		mov	r0, r3
 192 0128 FFF7FEFF 		bl	IO_13_Write
  67:RasPi_Pins.c  ****             break;
 193              		.loc 1 67 0
 194 012c 18E0     		b	.L2
 195              	.L20:
  68:RasPi_Pins.c  ****         case IO_19:
  69:RasPi_Pins.c  ****             IO_19_Write(value);
 196              		.loc 1 69 0
 197 012e BB79     		ldrb	r3, [r7, #6]	@ zero_extendqisi2
 198 0130 1846     		mov	r0, r3
 199 0132 FFF7FEFF 		bl	IO_19_Write
  70:RasPi_Pins.c  ****             break;
 200              		.loc 1 70 0
 201 0136 13E0     		b	.L2
 202              	.L21:
  71:RasPi_Pins.c  ****         case IO_16:
  72:RasPi_Pins.c  ****             IO_16_Write(value);
 203              		.loc 1 72 0
 204 0138 BB79     		ldrb	r3, [r7, #6]	@ zero_extendqisi2
 205 013a 1846     		mov	r0, r3
 206 013c FFF7FEFF 		bl	IO_16_Write
  73:RasPi_Pins.c  ****             break;
 207              		.loc 1 73 0
 208 0140 0EE0     		b	.L2
 209              	.L22:
  74:RasPi_Pins.c  ****         case IO_26:
  75:RasPi_Pins.c  ****             IO_26_Write(value);
 210              		.loc 1 75 0
ARM GAS  C:\Users\HPz420\AppData\Local\Temp\ccWW5KDo.s 			page 6


 211 0142 BB79     		ldrb	r3, [r7, #6]	@ zero_extendqisi2
 212 0144 1846     		mov	r0, r3
 213 0146 FFF7FEFF 		bl	IO_26_Write
  76:RasPi_Pins.c  ****             break;
 214              		.loc 1 76 0
 215 014a 09E0     		b	.L2
 216              	.L23:
  77:RasPi_Pins.c  ****         case IO_20:
  78:RasPi_Pins.c  ****             IO_20_Write(value);
 217              		.loc 1 78 0
 218 014c BB79     		ldrb	r3, [r7, #6]	@ zero_extendqisi2
 219 014e 1846     		mov	r0, r3
 220 0150 FFF7FEFF 		bl	IO_20_Write
  79:RasPi_Pins.c  ****             break;
 221              		.loc 1 79 0
 222 0154 04E0     		b	.L2
 223              	.L24:
  80:RasPi_Pins.c  ****         case IO_21:
  81:RasPi_Pins.c  ****             IO_21_Write(value);
 224              		.loc 1 81 0
 225 0156 BB79     		ldrb	r3, [r7, #6]	@ zero_extendqisi2
 226 0158 1846     		mov	r0, r3
 227 015a FFF7FEFF 		bl	IO_21_Write
  82:RasPi_Pins.c  ****             break;
 228              		.loc 1 82 0
 229 015e 00BF     		nop
 230              	.L2:
 231              	.L25:
  83:RasPi_Pins.c  ****         }
  84:RasPi_Pins.c  **** }
 232              		.loc 1 84 0
 233 0160 00BF     		nop
 234 0162 0837     		adds	r7, r7, #8
 235              		.cfi_def_cfa_offset 8
 236 0164 BD46     		mov	sp, r7
 237              		.cfi_def_cfa_register 13
 238              		@ sp needed
 239 0166 80BD     		pop	{r7, pc}
 240              		.cfi_endproc
 241              	.LFE63:
 242              		.size	setRasPiPin, .-setRasPiPin
 243              		.text
 244              	.Letext0:
 245              		.file 2 "c:\\program files (x86)\\cypress\\psoc creator\\4.2\\psoc creator\\import\\gnu\\arm\\5.4.
 246              		.file 3 "c:\\program files (x86)\\cypress\\psoc creator\\4.2\\psoc creator\\import\\gnu\\arm\\5.4.
 247              		.file 4 "Generated_Source\\PSoC5/cytypes.h"
 248              		.file 5 "RasPi_Pins.h"
 249              		.file 6 "Generated_Source\\PSoC5/core_cm3.h"