ARM GAS  C:\Users\HPz420\AppData\Local\Temp\cc5qBwBZ.s 			page 1


   1              		.syntax unified
   2              		.cpu cortex-m3
   3              		.fpu softvfp
   4              		.eabi_attribute 20, 1
   5              		.eabi_attribute 21, 1
   6              		.eabi_attribute 23, 3
   7              		.eabi_attribute 24, 1
   8              		.eabi_attribute 25, 1
   9              		.eabi_attribute 26, 1
  10              		.eabi_attribute 30, 6
  11              		.eabi_attribute 34, 1
  12              		.eabi_attribute 18, 4
  13              		.thumb
  14              		.syntax unified
  15              		.file	"Test_RPI_SPI8.c"
  16              		.text
  17              	.Ltext0:
  18              		.cfi_sections	.debug_frame
  19              		.section	.text.testRPISPI8,"ax",%progbits
  20              		.align	2
  21              		.global	testRPISPI8
  22              		.thumb
  23              		.thumb_func
  24              		.type	testRPISPI8, %function
  25              	testRPISPI8:
  26              	.LFB63:
  27              		.file 1 "Test_RPI_SPI8.c"
   1:Test_RPI_SPI8.c **** /* ========================================
   2:Test_RPI_SPI8.c ****  *
   3:Test_RPI_SPI8.c ****  * Copyright LAND BOARDS, LLC, 2019
   4:Test_RPI_SPI8.c ****  * All Rights Reserved
   5:Test_RPI_SPI8.c ****  * UNPUBLISHED, LICENSED SOFTWARE.
   6:Test_RPI_SPI8.c ****  *
   7:Test_RPI_SPI8.c ****  * CONFIDENTIAL AND PROPRIETARY INFORMATION
   8:Test_RPI_SPI8.c ****  * WHICH IS THE PROPERTY OF Land Boards.
   9:Test_RPI_SPI8.c ****  *
  10:Test_RPI_SPI8.c ****  * ========================================
  11:Test_RPI_SPI8.c **** */
  12:Test_RPI_SPI8.c **** 
  13:Test_RPI_SPI8.c **** #include <project.h>
  14:Test_RPI_SPI8.c **** #include "RPI_PSOC5.h"
  15:Test_RPI_SPI8.c **** 
  16:Test_RPI_SPI8.c **** #define LED_ON 1
  17:Test_RPI_SPI8.c **** #define LED_OFF 0
  18:Test_RPI_SPI8.c **** 
  19:Test_RPI_SPI8.c **** 
  20:Test_RPI_SPI8.c **** void testRPISPI8(void)
  21:Test_RPI_SPI8.c **** {
  28              		.loc 1 21 0
  29              		.cfi_startproc
  30              		@ args = 0, pretend = 0, frame = 0
  31              		@ frame_needed = 1, uses_anonymous_args = 0
  32 0000 80B5     		push	{r7, lr}
  33              		.cfi_def_cfa_offset 8
  34              		.cfi_offset 7, -8
  35              		.cfi_offset 14, -4
  36 0002 00AF     		add	r7, sp, #0
ARM GAS  C:\Users\HPz420\AppData\Local\Temp\cc5qBwBZ.s 			page 2


  37              		.cfi_def_cfa_register 7
  22:Test_RPI_SPI8.c **** // Set all of the RPI pins to outputs
  23:Test_RPI_SPI8.c ****     setRasPiPinValue(IO_9,PIN_DM_STRONG);   // SPIMISO 
  38              		.loc 1 23 0
  39 0004 0C21     		movs	r1, #12
  40 0006 0C20     		movs	r0, #12
  41 0008 FFF7FEFF 		bl	setRasPiPinValue
  24:Test_RPI_SPI8.c ****     setRasPiPinValue(IO_10,PIN_DM_STRONG);  // SPIMOSI
  42              		.loc 1 24 0
  43 000c 0C21     		movs	r1, #12
  44 000e 0B20     		movs	r0, #11
  45 0010 FFF7FEFF 		bl	setRasPiPinValue
  25:Test_RPI_SPI8.c ****     setRasPiPinValue(IO_11,PIN_DM_STRONG);  // SPISCK
  46              		.loc 1 25 0
  47 0014 0C21     		movs	r1, #12
  48 0016 0E20     		movs	r0, #14
  49 0018 FFF7FEFF 		bl	setRasPiPinValue
  26:Test_RPI_SPI8.c ****     setRasPiPinValue(IO_8,PIN_DM_STRONG);   // SPICE0
  50              		.loc 1 26 0
  51 001c 0C21     		movs	r1, #12
  52 001e 0F20     		movs	r0, #15
  53 0020 FFF7FEFF 		bl	setRasPiPinValue
  27:Test_RPI_SPI8.c ****     setRasPiPinValue(IO_22,PIN_DM_STRONG);  // A0
  54              		.loc 1 27 0
  55 0024 0C21     		movs	r1, #12
  56 0026 0820     		movs	r0, #8
  57 0028 FFF7FEFF 		bl	setRasPiPinValue
  28:Test_RPI_SPI8.c ****     setRasPiPinValue(IO_27,PIN_DM_STRONG);  // A1
  58              		.loc 1 28 0
  59 002c 0C21     		movs	r1, #12
  60 002e 0720     		movs	r0, #7
  61 0030 FFF7FEFF 		bl	setRasPiPinValue
  29:Test_RPI_SPI8.c ****     setRasPiPinValue(IO_17,PIN_DM_STRONG);  // A2
  62              		.loc 1 29 0
  63 0034 0C21     		movs	r1, #12
  64 0036 0520     		movs	r0, #5
  65 0038 FFF7FEFF 		bl	setRasPiPinValue
  30:Test_RPI_SPI8.c ****     
  31:Test_RPI_SPI8.c **** // Set all of the RPI pins to low
  32:Test_RPI_SPI8.c ****     setRasPiPinValue(IO_9,LED_OFF);         // SPIMISO 
  66              		.loc 1 32 0
  67 003c 0021     		movs	r1, #0
  68 003e 0C20     		movs	r0, #12
  69 0040 FFF7FEFF 		bl	setRasPiPinValue
  33:Test_RPI_SPI8.c ****     setRasPiPinValue(IO_10,LED_OFF);        // SPIMOSI
  70              		.loc 1 33 0
  71 0044 0021     		movs	r1, #0
  72 0046 0B20     		movs	r0, #11
  73 0048 FFF7FEFF 		bl	setRasPiPinValue
  34:Test_RPI_SPI8.c ****     setRasPiPinValue(IO_11,LED_OFF);        // SPISCK
  74              		.loc 1 34 0
  75 004c 0021     		movs	r1, #0
  76 004e 0E20     		movs	r0, #14
  77 0050 FFF7FEFF 		bl	setRasPiPinValue
  35:Test_RPI_SPI8.c ****     setRasPiPinValue(IO_8,LED_OFF);         // SPICE0
  78              		.loc 1 35 0
  79 0054 0021     		movs	r1, #0
ARM GAS  C:\Users\HPz420\AppData\Local\Temp\cc5qBwBZ.s 			page 3


  80 0056 0F20     		movs	r0, #15
  81 0058 FFF7FEFF 		bl	setRasPiPinValue
  36:Test_RPI_SPI8.c ****     setRasPiPinValue(IO_22,LED_OFF);        // A0
  82              		.loc 1 36 0
  83 005c 0021     		movs	r1, #0
  84 005e 0820     		movs	r0, #8
  85 0060 FFF7FEFF 		bl	setRasPiPinValue
  37:Test_RPI_SPI8.c ****     setRasPiPinValue(IO_27,LED_OFF);        // A1
  86              		.loc 1 37 0
  87 0064 0021     		movs	r1, #0
  88 0066 0720     		movs	r0, #7
  89 0068 FFF7FEFF 		bl	setRasPiPinValue
  38:Test_RPI_SPI8.c ****     setRasPiPinValue(IO_17,LED_OFF);        // A2
  90              		.loc 1 38 0
  91 006c 0021     		movs	r1, #0
  92 006e 0520     		movs	r0, #5
  93 0070 FFF7FEFF 		bl	setRasPiPinValue
  94              	.L2:
  39:Test_RPI_SPI8.c ****     
  40:Test_RPI_SPI8.c **** // Blink all of the LEDs one at a time forever
  41:Test_RPI_SPI8.c **** // CTRL-C to exit which is not a particularly elegant exit strategy, but this is a demo program
  42:Test_RPI_SPI8.c **** 
  43:Test_RPI_SPI8.c ****     while (1)
  44:Test_RPI_SPI8.c ****     {
  45:Test_RPI_SPI8.c ****         setRasPiPinValue(IO_22,LED_OFF);    // A0
  95              		.loc 1 45 0 discriminator 1
  96 0074 0021     		movs	r1, #0
  97 0076 0820     		movs	r0, #8
  98 0078 FFF7FEFF 		bl	setRasPiPinValue
  46:Test_RPI_SPI8.c ****         setRasPiPinValue(IO_27,LED_OFF);    // A1
  99              		.loc 1 46 0 discriminator 1
 100 007c 0021     		movs	r1, #0
 101 007e 0720     		movs	r0, #7
 102 0080 FFF7FEFF 		bl	setRasPiPinValue
  47:Test_RPI_SPI8.c ****         setRasPiPinValue(IO_17,LED_OFF);    // A2
 103              		.loc 1 47 0 discriminator 1
 104 0084 0021     		movs	r1, #0
 105 0086 0520     		movs	r0, #5
 106 0088 FFF7FEFF 		bl	setRasPiPinValue
  48:Test_RPI_SPI8.c ****      	blinkLED(IO_9);                     // SPIMISO 
 107              		.loc 1 48 0 discriminator 1
 108 008c 0C20     		movs	r0, #12
 109 008e FFF7FEFF 		bl	blinkLED
  49:Test_RPI_SPI8.c ****     	blinkLED(IO_10);                    // SPIMOSI
 110              		.loc 1 49 0 discriminator 1
 111 0092 0B20     		movs	r0, #11
 112 0094 FFF7FEFF 		bl	blinkLED
  50:Test_RPI_SPI8.c ****     	blinkLED(IO_11);                    // SPISCK
 113              		.loc 1 50 0 discriminator 1
 114 0098 0E20     		movs	r0, #14
 115 009a FFF7FEFF 		bl	blinkLED
  51:Test_RPI_SPI8.c ****     	blinkLED(IO_8);                     // SPICE0
 116              		.loc 1 51 0 discriminator 1
 117 009e 0F20     		movs	r0, #15
 118 00a0 FFF7FEFF 		bl	blinkLED
  52:Test_RPI_SPI8.c ****         
  53:Test_RPI_SPI8.c ****         setRasPiPinValue(IO_22,LED_ON);     // A0
ARM GAS  C:\Users\HPz420\AppData\Local\Temp\cc5qBwBZ.s 			page 4


 119              		.loc 1 53 0 discriminator 1
 120 00a4 0121     		movs	r1, #1
 121 00a6 0820     		movs	r0, #8
 122 00a8 FFF7FEFF 		bl	setRasPiPinValue
  54:Test_RPI_SPI8.c ****         setRasPiPinValue(IO_27,LED_OFF);    // A1
 123              		.loc 1 54 0 discriminator 1
 124 00ac 0021     		movs	r1, #0
 125 00ae 0720     		movs	r0, #7
 126 00b0 FFF7FEFF 		bl	setRasPiPinValue
  55:Test_RPI_SPI8.c ****         setRasPiPinValue(IO_17,LED_OFF);    // A2
 127              		.loc 1 55 0 discriminator 1
 128 00b4 0021     		movs	r1, #0
 129 00b6 0520     		movs	r0, #5
 130 00b8 FFF7FEFF 		bl	setRasPiPinValue
  56:Test_RPI_SPI8.c ****      	blinkLED(IO_9);                     // SPIMISO 
 131              		.loc 1 56 0 discriminator 1
 132 00bc 0C20     		movs	r0, #12
 133 00be FFF7FEFF 		bl	blinkLED
  57:Test_RPI_SPI8.c ****     	blinkLED(IO_10);                    // SPIMOSI
 134              		.loc 1 57 0 discriminator 1
 135 00c2 0B20     		movs	r0, #11
 136 00c4 FFF7FEFF 		bl	blinkLED
  58:Test_RPI_SPI8.c ****     	blinkLED(IO_11);                    // SPISCK
 137              		.loc 1 58 0 discriminator 1
 138 00c8 0E20     		movs	r0, #14
 139 00ca FFF7FEFF 		bl	blinkLED
  59:Test_RPI_SPI8.c ****     	blinkLED(IO_8);                     // SPICE0
 140              		.loc 1 59 0 discriminator 1
 141 00ce 0F20     		movs	r0, #15
 142 00d0 FFF7FEFF 		bl	blinkLED
  60:Test_RPI_SPI8.c ****         
  61:Test_RPI_SPI8.c ****         setRasPiPinValue(IO_22,LED_OFF);    // A0
 143              		.loc 1 61 0 discriminator 1
 144 00d4 0021     		movs	r1, #0
 145 00d6 0820     		movs	r0, #8
 146 00d8 FFF7FEFF 		bl	setRasPiPinValue
  62:Test_RPI_SPI8.c ****         setRasPiPinValue(IO_27,LED_ON);     // A1
 147              		.loc 1 62 0 discriminator 1
 148 00dc 0121     		movs	r1, #1
 149 00de 0720     		movs	r0, #7
 150 00e0 FFF7FEFF 		bl	setRasPiPinValue
  63:Test_RPI_SPI8.c ****         setRasPiPinValue(IO_17,LED_OFF);    // A2
 151              		.loc 1 63 0 discriminator 1
 152 00e4 0021     		movs	r1, #0
 153 00e6 0520     		movs	r0, #5
 154 00e8 FFF7FEFF 		bl	setRasPiPinValue
  64:Test_RPI_SPI8.c ****      	blinkLED(IO_9);                     // SPIMISO 
 155              		.loc 1 64 0 discriminator 1
 156 00ec 0C20     		movs	r0, #12
 157 00ee FFF7FEFF 		bl	blinkLED
  65:Test_RPI_SPI8.c ****     	blinkLED(IO_10);                    // SPIMOSI
 158              		.loc 1 65 0 discriminator 1
 159 00f2 0B20     		movs	r0, #11
 160 00f4 FFF7FEFF 		bl	blinkLED
  66:Test_RPI_SPI8.c ****     	blinkLED(IO_11);                    // SPISCK
 161              		.loc 1 66 0 discriminator 1
 162 00f8 0E20     		movs	r0, #14
ARM GAS  C:\Users\HPz420\AppData\Local\Temp\cc5qBwBZ.s 			page 5


 163 00fa FFF7FEFF 		bl	blinkLED
  67:Test_RPI_SPI8.c ****     	blinkLED(IO_8);                     // SPICE0
 164              		.loc 1 67 0 discriminator 1
 165 00fe 0F20     		movs	r0, #15
 166 0100 FFF7FEFF 		bl	blinkLED
  68:Test_RPI_SPI8.c ****         
  69:Test_RPI_SPI8.c ****         setRasPiPinValue(IO_22,LED_ON);     // A0
 167              		.loc 1 69 0 discriminator 1
 168 0104 0121     		movs	r1, #1
 169 0106 0820     		movs	r0, #8
 170 0108 FFF7FEFF 		bl	setRasPiPinValue
  70:Test_RPI_SPI8.c ****         setRasPiPinValue(IO_27,LED_ON);     // A1
 171              		.loc 1 70 0 discriminator 1
 172 010c 0121     		movs	r1, #1
 173 010e 0720     		movs	r0, #7
 174 0110 FFF7FEFF 		bl	setRasPiPinValue
  71:Test_RPI_SPI8.c ****         setRasPiPinValue(IO_17,LED_OFF);    // A2
 175              		.loc 1 71 0 discriminator 1
 176 0114 0021     		movs	r1, #0
 177 0116 0520     		movs	r0, #5
 178 0118 FFF7FEFF 		bl	setRasPiPinValue
  72:Test_RPI_SPI8.c ****      	blinkLED(IO_9);                     // SPIMISO 
 179              		.loc 1 72 0 discriminator 1
 180 011c 0C20     		movs	r0, #12
 181 011e FFF7FEFF 		bl	blinkLED
  73:Test_RPI_SPI8.c ****     	blinkLED(IO_10);                    // SPIMOSI
 182              		.loc 1 73 0 discriminator 1
 183 0122 0B20     		movs	r0, #11
 184 0124 FFF7FEFF 		bl	blinkLED
  74:Test_RPI_SPI8.c ****     	blinkLED(IO_11);                    // SPISCK
 185              		.loc 1 74 0 discriminator 1
 186 0128 0E20     		movs	r0, #14
 187 012a FFF7FEFF 		bl	blinkLED
  75:Test_RPI_SPI8.c ****     	blinkLED(IO_8);                     // SPICE0
 188              		.loc 1 75 0 discriminator 1
 189 012e 0F20     		movs	r0, #15
 190 0130 FFF7FEFF 		bl	blinkLED
  76:Test_RPI_SPI8.c ****         
  77:Test_RPI_SPI8.c ****         setRasPiPinValue(IO_22,LED_OFF);    // A0
 191              		.loc 1 77 0 discriminator 1
 192 0134 0021     		movs	r1, #0
 193 0136 0820     		movs	r0, #8
 194 0138 FFF7FEFF 		bl	setRasPiPinValue
  78:Test_RPI_SPI8.c ****         setRasPiPinValue(IO_27,LED_OFF);    // A1
 195              		.loc 1 78 0 discriminator 1
 196 013c 0021     		movs	r1, #0
 197 013e 0720     		movs	r0, #7
 198 0140 FFF7FEFF 		bl	setRasPiPinValue
  79:Test_RPI_SPI8.c ****         setRasPiPinValue(IO_17,LED_ON);     // A2
 199              		.loc 1 79 0 discriminator 1
 200 0144 0121     		movs	r1, #1
 201 0146 0520     		movs	r0, #5
 202 0148 FFF7FEFF 		bl	setRasPiPinValue
  80:Test_RPI_SPI8.c ****      	blinkLED(IO_9);                     // SPIMISO 
 203              		.loc 1 80 0 discriminator 1
 204 014c 0C20     		movs	r0, #12
 205 014e FFF7FEFF 		bl	blinkLED
ARM GAS  C:\Users\HPz420\AppData\Local\Temp\cc5qBwBZ.s 			page 6


  81:Test_RPI_SPI8.c ****     	blinkLED(IO_10);                    // SPIMOSI
 206              		.loc 1 81 0 discriminator 1
 207 0152 0B20     		movs	r0, #11
 208 0154 FFF7FEFF 		bl	blinkLED
  82:Test_RPI_SPI8.c ****     	blinkLED(IO_11);                    // SPISCK
 209              		.loc 1 82 0 discriminator 1
 210 0158 0E20     		movs	r0, #14
 211 015a FFF7FEFF 		bl	blinkLED
  83:Test_RPI_SPI8.c ****     	blinkLED(IO_8);                     // SPICE0
 212              		.loc 1 83 0 discriminator 1
 213 015e 0F20     		movs	r0, #15
 214 0160 FFF7FEFF 		bl	blinkLED
  84:Test_RPI_SPI8.c ****         
  85:Test_RPI_SPI8.c ****         setRasPiPinValue(IO_22,LED_ON);     // A0
 215              		.loc 1 85 0 discriminator 1
 216 0164 0121     		movs	r1, #1
 217 0166 0820     		movs	r0, #8
 218 0168 FFF7FEFF 		bl	setRasPiPinValue
  86:Test_RPI_SPI8.c ****         setRasPiPinValue(IO_27,LED_OFF);    // A1
 219              		.loc 1 86 0 discriminator 1
 220 016c 0021     		movs	r1, #0
 221 016e 0720     		movs	r0, #7
 222 0170 FFF7FEFF 		bl	setRasPiPinValue
  87:Test_RPI_SPI8.c ****         setRasPiPinValue(IO_17,LED_ON);     // A2
 223              		.loc 1 87 0 discriminator 1
 224 0174 0121     		movs	r1, #1
 225 0176 0520     		movs	r0, #5
 226 0178 FFF7FEFF 		bl	setRasPiPinValue
  88:Test_RPI_SPI8.c ****      	blinkLED(IO_9);                     // SPIMISO 
 227              		.loc 1 88 0 discriminator 1
 228 017c 0C20     		movs	r0, #12
 229 017e FFF7FEFF 		bl	blinkLED
  89:Test_RPI_SPI8.c ****     	blinkLED(IO_10);                    // SPIMOSI
 230              		.loc 1 89 0 discriminator 1
 231 0182 0B20     		movs	r0, #11
 232 0184 FFF7FEFF 		bl	blinkLED
  90:Test_RPI_SPI8.c ****     	blinkLED(IO_11);                    // SPISCK
 233              		.loc 1 90 0 discriminator 1
 234 0188 0E20     		movs	r0, #14
 235 018a FFF7FEFF 		bl	blinkLED
  91:Test_RPI_SPI8.c ****     	blinkLED(IO_8);                     // SPICE0
 236              		.loc 1 91 0 discriminator 1
 237 018e 0F20     		movs	r0, #15
 238 0190 FFF7FEFF 		bl	blinkLED
  92:Test_RPI_SPI8.c ****         
  93:Test_RPI_SPI8.c ****         setRasPiPinValue(IO_22,LED_OFF);    // A0
 239              		.loc 1 93 0 discriminator 1
 240 0194 0021     		movs	r1, #0
 241 0196 0820     		movs	r0, #8
 242 0198 FFF7FEFF 		bl	setRasPiPinValue
  94:Test_RPI_SPI8.c ****         setRasPiPinValue(IO_27,LED_ON);     // A1
 243              		.loc 1 94 0 discriminator 1
 244 019c 0121     		movs	r1, #1
 245 019e 0720     		movs	r0, #7
 246 01a0 FFF7FEFF 		bl	setRasPiPinValue
  95:Test_RPI_SPI8.c ****         setRasPiPinValue(IO_17,LED_ON);     // A2
 247              		.loc 1 95 0 discriminator 1
ARM GAS  C:\Users\HPz420\AppData\Local\Temp\cc5qBwBZ.s 			page 7


 248 01a4 0121     		movs	r1, #1
 249 01a6 0520     		movs	r0, #5
 250 01a8 FFF7FEFF 		bl	setRasPiPinValue
  96:Test_RPI_SPI8.c ****      	blinkLED(IO_9);                     // SPIMISO 
 251              		.loc 1 96 0 discriminator 1
 252 01ac 0C20     		movs	r0, #12
 253 01ae FFF7FEFF 		bl	blinkLED
  97:Test_RPI_SPI8.c ****     	blinkLED(IO_10);                    // SPIMOSI
 254              		.loc 1 97 0 discriminator 1
 255 01b2 0B20     		movs	r0, #11
 256 01b4 FFF7FEFF 		bl	blinkLED
  98:Test_RPI_SPI8.c ****     	blinkLED(IO_11);                    // SPISCK
 257              		.loc 1 98 0 discriminator 1
 258 01b8 0E20     		movs	r0, #14
 259 01ba FFF7FEFF 		bl	blinkLED
  99:Test_RPI_SPI8.c ****     	blinkLED(IO_8);                     // SPICE0
 260              		.loc 1 99 0 discriminator 1
 261 01be 0F20     		movs	r0, #15
 262 01c0 FFF7FEFF 		bl	blinkLED
 100:Test_RPI_SPI8.c ****         
 101:Test_RPI_SPI8.c ****         setRasPiPinValue(IO_22,LED_ON);     // A0
 263              		.loc 1 101 0 discriminator 1
 264 01c4 0121     		movs	r1, #1
 265 01c6 0820     		movs	r0, #8
 266 01c8 FFF7FEFF 		bl	setRasPiPinValue
 102:Test_RPI_SPI8.c ****         setRasPiPinValue(IO_27,LED_ON);     // A1
 267              		.loc 1 102 0 discriminator 1
 268 01cc 0121     		movs	r1, #1
 269 01ce 0720     		movs	r0, #7
 270 01d0 FFF7FEFF 		bl	setRasPiPinValue
 103:Test_RPI_SPI8.c ****         setRasPiPinValue(IO_17,LED_ON);     // A2
 271              		.loc 1 103 0 discriminator 1
 272 01d4 0121     		movs	r1, #1
 273 01d6 0520     		movs	r0, #5
 274 01d8 FFF7FEFF 		bl	setRasPiPinValue
 104:Test_RPI_SPI8.c ****      	blinkLED(IO_9);                     // SPIMISO 
 275              		.loc 1 104 0 discriminator 1
 276 01dc 0C20     		movs	r0, #12
 277 01de FFF7FEFF 		bl	blinkLED
 105:Test_RPI_SPI8.c ****     	blinkLED(IO_10);                    // SPIMOSI
 278              		.loc 1 105 0 discriminator 1
 279 01e2 0B20     		movs	r0, #11
 280 01e4 FFF7FEFF 		bl	blinkLED
 106:Test_RPI_SPI8.c ****     	blinkLED(IO_11);                    // SPISCK
 281              		.loc 1 106 0 discriminator 1
 282 01e8 0E20     		movs	r0, #14
 283 01ea FFF7FEFF 		bl	blinkLED
 107:Test_RPI_SPI8.c ****     	blinkLED(IO_8);                     // SPICE0
 284              		.loc 1 107 0 discriminator 1
 285 01ee 0F20     		movs	r0, #15
 286 01f0 FFF7FEFF 		bl	blinkLED
 108:Test_RPI_SPI8.c ****     }
 287              		.loc 1 108 0 discriminator 1
 288 01f4 3EE7     		b	.L2
 289              		.cfi_endproc
 290              	.LFE63:
 291              		.size	testRPISPI8, .-testRPISPI8
ARM GAS  C:\Users\HPz420\AppData\Local\Temp\cc5qBwBZ.s 			page 8


 292 01f6 00BF     		.section	.text.debugRPISPI8,"ax",%progbits
 293              		.align	2
 294              		.global	debugRPISPI8
 295              		.thumb
 296              		.thumb_func
 297              		.type	debugRPISPI8, %function
 298              	debugRPISPI8:
 299              	.LFB64:
 109:Test_RPI_SPI8.c **** }
 110:Test_RPI_SPI8.c **** 
 111:Test_RPI_SPI8.c **** void debugRPISPI8(void)
 112:Test_RPI_SPI8.c **** {
 300              		.loc 1 112 0
 301              		.cfi_startproc
 302              		@ args = 0, pretend = 0, frame = 0
 303              		@ frame_needed = 1, uses_anonymous_args = 0
 304              		@ link register save eliminated.
 305 0000 80B4     		push	{r7}
 306              		.cfi_def_cfa_offset 4
 307              		.cfi_offset 7, -4
 308 0002 00AF     		add	r7, sp, #0
 309              		.cfi_def_cfa_register 7
 113:Test_RPI_SPI8.c **** 
 114:Test_RPI_SPI8.c **** }
 310              		.loc 1 114 0
 311 0004 00BF     		nop
 312 0006 BD46     		mov	sp, r7
 313              		.cfi_def_cfa_register 13
 314              		@ sp needed
 315 0008 80BC     		pop	{r7}
 316              		.cfi_restore 7
 317              		.cfi_def_cfa_offset 0
 318 000a 7047     		bx	lr
 319              		.cfi_endproc
 320              	.LFE64:
 321              		.size	debugRPISPI8, .-debugRPISPI8
 322              		.text
 323              	.Letext0:
 324              		.file 2 "c:\\program files (x86)\\cypress\\psoc creator\\4.4\\psoc creator\\import\\gnu\\arm\\5.4.
 325              		.file 3 "c:\\program files (x86)\\cypress\\psoc creator\\4.4\\psoc creator\\import\\gnu\\arm\\5.4.
 326              		.file 4 "Generated_Source\\PSoC5/cytypes.h"
 327              		.file 5 "RasPi_Pins.h"
 328              		.file 6 "Generated_Source\\PSoC5/core_cm3.h"