ARM GAS  C:\Users\HPz420\AppData\Local\Temp\ccCdw4KJ.s 			page 1


   1              		.syntax unified
   2              		.cpu cortex-m3
   3              		.fpu softvfp
   4              		.eabi_attribute 20, 1
   5              		.eabi_attribute 21, 1
   6              		.eabi_attribute 23, 3
   7              		.eabi_attribute 24, 1
   8              		.eabi_attribute 25, 1
   9              		.eabi_attribute 26, 1
  10              		.eabi_attribute 30, 6
  11              		.eabi_attribute 34, 1
  12              		.eabi_attribute 18, 4
  13              		.thumb
  14              		.syntax unified
  15              		.file	"Test_RPI_I2C_HUB.c"
  16              		.text
  17              	.Ltext0:
  18              		.cfi_sections	.debug_frame
  19              		.section	.text.testRPIHUB,"ax",%progbits
  20              		.align	2
  21              		.global	testRPIHUB
  22              		.thumb
  23              		.thumb_func
  24              		.type	testRPIHUB, %function
  25              	testRPIHUB:
  26              	.LFB63:
  27              		.file 1 "Test_RPI_I2C_HUB.c"
   1:Test_RPI_I2C_HUB.c **** /* ========================================
   2:Test_RPI_I2C_HUB.c ****  *
   3:Test_RPI_I2C_HUB.c ****  * Copyright LAND BOARDS, LLC, 2019
   4:Test_RPI_I2C_HUB.c ****  * All Rights Reserved
   5:Test_RPI_I2C_HUB.c ****  * UNPUBLISHED, LICENSED SOFTWARE.
   6:Test_RPI_I2C_HUB.c ****  *
   7:Test_RPI_I2C_HUB.c ****  * CONFIDENTIAL AND PROPRIETARY INFORMATION
   8:Test_RPI_I2C_HUB.c ****  * WHICH IS THE PROPERTY OF Land Boards.
   9:Test_RPI_I2C_HUB.c ****  *
  10:Test_RPI_I2C_HUB.c ****  * ========================================
  11:Test_RPI_I2C_HUB.c **** */
  12:Test_RPI_I2C_HUB.c **** 
  13:Test_RPI_I2C_HUB.c **** #include <project.h>
  14:Test_RPI_I2C_HUB.c **** #include "RPI_PSOC5.h"
  15:Test_RPI_I2C_HUB.c **** 
  16:Test_RPI_I2C_HUB.c **** void testRPIHUB(void)
  17:Test_RPI_I2C_HUB.c **** {
  28              		.loc 1 17 0
  29              		.cfi_startproc
  30              		@ args = 0, pretend = 0, frame = 8
  31              		@ frame_needed = 1, uses_anonymous_args = 0
  32 0000 80B5     		push	{r7, lr}
  33              		.cfi_def_cfa_offset 8
  34              		.cfi_offset 7, -8
  35              		.cfi_offset 14, -4
  36 0002 82B0     		sub	sp, sp, #8
  37              		.cfi_def_cfa_offset 16
  38 0004 00AF     		add	r7, sp, #0
  39              		.cfi_def_cfa_register 7
  18:Test_RPI_I2C_HUB.c ****     I2C1_Start();
ARM GAS  C:\Users\HPz420\AppData\Local\Temp\ccCdw4KJ.s 			page 2


  40              		.loc 1 18 0
  41 0006 FFF7FEFF 		bl	I2C1_Start
  19:Test_RPI_I2C_HUB.c ****     uint8 SLAVE_ADDR = 0x71;
  42              		.loc 1 19 0
  43 000a 7123     		movs	r3, #113
  44 000c BB71     		strb	r3, [r7, #6]
  20:Test_RPI_I2C_HUB.c ****     uint8 cMessage[2];
  21:Test_RPI_I2C_HUB.c ****     uint8 channel;
  22:Test_RPI_I2C_HUB.c ****     //uint16 cLength = 256;
  23:Test_RPI_I2C_HUB.c ****     
  24:Test_RPI_I2C_HUB.c ****     // initialize the four DIGIO8 cards
  25:Test_RPI_I2C_HUB.c ****     for (channel = 0; channel < 4; channel++)
  45              		.loc 1 25 0
  46 000e 0023     		movs	r3, #0
  47 0010 FB71     		strb	r3, [r7, #7]
  48 0012 10E0     		b	.L2
  49              	.L3:
  26:Test_RPI_I2C_HUB.c ****     {
  27:Test_RPI_I2C_HUB.c ****         cMessage[0] = 0x04 | channel;
  50              		.loc 1 27 0 discriminator 3
  51 0014 FB79     		ldrb	r3, [r7, #7]
  52 0016 43F00403 		orr	r3, r3, #4
  53 001a DBB2     		uxtb	r3, r3
  54 001c 3B71     		strb	r3, [r7, #4]
  28:Test_RPI_I2C_HUB.c ****         I2C1_MasterWriteBuf(SLAVE_ADDR, cMessage, 1, I2C_EEPROM_MODE_COMPLETE_XFER);
  55              		.loc 1 28 0 discriminator 3
  56 001e 391D     		adds	r1, r7, #4
  57 0020 B879     		ldrb	r0, [r7, #6]	@ zero_extendqisi2
  58 0022 0023     		movs	r3, #0
  59 0024 0122     		movs	r2, #1
  60 0026 FFF7FEFF 		bl	I2C1_MasterWriteBuf
  29:Test_RPI_I2C_HUB.c ****         initDIGIO8Card(0x20);
  61              		.loc 1 29 0 discriminator 3
  62 002a 2020     		movs	r0, #32
  63 002c FFF7FEFF 		bl	initDIGIO8Card
  25:Test_RPI_I2C_HUB.c ****     {
  64              		.loc 1 25 0 discriminator 3
  65 0030 FB79     		ldrb	r3, [r7, #7]	@ zero_extendqisi2
  66 0032 0133     		adds	r3, r3, #1
  67 0034 FB71     		strb	r3, [r7, #7]
  68              	.L2:
  25:Test_RPI_I2C_HUB.c ****     {
  69              		.loc 1 25 0 is_stmt 0 discriminator 1
  70 0036 FB79     		ldrb	r3, [r7, #7]	@ zero_extendqisi2
  71 0038 032B     		cmp	r3, #3
  72 003a EBD9     		bls	.L3
  30:Test_RPI_I2C_HUB.c ****     }
  31:Test_RPI_I2C_HUB.c ****     for (channel = 0; channel < 4; channel++)
  73              		.loc 1 31 0 is_stmt 1
  74 003c 0023     		movs	r3, #0
  75 003e FB71     		strb	r3, [r7, #7]
  76 0040 2DE0     		b	.L4
  77              	.L5:
  32:Test_RPI_I2C_HUB.c ****     {
  33:Test_RPI_I2C_HUB.c ****         cMessage[0] = 0x04 | channel;
  78              		.loc 1 33 0 discriminator 3
  79 0042 FB79     		ldrb	r3, [r7, #7]
ARM GAS  C:\Users\HPz420\AppData\Local\Temp\ccCdw4KJ.s 			page 3


  80 0044 43F00403 		orr	r3, r3, #4
  81 0048 DBB2     		uxtb	r3, r3
  82 004a 3B71     		strb	r3, [r7, #4]
  34:Test_RPI_I2C_HUB.c ****         I2C1_MasterWriteBuf(SLAVE_ADDR, cMessage, 1, I2C_EEPROM_MODE_COMPLETE_XFER);
  83              		.loc 1 34 0 discriminator 3
  84 004c 391D     		adds	r1, r7, #4
  85 004e B879     		ldrb	r0, [r7, #6]	@ zero_extendqisi2
  86 0050 0023     		movs	r3, #0
  87 0052 0122     		movs	r2, #1
  88 0054 FFF7FEFF 		bl	I2C1_MasterWriteBuf
  35:Test_RPI_I2C_HUB.c ****         writeDIGIO8Card(0x20, 0x01);
  89              		.loc 1 35 0 discriminator 3
  90 0058 0121     		movs	r1, #1
  91 005a 2020     		movs	r0, #32
  92 005c FFF7FEFF 		bl	writeDIGIO8Card
  36:Test_RPI_I2C_HUB.c ****         CyDelay(200);
  93              		.loc 1 36 0 discriminator 3
  94 0060 C820     		movs	r0, #200
  95 0062 FFF7FEFF 		bl	CyDelay
  37:Test_RPI_I2C_HUB.c ****         writeDIGIO8Card(0x20, 0x02);
  96              		.loc 1 37 0 discriminator 3
  97 0066 0221     		movs	r1, #2
  98 0068 2020     		movs	r0, #32
  99 006a FFF7FEFF 		bl	writeDIGIO8Card
  38:Test_RPI_I2C_HUB.c ****         CyDelay(200);
 100              		.loc 1 38 0 discriminator 3
 101 006e C820     		movs	r0, #200
 102 0070 FFF7FEFF 		bl	CyDelay
  39:Test_RPI_I2C_HUB.c ****         writeDIGIO8Card(0x20, 0x04);
 103              		.loc 1 39 0 discriminator 3
 104 0074 0421     		movs	r1, #4
 105 0076 2020     		movs	r0, #32
 106 0078 FFF7FEFF 		bl	writeDIGIO8Card
  40:Test_RPI_I2C_HUB.c ****         CyDelay(200);
 107              		.loc 1 40 0 discriminator 3
 108 007c C820     		movs	r0, #200
 109 007e FFF7FEFF 		bl	CyDelay
  41:Test_RPI_I2C_HUB.c ****         writeDIGIO8Card(0x20, 0x08);
 110              		.loc 1 41 0 discriminator 3
 111 0082 0821     		movs	r1, #8
 112 0084 2020     		movs	r0, #32
 113 0086 FFF7FEFF 		bl	writeDIGIO8Card
  42:Test_RPI_I2C_HUB.c ****         CyDelay(200);
 114              		.loc 1 42 0 discriminator 3
 115 008a C820     		movs	r0, #200
 116 008c FFF7FEFF 		bl	CyDelay
  43:Test_RPI_I2C_HUB.c ****         writeDIGIO8Card(0x20, 0x00);
 117              		.loc 1 43 0 discriminator 3
 118 0090 0021     		movs	r1, #0
 119 0092 2020     		movs	r0, #32
 120 0094 FFF7FEFF 		bl	writeDIGIO8Card
  31:Test_RPI_I2C_HUB.c ****     {
 121              		.loc 1 31 0 discriminator 3
 122 0098 FB79     		ldrb	r3, [r7, #7]	@ zero_extendqisi2
 123 009a 0133     		adds	r3, r3, #1
 124 009c FB71     		strb	r3, [r7, #7]
 125              	.L4:
ARM GAS  C:\Users\HPz420\AppData\Local\Temp\ccCdw4KJ.s 			page 4


  31:Test_RPI_I2C_HUB.c ****     {
 126              		.loc 1 31 0 is_stmt 0 discriminator 1
 127 009e FB79     		ldrb	r3, [r7, #7]	@ zero_extendqisi2
 128 00a0 032B     		cmp	r3, #3
 129 00a2 CED9     		bls	.L5
  44:Test_RPI_I2C_HUB.c ****     }
  45:Test_RPI_I2C_HUB.c **** }
 130              		.loc 1 45 0 is_stmt 1
 131 00a4 00BF     		nop
 132 00a6 0837     		adds	r7, r7, #8
 133              		.cfi_def_cfa_offset 8
 134 00a8 BD46     		mov	sp, r7
 135              		.cfi_def_cfa_register 13
 136              		@ sp needed
 137 00aa 80BD     		pop	{r7, pc}
 138              		.cfi_endproc
 139              	.LFE63:
 140              		.size	testRPIHUB, .-testRPIHUB
 141              		.text
 142              	.Letext0:
 143              		.file 2 "c:\\program files (x86)\\cypress\\psoc creator\\4.2\\psoc creator\\import\\gnu\\arm\\5.4.
 144              		.file 3 "c:\\program files (x86)\\cypress\\psoc creator\\4.2\\psoc creator\\import\\gnu\\arm\\5.4.
 145              		.file 4 "Generated_Source\\PSoC5/cytypes.h"
 146              		.file 5 "Generated_Source\\PSoC5/core_cm3.h"