ARM GAS  C:\Users\DGILLI~1\AppData\Local\Temp\ccmueFn7.s 			page 1


   1              		.syntax unified
   2              		.cpu cortex-m3
   3              		.fpu softvfp
   4              		.eabi_attribute 20, 1
   5              		.eabi_attribute 21, 1
   6              		.eabi_attribute 23, 3
   7              		.eabi_attribute 24, 1
   8              		.eabi_attribute 25, 1
   9              		.eabi_attribute 26, 1
  10              		.eabi_attribute 30, 6
  11              		.eabi_attribute 34, 1
  12              		.eabi_attribute 18, 4
  13              		.thumb
  14              		.syntax unified
  15              		.file	"Test_RPI_2C_HUB.c"
  16              		.text
  17              	.Ltext0:
  18              		.cfi_sections	.debug_frame
  19              		.section	.text.testRPIHUB,"ax",%progbits
  20              		.align	2
  21              		.global	testRPIHUB
  22              		.thumb
  23              		.thumb_func
  24              		.type	testRPIHUB, %function
  25              	testRPIHUB:
  26              	.LFB63:
  27              		.file 1 "Test_RPI_2C_HUB.c"
   1:Test_RPI_2C_HUB.c **** /* ========================================
   2:Test_RPI_2C_HUB.c ****  *
   3:Test_RPI_2C_HUB.c ****  * Copyright LAND BOARDS, LLC, 2019
   4:Test_RPI_2C_HUB.c ****  * All Rights Reserved
   5:Test_RPI_2C_HUB.c ****  * UNPUBLISHED, LICENSED SOFTWARE.
   6:Test_RPI_2C_HUB.c ****  *
   7:Test_RPI_2C_HUB.c ****  * CONFIDENTIAL AND PROPRIETARY INFORMATION
   8:Test_RPI_2C_HUB.c ****  * WHICH IS THE PROPERTY OF Land Boards.
   9:Test_RPI_2C_HUB.c ****  *
  10:Test_RPI_2C_HUB.c ****  * ========================================
  11:Test_RPI_2C_HUB.c **** */
  12:Test_RPI_2C_HUB.c **** 
  13:Test_RPI_2C_HUB.c **** #include <project.h>
  14:Test_RPI_2C_HUB.c **** #include "RPI_PSOC5.h"
  15:Test_RPI_2C_HUB.c **** 
  16:Test_RPI_2C_HUB.c **** void testRPIHUB(void)
  17:Test_RPI_2C_HUB.c **** {
  28              		.loc 1 17 0
  29              		.cfi_startproc
  30              		@ args = 0, pretend = 0, frame = 0
  31              		@ frame_needed = 1, uses_anonymous_args = 0
  32              		@ link register save eliminated.
  33 0000 80B4     		push	{r7}
  34              		.cfi_def_cfa_offset 4
  35              		.cfi_offset 7, -4
  36 0002 00AF     		add	r7, sp, #0
  37              		.cfi_def_cfa_register 7
  18:Test_RPI_2C_HUB.c ****     
  19:Test_RPI_2C_HUB.c **** }
  38              		.loc 1 19 0
ARM GAS  C:\Users\DGILLI~1\AppData\Local\Temp\ccmueFn7.s 			page 2


  39 0004 00BF     		nop
  40 0006 BD46     		mov	sp, r7
  41              		.cfi_def_cfa_register 13
  42              		@ sp needed
  43 0008 80BC     		pop	{r7}
  44              		.cfi_restore 7
  45              		.cfi_def_cfa_offset 0
  46 000a 7047     		bx	lr
  47              		.cfi_endproc
  48              	.LFE63:
  49              		.size	testRPIHUB, .-testRPIHUB
  50              		.text
  51              	.Letext0:
  52              		.file 2 "c:\\program files (x86)\\cypress\\psoc creator\\4.2\\psoc creator\\import\\gnu\\arm\\5.4.
  53              		.file 3 "c:\\program files (x86)\\cypress\\psoc creator\\4.2\\psoc creator\\import\\gnu\\arm\\5.4.
  54              		.file 4 "Generated_Source\\PSoC5/core_cm3.h"