ARM GAS  C:\Users\DGILLI~1\AppData\Local\Temp\cctDYGg7.s 			page 1


   1              		.syntax unified
   2              		.cpu cortex-m3
   3              		.fpu softvfp
   4              		.eabi_attribute 20, 1
   5              		.eabi_attribute 21, 1
   6              		.eabi_attribute 23, 3
   7              		.eabi_attribute 24, 1
   8              		.eabi_attribute 25, 1
   9              		.eabi_attribute 26, 1
  10              		.eabi_attribute 30, 6
  11              		.eabi_attribute 34, 1
  12              		.eabi_attribute 18, 4
  13              		.thumb
  14              		.syntax unified
  15              		.file	"Test_RPP-UIO_16.c"
  16              		.text
  17              	.Ltext0:
  18              		.cfi_sections	.debug_frame
  19              		.section	.text.blinkLED,"ax",%progbits
  20              		.align	2
  21              		.global	blinkLED
  22              		.thumb
  23              		.thumb_func
  24              		.type	blinkLED, %function
  25              	blinkLED:
  26              	.LFB63:
  27              		.file 1 "Test_RPP-UIO_16.c"
   1:Test_RPP-UIO_16.c **** /* ========================================
   2:Test_RPP-UIO_16.c ****  *
   3:Test_RPP-UIO_16.c ****  * Copyright YOUR COMPANY, THE YEAR
   4:Test_RPP-UIO_16.c ****  * All Rights Reserved
   5:Test_RPP-UIO_16.c ****  * UNPUBLISHED, LICENSED SOFTWARE.
   6:Test_RPP-UIO_16.c ****  *
   7:Test_RPP-UIO_16.c ****  * CONFIDENTIAL AND PROPRIETARY INFORMATION
   8:Test_RPP-UIO_16.c ****  * WHICH IS THE PROPERTY OF your company.
   9:Test_RPP-UIO_16.c ****  *
  10:Test_RPP-UIO_16.c ****  * ========================================
  11:Test_RPP-UIO_16.c **** */
  12:Test_RPP-UIO_16.c **** 
  13:Test_RPP-UIO_16.c **** // Function to blink an LED attached to an output channel
  14:Test_RPP-UIO_16.c **** // Drives line high for a short time and then drives it low.
  15:Test_RPP-UIO_16.c **** // The high level output turns on the LED.
  16:Test_RPP-UIO_16.c **** 
  17:Test_RPP-UIO_16.c **** #include <project.h>
  18:Test_RPP-UIO_16.c **** #include "RasPi_Pins.h"
  19:Test_RPP-UIO_16.c **** 
  20:Test_RPP-UIO_16.c **** void blinkLED(uint8 RPI_Pin)
  21:Test_RPP-UIO_16.c **** {
  28              		.loc 1 21 0
  29              		.cfi_startproc
  30              		@ args = 0, pretend = 0, frame = 8
  31              		@ frame_needed = 1, uses_anonymous_args = 0
  32 0000 80B5     		push	{r7, lr}
  33              		.cfi_def_cfa_offset 8
  34              		.cfi_offset 7, -8
  35              		.cfi_offset 14, -4
  36 0002 82B0     		sub	sp, sp, #8
ARM GAS  C:\Users\DGILLI~1\AppData\Local\Temp\cctDYGg7.s 			page 2


  37              		.cfi_def_cfa_offset 16
  38 0004 00AF     		add	r7, sp, #0
  39              		.cfi_def_cfa_register 7
  40 0006 0346     		mov	r3, r0
  41 0008 FB71     		strb	r3, [r7, #7]
  22:Test_RPP-UIO_16.c **** 	setRasPiPin(RPI_Pin, 1);
  42              		.loc 1 22 0
  43 000a FB79     		ldrb	r3, [r7, #7]	@ zero_extendqisi2
  44 000c 0121     		movs	r1, #1
  45 000e 1846     		mov	r0, r3
  46 0010 FFF7FEFF 		bl	setRasPiPin
  23:Test_RPP-UIO_16.c ****     CyDelay(250);
  47              		.loc 1 23 0
  48 0014 FA20     		movs	r0, #250
  49 0016 FFF7FEFF 		bl	CyDelay
  24:Test_RPP-UIO_16.c **** 	setRasPiPin(RPI_Pin, 0);
  50              		.loc 1 24 0
  51 001a FB79     		ldrb	r3, [r7, #7]	@ zero_extendqisi2
  52 001c 0021     		movs	r1, #0
  53 001e 1846     		mov	r0, r3
  54 0020 FFF7FEFF 		bl	setRasPiPin
  25:Test_RPP-UIO_16.c **** }
  55              		.loc 1 25 0
  56 0024 00BF     		nop
  57 0026 0837     		adds	r7, r7, #8
  58              		.cfi_def_cfa_offset 8
  59 0028 BD46     		mov	sp, r7
  60              		.cfi_def_cfa_register 13
  61              		@ sp needed
  62 002a 80BD     		pop	{r7, pc}
  63              		.cfi_endproc
  64              	.LFE63:
  65              		.size	blinkLED, .-blinkLED
  66              		.section	.text.testRPPUIO16,"ax",%progbits
  67              		.align	2
  68              		.global	testRPPUIO16
  69              		.thumb
  70              		.thumb_func
  71              		.type	testRPPUIO16, %function
  72              	testRPPUIO16:
  73              	.LFB64:
  26:Test_RPP-UIO_16.c **** 
  27:Test_RPP-UIO_16.c **** void testRPPUIO16(void)
  28:Test_RPP-UIO_16.c **** {
  74              		.loc 1 28 0
  75              		.cfi_startproc
  76              		@ args = 0, pretend = 0, frame = 0
  77              		@ frame_needed = 1, uses_anonymous_args = 0
  78 0000 80B5     		push	{r7, lr}
  79              		.cfi_def_cfa_offset 8
  80              		.cfi_offset 7, -8
  81              		.cfi_offset 14, -4
  82 0002 00AF     		add	r7, sp, #0
  83              		.cfi_def_cfa_register 7
  29:Test_RPP-UIO_16.c **** // Set all of the RPI pins to outputs
  30:Test_RPP-UIO_16.c ****     setRasPiPin(IO_2,0);
  84              		.loc 1 30 0
ARM GAS  C:\Users\DGILLI~1\AppData\Local\Temp\cctDYGg7.s 			page 3


  85 0004 0021     		movs	r1, #0
  86 0006 0020     		movs	r0, #0
  87 0008 FFF7FEFF 		bl	setRasPiPin
  31:Test_RPP-UIO_16.c ****     setRasPiPin(IO_3,0);
  88              		.loc 1 31 0
  89 000c 0021     		movs	r1, #0
  90 000e 0120     		movs	r0, #1
  91 0010 FFF7FEFF 		bl	setRasPiPin
  32:Test_RPP-UIO_16.c ****     setRasPiPin(IO_4,0);
  92              		.loc 1 32 0
  93 0014 0021     		movs	r1, #0
  94 0016 0220     		movs	r0, #2
  95 0018 FFF7FEFF 		bl	setRasPiPin
  33:Test_RPP-UIO_16.c ****     setRasPiPin(IO_14,0);
  96              		.loc 1 33 0
  97 001c 0021     		movs	r1, #0
  98 001e 0320     		movs	r0, #3
  99 0020 FFF7FEFF 		bl	setRasPiPin
  34:Test_RPP-UIO_16.c ****     setRasPiPin(IO_15,0);
 100              		.loc 1 34 0
 101 0024 0021     		movs	r1, #0
 102 0026 0420     		movs	r0, #4
 103 0028 FFF7FEFF 		bl	setRasPiPin
  35:Test_RPP-UIO_16.c ****     setRasPiPin(IO_17,0);
 104              		.loc 1 35 0
 105 002c 0021     		movs	r1, #0
 106 002e 0520     		movs	r0, #5
 107 0030 FFF7FEFF 		bl	setRasPiPin
  36:Test_RPP-UIO_16.c ****     setRasPiPin(IO_18,0);
 108              		.loc 1 36 0
 109 0034 0021     		movs	r1, #0
 110 0036 0620     		movs	r0, #6
 111 0038 FFF7FEFF 		bl	setRasPiPin
  37:Test_RPP-UIO_16.c ****     setRasPiPin(IO_27,0);
 112              		.loc 1 37 0
 113 003c 0021     		movs	r1, #0
 114 003e 0720     		movs	r0, #7
 115 0040 FFF7FEFF 		bl	setRasPiPin
  38:Test_RPP-UIO_16.c ****     setRasPiPin(IO_22,0);
 116              		.loc 1 38 0
 117 0044 0021     		movs	r1, #0
 118 0046 0820     		movs	r0, #8
 119 0048 FFF7FEFF 		bl	setRasPiPin
  39:Test_RPP-UIO_16.c ****     setRasPiPin(IO_23,0);
 120              		.loc 1 39 0
 121 004c 0021     		movs	r1, #0
 122 004e 0920     		movs	r0, #9
 123 0050 FFF7FEFF 		bl	setRasPiPin
  40:Test_RPP-UIO_16.c ****     setRasPiPin(IO_24,0);
 124              		.loc 1 40 0
 125 0054 0021     		movs	r1, #0
 126 0056 0A20     		movs	r0, #10
 127 0058 FFF7FEFF 		bl	setRasPiPin
  41:Test_RPP-UIO_16.c ****     setRasPiPin(IO_10,0);
 128              		.loc 1 41 0
 129 005c 0021     		movs	r1, #0
 130 005e 0B20     		movs	r0, #11
ARM GAS  C:\Users\DGILLI~1\AppData\Local\Temp\cctDYGg7.s 			page 4


 131 0060 FFF7FEFF 		bl	setRasPiPin
  42:Test_RPP-UIO_16.c ****     setRasPiPin(IO_9,0);
 132              		.loc 1 42 0
 133 0064 0021     		movs	r1, #0
 134 0066 0C20     		movs	r0, #12
 135 0068 FFF7FEFF 		bl	setRasPiPin
  43:Test_RPP-UIO_16.c ****     setRasPiPin(IO_25,0);
 136              		.loc 1 43 0
 137 006c 0021     		movs	r1, #0
 138 006e 0D20     		movs	r0, #13
 139 0070 FFF7FEFF 		bl	setRasPiPin
  44:Test_RPP-UIO_16.c ****     setRasPiPin(IO_11,0);
 140              		.loc 1 44 0
 141 0074 0021     		movs	r1, #0
 142 0076 0E20     		movs	r0, #14
 143 0078 FFF7FEFF 		bl	setRasPiPin
  45:Test_RPP-UIO_16.c ****     setRasPiPin(IO_8,0);
 144              		.loc 1 45 0
 145 007c 0021     		movs	r1, #0
 146 007e 0F20     		movs	r0, #15
 147 0080 FFF7FEFF 		bl	setRasPiPin
  46:Test_RPP-UIO_16.c ****     setRasPiPin(IO_7,0);
 148              		.loc 1 46 0
 149 0084 0021     		movs	r1, #0
 150 0086 1020     		movs	r0, #16
 151 0088 FFF7FEFF 		bl	setRasPiPin
  47:Test_RPP-UIO_16.c ****     setRasPiPin(IO_5,0);
 152              		.loc 1 47 0
 153 008c 0021     		movs	r1, #0
 154 008e 1120     		movs	r0, #17
 155 0090 FFF7FEFF 		bl	setRasPiPin
  48:Test_RPP-UIO_16.c ****     setRasPiPin(IO_6,0);
 156              		.loc 1 48 0
 157 0094 0021     		movs	r1, #0
 158 0096 1220     		movs	r0, #18
 159 0098 FFF7FEFF 		bl	setRasPiPin
  49:Test_RPP-UIO_16.c ****     setRasPiPin(IO_12,0);
 160              		.loc 1 49 0
 161 009c 0021     		movs	r1, #0
 162 009e 1320     		movs	r0, #19
 163 00a0 FFF7FEFF 		bl	setRasPiPin
  50:Test_RPP-UIO_16.c ****     setRasPiPin(IO_13,0);
 164              		.loc 1 50 0
 165 00a4 0021     		movs	r1, #0
 166 00a6 1420     		movs	r0, #20
 167 00a8 FFF7FEFF 		bl	setRasPiPin
  51:Test_RPP-UIO_16.c ****     setRasPiPin(IO_19,0);
 168              		.loc 1 51 0
 169 00ac 0021     		movs	r1, #0
 170 00ae 1520     		movs	r0, #21
 171 00b0 FFF7FEFF 		bl	setRasPiPin
  52:Test_RPP-UIO_16.c ****     setRasPiPin(IO_16,0);
 172              		.loc 1 52 0
 173 00b4 0021     		movs	r1, #0
 174 00b6 1620     		movs	r0, #22
 175 00b8 FFF7FEFF 		bl	setRasPiPin
  53:Test_RPP-UIO_16.c ****     setRasPiPin(IO_26,0);
ARM GAS  C:\Users\DGILLI~1\AppData\Local\Temp\cctDYGg7.s 			page 5


 176              		.loc 1 53 0
 177 00bc 0021     		movs	r1, #0
 178 00be 1720     		movs	r0, #23
 179 00c0 FFF7FEFF 		bl	setRasPiPin
  54:Test_RPP-UIO_16.c ****     setRasPiPin(IO_20,0);
 180              		.loc 1 54 0
 181 00c4 0021     		movs	r1, #0
 182 00c6 1820     		movs	r0, #24
 183 00c8 FFF7FEFF 		bl	setRasPiPin
  55:Test_RPP-UIO_16.c ****     setRasPiPin(IO_21,0);
 184              		.loc 1 55 0
 185 00cc 0021     		movs	r1, #0
 186 00ce 1920     		movs	r0, #25
 187 00d0 FFF7FEFF 		bl	setRasPiPin
 188              	.L3:
  56:Test_RPP-UIO_16.c ****     
  57:Test_RPP-UIO_16.c **** 
  58:Test_RPP-UIO_16.c **** // Blink all of the LEDs one at a time forever
  59:Test_RPP-UIO_16.c **** // CTRL-C to exit which is not a particularly elegant exit strategy, but this is a demo program
  60:Test_RPP-UIO_16.c **** 
  61:Test_RPP-UIO_16.c ****     while (1)
  62:Test_RPP-UIO_16.c ****     {
  63:Test_RPP-UIO_16.c ****     	blinkLED(IO_2);
 189              		.loc 1 63 0 discriminator 1
 190 00d4 0020     		movs	r0, #0
 191 00d6 FFF7FEFF 		bl	blinkLED
  64:Test_RPP-UIO_16.c ****     	blinkLED(IO_3);
 192              		.loc 1 64 0 discriminator 1
 193 00da 0120     		movs	r0, #1
 194 00dc FFF7FEFF 		bl	blinkLED
  65:Test_RPP-UIO_16.c ****     	blinkLED(IO_4);
 195              		.loc 1 65 0 discriminator 1
 196 00e0 0220     		movs	r0, #2
 197 00e2 FFF7FEFF 		bl	blinkLED
  66:Test_RPP-UIO_16.c ****     	blinkLED(IO_14);
 198              		.loc 1 66 0 discriminator 1
 199 00e6 0320     		movs	r0, #3
 200 00e8 FFF7FEFF 		bl	blinkLED
  67:Test_RPP-UIO_16.c ****     	blinkLED(IO_15);
 201              		.loc 1 67 0 discriminator 1
 202 00ec 0420     		movs	r0, #4
 203 00ee FFF7FEFF 		bl	blinkLED
  68:Test_RPP-UIO_16.c ****     	blinkLED(IO_17);
 204              		.loc 1 68 0 discriminator 1
 205 00f2 0520     		movs	r0, #5
 206 00f4 FFF7FEFF 		bl	blinkLED
  69:Test_RPP-UIO_16.c ****     	blinkLED(IO_18);
 207              		.loc 1 69 0 discriminator 1
 208 00f8 0620     		movs	r0, #6
 209 00fa FFF7FEFF 		bl	blinkLED
  70:Test_RPP-UIO_16.c ****     	blinkLED(IO_27);
 210              		.loc 1 70 0 discriminator 1
 211 00fe 0720     		movs	r0, #7
 212 0100 FFF7FEFF 		bl	blinkLED
  71:Test_RPP-UIO_16.c ****     	blinkLED(IO_22);
 213              		.loc 1 71 0 discriminator 1
 214 0104 0820     		movs	r0, #8
ARM GAS  C:\Users\DGILLI~1\AppData\Local\Temp\cctDYGg7.s 			page 6


 215 0106 FFF7FEFF 		bl	blinkLED
  72:Test_RPP-UIO_16.c ****     	blinkLED(IO_23);
 216              		.loc 1 72 0 discriminator 1
 217 010a 0920     		movs	r0, #9
 218 010c FFF7FEFF 		bl	blinkLED
  73:Test_RPP-UIO_16.c ****     	blinkLED(IO_24);
 219              		.loc 1 73 0 discriminator 1
 220 0110 0A20     		movs	r0, #10
 221 0112 FFF7FEFF 		bl	blinkLED
  74:Test_RPP-UIO_16.c ****     	blinkLED(IO_10);
 222              		.loc 1 74 0 discriminator 1
 223 0116 0B20     		movs	r0, #11
 224 0118 FFF7FEFF 		bl	blinkLED
  75:Test_RPP-UIO_16.c ****     	blinkLED(IO_9);
 225              		.loc 1 75 0 discriminator 1
 226 011c 0C20     		movs	r0, #12
 227 011e FFF7FEFF 		bl	blinkLED
  76:Test_RPP-UIO_16.c ****     	blinkLED(IO_25);
 228              		.loc 1 76 0 discriminator 1
 229 0122 0D20     		movs	r0, #13
 230 0124 FFF7FEFF 		bl	blinkLED
  77:Test_RPP-UIO_16.c ****     	blinkLED(IO_11);
 231              		.loc 1 77 0 discriminator 1
 232 0128 0E20     		movs	r0, #14
 233 012a FFF7FEFF 		bl	blinkLED
  78:Test_RPP-UIO_16.c ****     	blinkLED(IO_8);
 234              		.loc 1 78 0 discriminator 1
 235 012e 0F20     		movs	r0, #15
 236 0130 FFF7FEFF 		bl	blinkLED
  79:Test_RPP-UIO_16.c ****     	blinkLED(IO_7);
 237              		.loc 1 79 0 discriminator 1
 238 0134 1020     		movs	r0, #16
 239 0136 FFF7FEFF 		bl	blinkLED
  80:Test_RPP-UIO_16.c ****     	blinkLED(IO_5);
 240              		.loc 1 80 0 discriminator 1
 241 013a 1120     		movs	r0, #17
 242 013c FFF7FEFF 		bl	blinkLED
  81:Test_RPP-UIO_16.c ****     	blinkLED(IO_6);
 243              		.loc 1 81 0 discriminator 1
 244 0140 1220     		movs	r0, #18
 245 0142 FFF7FEFF 		bl	blinkLED
  82:Test_RPP-UIO_16.c ****     	blinkLED(IO_12);
 246              		.loc 1 82 0 discriminator 1
 247 0146 1320     		movs	r0, #19
 248 0148 FFF7FEFF 		bl	blinkLED
  83:Test_RPP-UIO_16.c ****     	blinkLED(IO_13);
 249              		.loc 1 83 0 discriminator 1
 250 014c 1420     		movs	r0, #20
 251 014e FFF7FEFF 		bl	blinkLED
  84:Test_RPP-UIO_16.c ****     	blinkLED(IO_19);
 252              		.loc 1 84 0 discriminator 1
 253 0152 1520     		movs	r0, #21
 254 0154 FFF7FEFF 		bl	blinkLED
  85:Test_RPP-UIO_16.c ****     	blinkLED(IO_16);
 255              		.loc 1 85 0 discriminator 1
 256 0158 1620     		movs	r0, #22
 257 015a FFF7FEFF 		bl	blinkLED
ARM GAS  C:\Users\DGILLI~1\AppData\Local\Temp\cctDYGg7.s 			page 7


  86:Test_RPP-UIO_16.c ****     	blinkLED(IO_26);
 258              		.loc 1 86 0 discriminator 1
 259 015e 1720     		movs	r0, #23
 260 0160 FFF7FEFF 		bl	blinkLED
  87:Test_RPP-UIO_16.c ****     	blinkLED(IO_20);
 261              		.loc 1 87 0 discriminator 1
 262 0164 1820     		movs	r0, #24
 263 0166 FFF7FEFF 		bl	blinkLED
  88:Test_RPP-UIO_16.c ****     	blinkLED(IO_21);
 264              		.loc 1 88 0 discriminator 1
 265 016a 1920     		movs	r0, #25
 266 016c FFF7FEFF 		bl	blinkLED
  89:Test_RPP-UIO_16.c ****     }
 267              		.loc 1 89 0 discriminator 1
 268 0170 B0E7     		b	.L3
 269              		.cfi_endproc
 270              	.LFE64:
 271              		.size	testRPPUIO16, .-testRPPUIO16
 272 0172 00BF     		.text
 273              	.Letext0:
 274              		.file 2 "c:\\program files (x86)\\cypress\\psoc creator\\4.2\\psoc creator\\import\\gnu\\arm\\5.4.
 275              		.file 3 "c:\\program files (x86)\\cypress\\psoc creator\\4.2\\psoc creator\\import\\gnu\\arm\\5.4.
 276              		.file 4 "Generated_Source\\PSoC5/cytypes.h"
 277              		.file 5 "RasPi_Pins.h"
 278              		.file 6 "Generated_Source\\PSoC5/core_cm3.h"