ARM GAS  C:\Users\HPz420\AppData\Local\Temp\ccAlG7g9.s 			page 1


   1              		.syntax unified
   2              		.cpu cortex-m3
   3              		.fpu softvfp
   4              		.eabi_attribute 20, 1
   5              		.eabi_attribute 21, 1
   6              		.eabi_attribute 23, 3
   7              		.eabi_attribute 24, 1
   8              		.eabi_attribute 25, 1
   9              		.eabi_attribute 26, 1
  10              		.eabi_attribute 30, 6
  11              		.eabi_attribute 34, 1
  12              		.eabi_attribute 18, 4
  13              		.thumb
  14              		.syntax unified
  15              		.file	"cyfitter_cfg.c"
  16              		.text
  17              	.Ltext0:
  18              		.cfi_sections	.debug_frame
  19              		.section	.text.CYMEMZERO,"ax",%progbits
  20              		.align	2
  21              		.thumb
  22              		.thumb_func
  23              		.type	CYMEMZERO, %function
  24              	CYMEMZERO:
  25              	.LFB0:
  26              		.file 1 "Generated_Source\\PSoC5\\cyfitter_cfg.c"
   1:Generated_Source\PSoC5/cyfitter_cfg.c **** 
   2:Generated_Source\PSoC5/cyfitter_cfg.c **** /*******************************************************************************
   3:Generated_Source\PSoC5/cyfitter_cfg.c **** * File Name: cyfitter_cfg.c
   4:Generated_Source\PSoC5/cyfitter_cfg.c **** * 
   5:Generated_Source\PSoC5/cyfitter_cfg.c **** * PSoC Creator  4.2
   6:Generated_Source\PSoC5/cyfitter_cfg.c **** *
   7:Generated_Source\PSoC5/cyfitter_cfg.c **** * Description:
   8:Generated_Source\PSoC5/cyfitter_cfg.c **** * This file contains device initialization code.
   9:Generated_Source\PSoC5/cyfitter_cfg.c **** * Except for the user defined sections in CyClockStartupError(), this file should not be modified.
  10:Generated_Source\PSoC5/cyfitter_cfg.c **** * This file is automatically generated by PSoC Creator.
  11:Generated_Source\PSoC5/cyfitter_cfg.c **** *
  12:Generated_Source\PSoC5/cyfitter_cfg.c **** ********************************************************************************
  13:Generated_Source\PSoC5/cyfitter_cfg.c **** * Copyright (c) 2007-2018 Cypress Semiconductor.  All rights reserved.
  14:Generated_Source\PSoC5/cyfitter_cfg.c **** * You may use this file only in accordance with the license, terms, conditions, 
  15:Generated_Source\PSoC5/cyfitter_cfg.c **** * disclaimers, and limitations in the end user license agreement accompanying 
  16:Generated_Source\PSoC5/cyfitter_cfg.c **** * the software package with which this file was provided.
  17:Generated_Source\PSoC5/cyfitter_cfg.c **** ********************************************************************************/
  18:Generated_Source\PSoC5/cyfitter_cfg.c **** 
  19:Generated_Source\PSoC5/cyfitter_cfg.c **** #include <string.h>
  20:Generated_Source\PSoC5/cyfitter_cfg.c **** #include "cytypes.h"
  21:Generated_Source\PSoC5/cyfitter_cfg.c **** #include "cydevice_trm.h"
  22:Generated_Source\PSoC5/cyfitter_cfg.c **** #include "cyfitter.h"
  23:Generated_Source\PSoC5/cyfitter_cfg.c **** #include "CyLib.h"
  24:Generated_Source\PSoC5/cyfitter_cfg.c **** #include "cyfitter_cfg.h"
  25:Generated_Source\PSoC5/cyfitter_cfg.c **** #include "cyapicallbacks.h"
  26:Generated_Source\PSoC5/cyfitter_cfg.c **** 
  27:Generated_Source\PSoC5/cyfitter_cfg.c **** #define CY_NEED_CYCLOCKSTARTUPERROR 1
  28:Generated_Source\PSoC5/cyfitter_cfg.c **** 
  29:Generated_Source\PSoC5/cyfitter_cfg.c **** 
  30:Generated_Source\PSoC5/cyfitter_cfg.c **** #if defined(__GNUC__) || defined(__ARMCC_VERSION)
  31:Generated_Source\PSoC5/cyfitter_cfg.c ****     #define CYPACKED 
ARM GAS  C:\Users\HPz420\AppData\Local\Temp\ccAlG7g9.s 			page 2


  32:Generated_Source\PSoC5/cyfitter_cfg.c ****     #define CYPACKED_ATTR __attribute__ ((packed))
  33:Generated_Source\PSoC5/cyfitter_cfg.c ****     #define CYALIGNED __attribute__ ((aligned))
  34:Generated_Source\PSoC5/cyfitter_cfg.c ****     #define CY_CFG_UNUSED __attribute__ ((unused))
  35:Generated_Source\PSoC5/cyfitter_cfg.c ****     #ifndef CY_CFG_SECTION
  36:Generated_Source\PSoC5/cyfitter_cfg.c ****         #define CY_CFG_SECTION __attribute__ ((section(".psocinit")))
  37:Generated_Source\PSoC5/cyfitter_cfg.c ****     #endif
  38:Generated_Source\PSoC5/cyfitter_cfg.c ****     
  39:Generated_Source\PSoC5/cyfitter_cfg.c ****     #if defined(__ARMCC_VERSION)
  40:Generated_Source\PSoC5/cyfitter_cfg.c ****         #define CY_CFG_MEMORY_BARRIER() __memory_changed()
  41:Generated_Source\PSoC5/cyfitter_cfg.c ****     #else
  42:Generated_Source\PSoC5/cyfitter_cfg.c ****         #define CY_CFG_MEMORY_BARRIER() __sync_synchronize()
  43:Generated_Source\PSoC5/cyfitter_cfg.c ****     #endif
  44:Generated_Source\PSoC5/cyfitter_cfg.c ****     
  45:Generated_Source\PSoC5/cyfitter_cfg.c **** #elif defined(__ICCARM__)
  46:Generated_Source\PSoC5/cyfitter_cfg.c ****     #include <intrinsics.h>
  47:Generated_Source\PSoC5/cyfitter_cfg.c **** 
  48:Generated_Source\PSoC5/cyfitter_cfg.c ****     #define CYPACKED __packed
  49:Generated_Source\PSoC5/cyfitter_cfg.c ****     #define CYPACKED_ATTR 
  50:Generated_Source\PSoC5/cyfitter_cfg.c ****     #define CYALIGNED _Pragma("data_alignment=4")
  51:Generated_Source\PSoC5/cyfitter_cfg.c ****     #define CY_CFG_UNUSED _Pragma("diag_suppress=Pe177")
  52:Generated_Source\PSoC5/cyfitter_cfg.c ****     #define CY_CFG_SECTION _Pragma("location=\".psocinit\"")
  53:Generated_Source\PSoC5/cyfitter_cfg.c ****     
  54:Generated_Source\PSoC5/cyfitter_cfg.c ****     #define CY_CFG_MEMORY_BARRIER() __DMB()
  55:Generated_Source\PSoC5/cyfitter_cfg.c ****     
  56:Generated_Source\PSoC5/cyfitter_cfg.c **** #else
  57:Generated_Source\PSoC5/cyfitter_cfg.c ****     #error Unsupported toolchain
  58:Generated_Source\PSoC5/cyfitter_cfg.c **** #endif
  59:Generated_Source\PSoC5/cyfitter_cfg.c **** 
  60:Generated_Source\PSoC5/cyfitter_cfg.c **** #ifndef CYCODE
  61:Generated_Source\PSoC5/cyfitter_cfg.c ****     #define CYCODE
  62:Generated_Source\PSoC5/cyfitter_cfg.c **** #endif
  63:Generated_Source\PSoC5/cyfitter_cfg.c **** #ifndef CYDATA
  64:Generated_Source\PSoC5/cyfitter_cfg.c ****     #define CYDATA
  65:Generated_Source\PSoC5/cyfitter_cfg.c **** #endif
  66:Generated_Source\PSoC5/cyfitter_cfg.c **** #ifndef CYFAR
  67:Generated_Source\PSoC5/cyfitter_cfg.c ****     #define CYFAR
  68:Generated_Source\PSoC5/cyfitter_cfg.c **** #endif
  69:Generated_Source\PSoC5/cyfitter_cfg.c **** #ifndef CYXDATA
  70:Generated_Source\PSoC5/cyfitter_cfg.c ****     #define CYXDATA
  71:Generated_Source\PSoC5/cyfitter_cfg.c **** #endif
  72:Generated_Source\PSoC5/cyfitter_cfg.c **** 
  73:Generated_Source\PSoC5/cyfitter_cfg.c **** 
  74:Generated_Source\PSoC5/cyfitter_cfg.c **** CY_CFG_UNUSED
  75:Generated_Source\PSoC5/cyfitter_cfg.c **** static void CYMEMZERO(void *s, size_t n);
  76:Generated_Source\PSoC5/cyfitter_cfg.c **** CY_CFG_UNUSED
  77:Generated_Source\PSoC5/cyfitter_cfg.c **** static void CYMEMZERO(void *s, size_t n)
  78:Generated_Source\PSoC5/cyfitter_cfg.c **** {
  27              		.loc 1 78 0
  28              		.cfi_startproc
  29              		@ args = 0, pretend = 0, frame = 8
  30              		@ frame_needed = 1, uses_anonymous_args = 0
  31 0000 80B5     		push	{r7, lr}
  32              		.cfi_def_cfa_offset 8
  33              		.cfi_offset 7, -8
  34              		.cfi_offset 14, -4
  35 0002 82B0     		sub	sp, sp, #8
  36              		.cfi_def_cfa_offset 16
ARM GAS  C:\Users\HPz420\AppData\Local\Temp\ccAlG7g9.s 			page 3


  37 0004 00AF     		add	r7, sp, #0
  38              		.cfi_def_cfa_register 7
  39 0006 7860     		str	r0, [r7, #4]
  40 0008 3960     		str	r1, [r7]
  79:Generated_Source\PSoC5/cyfitter_cfg.c **** 	(void)memset(s, 0, n);
  41              		.loc 1 79 0
  42 000a 3A68     		ldr	r2, [r7]
  43 000c 0021     		movs	r1, #0
  44 000e 7868     		ldr	r0, [r7, #4]
  45 0010 FFF7FEFF 		bl	memset
  80:Generated_Source\PSoC5/cyfitter_cfg.c **** }
  46              		.loc 1 80 0
  47 0014 00BF     		nop
  48 0016 0837     		adds	r7, r7, #8
  49              		.cfi_def_cfa_offset 8
  50 0018 BD46     		mov	sp, r7
  51              		.cfi_def_cfa_register 13
  52              		@ sp needed
  53 001a 80BD     		pop	{r7, pc}
  54              		.cfi_endproc
  55              	.LFE0:
  56              		.size	CYMEMZERO, .-CYMEMZERO
  57              		.section	.text.CYCONFIGCPY,"ax",%progbits
  58              		.align	2
  59              		.thumb
  60              		.thumb_func
  61              		.type	CYCONFIGCPY, %function
  62              	CYCONFIGCPY:
  63              	.LFB1:
  81:Generated_Source\PSoC5/cyfitter_cfg.c **** CY_CFG_UNUSED
  82:Generated_Source\PSoC5/cyfitter_cfg.c **** static void CYCONFIGCPY(void *dest, const void *src, size_t n);
  83:Generated_Source\PSoC5/cyfitter_cfg.c **** CY_CFG_UNUSED
  84:Generated_Source\PSoC5/cyfitter_cfg.c **** static void CYCONFIGCPY(void *dest, const void *src, size_t n)
  85:Generated_Source\PSoC5/cyfitter_cfg.c **** {
  64              		.loc 1 85 0
  65              		.cfi_startproc
  66              		@ args = 0, pretend = 0, frame = 16
  67              		@ frame_needed = 1, uses_anonymous_args = 0
  68 0000 80B5     		push	{r7, lr}
  69              		.cfi_def_cfa_offset 8
  70              		.cfi_offset 7, -8
  71              		.cfi_offset 14, -4
  72 0002 84B0     		sub	sp, sp, #16
  73              		.cfi_def_cfa_offset 24
  74 0004 00AF     		add	r7, sp, #0
  75              		.cfi_def_cfa_register 7
  76 0006 F860     		str	r0, [r7, #12]
  77 0008 B960     		str	r1, [r7, #8]
  78 000a 7A60     		str	r2, [r7, #4]
  86:Generated_Source\PSoC5/cyfitter_cfg.c **** 	(void)memcpy(dest, src, n);
  79              		.loc 1 86 0
  80 000c 7A68     		ldr	r2, [r7, #4]
  81 000e B968     		ldr	r1, [r7, #8]
  82 0010 F868     		ldr	r0, [r7, #12]
  83 0012 FFF7FEFF 		bl	memcpy
  87:Generated_Source\PSoC5/cyfitter_cfg.c **** }
  84              		.loc 1 87 0
ARM GAS  C:\Users\HPz420\AppData\Local\Temp\ccAlG7g9.s 			page 4


  85 0016 00BF     		nop
  86 0018 1037     		adds	r7, r7, #16
  87              		.cfi_def_cfa_offset 8
  88 001a BD46     		mov	sp, r7
  89              		.cfi_def_cfa_register 13
  90              		@ sp needed
  91 001c 80BD     		pop	{r7, pc}
  92              		.cfi_endproc
  93              	.LFE1:
  94              		.size	CYCONFIGCPY, .-CYCONFIGCPY
  95 001e 00BF     		.section	.text.CYCONFIGCPYCODE,"ax",%progbits
  96              		.align	2
  97              		.thumb
  98              		.thumb_func
  99              		.type	CYCONFIGCPYCODE, %function
 100              	CYCONFIGCPYCODE:
 101              	.LFB2:
  88:Generated_Source\PSoC5/cyfitter_cfg.c **** CY_CFG_UNUSED
  89:Generated_Source\PSoC5/cyfitter_cfg.c **** static void CYCONFIGCPYCODE(void *dest, const void *src, size_t n);
  90:Generated_Source\PSoC5/cyfitter_cfg.c **** CY_CFG_UNUSED
  91:Generated_Source\PSoC5/cyfitter_cfg.c **** static void CYCONFIGCPYCODE(void *dest, const void *src, size_t n)
  92:Generated_Source\PSoC5/cyfitter_cfg.c **** {
 102              		.loc 1 92 0
 103              		.cfi_startproc
 104              		@ args = 0, pretend = 0, frame = 16
 105              		@ frame_needed = 1, uses_anonymous_args = 0
 106 0000 80B5     		push	{r7, lr}
 107              		.cfi_def_cfa_offset 8
 108              		.cfi_offset 7, -8
 109              		.cfi_offset 14, -4
 110 0002 84B0     		sub	sp, sp, #16
 111              		.cfi_def_cfa_offset 24
 112 0004 00AF     		add	r7, sp, #0
 113              		.cfi_def_cfa_register 7
 114 0006 F860     		str	r0, [r7, #12]
 115 0008 B960     		str	r1, [r7, #8]
 116 000a 7A60     		str	r2, [r7, #4]
  93:Generated_Source\PSoC5/cyfitter_cfg.c **** 	(void)memcpy(dest, src, n);
 117              		.loc 1 93 0
 118 000c 7A68     		ldr	r2, [r7, #4]
 119 000e B968     		ldr	r1, [r7, #8]
 120 0010 F868     		ldr	r0, [r7, #12]
 121 0012 FFF7FEFF 		bl	memcpy
  94:Generated_Source\PSoC5/cyfitter_cfg.c **** }
 122              		.loc 1 94 0
 123 0016 00BF     		nop
 124 0018 1037     		adds	r7, r7, #16
 125              		.cfi_def_cfa_offset 8
 126 001a BD46     		mov	sp, r7
 127              		.cfi_def_cfa_register 13
 128              		@ sp needed
 129 001c 80BD     		pop	{r7, pc}
 130              		.cfi_endproc
 131              	.LFE2:
 132              		.size	CYCONFIGCPYCODE, .-CYCONFIGCPYCODE
 133 001e 00BF     		.section	.text.CyClockStartupError,"ax",%progbits
 134              		.align	2
ARM GAS  C:\Users\HPz420\AppData\Local\Temp\ccAlG7g9.s 			page 5


 135              		.thumb
 136              		.thumb_func
 137              		.type	CyClockStartupError, %function
 138              	CyClockStartupError:
 139              	.LFB3:
  95:Generated_Source\PSoC5/cyfitter_cfg.c **** 
  96:Generated_Source\PSoC5/cyfitter_cfg.c **** 
  97:Generated_Source\PSoC5/cyfitter_cfg.c **** 
  98:Generated_Source\PSoC5/cyfitter_cfg.c **** 
  99:Generated_Source\PSoC5/cyfitter_cfg.c **** /* Clock startup error codes                                                   */
 100:Generated_Source\PSoC5/cyfitter_cfg.c **** #define CYCLOCKSTART_NO_ERROR    0u
 101:Generated_Source\PSoC5/cyfitter_cfg.c **** #define CYCLOCKSTART_XTAL_ERROR  1u
 102:Generated_Source\PSoC5/cyfitter_cfg.c **** #define CYCLOCKSTART_32KHZ_ERROR 2u
 103:Generated_Source\PSoC5/cyfitter_cfg.c **** #define CYCLOCKSTART_PLL_ERROR   3u
 104:Generated_Source\PSoC5/cyfitter_cfg.c **** #define CYCLOCKSTART_FLL_ERROR   4u
 105:Generated_Source\PSoC5/cyfitter_cfg.c **** #define CYCLOCKSTART_WCO_ERROR   5u
 106:Generated_Source\PSoC5/cyfitter_cfg.c **** 
 107:Generated_Source\PSoC5/cyfitter_cfg.c **** 
 108:Generated_Source\PSoC5/cyfitter_cfg.c **** #ifdef CY_NEED_CYCLOCKSTARTUPERROR
 109:Generated_Source\PSoC5/cyfitter_cfg.c **** /*******************************************************************************
 110:Generated_Source\PSoC5/cyfitter_cfg.c **** * Function Name: CyClockStartupError
 111:Generated_Source\PSoC5/cyfitter_cfg.c **** ********************************************************************************
 112:Generated_Source\PSoC5/cyfitter_cfg.c **** * Summary:
 113:Generated_Source\PSoC5/cyfitter_cfg.c **** *  If an error is encountered during clock configuration (crystal startup error,
 114:Generated_Source\PSoC5/cyfitter_cfg.c **** *  PLL lock error, etc.), the system will end up here.  Unless reimplemented by
 115:Generated_Source\PSoC5/cyfitter_cfg.c **** *  the customer, this function will stop in an infinite loop.
 116:Generated_Source\PSoC5/cyfitter_cfg.c **** *
 117:Generated_Source\PSoC5/cyfitter_cfg.c **** * Parameters:
 118:Generated_Source\PSoC5/cyfitter_cfg.c **** *   void
 119:Generated_Source\PSoC5/cyfitter_cfg.c **** *
 120:Generated_Source\PSoC5/cyfitter_cfg.c **** * Return:
 121:Generated_Source\PSoC5/cyfitter_cfg.c **** *   void
 122:Generated_Source\PSoC5/cyfitter_cfg.c **** *
 123:Generated_Source\PSoC5/cyfitter_cfg.c **** *******************************************************************************/
 124:Generated_Source\PSoC5/cyfitter_cfg.c **** CY_CFG_UNUSED
 125:Generated_Source\PSoC5/cyfitter_cfg.c **** static void CyClockStartupError(uint8 errorCode);
 126:Generated_Source\PSoC5/cyfitter_cfg.c **** CY_CFG_UNUSED
 127:Generated_Source\PSoC5/cyfitter_cfg.c **** static void CyClockStartupError(uint8 errorCode)
 128:Generated_Source\PSoC5/cyfitter_cfg.c **** {
 140              		.loc 1 128 0
 141              		.cfi_startproc
 142              		@ args = 0, pretend = 0, frame = 8
 143              		@ frame_needed = 1, uses_anonymous_args = 0
 144              		@ link register save eliminated.
 145 0000 80B4     		push	{r7}
 146              		.cfi_def_cfa_offset 4
 147              		.cfi_offset 7, -4
 148 0002 83B0     		sub	sp, sp, #12
 149              		.cfi_def_cfa_offset 16
 150 0004 00AF     		add	r7, sp, #0
 151              		.cfi_def_cfa_register 7
 152 0006 0346     		mov	r3, r0
 153 0008 FB71     		strb	r3, [r7, #7]
 154              	.L5:
 129:Generated_Source\PSoC5/cyfitter_cfg.c ****     /* To remove the compiler warning if errorCode not used.                */
 130:Generated_Source\PSoC5/cyfitter_cfg.c ****     errorCode = errorCode;
 131:Generated_Source\PSoC5/cyfitter_cfg.c **** 
ARM GAS  C:\Users\HPz420\AppData\Local\Temp\ccAlG7g9.s 			page 6


 132:Generated_Source\PSoC5/cyfitter_cfg.c ****     /* If we have a clock startup error (bad MHz crystal, PLL lock, etc.),  */
 133:Generated_Source\PSoC5/cyfitter_cfg.c ****     /* we will end up here to allow the customer to implement something to  */
 134:Generated_Source\PSoC5/cyfitter_cfg.c ****     /* deal with the clock condition.                                       */
 135:Generated_Source\PSoC5/cyfitter_cfg.c **** 
 136:Generated_Source\PSoC5/cyfitter_cfg.c **** #ifdef CY_CFG_CLOCK_STARTUP_ERROR_CALLBACK
 137:Generated_Source\PSoC5/cyfitter_cfg.c ****     CY_CFG_Clock_Startup_ErrorCallback();
 138:Generated_Source\PSoC5/cyfitter_cfg.c **** #else
 139:Generated_Source\PSoC5/cyfitter_cfg.c ****     /*  If not using CY_CFG_CLOCK_STARTUP_ERROR_CALLBACK, place your clock startup code here. */
 140:Generated_Source\PSoC5/cyfitter_cfg.c ****     /* `#START CyClockStartupError` */
 141:Generated_Source\PSoC5/cyfitter_cfg.c **** 
 142:Generated_Source\PSoC5/cyfitter_cfg.c **** 
 143:Generated_Source\PSoC5/cyfitter_cfg.c **** 
 144:Generated_Source\PSoC5/cyfitter_cfg.c ****     /* `#END` */
 145:Generated_Source\PSoC5/cyfitter_cfg.c **** 
 146:Generated_Source\PSoC5/cyfitter_cfg.c ****     while(1) {}
 155              		.loc 1 146 0 discriminator 1
 156 000a FEE7     		b	.L5
 157              		.cfi_endproc
 158              	.LFE3:
 159              		.size	CyClockStartupError, .-CyClockStartupError
 160              		.section	.text.cfg_write_bytes32,"ax",%progbits
 161              		.align	2
 162              		.thumb
 163              		.thumb_func
 164              		.type	cfg_write_bytes32, %function
 165              	cfg_write_bytes32:
 166              	.LFB4:
 147:Generated_Source\PSoC5/cyfitter_cfg.c **** #endif /* CY_CFG_CLOCK_STARTUP_ERROR_CALLBACK */
 148:Generated_Source\PSoC5/cyfitter_cfg.c **** }
 149:Generated_Source\PSoC5/cyfitter_cfg.c **** #endif
 150:Generated_Source\PSoC5/cyfitter_cfg.c **** 
 151:Generated_Source\PSoC5/cyfitter_cfg.c **** #define CY_CFG_BASE_ADDR_COUNT 34u
 152:Generated_Source\PSoC5/cyfitter_cfg.c **** CYPACKED typedef struct
 153:Generated_Source\PSoC5/cyfitter_cfg.c **** {
 154:Generated_Source\PSoC5/cyfitter_cfg.c **** 	uint8 offset;
 155:Generated_Source\PSoC5/cyfitter_cfg.c **** 	uint8 value;
 156:Generated_Source\PSoC5/cyfitter_cfg.c **** } CYPACKED_ATTR cy_cfg_addrvalue_t;
 157:Generated_Source\PSoC5/cyfitter_cfg.c **** 
 158:Generated_Source\PSoC5/cyfitter_cfg.c **** 
 159:Generated_Source\PSoC5/cyfitter_cfg.c **** 
 160:Generated_Source\PSoC5/cyfitter_cfg.c **** /*******************************************************************************
 161:Generated_Source\PSoC5/cyfitter_cfg.c **** * Function Name: cfg_write_bytes32
 162:Generated_Source\PSoC5/cyfitter_cfg.c **** ********************************************************************************
 163:Generated_Source\PSoC5/cyfitter_cfg.c **** * Summary:
 164:Generated_Source\PSoC5/cyfitter_cfg.c **** *  This function is used for setting up the chip configuration areas that
 165:Generated_Source\PSoC5/cyfitter_cfg.c **** *  contain relatively sparse data.
 166:Generated_Source\PSoC5/cyfitter_cfg.c **** *
 167:Generated_Source\PSoC5/cyfitter_cfg.c **** * Parameters:
 168:Generated_Source\PSoC5/cyfitter_cfg.c **** *   void
 169:Generated_Source\PSoC5/cyfitter_cfg.c **** *
 170:Generated_Source\PSoC5/cyfitter_cfg.c **** * Return:
 171:Generated_Source\PSoC5/cyfitter_cfg.c **** *   void
 172:Generated_Source\PSoC5/cyfitter_cfg.c **** *
 173:Generated_Source\PSoC5/cyfitter_cfg.c **** *******************************************************************************/
 174:Generated_Source\PSoC5/cyfitter_cfg.c **** static void cfg_write_bytes32(const uint32 addr_table[], const cy_cfg_addrvalue_t data_table[]);
 175:Generated_Source\PSoC5/cyfitter_cfg.c **** static void cfg_write_bytes32(const uint32 addr_table[], const cy_cfg_addrvalue_t data_table[])
 176:Generated_Source\PSoC5/cyfitter_cfg.c **** {
ARM GAS  C:\Users\HPz420\AppData\Local\Temp\ccAlG7g9.s 			page 7


 167              		.loc 1 176 0
 168              		.cfi_startproc
 169              		@ args = 0, pretend = 0, frame = 24
 170              		@ frame_needed = 1, uses_anonymous_args = 0
 171              		@ link register save eliminated.
 172 0000 80B4     		push	{r7}
 173              		.cfi_def_cfa_offset 4
 174              		.cfi_offset 7, -4
 175 0002 87B0     		sub	sp, sp, #28
 176              		.cfi_def_cfa_offset 32
 177 0004 00AF     		add	r7, sp, #0
 178              		.cfi_def_cfa_register 7
 179 0006 7860     		str	r0, [r7, #4]
 180 0008 3960     		str	r1, [r7]
 177:Generated_Source\PSoC5/cyfitter_cfg.c **** 	/* For 32-bit little-endian architectures */
 178:Generated_Source\PSoC5/cyfitter_cfg.c **** 	uint32 i, j = 0u;
 181              		.loc 1 178 0
 182 000a 0023     		movs	r3, #0
 183 000c 3B61     		str	r3, [r7, #16]
 179:Generated_Source\PSoC5/cyfitter_cfg.c **** 	for (i = 0u; i < CY_CFG_BASE_ADDR_COUNT; i++)
 184              		.loc 1 179 0
 185 000e 0023     		movs	r3, #0
 186 0010 7B61     		str	r3, [r7, #20]
 187 0012 27E0     		b	.L7
 188              	.L10:
 189              	.LBB2:
 180:Generated_Source\PSoC5/cyfitter_cfg.c **** 	{
 181:Generated_Source\PSoC5/cyfitter_cfg.c **** 		uint32 baseAddr = addr_table[i];
 190              		.loc 1 181 0
 191 0014 7B69     		ldr	r3, [r7, #20]
 192 0016 9B00     		lsls	r3, r3, #2
 193 0018 7A68     		ldr	r2, [r7, #4]
 194 001a 1344     		add	r3, r3, r2
 195 001c 1B68     		ldr	r3, [r3]
 196 001e BB60     		str	r3, [r7, #8]
 182:Generated_Source\PSoC5/cyfitter_cfg.c **** 		uint8 count = (uint8)baseAddr;
 197              		.loc 1 182 0
 198 0020 BB68     		ldr	r3, [r7, #8]
 199 0022 FB73     		strb	r3, [r7, #15]
 183:Generated_Source\PSoC5/cyfitter_cfg.c **** 		baseAddr &= 0xFFFFFF00u;
 200              		.loc 1 183 0
 201 0024 BB68     		ldr	r3, [r7, #8]
 202 0026 23F0FF03 		bic	r3, r3, #255
 203 002a BB60     		str	r3, [r7, #8]
 184:Generated_Source\PSoC5/cyfitter_cfg.c **** 		while (count != 0u)
 204              		.loc 1 184 0
 205 002c 14E0     		b	.L8
 206              	.L9:
 185:Generated_Source\PSoC5/cyfitter_cfg.c **** 		{
 186:Generated_Source\PSoC5/cyfitter_cfg.c **** 			CY_SET_REG8((void *)(baseAddr + data_table[j].offset), data_table[j].value);
 207              		.loc 1 186 0
 208 002e 3B69     		ldr	r3, [r7, #16]
 209 0030 5B00     		lsls	r3, r3, #1
 210 0032 3A68     		ldr	r2, [r7]
 211 0034 1344     		add	r3, r3, r2
 212 0036 1B78     		ldrb	r3, [r3]	@ zero_extendqisi2
 213 0038 1A46     		mov	r2, r3
ARM GAS  C:\Users\HPz420\AppData\Local\Temp\ccAlG7g9.s 			page 8


 214 003a BB68     		ldr	r3, [r7, #8]
 215 003c 1344     		add	r3, r3, r2
 216 003e 1946     		mov	r1, r3
 217 0040 3B69     		ldr	r3, [r7, #16]
 218 0042 5B00     		lsls	r3, r3, #1
 219 0044 3A68     		ldr	r2, [r7]
 220 0046 1344     		add	r3, r3, r2
 221 0048 5B78     		ldrb	r3, [r3, #1]	@ zero_extendqisi2
 222 004a 0B70     		strb	r3, [r1]
 187:Generated_Source\PSoC5/cyfitter_cfg.c **** 			j++;
 223              		.loc 1 187 0
 224 004c 3B69     		ldr	r3, [r7, #16]
 225 004e 0133     		adds	r3, r3, #1
 226 0050 3B61     		str	r3, [r7, #16]
 188:Generated_Source\PSoC5/cyfitter_cfg.c **** 			count--;
 227              		.loc 1 188 0
 228 0052 FB7B     		ldrb	r3, [r7, #15]	@ zero_extendqisi2
 229 0054 013B     		subs	r3, r3, #1
 230 0056 FB73     		strb	r3, [r7, #15]
 231              	.L8:
 184:Generated_Source\PSoC5/cyfitter_cfg.c **** 		{
 232              		.loc 1 184 0
 233 0058 FB7B     		ldrb	r3, [r7, #15]	@ zero_extendqisi2
 234 005a 002B     		cmp	r3, #0
 235 005c E7D1     		bne	.L9
 236              	.LBE2:
 179:Generated_Source\PSoC5/cyfitter_cfg.c **** 	{
 237              		.loc 1 179 0 discriminator 2
 238 005e 7B69     		ldr	r3, [r7, #20]
 239 0060 0133     		adds	r3, r3, #1
 240 0062 7B61     		str	r3, [r7, #20]
 241              	.L7:
 179:Generated_Source\PSoC5/cyfitter_cfg.c **** 	{
 242              		.loc 1 179 0 is_stmt 0 discriminator 1
 243 0064 7B69     		ldr	r3, [r7, #20]
 244 0066 212B     		cmp	r3, #33
 245 0068 D4D9     		bls	.L10
 189:Generated_Source\PSoC5/cyfitter_cfg.c **** 		}
 190:Generated_Source\PSoC5/cyfitter_cfg.c **** 	}
 191:Generated_Source\PSoC5/cyfitter_cfg.c **** }
 246              		.loc 1 191 0 is_stmt 1
 247 006a 00BF     		nop
 248 006c 1C37     		adds	r7, r7, #28
 249              		.cfi_def_cfa_offset 4
 250 006e BD46     		mov	sp, r7
 251              		.cfi_def_cfa_register 13
 252              		@ sp needed
 253 0070 80BC     		pop	{r7}
 254              		.cfi_restore 7
 255              		.cfi_def_cfa_offset 0
 256 0072 7047     		bx	lr
 257              		.cfi_endproc
 258              	.LFE4:
 259              		.size	cfg_write_bytes32, .-cfg_write_bytes32
 260              		.section	.text.ClockSetup,"ax",%progbits
 261              		.align	2
 262              		.thumb
ARM GAS  C:\Users\HPz420\AppData\Local\Temp\ccAlG7g9.s 			page 9


 263              		.thumb_func
 264              		.type	ClockSetup, %function
 265              	ClockSetup:
 266              	.LFB5:
 192:Generated_Source\PSoC5/cyfitter_cfg.c **** 
 193:Generated_Source\PSoC5/cyfitter_cfg.c **** /*******************************************************************************
 194:Generated_Source\PSoC5/cyfitter_cfg.c **** * Function Name: ClockSetup
 195:Generated_Source\PSoC5/cyfitter_cfg.c **** ********************************************************************************
 196:Generated_Source\PSoC5/cyfitter_cfg.c **** *
 197:Generated_Source\PSoC5/cyfitter_cfg.c **** * Summary:
 198:Generated_Source\PSoC5/cyfitter_cfg.c **** *  Performs the initialization of all of the clocks in the device based on the
 199:Generated_Source\PSoC5/cyfitter_cfg.c **** *  settings in the Clock tab of the DWR.  This includes enabling the requested
 200:Generated_Source\PSoC5/cyfitter_cfg.c **** *  clocks and setting the necessary dividers to produce the desired frequency. 
 201:Generated_Source\PSoC5/cyfitter_cfg.c **** *
 202:Generated_Source\PSoC5/cyfitter_cfg.c **** * Parameters:
 203:Generated_Source\PSoC5/cyfitter_cfg.c **** *  void
 204:Generated_Source\PSoC5/cyfitter_cfg.c **** *
 205:Generated_Source\PSoC5/cyfitter_cfg.c **** * Return:
 206:Generated_Source\PSoC5/cyfitter_cfg.c **** *  void
 207:Generated_Source\PSoC5/cyfitter_cfg.c **** *
 208:Generated_Source\PSoC5/cyfitter_cfg.c **** *******************************************************************************/
 209:Generated_Source\PSoC5/cyfitter_cfg.c **** static void ClockSetup(void);
 210:Generated_Source\PSoC5/cyfitter_cfg.c **** static void ClockSetup(void)
 211:Generated_Source\PSoC5/cyfitter_cfg.c **** {
 267              		.loc 1 211 0
 268              		.cfi_startproc
 269              		@ args = 0, pretend = 0, frame = 8
 270              		@ frame_needed = 1, uses_anonymous_args = 0
 271 0000 80B5     		push	{r7, lr}
 272              		.cfi_def_cfa_offset 8
 273              		.cfi_offset 7, -8
 274              		.cfi_offset 14, -4
 275 0002 82B0     		sub	sp, sp, #8
 276              		.cfi_def_cfa_offset 16
 277 0004 00AF     		add	r7, sp, #0
 278              		.cfi_def_cfa_register 7
 212:Generated_Source\PSoC5/cyfitter_cfg.c **** 	/* CYDEV_CLKDIST_ACFG0_CFG0 Address: CYREG_CLKDIST_ACFG0_CFG0 Size (bytes): 4 */
 213:Generated_Source\PSoC5/cyfitter_cfg.c **** 	static const uint8 CYCODE BS_CYDEV_CLKDIST_ACFG0_CFG0_VAL[] = {
 214:Generated_Source\PSoC5/cyfitter_cfg.c **** 		0x05u, 0x00u, 0x14u, 0x01u};
 215:Generated_Source\PSoC5/cyfitter_cfg.c **** 
 216:Generated_Source\PSoC5/cyfitter_cfg.c **** 	uint32 timeout;
 217:Generated_Source\PSoC5/cyfitter_cfg.c **** 	uint8 pllLock;
 218:Generated_Source\PSoC5/cyfitter_cfg.c **** 
 219:Generated_Source\PSoC5/cyfitter_cfg.c **** 
 220:Generated_Source\PSoC5/cyfitter_cfg.c **** 	/* Configure Digital Clocks based on settings from Clock DWR */
 221:Generated_Source\PSoC5/cyfitter_cfg.c **** 	CY_SET_XTND_REG16((void CYFAR *)(CYREG_CLKDIST_DCFG0_CFG0), 0x0000u);
 279              		.loc 1 221 0
 280 0006 334B     		ldr	r3, .L16
 281 0008 0022     		movs	r2, #0
 282 000a 1A80     		strh	r2, [r3]	@ movhi
 222:Generated_Source\PSoC5/cyfitter_cfg.c **** 	CY_SET_XTND_REG8((void CYFAR *)(CYREG_CLKDIST_DCFG0_CFG0 + 0x2u), 0x58u);
 283              		.loc 1 222 0
 284 000c 324B     		ldr	r3, .L16+4
 285 000e 5822     		movs	r2, #88
 286 0010 1A70     		strb	r2, [r3]
 223:Generated_Source\PSoC5/cyfitter_cfg.c **** 
 224:Generated_Source\PSoC5/cyfitter_cfg.c **** 	/* Configure Analog Clocks based on settings from Clock DWR */
ARM GAS  C:\Users\HPz420\AppData\Local\Temp\ccAlG7g9.s 			page 10


 225:Generated_Source\PSoC5/cyfitter_cfg.c **** 	CYCONFIGCPYCODE((void CYFAR *)(CYREG_CLKDIST_ACFG0_CFG0), (const void CYCODE *)(BS_CYDEV_CLKDIST_A
 287              		.loc 1 225 0
 288 0012 0422     		movs	r2, #4
 289 0014 3149     		ldr	r1, .L16+8
 290 0016 3248     		ldr	r0, .L16+12
 291 0018 FFF7FEFF 		bl	CYCONFIGCPYCODE
 226:Generated_Source\PSoC5/cyfitter_cfg.c **** 
 227:Generated_Source\PSoC5/cyfitter_cfg.c **** 	/* Configure ILO based on settings from Clock DWR */
 228:Generated_Source\PSoC5/cyfitter_cfg.c **** 	CY_SET_XTND_REG8((void CYFAR *)(CYREG_SLOWCLK_ILO_CR0), 0x06u);
 292              		.loc 1 228 0
 293 001c 314B     		ldr	r3, .L16+16
 294 001e 0622     		movs	r2, #6
 295 0020 1A70     		strb	r2, [r3]
 229:Generated_Source\PSoC5/cyfitter_cfg.c **** 
 230:Generated_Source\PSoC5/cyfitter_cfg.c **** 	/* Configure IMO based on settings from Clock DWR */
 231:Generated_Source\PSoC5/cyfitter_cfg.c **** 	CY_SET_XTND_REG8((void CYFAR *)(CYREG_FASTCLK_IMO_CR), 0x52u);
 296              		.loc 1 231 0
 297 0022 314B     		ldr	r3, .L16+20
 298 0024 5222     		movs	r2, #82
 299 0026 1A70     		strb	r2, [r3]
 232:Generated_Source\PSoC5/cyfitter_cfg.c **** 	CY_SET_XTND_REG8((void CYFAR *)(CYREG_IMO_TR1), (CY_GET_XTND_REG8((void CYFAR *)CYREG_FLSHID_CUST_
 300              		.loc 1 232 0
 301 0028 304B     		ldr	r3, .L16+24
 302 002a 314A     		ldr	r2, .L16+28
 303 002c 1278     		ldrb	r2, [r2]
 304 002e D2B2     		uxtb	r2, r2
 305 0030 1A70     		strb	r2, [r3]
 233:Generated_Source\PSoC5/cyfitter_cfg.c **** 
 234:Generated_Source\PSoC5/cyfitter_cfg.c **** 	/* Configure PLL based on settings from Clock DWR */
 235:Generated_Source\PSoC5/cyfitter_cfg.c **** 	CY_SET_XTND_REG16((void CYFAR *)(CYREG_FASTCLK_PLL_P), 0x0818u);
 306              		.loc 1 235 0
 307 0032 304B     		ldr	r3, .L16+32
 308 0034 40F61802 		movw	r2, #2072
 309 0038 1A80     		strh	r2, [r3]	@ movhi
 236:Generated_Source\PSoC5/cyfitter_cfg.c **** 	CY_SET_XTND_REG16((void CYFAR *)(CYREG_FASTCLK_PLL_CFG0), 0x1251u);
 310              		.loc 1 236 0
 311 003a 2F4B     		ldr	r3, .L16+36
 312 003c 41F25122 		movw	r2, #4689
 313 0040 1A80     		strh	r2, [r3]	@ movhi
 237:Generated_Source\PSoC5/cyfitter_cfg.c **** 	/* Wait up to 250us for the PLL to lock */
 238:Generated_Source\PSoC5/cyfitter_cfg.c **** 	pllLock = 0u;
 314              		.loc 1 238 0
 315 0042 0023     		movs	r3, #0
 316 0044 FB70     		strb	r3, [r7, #3]
 239:Generated_Source\PSoC5/cyfitter_cfg.c **** 	for (timeout = 250u / 10u; (timeout > 0u) && (pllLock != 0x03u); timeout--)
 317              		.loc 1 239 0
 318 0046 1923     		movs	r3, #25
 319 0048 7B60     		str	r3, [r7, #4]
 320 004a 14E0     		b	.L12
 321              	.L14:
 240:Generated_Source\PSoC5/cyfitter_cfg.c **** 	{ 
 241:Generated_Source\PSoC5/cyfitter_cfg.c **** 		pllLock = 0x03u & ((uint8)((uint8)pllLock << 1) | ((CY_GET_XTND_REG8((void CYFAR *)CYREG_FASTCLK_
 322              		.loc 1 241 0 discriminator 4
 323 004c FB78     		ldrb	r3, [r7, #3]
 324 004e 5B00     		lsls	r3, r3, #1
 325 0050 DAB2     		uxtb	r2, r3
 326 0052 2A4B     		ldr	r3, .L16+40
ARM GAS  C:\Users\HPz420\AppData\Local\Temp\ccAlG7g9.s 			page 11


 327 0054 1B78     		ldrb	r3, [r3]
 328 0056 DBB2     		uxtb	r3, r3
 329 0058 03F00103 		and	r3, r3, #1
 330 005c DBB2     		uxtb	r3, r3
 331 005e 1343     		orrs	r3, r3, r2
 332 0060 DBB2     		uxtb	r3, r3
 333 0062 03F00303 		and	r3, r3, #3
 334 0066 FB70     		strb	r3, [r7, #3]
 242:Generated_Source\PSoC5/cyfitter_cfg.c **** 		CyDelayCycles(10u * 48u); /* Delay 10us based on 48MHz clock */
 335              		.loc 1 242 0 discriminator 4
 336 0068 4FF4F070 		mov	r0, #480
 337 006c FFF7FEFF 		bl	CyDelayCycles
 239:Generated_Source\PSoC5/cyfitter_cfg.c **** 	for (timeout = 250u / 10u; (timeout > 0u) && (pllLock != 0x03u); timeout--)
 338              		.loc 1 239 0 discriminator 4
 339 0070 7B68     		ldr	r3, [r7, #4]
 340 0072 013B     		subs	r3, r3, #1
 341 0074 7B60     		str	r3, [r7, #4]
 342              	.L12:
 239:Generated_Source\PSoC5/cyfitter_cfg.c **** 	for (timeout = 250u / 10u; (timeout > 0u) && (pllLock != 0x03u); timeout--)
 343              		.loc 1 239 0 is_stmt 0 discriminator 1
 344 0076 7B68     		ldr	r3, [r7, #4]
 345 0078 002B     		cmp	r3, #0
 346 007a 02D0     		beq	.L13
 239:Generated_Source\PSoC5/cyfitter_cfg.c **** 	for (timeout = 250u / 10u; (timeout > 0u) && (pllLock != 0x03u); timeout--)
 347              		.loc 1 239 0 discriminator 3
 348 007c FB78     		ldrb	r3, [r7, #3]	@ zero_extendqisi2
 349 007e 032B     		cmp	r3, #3
 350 0080 E4D1     		bne	.L14
 351              	.L13:
 243:Generated_Source\PSoC5/cyfitter_cfg.c **** 	}
 244:Generated_Source\PSoC5/cyfitter_cfg.c **** 	/* If we ran out of time the PLL didn't lock so go to the error function */
 245:Generated_Source\PSoC5/cyfitter_cfg.c **** 	if (timeout == 0u)
 352              		.loc 1 245 0 is_stmt 1
 353 0082 7B68     		ldr	r3, [r7, #4]
 354 0084 002B     		cmp	r3, #0
 355 0086 02D1     		bne	.L15
 246:Generated_Source\PSoC5/cyfitter_cfg.c **** 	{
 247:Generated_Source\PSoC5/cyfitter_cfg.c **** 		CyClockStartupError(CYCLOCKSTART_PLL_ERROR);
 356              		.loc 1 247 0
 357 0088 0320     		movs	r0, #3
 358 008a FFF7FEFF 		bl	CyClockStartupError
 359              	.L15:
 248:Generated_Source\PSoC5/cyfitter_cfg.c **** 	}
 249:Generated_Source\PSoC5/cyfitter_cfg.c **** 
 250:Generated_Source\PSoC5/cyfitter_cfg.c **** 	/* Configure Bus/Master Clock based on settings from Clock DWR */
 251:Generated_Source\PSoC5/cyfitter_cfg.c **** 	CY_SET_XTND_REG16((void CYFAR *)(CYREG_CLKDIST_MSTR0), 0x0100u);
 360              		.loc 1 251 0
 361 008e 1C4B     		ldr	r3, .L16+44
 362 0090 4FF48072 		mov	r2, #256
 363 0094 1A80     		strh	r2, [r3]	@ movhi
 252:Generated_Source\PSoC5/cyfitter_cfg.c **** 	CY_SET_XTND_REG8((void CYFAR *)(CYREG_CLKDIST_MSTR0), 0x07u);
 364              		.loc 1 252 0
 365 0096 1A4B     		ldr	r3, .L16+44
 366 0098 0722     		movs	r2, #7
 367 009a 1A70     		strb	r2, [r3]
 253:Generated_Source\PSoC5/cyfitter_cfg.c **** 	CY_SET_XTND_REG8((void CYFAR *)(CYREG_CLKDIST_BCFG0), 0x00u);
 368              		.loc 1 253 0
ARM GAS  C:\Users\HPz420\AppData\Local\Temp\ccAlG7g9.s 			page 12


 369 009c 194B     		ldr	r3, .L16+48
 370 009e 0022     		movs	r2, #0
 371 00a0 1A70     		strb	r2, [r3]
 254:Generated_Source\PSoC5/cyfitter_cfg.c **** 	CY_SET_XTND_REG8((void CYFAR *)(CYREG_CLKDIST_BCFG2), 0x48u);
 372              		.loc 1 254 0
 373 00a2 194B     		ldr	r3, .L16+52
 374 00a4 4822     		movs	r2, #72
 375 00a6 1A70     		strb	r2, [r3]
 255:Generated_Source\PSoC5/cyfitter_cfg.c **** 	CY_SET_XTND_REG8((void CYFAR *)(CYREG_CLKDIST_MSTR0), 0x00u);
 376              		.loc 1 255 0
 377 00a8 154B     		ldr	r3, .L16+44
 378 00aa 0022     		movs	r2, #0
 379 00ac 1A70     		strb	r2, [r3]
 256:Generated_Source\PSoC5/cyfitter_cfg.c **** 
 257:Generated_Source\PSoC5/cyfitter_cfg.c **** 	/* Configure USB Clock based on settings from Clock DWR */
 258:Generated_Source\PSoC5/cyfitter_cfg.c **** 	CY_SET_XTND_REG8((void CYFAR *)(CYREG_CLKDIST_UCFG), 0x00u);
 380              		.loc 1 258 0
 381 00ae 174B     		ldr	r3, .L16+56
 382 00b0 0022     		movs	r2, #0
 383 00b2 1A70     		strb	r2, [r3]
 259:Generated_Source\PSoC5/cyfitter_cfg.c **** 	CY_SET_XTND_REG8((void CYFAR *)(CYREG_CLKDIST_LD), 0x02u);
 384              		.loc 1 259 0
 385 00b4 164B     		ldr	r3, .L16+60
 386 00b6 0222     		movs	r2, #2
 387 00b8 1A70     		strb	r2, [r3]
 260:Generated_Source\PSoC5/cyfitter_cfg.c **** 
 261:Generated_Source\PSoC5/cyfitter_cfg.c **** 	CY_SET_XTND_REG8((void CYFAR *)(CYREG_PM_ACT_CFG2), ((CY_GET_XTND_REG8((void CYFAR *)CYREG_PM_ACT_
 388              		.loc 1 261 0
 389 00ba 164A     		ldr	r2, .L16+64
 390 00bc 154B     		ldr	r3, .L16+64
 391 00be 1B78     		ldrb	r3, [r3]
 392 00c0 DBB2     		uxtb	r3, r3
 393 00c2 43F00103 		orr	r3, r3, #1
 394 00c6 DBB2     		uxtb	r3, r3
 395 00c8 1370     		strb	r3, [r2]
 262:Generated_Source\PSoC5/cyfitter_cfg.c **** }
 396              		.loc 1 262 0
 397 00ca 00BF     		nop
 398 00cc 0837     		adds	r7, r7, #8
 399              		.cfi_def_cfa_offset 8
 400 00ce BD46     		mov	sp, r7
 401              		.cfi_def_cfa_register 13
 402              		@ sp needed
 403 00d0 80BD     		pop	{r7, pc}
 404              	.L17:
 405 00d2 00BF     		.align	2
 406              	.L16:
 407 00d4 80400040 		.word	1073758336
 408 00d8 82400040 		.word	1073758338
 409 00dc 00000000 		.word	BS_CYDEV_CLKDIST_ACFG0_CFG0_VAL.5013
 410 00e0 00410040 		.word	1073758464
 411 00e4 00430040 		.word	1073758976
 412 00e8 00420040 		.word	1073758720
 413 00ec A1460040 		.word	1073759905
 414 00f0 0F010049 		.word	1224737039
 415 00f4 22420040 		.word	1073758754
 416 00f8 20420040 		.word	1073758752
ARM GAS  C:\Users\HPz420\AppData\Local\Temp\ccAlG7g9.s 			page 13


 417 00fc 25420040 		.word	1073758757
 418 0100 04400040 		.word	1073758212
 419 0104 06400040 		.word	1073758214
 420 0108 08400040 		.word	1073758216
 421 010c 09400040 		.word	1073758217
 422 0110 01400040 		.word	1073758209
 423 0114 A2430040 		.word	1073759138
 424              		.cfi_endproc
 425              	.LFE5:
 426              		.size	ClockSetup, .-ClockSetup
 427              		.section	.text.AnalogSetDefault,"ax",%progbits
 428              		.align	2
 429              		.thumb
 430              		.thumb_func
 431              		.type	AnalogSetDefault, %function
 432              	AnalogSetDefault:
 433              	.LFB6:
 263:Generated_Source\PSoC5/cyfitter_cfg.c **** 
 264:Generated_Source\PSoC5/cyfitter_cfg.c **** 
 265:Generated_Source\PSoC5/cyfitter_cfg.c **** /* Analog API Functions */
 266:Generated_Source\PSoC5/cyfitter_cfg.c **** 
 267:Generated_Source\PSoC5/cyfitter_cfg.c **** 
 268:Generated_Source\PSoC5/cyfitter_cfg.c **** /*******************************************************************************
 269:Generated_Source\PSoC5/cyfitter_cfg.c **** * Function Name: AnalogSetDefault
 270:Generated_Source\PSoC5/cyfitter_cfg.c **** ********************************************************************************
 271:Generated_Source\PSoC5/cyfitter_cfg.c **** *
 272:Generated_Source\PSoC5/cyfitter_cfg.c **** * Summary:
 273:Generated_Source\PSoC5/cyfitter_cfg.c **** *  Sets up the analog portions of the chip to default values based on chip
 274:Generated_Source\PSoC5/cyfitter_cfg.c **** *  configuration options from the project.
 275:Generated_Source\PSoC5/cyfitter_cfg.c **** *
 276:Generated_Source\PSoC5/cyfitter_cfg.c **** * Parameters:
 277:Generated_Source\PSoC5/cyfitter_cfg.c **** *  void
 278:Generated_Source\PSoC5/cyfitter_cfg.c **** *
 279:Generated_Source\PSoC5/cyfitter_cfg.c **** * Return:
 280:Generated_Source\PSoC5/cyfitter_cfg.c **** *  void
 281:Generated_Source\PSoC5/cyfitter_cfg.c **** *
 282:Generated_Source\PSoC5/cyfitter_cfg.c **** *******************************************************************************/
 283:Generated_Source\PSoC5/cyfitter_cfg.c **** static void AnalogSetDefault(void);
 284:Generated_Source\PSoC5/cyfitter_cfg.c **** static void AnalogSetDefault(void)
 285:Generated_Source\PSoC5/cyfitter_cfg.c **** {
 434              		.loc 1 285 0
 435              		.cfi_startproc
 436              		@ args = 0, pretend = 0, frame = 8
 437              		@ frame_needed = 1, uses_anonymous_args = 0
 438              		@ link register save eliminated.
 439 0000 80B4     		push	{r7}
 440              		.cfi_def_cfa_offset 4
 441              		.cfi_offset 7, -4
 442 0002 83B0     		sub	sp, sp, #12
 443              		.cfi_def_cfa_offset 16
 444 0004 00AF     		add	r7, sp, #0
 445              		.cfi_def_cfa_register 7
 286:Generated_Source\PSoC5/cyfitter_cfg.c **** 	uint8 bg_xover_inl_trim = CY_GET_XTND_REG8((void CYFAR *)(CYREG_FLSHID_MFG_CFG_BG_XOVER_INL_TRIM +
 446              		.loc 1 286 0
 447 0006 0B4B     		ldr	r3, .L19
 448 0008 1B78     		ldrb	r3, [r3]
 449 000a FB71     		strb	r3, [r7, #7]
ARM GAS  C:\Users\HPz420\AppData\Local\Temp\ccAlG7g9.s 			page 14


 287:Generated_Source\PSoC5/cyfitter_cfg.c **** 	CY_SET_XTND_REG8((void CYFAR *)(CYREG_BG_DFT0), (bg_xover_inl_trim & 0x07u));
 450              		.loc 1 287 0
 451 000c 0A4A     		ldr	r2, .L19+4
 452 000e FB79     		ldrb	r3, [r7, #7]
 453 0010 03F00703 		and	r3, r3, #7
 454 0014 DBB2     		uxtb	r3, r3
 455 0016 1370     		strb	r3, [r2]
 288:Generated_Source\PSoC5/cyfitter_cfg.c **** 	CY_SET_XTND_REG8((void CYFAR *)(CYREG_BG_DFT1), ((bg_xover_inl_trim >> 4) & 0x0Fu));
 456              		.loc 1 288 0
 457 0018 084A     		ldr	r2, .L19+8
 458 001a FB79     		ldrb	r3, [r7, #7]	@ zero_extendqisi2
 459 001c 1B09     		lsrs	r3, r3, #4
 460 001e DBB2     		uxtb	r3, r3
 461 0020 1370     		strb	r3, [r2]
 289:Generated_Source\PSoC5/cyfitter_cfg.c **** 	CY_SET_XTND_REG8((void CYFAR *)CYREG_PUMP_CR0, 0x44u);
 462              		.loc 1 289 0
 463 0022 074B     		ldr	r3, .L19+12
 464 0024 4422     		movs	r2, #68
 465 0026 1A70     		strb	r2, [r3]
 290:Generated_Source\PSoC5/cyfitter_cfg.c **** }
 466              		.loc 1 290 0
 467 0028 00BF     		nop
 468 002a 0C37     		adds	r7, r7, #12
 469              		.cfi_def_cfa_offset 4
 470 002c BD46     		mov	sp, r7
 471              		.cfi_def_cfa_register 13
 472              		@ sp needed
 473 002e 80BC     		pop	{r7}
 474              		.cfi_restore 7
 475              		.cfi_def_cfa_offset 0
 476 0030 7047     		bx	lr
 477              	.L20:
 478 0032 00BF     		.align	2
 479              	.L19:
 480 0034 CF010049 		.word	1224737231
 481 0038 6E580040 		.word	1073764462
 482 003c 6F580040 		.word	1073764463
 483 0040 76580040 		.word	1073764470
 484              		.cfi_endproc
 485              	.LFE6:
 486              		.size	AnalogSetDefault, .-AnalogSetDefault
 487              		.section	.text.SetAnalogRoutingPumps,"ax",%progbits
 488              		.align	2
 489              		.global	SetAnalogRoutingPumps
 490              		.thumb
 491              		.thumb_func
 492              		.type	SetAnalogRoutingPumps, %function
 493              	SetAnalogRoutingPumps:
 494              	.LFB7:
 291:Generated_Source\PSoC5/cyfitter_cfg.c **** 
 292:Generated_Source\PSoC5/cyfitter_cfg.c **** 
 293:Generated_Source\PSoC5/cyfitter_cfg.c **** /*******************************************************************************
 294:Generated_Source\PSoC5/cyfitter_cfg.c **** * Function Name: SetAnalogRoutingPumps
 295:Generated_Source\PSoC5/cyfitter_cfg.c **** ********************************************************************************
 296:Generated_Source\PSoC5/cyfitter_cfg.c **** *
 297:Generated_Source\PSoC5/cyfitter_cfg.c **** * Summary:
 298:Generated_Source\PSoC5/cyfitter_cfg.c **** * Enables or disables the analog pumps feeding analog routing switches.
ARM GAS  C:\Users\HPz420\AppData\Local\Temp\ccAlG7g9.s 			page 15


 299:Generated_Source\PSoC5/cyfitter_cfg.c **** * Intended to be called at startup, based on the Vdda system configuration;
 300:Generated_Source\PSoC5/cyfitter_cfg.c **** * may be called during operation when the user informs us that the Vdda voltage
 301:Generated_Source\PSoC5/cyfitter_cfg.c **** * crossed the pump threshold.
 302:Generated_Source\PSoC5/cyfitter_cfg.c **** *
 303:Generated_Source\PSoC5/cyfitter_cfg.c **** * Parameters:
 304:Generated_Source\PSoC5/cyfitter_cfg.c **** *  enabled - 1 to enable the pumps, 0 to disable the pumps
 305:Generated_Source\PSoC5/cyfitter_cfg.c **** *
 306:Generated_Source\PSoC5/cyfitter_cfg.c **** * Return:
 307:Generated_Source\PSoC5/cyfitter_cfg.c **** *  void
 308:Generated_Source\PSoC5/cyfitter_cfg.c **** *
 309:Generated_Source\PSoC5/cyfitter_cfg.c **** *******************************************************************************/
 310:Generated_Source\PSoC5/cyfitter_cfg.c **** void SetAnalogRoutingPumps(uint8 enabled)
 311:Generated_Source\PSoC5/cyfitter_cfg.c **** {
 495              		.loc 1 311 0
 496              		.cfi_startproc
 497              		@ args = 0, pretend = 0, frame = 16
 498              		@ frame_needed = 1, uses_anonymous_args = 0
 499              		@ link register save eliminated.
 500 0000 80B4     		push	{r7}
 501              		.cfi_def_cfa_offset 4
 502              		.cfi_offset 7, -4
 503 0002 85B0     		sub	sp, sp, #20
 504              		.cfi_def_cfa_offset 24
 505 0004 00AF     		add	r7, sp, #0
 506              		.cfi_def_cfa_register 7
 507 0006 0346     		mov	r3, r0
 508 0008 FB71     		strb	r3, [r7, #7]
 312:Generated_Source\PSoC5/cyfitter_cfg.c **** 	uint8 regValue = CY_GET_XTND_REG8((void CYFAR *)CYREG_PUMP_CR0);
 509              		.loc 1 312 0
 510 000a 064B     		ldr	r3, .L24
 511 000c 1B78     		ldrb	r3, [r3]
 512 000e FB73     		strb	r3, [r7, #15]
 313:Generated_Source\PSoC5/cyfitter_cfg.c **** 	if (enabled != 0u)
 513              		.loc 1 313 0
 514 0010 FB79     		ldrb	r3, [r7, #7]	@ zero_extendqisi2
 515 0012 002B     		cmp	r3, #0
 314:Generated_Source\PSoC5/cyfitter_cfg.c **** 	{
 315:Generated_Source\PSoC5/cyfitter_cfg.c **** 		regValue |= 0x00u;
 316:Generated_Source\PSoC5/cyfitter_cfg.c **** 	}
 317:Generated_Source\PSoC5/cyfitter_cfg.c **** 	else
 318:Generated_Source\PSoC5/cyfitter_cfg.c **** 	{
 319:Generated_Source\PSoC5/cyfitter_cfg.c **** 		regValue &= (uint8)~0x00u;
 320:Generated_Source\PSoC5/cyfitter_cfg.c **** 	}
 321:Generated_Source\PSoC5/cyfitter_cfg.c **** 	CY_SET_XTND_REG8((void CYFAR *)CYREG_PUMP_CR0, regValue);
 516              		.loc 1 321 0
 517 0014 034A     		ldr	r2, .L24
 518 0016 FB7B     		ldrb	r3, [r7, #15]
 519 0018 1370     		strb	r3, [r2]
 322:Generated_Source\PSoC5/cyfitter_cfg.c **** }
 520              		.loc 1 322 0
 521 001a 00BF     		nop
 522 001c 1437     		adds	r7, r7, #20
 523              		.cfi_def_cfa_offset 4
 524 001e BD46     		mov	sp, r7
 525              		.cfi_def_cfa_register 13
 526              		@ sp needed
 527 0020 80BC     		pop	{r7}
ARM GAS  C:\Users\HPz420\AppData\Local\Temp\ccAlG7g9.s 			page 16


 528              		.cfi_restore 7
 529              		.cfi_def_cfa_offset 0
 530 0022 7047     		bx	lr
 531              	.L25:
 532              		.align	2
 533              	.L24:
 534 0024 76580040 		.word	1073764470
 535              		.cfi_endproc
 536              	.LFE7:
 537              		.size	SetAnalogRoutingPumps, .-SetAnalogRoutingPumps
 538              		.section	.text.cyfitter_cfg,"ax",%progbits
 539              		.align	2
 540              		.global	cyfitter_cfg
 541              		.thumb
 542              		.thumb_func
 543              		.type	cyfitter_cfg, %function
 544              	cyfitter_cfg:
 545              	.LFB8:
 323:Generated_Source\PSoC5/cyfitter_cfg.c **** 
 324:Generated_Source\PSoC5/cyfitter_cfg.c **** 
 325:Generated_Source\PSoC5/cyfitter_cfg.c **** 
 326:Generated_Source\PSoC5/cyfitter_cfg.c **** 
 327:Generated_Source\PSoC5/cyfitter_cfg.c **** /*******************************************************************************
 328:Generated_Source\PSoC5/cyfitter_cfg.c **** * Function Name: cyfitter_cfg
 329:Generated_Source\PSoC5/cyfitter_cfg.c **** ********************************************************************************
 330:Generated_Source\PSoC5/cyfitter_cfg.c **** * Summary:
 331:Generated_Source\PSoC5/cyfitter_cfg.c **** *  This function is called by the start-up code for the selected device. It
 332:Generated_Source\PSoC5/cyfitter_cfg.c **** *  performs all of the necessary device configuration based on the design
 333:Generated_Source\PSoC5/cyfitter_cfg.c **** *  settings.  This includes settings from the Design Wide Resources (DWR) such
 334:Generated_Source\PSoC5/cyfitter_cfg.c **** *  as Clocks and Pins as well as any component configuration that is necessary.
 335:Generated_Source\PSoC5/cyfitter_cfg.c **** *
 336:Generated_Source\PSoC5/cyfitter_cfg.c **** * Parameters:
 337:Generated_Source\PSoC5/cyfitter_cfg.c **** *   void
 338:Generated_Source\PSoC5/cyfitter_cfg.c **** *
 339:Generated_Source\PSoC5/cyfitter_cfg.c **** * Return:
 340:Generated_Source\PSoC5/cyfitter_cfg.c **** *   void
 341:Generated_Source\PSoC5/cyfitter_cfg.c **** *
 342:Generated_Source\PSoC5/cyfitter_cfg.c **** *******************************************************************************/
 343:Generated_Source\PSoC5/cyfitter_cfg.c **** 
 344:Generated_Source\PSoC5/cyfitter_cfg.c **** void cyfitter_cfg(void)
 345:Generated_Source\PSoC5/cyfitter_cfg.c **** {
 546              		.loc 1 345 0
 547              		.cfi_startproc
 548              		@ args = 0, pretend = 0, frame = 24
 549              		@ frame_needed = 1, uses_anonymous_args = 0
 550 0000 80B5     		push	{r7, lr}
 551              		.cfi_def_cfa_offset 8
 552              		.cfi_offset 7, -8
 553              		.cfi_offset 14, -4
 554 0002 86B0     		sub	sp, sp, #24
 555              		.cfi_def_cfa_offset 32
 556 0004 00AF     		add	r7, sp, #0
 557              		.cfi_def_cfa_register 7
 346:Generated_Source\PSoC5/cyfitter_cfg.c **** 	/* IOPINS0_0 Address: CYREG_PRT0_DM0 Size (bytes): 8 */
 347:Generated_Source\PSoC5/cyfitter_cfg.c **** 	static const uint8 CYCODE BS_IOPINS0_0_VAL[] = {
 348:Generated_Source\PSoC5/cyfitter_cfg.c **** 		0x00u, 0xFFu, 0xFFu, 0x00u, 0xFFu, 0xFFu, 0x00u, 0x00u};
 349:Generated_Source\PSoC5/cyfitter_cfg.c **** 
ARM GAS  C:\Users\HPz420\AppData\Local\Temp\ccAlG7g9.s 			page 17


 350:Generated_Source\PSoC5/cyfitter_cfg.c **** 	/* IOPINS0_7 Address: CYREG_PRT12_DR Size (bytes): 10 */
 351:Generated_Source\PSoC5/cyfitter_cfg.c **** 	static const uint8 CYCODE BS_IOPINS0_7_VAL[] = {
 352:Generated_Source\PSoC5/cyfitter_cfg.c **** 		0x30u, 0x00u, 0x00u, 0xCFu, 0xFFu, 0x00u, 0xFFu, 0xCFu, 0x00u, 0x00u};
 353:Generated_Source\PSoC5/cyfitter_cfg.c **** 
 354:Generated_Source\PSoC5/cyfitter_cfg.c **** 	/* IOPINS0_8 Address: CYREG_PRT15_DR Size (bytes): 10 */
 355:Generated_Source\PSoC5/cyfitter_cfg.c **** 	static const uint8 CYCODE BS_IOPINS0_8_VAL[] = {
 356:Generated_Source\PSoC5/cyfitter_cfg.c **** 		0x40u, 0x00u, 0x00u, 0x0Fu, 0x0Fu, 0x00u, 0x0Fu, 0x0Fu, 0xC0u, 0x00u};
 357:Generated_Source\PSoC5/cyfitter_cfg.c **** 
 358:Generated_Source\PSoC5/cyfitter_cfg.c **** 	/* IOPINS0_1 Address: CYREG_PRT1_DM0 Size (bytes): 8 */
 359:Generated_Source\PSoC5/cyfitter_cfg.c **** 	static const uint8 CYCODE BS_IOPINS0_1_VAL[] = {
 360:Generated_Source\PSoC5/cyfitter_cfg.c **** 		0x00u, 0xEFu, 0xEFu, 0x00u, 0xECu, 0xECu, 0x00u, 0x00u};
 361:Generated_Source\PSoC5/cyfitter_cfg.c **** 
 362:Generated_Source\PSoC5/cyfitter_cfg.c **** 	/* IOPINS0_2 Address: CYREG_PRT2_DM0 Size (bytes): 8 */
 363:Generated_Source\PSoC5/cyfitter_cfg.c **** 	static const uint8 CYCODE BS_IOPINS0_2_VAL[] = {
 364:Generated_Source\PSoC5/cyfitter_cfg.c **** 		0x00u, 0xFFu, 0xFFu, 0x00u, 0xFFu, 0xFFu, 0x00u, 0x00u};
 365:Generated_Source\PSoC5/cyfitter_cfg.c **** 
 366:Generated_Source\PSoC5/cyfitter_cfg.c **** 	/* IOPINS0_3 Address: CYREG_PRT3_DM0 Size (bytes): 8 */
 367:Generated_Source\PSoC5/cyfitter_cfg.c **** 	static const uint8 CYCODE BS_IOPINS0_3_VAL[] = {
 368:Generated_Source\PSoC5/cyfitter_cfg.c **** 		0x00u, 0xFFu, 0xFFu, 0x00u, 0xFFu, 0xFFu, 0x00u, 0x00u};
 369:Generated_Source\PSoC5/cyfitter_cfg.c **** 
 370:Generated_Source\PSoC5/cyfitter_cfg.c **** 	/* IOPINS0_4 Address: CYREG_PRT4_DM0 Size (bytes): 8 */
 371:Generated_Source\PSoC5/cyfitter_cfg.c **** 	static const uint8 CYCODE BS_IOPINS0_4_VAL[] = {
 372:Generated_Source\PSoC5/cyfitter_cfg.c **** 		0x00u, 0x3Du, 0x3Du, 0x00u, 0x3Du, 0x3Du, 0x00u, 0x00u};
 373:Generated_Source\PSoC5/cyfitter_cfg.c **** 
 374:Generated_Source\PSoC5/cyfitter_cfg.c **** 	/* IOPINS0_5 Address: CYREG_PRT5_DM0 Size (bytes): 8 */
 375:Generated_Source\PSoC5/cyfitter_cfg.c **** 	static const uint8 CYCODE BS_IOPINS0_5_VAL[] = {
 376:Generated_Source\PSoC5/cyfitter_cfg.c **** 		0x00u, 0xF1u, 0xF1u, 0x00u, 0xF1u, 0xF1u, 0x00u, 0x00u};
 377:Generated_Source\PSoC5/cyfitter_cfg.c **** 
 378:Generated_Source\PSoC5/cyfitter_cfg.c **** 	/* IOPINS0_6 Address: CYREG_PRT6_DM0 Size (bytes): 8 */
 379:Generated_Source\PSoC5/cyfitter_cfg.c **** 	static const uint8 CYCODE BS_IOPINS0_6_VAL[] = {
 380:Generated_Source\PSoC5/cyfitter_cfg.c **** 		0x00u, 0xF2u, 0xF2u, 0x00u, 0xF2u, 0xF2u, 0x00u, 0x00u};
 381:Generated_Source\PSoC5/cyfitter_cfg.c **** 
 382:Generated_Source\PSoC5/cyfitter_cfg.c **** #ifdef CYGlobalIntDisable
 383:Generated_Source\PSoC5/cyfitter_cfg.c **** 	/* Disable interrupts by default. Let user enable if/when they want. */
 384:Generated_Source\PSoC5/cyfitter_cfg.c **** 	CYGlobalIntDisable
 558              		.loc 1 384 0
 559              		.syntax unified
 560              	@ 384 "Generated_Source\PSoC5\cyfitter_cfg.c" 1
 561 0006 72B6     		CPSID   i
 562              	@ 0 "" 2
 385:Generated_Source\PSoC5/cyfitter_cfg.c **** #endif
 386:Generated_Source\PSoC5/cyfitter_cfg.c **** 
 387:Generated_Source\PSoC5/cyfitter_cfg.c **** 
 388:Generated_Source\PSoC5/cyfitter_cfg.c **** 	/* Set Flash Cycles based on max possible frequency in case a glitch occurs during ClockSetup(). *
 389:Generated_Source\PSoC5/cyfitter_cfg.c **** 	CY_SET_XTND_REG8((void CYFAR *)(CYREG_CACHE_CC_CTL), (((CYDEV_INSTRUCT_CACHE_ENABLED) != 0) ? 0x61
 563              		.loc 1 389 0
 564              		.thumb
 565              		.syntax unified
 566 0008 544B     		ldr	r3, .L31
 567 000a 6022     		movs	r2, #96
 568 000c 1A70     		strb	r2, [r3]
 390:Generated_Source\PSoC5/cyfitter_cfg.c **** 	/* Setup clocks based on selections from Clock DWR */
 391:Generated_Source\PSoC5/cyfitter_cfg.c **** 	ClockSetup();
 569              		.loc 1 391 0
 570 000e FFF7FEFF 		bl	ClockSetup
 392:Generated_Source\PSoC5/cyfitter_cfg.c **** 	/* Set Flash Cycles based on newly configured 64.00MHz Bus Clock. */
 393:Generated_Source\PSoC5/cyfitter_cfg.c **** 	CY_SET_XTND_REG8((void CYFAR *)(CYREG_CACHE_CC_CTL), (((CYDEV_INSTRUCT_CACHE_ENABLED) != 0) ? 0x01
ARM GAS  C:\Users\HPz420\AppData\Local\Temp\ccAlG7g9.s 			page 18


 571              		.loc 1 393 0
 572 0012 524B     		ldr	r3, .L31
 573 0014 0022     		movs	r2, #0
 574 0016 1A70     		strb	r2, [r3]
 575              	.LBB3:
 394:Generated_Source\PSoC5/cyfitter_cfg.c **** 	{
 395:Generated_Source\PSoC5/cyfitter_cfg.c **** 		static const uint32 CYCODE cy_cfg_addr_table[] = {
 396:Generated_Source\PSoC5/cyfitter_cfg.c **** 			0x40004501u, /* Base address: 0x40004500 Count: 1 */
 397:Generated_Source\PSoC5/cyfitter_cfg.c **** 			0x40005211u, /* Base address: 0x40005200 Count: 17 */
 398:Generated_Source\PSoC5/cyfitter_cfg.c **** 			0x40010105u, /* Base address: 0x40010100 Count: 5 */
 399:Generated_Source\PSoC5/cyfitter_cfg.c **** 			0x40010204u, /* Base address: 0x40010200 Count: 4 */
 400:Generated_Source\PSoC5/cyfitter_cfg.c **** 			0x4001032Bu, /* Base address: 0x40010300 Count: 43 */
 401:Generated_Source\PSoC5/cyfitter_cfg.c **** 			0x4001050Eu, /* Base address: 0x40010500 Count: 14 */
 402:Generated_Source\PSoC5/cyfitter_cfg.c **** 			0x40010707u, /* Base address: 0x40010700 Count: 7 */
 403:Generated_Source\PSoC5/cyfitter_cfg.c **** 			0x40010804u, /* Base address: 0x40010800 Count: 4 */
 404:Generated_Source\PSoC5/cyfitter_cfg.c **** 			0x40010920u, /* Base address: 0x40010900 Count: 32 */
 405:Generated_Source\PSoC5/cyfitter_cfg.c **** 			0x40010B11u, /* Base address: 0x40010B00 Count: 17 */
 406:Generated_Source\PSoC5/cyfitter_cfg.c **** 			0x40010D0Eu, /* Base address: 0x40010D00 Count: 14 */
 407:Generated_Source\PSoC5/cyfitter_cfg.c **** 			0x40010E06u, /* Base address: 0x40010E00 Count: 6 */
 408:Generated_Source\PSoC5/cyfitter_cfg.c **** 			0x40010F14u, /* Base address: 0x40010F00 Count: 20 */
 409:Generated_Source\PSoC5/cyfitter_cfg.c **** 			0x40011404u, /* Base address: 0x40011400 Count: 4 */
 410:Generated_Source\PSoC5/cyfitter_cfg.c **** 			0x4001152Eu, /* Base address: 0x40011500 Count: 46 */
 411:Generated_Source\PSoC5/cyfitter_cfg.c **** 			0x40011604u, /* Base address: 0x40011600 Count: 4 */
 412:Generated_Source\PSoC5/cyfitter_cfg.c **** 			0x4001171Du, /* Base address: 0x40011700 Count: 29 */
 413:Generated_Source\PSoC5/cyfitter_cfg.c **** 			0x40011804u, /* Base address: 0x40011800 Count: 4 */
 414:Generated_Source\PSoC5/cyfitter_cfg.c **** 			0x40011922u, /* Base address: 0x40011900 Count: 34 */
 415:Generated_Source\PSoC5/cyfitter_cfg.c **** 			0x40011B18u, /* Base address: 0x40011B00 Count: 24 */
 416:Generated_Source\PSoC5/cyfitter_cfg.c **** 			0x4001401Au, /* Base address: 0x40014000 Count: 26 */
 417:Generated_Source\PSoC5/cyfitter_cfg.c **** 			0x40014127u, /* Base address: 0x40014100 Count: 39 */
 418:Generated_Source\PSoC5/cyfitter_cfg.c **** 			0x4001421Bu, /* Base address: 0x40014200 Count: 27 */
 419:Generated_Source\PSoC5/cyfitter_cfg.c **** 			0x4001430Cu, /* Base address: 0x40014300 Count: 12 */
 420:Generated_Source\PSoC5/cyfitter_cfg.c **** 			0x4001441Eu, /* Base address: 0x40014400 Count: 30 */
 421:Generated_Source\PSoC5/cyfitter_cfg.c **** 			0x40014529u, /* Base address: 0x40014500 Count: 41 */
 422:Generated_Source\PSoC5/cyfitter_cfg.c **** 			0x40014618u, /* Base address: 0x40014600 Count: 24 */
 423:Generated_Source\PSoC5/cyfitter_cfg.c **** 			0x40014714u, /* Base address: 0x40014700 Count: 20 */
 424:Generated_Source\PSoC5/cyfitter_cfg.c **** 			0x40014819u, /* Base address: 0x40014800 Count: 25 */
 425:Generated_Source\PSoC5/cyfitter_cfg.c **** 			0x40014939u, /* Base address: 0x40014900 Count: 57 */
 426:Generated_Source\PSoC5/cyfitter_cfg.c **** 			0x40014C2Au, /* Base address: 0x40014C00 Count: 42 */
 427:Generated_Source\PSoC5/cyfitter_cfg.c **** 			0x40014D2Cu, /* Base address: 0x40014D00 Count: 44 */
 428:Generated_Source\PSoC5/cyfitter_cfg.c **** 			0x40015002u, /* Base address: 0x40015000 Count: 2 */
 429:Generated_Source\PSoC5/cyfitter_cfg.c **** 			0x40015102u, /* Base address: 0x40015100 Count: 2 */
 430:Generated_Source\PSoC5/cyfitter_cfg.c **** 		};
 431:Generated_Source\PSoC5/cyfitter_cfg.c **** 
 432:Generated_Source\PSoC5/cyfitter_cfg.c **** 		static const cy_cfg_addrvalue_t CYCODE cy_cfg_data_table[] = {
 433:Generated_Source\PSoC5/cyfitter_cfg.c **** 			{0x7Eu, 0x02u},
 434:Generated_Source\PSoC5/cyfitter_cfg.c **** 			{0x00u, 0x55u},
 435:Generated_Source\PSoC5/cyfitter_cfg.c **** 			{0x01u, 0x9Cu},
 436:Generated_Source\PSoC5/cyfitter_cfg.c **** 			{0x02u, 0xFFu},
 437:Generated_Source\PSoC5/cyfitter_cfg.c **** 			{0x08u, 0x64u},
 438:Generated_Source\PSoC5/cyfitter_cfg.c **** 			{0x09u, 0x48u},
 439:Generated_Source\PSoC5/cyfitter_cfg.c **** 			{0x0Au, 0xECu},
 440:Generated_Source\PSoC5/cyfitter_cfg.c **** 			{0x10u, 0x3Au},
 441:Generated_Source\PSoC5/cyfitter_cfg.c **** 			{0x11u, 0x6Cu},
 442:Generated_Source\PSoC5/cyfitter_cfg.c **** 			{0x13u, 0xFFu},
 443:Generated_Source\PSoC5/cyfitter_cfg.c **** 			{0x18u, 0x35u},
 444:Generated_Source\PSoC5/cyfitter_cfg.c **** 			{0x19u, 0xACu},
 445:Generated_Source\PSoC5/cyfitter_cfg.c **** 			{0x1Bu, 0xFFu},
ARM GAS  C:\Users\HPz420\AppData\Local\Temp\ccAlG7g9.s 			page 19


 446:Generated_Source\PSoC5/cyfitter_cfg.c **** 			{0x28u, 0xA1u},
 447:Generated_Source\PSoC5/cyfitter_cfg.c **** 			{0x29u, 0x90u},
 448:Generated_Source\PSoC5/cyfitter_cfg.c **** 			{0x2Au, 0xF1u},
 449:Generated_Source\PSoC5/cyfitter_cfg.c **** 			{0x60u, 0x6Cu},
 450:Generated_Source\PSoC5/cyfitter_cfg.c **** 			{0x61u, 0x36u},
 451:Generated_Source\PSoC5/cyfitter_cfg.c **** 			{0x80u, 0x08u},
 452:Generated_Source\PSoC5/cyfitter_cfg.c **** 			{0x82u, 0x20u},
 453:Generated_Source\PSoC5/cyfitter_cfg.c **** 			{0x85u, 0x82u},
 454:Generated_Source\PSoC5/cyfitter_cfg.c **** 			{0x88u, 0x40u},
 455:Generated_Source\PSoC5/cyfitter_cfg.c **** 			{0xE6u, 0x20u},
 456:Generated_Source\PSoC5/cyfitter_cfg.c **** 			{0x5Bu, 0x04u},
 457:Generated_Source\PSoC5/cyfitter_cfg.c **** 			{0x5Fu, 0x01u},
 458:Generated_Source\PSoC5/cyfitter_cfg.c **** 			{0xDBu, 0x04u},
 459:Generated_Source\PSoC5/cyfitter_cfg.c **** 			{0xDFu, 0x01u},
 460:Generated_Source\PSoC5/cyfitter_cfg.c **** 			{0x58u, 0x08u},
 461:Generated_Source\PSoC5/cyfitter_cfg.c **** 			{0x59u, 0x52u},
 462:Generated_Source\PSoC5/cyfitter_cfg.c **** 			{0x5Cu, 0x04u},
 463:Generated_Source\PSoC5/cyfitter_cfg.c **** 			{0x5Eu, 0x12u},
 464:Generated_Source\PSoC5/cyfitter_cfg.c **** 			{0x5Fu, 0x40u},
 465:Generated_Source\PSoC5/cyfitter_cfg.c **** 			{0x60u, 0x02u},
 466:Generated_Source\PSoC5/cyfitter_cfg.c **** 			{0x62u, 0x20u},
 467:Generated_Source\PSoC5/cyfitter_cfg.c **** 			{0x66u, 0x22u},
 468:Generated_Source\PSoC5/cyfitter_cfg.c **** 			{0x67u, 0x22u},
 469:Generated_Source\PSoC5/cyfitter_cfg.c **** 			{0x68u, 0x40u},
 470:Generated_Source\PSoC5/cyfitter_cfg.c **** 			{0x69u, 0x88u},
 471:Generated_Source\PSoC5/cyfitter_cfg.c **** 			{0x6Bu, 0x04u},
 472:Generated_Source\PSoC5/cyfitter_cfg.c **** 			{0x6Cu, 0x01u},
 473:Generated_Source\PSoC5/cyfitter_cfg.c **** 			{0x6Eu, 0x20u},
 474:Generated_Source\PSoC5/cyfitter_cfg.c **** 			{0x6Fu, 0xA0u},
 475:Generated_Source\PSoC5/cyfitter_cfg.c **** 			{0x71u, 0xA0u},
 476:Generated_Source\PSoC5/cyfitter_cfg.c **** 			{0x74u, 0x08u},
 477:Generated_Source\PSoC5/cyfitter_cfg.c **** 			{0x75u, 0x20u},
 478:Generated_Source\PSoC5/cyfitter_cfg.c **** 			{0x76u, 0x81u},
 479:Generated_Source\PSoC5/cyfitter_cfg.c **** 			{0x81u, 0x20u},
 480:Generated_Source\PSoC5/cyfitter_cfg.c **** 			{0x83u, 0x80u},
 481:Generated_Source\PSoC5/cyfitter_cfg.c **** 			{0x86u, 0x02u},
 482:Generated_Source\PSoC5/cyfitter_cfg.c **** 			{0x89u, 0x20u},
 483:Generated_Source\PSoC5/cyfitter_cfg.c **** 			{0x8Cu, 0x04u},
 484:Generated_Source\PSoC5/cyfitter_cfg.c **** 			{0x8Du, 0x40u},
 485:Generated_Source\PSoC5/cyfitter_cfg.c **** 			{0x8Fu, 0x20u},
 486:Generated_Source\PSoC5/cyfitter_cfg.c **** 			{0x95u, 0x08u},
 487:Generated_Source\PSoC5/cyfitter_cfg.c **** 			{0x98u, 0x0Au},
 488:Generated_Source\PSoC5/cyfitter_cfg.c **** 			{0x99u, 0x52u},
 489:Generated_Source\PSoC5/cyfitter_cfg.c **** 			{0x9Fu, 0x04u},
 490:Generated_Source\PSoC5/cyfitter_cfg.c **** 			{0xA2u, 0x20u},
 491:Generated_Source\PSoC5/cyfitter_cfg.c **** 			{0xA4u, 0x40u},
 492:Generated_Source\PSoC5/cyfitter_cfg.c **** 			{0xA5u, 0x80u},
 493:Generated_Source\PSoC5/cyfitter_cfg.c **** 			{0xADu, 0x44u},
 494:Generated_Source\PSoC5/cyfitter_cfg.c **** 			{0xB0u, 0x02u},
 495:Generated_Source\PSoC5/cyfitter_cfg.c **** 			{0xB5u, 0x10u},
 496:Generated_Source\PSoC5/cyfitter_cfg.c **** 			{0xB7u, 0x04u},
 497:Generated_Source\PSoC5/cyfitter_cfg.c **** 			{0xD6u, 0xFFu},
 498:Generated_Source\PSoC5/cyfitter_cfg.c **** 			{0xD8u, 0xFCu},
 499:Generated_Source\PSoC5/cyfitter_cfg.c **** 			{0xE2u, 0x40u},
 500:Generated_Source\PSoC5/cyfitter_cfg.c **** 			{0xE4u, 0x40u},
 501:Generated_Source\PSoC5/cyfitter_cfg.c **** 			{0xE6u, 0x90u},
 502:Generated_Source\PSoC5/cyfitter_cfg.c **** 			{0xE8u, 0x20u},
ARM GAS  C:\Users\HPz420\AppData\Local\Temp\ccAlG7g9.s 			page 20


 503:Generated_Source\PSoC5/cyfitter_cfg.c **** 			{0x87u, 0x04u},
 504:Generated_Source\PSoC5/cyfitter_cfg.c **** 			{0xAAu, 0x11u},
 505:Generated_Source\PSoC5/cyfitter_cfg.c **** 			{0xABu, 0x01u},
 506:Generated_Source\PSoC5/cyfitter_cfg.c **** 			{0xAFu, 0x40u},
 507:Generated_Source\PSoC5/cyfitter_cfg.c **** 			{0xB2u, 0xB0u},
 508:Generated_Source\PSoC5/cyfitter_cfg.c **** 			{0xB3u, 0x10u},
 509:Generated_Source\PSoC5/cyfitter_cfg.c **** 			{0xB4u, 0x09u},
 510:Generated_Source\PSoC5/cyfitter_cfg.c **** 			{0xB6u, 0x01u},
 511:Generated_Source\PSoC5/cyfitter_cfg.c **** 			{0xE0u, 0x02u},
 512:Generated_Source\PSoC5/cyfitter_cfg.c **** 			{0xE6u, 0x09u},
 513:Generated_Source\PSoC5/cyfitter_cfg.c **** 			{0xE8u, 0x20u},
 514:Generated_Source\PSoC5/cyfitter_cfg.c **** 			{0xEAu, 0xC0u},
 515:Generated_Source\PSoC5/cyfitter_cfg.c **** 			{0xECu, 0x80u},
 516:Generated_Source\PSoC5/cyfitter_cfg.c **** 			{0xEEu, 0x70u},
 517:Generated_Source\PSoC5/cyfitter_cfg.c **** 			{0x88u, 0x01u},
 518:Generated_Source\PSoC5/cyfitter_cfg.c **** 			{0x97u, 0x04u},
 519:Generated_Source\PSoC5/cyfitter_cfg.c **** 			{0x9Fu, 0x10u},
 520:Generated_Source\PSoC5/cyfitter_cfg.c **** 			{0xB7u, 0x10u},
 521:Generated_Source\PSoC5/cyfitter_cfg.c **** 			{0xE2u, 0x01u},
 522:Generated_Source\PSoC5/cyfitter_cfg.c **** 			{0xE4u, 0x20u},
 523:Generated_Source\PSoC5/cyfitter_cfg.c **** 			{0xEEu, 0x40u},
 524:Generated_Source\PSoC5/cyfitter_cfg.c **** 			{0x5Bu, 0x04u},
 525:Generated_Source\PSoC5/cyfitter_cfg.c **** 			{0x5Fu, 0x01u},
 526:Generated_Source\PSoC5/cyfitter_cfg.c **** 			{0xDBu, 0x04u},
 527:Generated_Source\PSoC5/cyfitter_cfg.c **** 			{0xDFu, 0x01u},
 528:Generated_Source\PSoC5/cyfitter_cfg.c **** 			{0x58u, 0x06u},
 529:Generated_Source\PSoC5/cyfitter_cfg.c **** 			{0x59u, 0x80u},
 530:Generated_Source\PSoC5/cyfitter_cfg.c **** 			{0x5Bu, 0x10u},
 531:Generated_Source\PSoC5/cyfitter_cfg.c **** 			{0x5Cu, 0x08u},
 532:Generated_Source\PSoC5/cyfitter_cfg.c **** 			{0x5Du, 0x40u},
 533:Generated_Source\PSoC5/cyfitter_cfg.c **** 			{0x5Eu, 0x11u},
 534:Generated_Source\PSoC5/cyfitter_cfg.c **** 			{0x60u, 0x01u},
 535:Generated_Source\PSoC5/cyfitter_cfg.c **** 			{0x61u, 0x28u},
 536:Generated_Source\PSoC5/cyfitter_cfg.c **** 			{0x63u, 0x80u},
 537:Generated_Source\PSoC5/cyfitter_cfg.c **** 			{0x69u, 0x04u},
 538:Generated_Source\PSoC5/cyfitter_cfg.c **** 			{0x6Au, 0xA0u},
 539:Generated_Source\PSoC5/cyfitter_cfg.c **** 			{0x6Bu, 0x80u},
 540:Generated_Source\PSoC5/cyfitter_cfg.c **** 			{0x71u, 0x04u},
 541:Generated_Source\PSoC5/cyfitter_cfg.c **** 			{0x72u, 0x02u},
 542:Generated_Source\PSoC5/cyfitter_cfg.c **** 			{0x73u, 0x48u},
 543:Generated_Source\PSoC5/cyfitter_cfg.c **** 			{0x81u, 0x24u},
 544:Generated_Source\PSoC5/cyfitter_cfg.c **** 			{0x8Fu, 0x40u},
 545:Generated_Source\PSoC5/cyfitter_cfg.c **** 			{0x90u, 0x01u},
 546:Generated_Source\PSoC5/cyfitter_cfg.c **** 			{0x91u, 0x40u},
 547:Generated_Source\PSoC5/cyfitter_cfg.c **** 			{0x92u, 0x11u},
 548:Generated_Source\PSoC5/cyfitter_cfg.c **** 			{0x95u, 0x04u},
 549:Generated_Source\PSoC5/cyfitter_cfg.c **** 			{0x96u, 0x80u},
 550:Generated_Source\PSoC5/cyfitter_cfg.c **** 			{0x98u, 0x0Eu},
 551:Generated_Source\PSoC5/cyfitter_cfg.c **** 			{0x9Eu, 0x02u},
 552:Generated_Source\PSoC5/cyfitter_cfg.c **** 			{0xA1u, 0x08u},
 553:Generated_Source\PSoC5/cyfitter_cfg.c **** 			{0xADu, 0x04u},
 554:Generated_Source\PSoC5/cyfitter_cfg.c **** 			{0xB5u, 0x40u},
 555:Generated_Source\PSoC5/cyfitter_cfg.c **** 			{0xD6u, 0xFFu},
 556:Generated_Source\PSoC5/cyfitter_cfg.c **** 			{0xD8u, 0x0Fu},
 557:Generated_Source\PSoC5/cyfitter_cfg.c **** 			{0xE2u, 0x05u},
 558:Generated_Source\PSoC5/cyfitter_cfg.c **** 			{0xE4u, 0x01u},
 559:Generated_Source\PSoC5/cyfitter_cfg.c **** 			{0xECu, 0x02u},
ARM GAS  C:\Users\HPz420\AppData\Local\Temp\ccAlG7g9.s 			page 21


 560:Generated_Source\PSoC5/cyfitter_cfg.c **** 			{0x82u, 0x40u},
 561:Generated_Source\PSoC5/cyfitter_cfg.c **** 			{0x86u, 0x02u},
 562:Generated_Source\PSoC5/cyfitter_cfg.c **** 			{0x88u, 0x08u},
 563:Generated_Source\PSoC5/cyfitter_cfg.c **** 			{0x8Eu, 0x10u},
 564:Generated_Source\PSoC5/cyfitter_cfg.c **** 			{0x90u, 0x01u},
 565:Generated_Source\PSoC5/cyfitter_cfg.c **** 			{0x92u, 0x01u},
 566:Generated_Source\PSoC5/cyfitter_cfg.c **** 			{0x98u, 0x06u},
 567:Generated_Source\PSoC5/cyfitter_cfg.c **** 			{0xA1u, 0x08u},
 568:Generated_Source\PSoC5/cyfitter_cfg.c **** 			{0xACu, 0x04u},
 569:Generated_Source\PSoC5/cyfitter_cfg.c **** 			{0xAEu, 0x04u},
 570:Generated_Source\PSoC5/cyfitter_cfg.c **** 			{0xB0u, 0x06u},
 571:Generated_Source\PSoC5/cyfitter_cfg.c **** 			{0xB1u, 0x08u},
 572:Generated_Source\PSoC5/cyfitter_cfg.c **** 			{0xB4u, 0x01u},
 573:Generated_Source\PSoC5/cyfitter_cfg.c **** 			{0xE0u, 0x02u},
 574:Generated_Source\PSoC5/cyfitter_cfg.c **** 			{0xE4u, 0x08u},
 575:Generated_Source\PSoC5/cyfitter_cfg.c **** 			{0xE8u, 0x02u},
 576:Generated_Source\PSoC5/cyfitter_cfg.c **** 			{0xECu, 0x02u},
 577:Generated_Source\PSoC5/cyfitter_cfg.c **** 			{0x8Fu, 0x20u},
 578:Generated_Source\PSoC5/cyfitter_cfg.c **** 			{0x92u, 0x05u},
 579:Generated_Source\PSoC5/cyfitter_cfg.c **** 			{0x9Bu, 0x20u},
 580:Generated_Source\PSoC5/cyfitter_cfg.c **** 			{0xA0u, 0x04u},
 581:Generated_Source\PSoC5/cyfitter_cfg.c **** 			{0xA9u, 0x01u},
 582:Generated_Source\PSoC5/cyfitter_cfg.c **** 			{0xAAu, 0x04u},
 583:Generated_Source\PSoC5/cyfitter_cfg.c **** 			{0xABu, 0x08u},
 584:Generated_Source\PSoC5/cyfitter_cfg.c **** 			{0xACu, 0x10u},
 585:Generated_Source\PSoC5/cyfitter_cfg.c **** 			{0xB2u, 0x01u},
 586:Generated_Source\PSoC5/cyfitter_cfg.c **** 			{0xB3u, 0x01u},
 587:Generated_Source\PSoC5/cyfitter_cfg.c **** 			{0xE8u, 0x04u},
 588:Generated_Source\PSoC5/cyfitter_cfg.c **** 			{0xEAu, 0x40u},
 589:Generated_Source\PSoC5/cyfitter_cfg.c **** 			{0xECu, 0x15u},
 590:Generated_Source\PSoC5/cyfitter_cfg.c **** 			{0xEEu, 0x02u},
 591:Generated_Source\PSoC5/cyfitter_cfg.c **** 			{0x56u, 0x08u},
 592:Generated_Source\PSoC5/cyfitter_cfg.c **** 			{0x5Bu, 0x04u},
 593:Generated_Source\PSoC5/cyfitter_cfg.c **** 			{0x5Du, 0x90u},
 594:Generated_Source\PSoC5/cyfitter_cfg.c **** 			{0x5Fu, 0x01u},
 595:Generated_Source\PSoC5/cyfitter_cfg.c **** 			{0xDBu, 0x04u},
 596:Generated_Source\PSoC5/cyfitter_cfg.c **** 			{0xDFu, 0x01u},
 597:Generated_Source\PSoC5/cyfitter_cfg.c **** 			{0x58u, 0x10u},
 598:Generated_Source\PSoC5/cyfitter_cfg.c **** 			{0x59u, 0x80u},
 599:Generated_Source\PSoC5/cyfitter_cfg.c **** 			{0x68u, 0x05u},
 600:Generated_Source\PSoC5/cyfitter_cfg.c **** 			{0x6Bu, 0xA0u},
 601:Generated_Source\PSoC5/cyfitter_cfg.c **** 			{0x6Du, 0x02u},
 602:Generated_Source\PSoC5/cyfitter_cfg.c **** 			{0x6Eu, 0x08u},
 603:Generated_Source\PSoC5/cyfitter_cfg.c **** 			{0x6Fu, 0x09u},
 604:Generated_Source\PSoC5/cyfitter_cfg.c **** 			{0x70u, 0x08u},
 605:Generated_Source\PSoC5/cyfitter_cfg.c **** 			{0x71u, 0x01u},
 606:Generated_Source\PSoC5/cyfitter_cfg.c **** 			{0x72u, 0x06u},
 607:Generated_Source\PSoC5/cyfitter_cfg.c **** 			{0x80u, 0x08u},
 608:Generated_Source\PSoC5/cyfitter_cfg.c **** 			{0x81u, 0x01u},
 609:Generated_Source\PSoC5/cyfitter_cfg.c **** 			{0x82u, 0x02u},
 610:Generated_Source\PSoC5/cyfitter_cfg.c **** 			{0x84u, 0x01u},
 611:Generated_Source\PSoC5/cyfitter_cfg.c **** 			{0x85u, 0x80u},
 612:Generated_Source\PSoC5/cyfitter_cfg.c **** 			{0x8Fu, 0x80u},
 613:Generated_Source\PSoC5/cyfitter_cfg.c **** 			{0xD6u, 0x0Cu},
 614:Generated_Source\PSoC5/cyfitter_cfg.c **** 			{0xE0u, 0x01u},
 615:Generated_Source\PSoC5/cyfitter_cfg.c **** 			{0xE2u, 0x08u},
 616:Generated_Source\PSoC5/cyfitter_cfg.c **** 			{0xE4u, 0x0Du},
ARM GAS  C:\Users\HPz420\AppData\Local\Temp\ccAlG7g9.s 			page 22


 617:Generated_Source\PSoC5/cyfitter_cfg.c **** 			{0x5Bu, 0x04u},
 618:Generated_Source\PSoC5/cyfitter_cfg.c **** 			{0x5Fu, 0x01u},
 619:Generated_Source\PSoC5/cyfitter_cfg.c **** 			{0xDBu, 0x04u},
 620:Generated_Source\PSoC5/cyfitter_cfg.c **** 			{0xDFu, 0x01u},
 621:Generated_Source\PSoC5/cyfitter_cfg.c **** 			{0x58u, 0x21u},
 622:Generated_Source\PSoC5/cyfitter_cfg.c **** 			{0x5Au, 0x48u},
 623:Generated_Source\PSoC5/cyfitter_cfg.c **** 			{0x5Cu, 0x80u},
 624:Generated_Source\PSoC5/cyfitter_cfg.c **** 			{0x5Du, 0x11u},
 625:Generated_Source\PSoC5/cyfitter_cfg.c **** 			{0x5Eu, 0x04u},
 626:Generated_Source\PSoC5/cyfitter_cfg.c **** 			{0x62u, 0xA0u},
 627:Generated_Source\PSoC5/cyfitter_cfg.c **** 			{0x64u, 0x02u},
 628:Generated_Source\PSoC5/cyfitter_cfg.c **** 			{0x66u, 0x20u},
 629:Generated_Source\PSoC5/cyfitter_cfg.c **** 			{0x67u, 0xA0u},
 630:Generated_Source\PSoC5/cyfitter_cfg.c **** 			{0x6Cu, 0x04u},
 631:Generated_Source\PSoC5/cyfitter_cfg.c **** 			{0x6Eu, 0x08u},
 632:Generated_Source\PSoC5/cyfitter_cfg.c **** 			{0x6Fu, 0x82u},
 633:Generated_Source\PSoC5/cyfitter_cfg.c **** 			{0x74u, 0x08u},
 634:Generated_Source\PSoC5/cyfitter_cfg.c **** 			{0x75u, 0x40u},
 635:Generated_Source\PSoC5/cyfitter_cfg.c **** 			{0x77u, 0x84u},
 636:Generated_Source\PSoC5/cyfitter_cfg.c **** 			{0x80u, 0x88u},
 637:Generated_Source\PSoC5/cyfitter_cfg.c **** 			{0x82u, 0x20u},
 638:Generated_Source\PSoC5/cyfitter_cfg.c **** 			{0x83u, 0x80u},
 639:Generated_Source\PSoC5/cyfitter_cfg.c **** 			{0x85u, 0x40u},
 640:Generated_Source\PSoC5/cyfitter_cfg.c **** 			{0x86u, 0x04u},
 641:Generated_Source\PSoC5/cyfitter_cfg.c **** 			{0x87u, 0x50u},
 642:Generated_Source\PSoC5/cyfitter_cfg.c **** 			{0x89u, 0x11u},
 643:Generated_Source\PSoC5/cyfitter_cfg.c **** 			{0x8Au, 0x20u},
 644:Generated_Source\PSoC5/cyfitter_cfg.c **** 			{0x8Bu, 0x80u},
 645:Generated_Source\PSoC5/cyfitter_cfg.c **** 			{0x8Cu, 0x02u},
 646:Generated_Source\PSoC5/cyfitter_cfg.c **** 			{0x8Eu, 0xC0u},
 647:Generated_Source\PSoC5/cyfitter_cfg.c **** 			{0x8Fu, 0x04u},
 648:Generated_Source\PSoC5/cyfitter_cfg.c **** 			{0x92u, 0x08u},
 649:Generated_Source\PSoC5/cyfitter_cfg.c **** 			{0x94u, 0x08u},
 650:Generated_Source\PSoC5/cyfitter_cfg.c **** 			{0x98u, 0x21u},
 651:Generated_Source\PSoC5/cyfitter_cfg.c **** 			{0xA6u, 0x04u},
 652:Generated_Source\PSoC5/cyfitter_cfg.c **** 			{0xA7u, 0x02u},
 653:Generated_Source\PSoC5/cyfitter_cfg.c **** 			{0xA8u, 0x05u},
 654:Generated_Source\PSoC5/cyfitter_cfg.c **** 			{0xACu, 0x20u},
 655:Generated_Source\PSoC5/cyfitter_cfg.c **** 			{0xAEu, 0x40u},
 656:Generated_Source\PSoC5/cyfitter_cfg.c **** 			{0xB3u, 0x8Au},
 657:Generated_Source\PSoC5/cyfitter_cfg.c **** 			{0xB4u, 0x05u},
 658:Generated_Source\PSoC5/cyfitter_cfg.c **** 			{0xB7u, 0x20u},
 659:Generated_Source\PSoC5/cyfitter_cfg.c **** 			{0xD6u, 0xFFu},
 660:Generated_Source\PSoC5/cyfitter_cfg.c **** 			{0xD8u, 0xFCu},
 661:Generated_Source\PSoC5/cyfitter_cfg.c **** 			{0xE0u, 0x90u},
 662:Generated_Source\PSoC5/cyfitter_cfg.c **** 			{0xE4u, 0xC0u},
 663:Generated_Source\PSoC5/cyfitter_cfg.c **** 			{0xE6u, 0x30u},
 664:Generated_Source\PSoC5/cyfitter_cfg.c **** 			{0xEAu, 0x61u},
 665:Generated_Source\PSoC5/cyfitter_cfg.c **** 			{0xECu, 0x50u},
 666:Generated_Source\PSoC5/cyfitter_cfg.c **** 			{0xEEu, 0xA0u},
 667:Generated_Source\PSoC5/cyfitter_cfg.c **** 			{0x5Bu, 0x04u},
 668:Generated_Source\PSoC5/cyfitter_cfg.c **** 			{0x5Fu, 0x01u},
 669:Generated_Source\PSoC5/cyfitter_cfg.c **** 			{0xDBu, 0x04u},
 670:Generated_Source\PSoC5/cyfitter_cfg.c **** 			{0xDFu, 0x01u},
 671:Generated_Source\PSoC5/cyfitter_cfg.c **** 			{0x5Cu, 0x05u},
 672:Generated_Source\PSoC5/cyfitter_cfg.c **** 			{0x5Eu, 0x80u},
 673:Generated_Source\PSoC5/cyfitter_cfg.c **** 			{0x5Fu, 0x20u},
ARM GAS  C:\Users\HPz420\AppData\Local\Temp\ccAlG7g9.s 			page 23


 674:Generated_Source\PSoC5/cyfitter_cfg.c **** 			{0x6Au, 0xA0u},
 675:Generated_Source\PSoC5/cyfitter_cfg.c **** 			{0x6Bu, 0x90u},
 676:Generated_Source\PSoC5/cyfitter_cfg.c **** 			{0x6Cu, 0x01u},
 677:Generated_Source\PSoC5/cyfitter_cfg.c **** 			{0x6Fu, 0x68u},
 678:Generated_Source\PSoC5/cyfitter_cfg.c **** 			{0x70u, 0x80u},
 679:Generated_Source\PSoC5/cyfitter_cfg.c **** 			{0x73u, 0x04u},
 680:Generated_Source\PSoC5/cyfitter_cfg.c **** 			{0x76u, 0x02u},
 681:Generated_Source\PSoC5/cyfitter_cfg.c **** 			{0x82u, 0x04u},
 682:Generated_Source\PSoC5/cyfitter_cfg.c **** 			{0x83u, 0x40u},
 683:Generated_Source\PSoC5/cyfitter_cfg.c **** 			{0x86u, 0x04u},
 684:Generated_Source\PSoC5/cyfitter_cfg.c **** 			{0x8Eu, 0x50u},
 685:Generated_Source\PSoC5/cyfitter_cfg.c **** 			{0x8Fu, 0x20u},
 686:Generated_Source\PSoC5/cyfitter_cfg.c **** 			{0x97u, 0x04u},
 687:Generated_Source\PSoC5/cyfitter_cfg.c **** 			{0x98u, 0x01u},
 688:Generated_Source\PSoC5/cyfitter_cfg.c **** 			{0x9Eu, 0x02u},
 689:Generated_Source\PSoC5/cyfitter_cfg.c **** 			{0x9Fu, 0x10u},
 690:Generated_Source\PSoC5/cyfitter_cfg.c **** 			{0xA4u, 0x80u},
 691:Generated_Source\PSoC5/cyfitter_cfg.c **** 			{0xACu, 0x80u},
 692:Generated_Source\PSoC5/cyfitter_cfg.c **** 			{0xB2u, 0x02u},
 693:Generated_Source\PSoC5/cyfitter_cfg.c **** 			{0xD6u, 0xF0u},
 694:Generated_Source\PSoC5/cyfitter_cfg.c **** 			{0xE2u, 0x50u},
 695:Generated_Source\PSoC5/cyfitter_cfg.c **** 			{0xE4u, 0x10u},
 696:Generated_Source\PSoC5/cyfitter_cfg.c **** 			{0xE6u, 0x20u},
 697:Generated_Source\PSoC5/cyfitter_cfg.c **** 			{0xE8u, 0x08u},
 698:Generated_Source\PSoC5/cyfitter_cfg.c **** 			{0xEAu, 0x80u},
 699:Generated_Source\PSoC5/cyfitter_cfg.c **** 			{0xEEu, 0x0Au},
 700:Generated_Source\PSoC5/cyfitter_cfg.c **** 			{0x5Bu, 0x04u},
 701:Generated_Source\PSoC5/cyfitter_cfg.c **** 			{0x5Fu, 0x01u},
 702:Generated_Source\PSoC5/cyfitter_cfg.c **** 			{0xDBu, 0x04u},
 703:Generated_Source\PSoC5/cyfitter_cfg.c **** 			{0xDFu, 0x01u},
 704:Generated_Source\PSoC5/cyfitter_cfg.c **** 			{0x58u, 0x10u},
 705:Generated_Source\PSoC5/cyfitter_cfg.c **** 			{0x59u, 0x82u},
 706:Generated_Source\PSoC5/cyfitter_cfg.c **** 			{0x5Bu, 0x04u},
 707:Generated_Source\PSoC5/cyfitter_cfg.c **** 			{0x5Cu, 0x48u},
 708:Generated_Source\PSoC5/cyfitter_cfg.c **** 			{0x5Du, 0x01u},
 709:Generated_Source\PSoC5/cyfitter_cfg.c **** 			{0x5Fu, 0x10u},
 710:Generated_Source\PSoC5/cyfitter_cfg.c **** 			{0x62u, 0x80u},
 711:Generated_Source\PSoC5/cyfitter_cfg.c **** 			{0x64u, 0x01u},
 712:Generated_Source\PSoC5/cyfitter_cfg.c **** 			{0x6Au, 0x92u},
 713:Generated_Source\PSoC5/cyfitter_cfg.c **** 			{0x6Bu, 0x20u},
 714:Generated_Source\PSoC5/cyfitter_cfg.c **** 			{0x6Fu, 0x9Au},
 715:Generated_Source\PSoC5/cyfitter_cfg.c **** 			{0x70u, 0x40u},
 716:Generated_Source\PSoC5/cyfitter_cfg.c **** 			{0x74u, 0x80u},
 717:Generated_Source\PSoC5/cyfitter_cfg.c **** 			{0x82u, 0x40u},
 718:Generated_Source\PSoC5/cyfitter_cfg.c **** 			{0x83u, 0x80u},
 719:Generated_Source\PSoC5/cyfitter_cfg.c **** 			{0x87u, 0x28u},
 720:Generated_Source\PSoC5/cyfitter_cfg.c **** 			{0x89u, 0x01u},
 721:Generated_Source\PSoC5/cyfitter_cfg.c **** 			{0x8Bu, 0x80u},
 722:Generated_Source\PSoC5/cyfitter_cfg.c **** 			{0x8Cu, 0x40u},
 723:Generated_Source\PSoC5/cyfitter_cfg.c **** 			{0x8Eu, 0x10u},
 724:Generated_Source\PSoC5/cyfitter_cfg.c **** 			{0x9Bu, 0x88u},
 725:Generated_Source\PSoC5/cyfitter_cfg.c **** 			{0xA9u, 0x80u},
 726:Generated_Source\PSoC5/cyfitter_cfg.c **** 			{0xAAu, 0x10u},
 727:Generated_Source\PSoC5/cyfitter_cfg.c **** 			{0xB3u, 0x40u},
 728:Generated_Source\PSoC5/cyfitter_cfg.c **** 			{0xB7u, 0x10u},
 729:Generated_Source\PSoC5/cyfitter_cfg.c **** 			{0xD6u, 0xFFu},
 730:Generated_Source\PSoC5/cyfitter_cfg.c **** 			{0xD8u, 0x18u},
ARM GAS  C:\Users\HPz420\AppData\Local\Temp\ccAlG7g9.s 			page 24


 731:Generated_Source\PSoC5/cyfitter_cfg.c **** 			{0xE0u, 0x0Au},
 732:Generated_Source\PSoC5/cyfitter_cfg.c **** 			{0xE4u, 0x05u},
 733:Generated_Source\PSoC5/cyfitter_cfg.c **** 			{0xE6u, 0x20u},
 734:Generated_Source\PSoC5/cyfitter_cfg.c **** 			{0xE8u, 0x08u},
 735:Generated_Source\PSoC5/cyfitter_cfg.c **** 			{0xEAu, 0x04u},
 736:Generated_Source\PSoC5/cyfitter_cfg.c **** 			{0xECu, 0x04u},
 737:Generated_Source\PSoC5/cyfitter_cfg.c **** 			{0xEEu, 0x0Au},
 738:Generated_Source\PSoC5/cyfitter_cfg.c **** 			{0x83u, 0x14u},
 739:Generated_Source\PSoC5/cyfitter_cfg.c **** 			{0x84u, 0x10u},
 740:Generated_Source\PSoC5/cyfitter_cfg.c **** 			{0x85u, 0x02u},
 741:Generated_Source\PSoC5/cyfitter_cfg.c **** 			{0x87u, 0x02u},
 742:Generated_Source\PSoC5/cyfitter_cfg.c **** 			{0x9Bu, 0x10u},
 743:Generated_Source\PSoC5/cyfitter_cfg.c **** 			{0x9Cu, 0x10u},
 744:Generated_Source\PSoC5/cyfitter_cfg.c **** 			{0x9Du, 0x02u},
 745:Generated_Source\PSoC5/cyfitter_cfg.c **** 			{0x9Fu, 0x04u},
 746:Generated_Source\PSoC5/cyfitter_cfg.c **** 			{0xA3u, 0x02u},
 747:Generated_Source\PSoC5/cyfitter_cfg.c **** 			{0xA8u, 0x80u},
 748:Generated_Source\PSoC5/cyfitter_cfg.c **** 			{0xAAu, 0x80u},
 749:Generated_Source\PSoC5/cyfitter_cfg.c **** 			{0xABu, 0x08u},
 750:Generated_Source\PSoC5/cyfitter_cfg.c **** 			{0xACu, 0x09u},
 751:Generated_Source\PSoC5/cyfitter_cfg.c **** 			{0xAEu, 0x01u},
 752:Generated_Source\PSoC5/cyfitter_cfg.c **** 			{0xAFu, 0x10u},
 753:Generated_Source\PSoC5/cyfitter_cfg.c **** 			{0xB1u, 0x80u},
 754:Generated_Source\PSoC5/cyfitter_cfg.c **** 			{0xB4u, 0x40u},
 755:Generated_Source\PSoC5/cyfitter_cfg.c **** 			{0xE0u, 0x0Cu},
 756:Generated_Source\PSoC5/cyfitter_cfg.c **** 			{0xE2u, 0x61u},
 757:Generated_Source\PSoC5/cyfitter_cfg.c **** 			{0xE6u, 0x0Au},
 758:Generated_Source\PSoC5/cyfitter_cfg.c **** 			{0xE8u, 0x04u},
 759:Generated_Source\PSoC5/cyfitter_cfg.c **** 			{0xEAu, 0x0Bu},
 760:Generated_Source\PSoC5/cyfitter_cfg.c **** 			{0xECu, 0x03u},
 761:Generated_Source\PSoC5/cyfitter_cfg.c **** 			{0xEEu, 0x0Cu},
 762:Generated_Source\PSoC5/cyfitter_cfg.c **** 			{0x01u, 0x40u},
 763:Generated_Source\PSoC5/cyfitter_cfg.c **** 			{0x03u, 0x20u},
 764:Generated_Source\PSoC5/cyfitter_cfg.c **** 			{0x06u, 0x02u},
 765:Generated_Source\PSoC5/cyfitter_cfg.c **** 			{0x0Bu, 0x20u},
 766:Generated_Source\PSoC5/cyfitter_cfg.c **** 			{0x0Fu, 0x20u},
 767:Generated_Source\PSoC5/cyfitter_cfg.c **** 			{0x33u, 0x84u},
 768:Generated_Source\PSoC5/cyfitter_cfg.c **** 			{0x36u, 0x40u},
 769:Generated_Source\PSoC5/cyfitter_cfg.c **** 			{0x52u, 0x02u},
 770:Generated_Source\PSoC5/cyfitter_cfg.c **** 			{0x55u, 0x10u},
 771:Generated_Source\PSoC5/cyfitter_cfg.c **** 			{0x5Fu, 0x10u},
 772:Generated_Source\PSoC5/cyfitter_cfg.c **** 			{0x65u, 0xA0u},
 773:Generated_Source\PSoC5/cyfitter_cfg.c **** 			{0x75u, 0x40u},
 774:Generated_Source\PSoC5/cyfitter_cfg.c **** 			{0x81u, 0x40u},
 775:Generated_Source\PSoC5/cyfitter_cfg.c **** 			{0x83u, 0x10u},
 776:Generated_Source\PSoC5/cyfitter_cfg.c **** 			{0x85u, 0x20u},
 777:Generated_Source\PSoC5/cyfitter_cfg.c **** 			{0x86u, 0x02u},
 778:Generated_Source\PSoC5/cyfitter_cfg.c **** 			{0x8Au, 0x02u},
 779:Generated_Source\PSoC5/cyfitter_cfg.c **** 			{0xC0u, 0xD0u},
 780:Generated_Source\PSoC5/cyfitter_cfg.c **** 			{0xC2u, 0x30u},
 781:Generated_Source\PSoC5/cyfitter_cfg.c **** 			{0xCCu, 0x70u},
 782:Generated_Source\PSoC5/cyfitter_cfg.c **** 			{0xD4u, 0xC0u},
 783:Generated_Source\PSoC5/cyfitter_cfg.c **** 			{0xD6u, 0xA0u},
 784:Generated_Source\PSoC5/cyfitter_cfg.c **** 			{0xD8u, 0x80u},
 785:Generated_Source\PSoC5/cyfitter_cfg.c **** 			{0xDCu, 0x40u},
 786:Generated_Source\PSoC5/cyfitter_cfg.c **** 			{0xE4u, 0xB0u},
 787:Generated_Source\PSoC5/cyfitter_cfg.c **** 			{0xE6u, 0x40u},
ARM GAS  C:\Users\HPz420\AppData\Local\Temp\ccAlG7g9.s 			page 25


 788:Generated_Source\PSoC5/cyfitter_cfg.c **** 			{0x00u, 0x08u},
 789:Generated_Source\PSoC5/cyfitter_cfg.c **** 			{0x02u, 0x01u},
 790:Generated_Source\PSoC5/cyfitter_cfg.c **** 			{0x06u, 0x80u},
 791:Generated_Source\PSoC5/cyfitter_cfg.c **** 			{0x07u, 0x02u},
 792:Generated_Source\PSoC5/cyfitter_cfg.c **** 			{0x08u, 0x10u},
 793:Generated_Source\PSoC5/cyfitter_cfg.c **** 			{0x0Au, 0x20u},
 794:Generated_Source\PSoC5/cyfitter_cfg.c **** 			{0x0Fu, 0x12u},
 795:Generated_Source\PSoC5/cyfitter_cfg.c **** 			{0x52u, 0x80u},
 796:Generated_Source\PSoC5/cyfitter_cfg.c **** 			{0x53u, 0x01u},
 797:Generated_Source\PSoC5/cyfitter_cfg.c **** 			{0x56u, 0x02u},
 798:Generated_Source\PSoC5/cyfitter_cfg.c **** 			{0x57u, 0x20u},
 799:Generated_Source\PSoC5/cyfitter_cfg.c **** 			{0x59u, 0x04u},
 800:Generated_Source\PSoC5/cyfitter_cfg.c **** 			{0x5Cu, 0x01u},
 801:Generated_Source\PSoC5/cyfitter_cfg.c **** 			{0x62u, 0x02u},
 802:Generated_Source\PSoC5/cyfitter_cfg.c **** 			{0x65u, 0x01u},
 803:Generated_Source\PSoC5/cyfitter_cfg.c **** 			{0x6Cu, 0x04u},
 804:Generated_Source\PSoC5/cyfitter_cfg.c **** 			{0x81u, 0x04u},
 805:Generated_Source\PSoC5/cyfitter_cfg.c **** 			{0x83u, 0x01u},
 806:Generated_Source\PSoC5/cyfitter_cfg.c **** 			{0x87u, 0x01u},
 807:Generated_Source\PSoC5/cyfitter_cfg.c **** 			{0x89u, 0x80u},
 808:Generated_Source\PSoC5/cyfitter_cfg.c **** 			{0x8Du, 0x10u},
 809:Generated_Source\PSoC5/cyfitter_cfg.c **** 			{0x8Eu, 0x03u},
 810:Generated_Source\PSoC5/cyfitter_cfg.c **** 			{0x9Du, 0xC0u},
 811:Generated_Source\PSoC5/cyfitter_cfg.c **** 			{0x9Fu, 0x04u},
 812:Generated_Source\PSoC5/cyfitter_cfg.c **** 			{0xA5u, 0x10u},
 813:Generated_Source\PSoC5/cyfitter_cfg.c **** 			{0xA6u, 0x40u},
 814:Generated_Source\PSoC5/cyfitter_cfg.c **** 			{0xA7u, 0x80u},
 815:Generated_Source\PSoC5/cyfitter_cfg.c **** 			{0xAFu, 0x30u},
 816:Generated_Source\PSoC5/cyfitter_cfg.c **** 			{0xB3u, 0x10u},
 817:Generated_Source\PSoC5/cyfitter_cfg.c **** 			{0xC0u, 0xF0u},
 818:Generated_Source\PSoC5/cyfitter_cfg.c **** 			{0xC2u, 0xF0u},
 819:Generated_Source\PSoC5/cyfitter_cfg.c **** 			{0xD4u, 0xE0u},
 820:Generated_Source\PSoC5/cyfitter_cfg.c **** 			{0xD6u, 0xE0u},
 821:Generated_Source\PSoC5/cyfitter_cfg.c **** 			{0xD8u, 0xC0u},
 822:Generated_Source\PSoC5/cyfitter_cfg.c **** 			{0xDAu, 0x80u},
 823:Generated_Source\PSoC5/cyfitter_cfg.c **** 			{0xE4u, 0x10u},
 824:Generated_Source\PSoC5/cyfitter_cfg.c **** 			{0xE6u, 0xA0u},
 825:Generated_Source\PSoC5/cyfitter_cfg.c **** 			{0xEAu, 0x10u},
 826:Generated_Source\PSoC5/cyfitter_cfg.c **** 			{0xECu, 0x10u},
 827:Generated_Source\PSoC5/cyfitter_cfg.c **** 			{0x01u, 0x08u},
 828:Generated_Source\PSoC5/cyfitter_cfg.c **** 			{0x07u, 0x20u},
 829:Generated_Source\PSoC5/cyfitter_cfg.c **** 			{0x3Eu, 0x10u},
 830:Generated_Source\PSoC5/cyfitter_cfg.c **** 			{0x53u, 0x20u},
 831:Generated_Source\PSoC5/cyfitter_cfg.c **** 			{0x56u, 0x20u},
 832:Generated_Source\PSoC5/cyfitter_cfg.c **** 			{0x80u, 0x04u},
 833:Generated_Source\PSoC5/cyfitter_cfg.c **** 			{0x85u, 0x40u},
 834:Generated_Source\PSoC5/cyfitter_cfg.c **** 			{0x94u, 0x08u},
 835:Generated_Source\PSoC5/cyfitter_cfg.c **** 			{0x9Du, 0x40u},
 836:Generated_Source\PSoC5/cyfitter_cfg.c **** 			{0x9Fu, 0x04u},
 837:Generated_Source\PSoC5/cyfitter_cfg.c **** 			{0xA6u, 0x40u},
 838:Generated_Source\PSoC5/cyfitter_cfg.c **** 			{0xA7u, 0x80u},
 839:Generated_Source\PSoC5/cyfitter_cfg.c **** 			{0xAAu, 0x90u},
 840:Generated_Source\PSoC5/cyfitter_cfg.c **** 			{0xABu, 0x02u},
 841:Generated_Source\PSoC5/cyfitter_cfg.c **** 			{0xACu, 0x04u},
 842:Generated_Source\PSoC5/cyfitter_cfg.c **** 			{0xB0u, 0x10u},
 843:Generated_Source\PSoC5/cyfitter_cfg.c **** 			{0xB2u, 0x82u},
 844:Generated_Source\PSoC5/cyfitter_cfg.c **** 			{0xB3u, 0x10u},
ARM GAS  C:\Users\HPz420\AppData\Local\Temp\ccAlG7g9.s 			page 26


 845:Generated_Source\PSoC5/cyfitter_cfg.c **** 			{0xB4u, 0x01u},
 846:Generated_Source\PSoC5/cyfitter_cfg.c **** 			{0xB5u, 0x01u},
 847:Generated_Source\PSoC5/cyfitter_cfg.c **** 			{0xB7u, 0x20u},
 848:Generated_Source\PSoC5/cyfitter_cfg.c **** 			{0xC0u, 0x30u},
 849:Generated_Source\PSoC5/cyfitter_cfg.c **** 			{0xCEu, 0x20u},
 850:Generated_Source\PSoC5/cyfitter_cfg.c **** 			{0xD4u, 0x60u},
 851:Generated_Source\PSoC5/cyfitter_cfg.c **** 			{0xE6u, 0x90u},
 852:Generated_Source\PSoC5/cyfitter_cfg.c **** 			{0xE8u, 0x80u},
 853:Generated_Source\PSoC5/cyfitter_cfg.c **** 			{0xECu, 0xE0u},
 854:Generated_Source\PSoC5/cyfitter_cfg.c **** 			{0x58u, 0x40u},
 855:Generated_Source\PSoC5/cyfitter_cfg.c **** 			{0x83u, 0x04u},
 856:Generated_Source\PSoC5/cyfitter_cfg.c **** 			{0x8Bu, 0x20u},
 857:Generated_Source\PSoC5/cyfitter_cfg.c **** 			{0x96u, 0x10u},
 858:Generated_Source\PSoC5/cyfitter_cfg.c **** 			{0x99u, 0x08u},
 859:Generated_Source\PSoC5/cyfitter_cfg.c **** 			{0x9Bu, 0x20u},
 860:Generated_Source\PSoC5/cyfitter_cfg.c **** 			{0x9Fu, 0x04u},
 861:Generated_Source\PSoC5/cyfitter_cfg.c **** 			{0xA6u, 0x40u},
 862:Generated_Source\PSoC5/cyfitter_cfg.c **** 			{0xA7u, 0xA0u},
 863:Generated_Source\PSoC5/cyfitter_cfg.c **** 			{0xB6u, 0x20u},
 864:Generated_Source\PSoC5/cyfitter_cfg.c **** 			{0xD4u, 0x80u},
 865:Generated_Source\PSoC5/cyfitter_cfg.c **** 			{0xE2u, 0x80u},
 866:Generated_Source\PSoC5/cyfitter_cfg.c **** 			{0x05u, 0x02u},
 867:Generated_Source\PSoC5/cyfitter_cfg.c **** 			{0x08u, 0x08u},
 868:Generated_Source\PSoC5/cyfitter_cfg.c **** 			{0x0Bu, 0x08u},
 869:Generated_Source\PSoC5/cyfitter_cfg.c **** 			{0x0Cu, 0x88u},
 870:Generated_Source\PSoC5/cyfitter_cfg.c **** 			{0x11u, 0x01u},
 871:Generated_Source\PSoC5/cyfitter_cfg.c **** 			{0x13u, 0x02u},
 872:Generated_Source\PSoC5/cyfitter_cfg.c **** 			{0x15u, 0x04u},
 873:Generated_Source\PSoC5/cyfitter_cfg.c **** 			{0x16u, 0x40u},
 874:Generated_Source\PSoC5/cyfitter_cfg.c **** 			{0x59u, 0x08u},
 875:Generated_Source\PSoC5/cyfitter_cfg.c **** 			{0x5Fu, 0x80u},
 876:Generated_Source\PSoC5/cyfitter_cfg.c **** 			{0x60u, 0x10u},
 877:Generated_Source\PSoC5/cyfitter_cfg.c **** 			{0x64u, 0x01u},
 878:Generated_Source\PSoC5/cyfitter_cfg.c **** 			{0x66u, 0x08u},
 879:Generated_Source\PSoC5/cyfitter_cfg.c **** 			{0x6Du, 0x02u},
 880:Generated_Source\PSoC5/cyfitter_cfg.c **** 			{0x6Fu, 0x20u},
 881:Generated_Source\PSoC5/cyfitter_cfg.c **** 			{0x71u, 0x08u},
 882:Generated_Source\PSoC5/cyfitter_cfg.c **** 			{0x7Fu, 0x02u},
 883:Generated_Source\PSoC5/cyfitter_cfg.c **** 			{0x80u, 0x11u},
 884:Generated_Source\PSoC5/cyfitter_cfg.c **** 			{0x83u, 0x01u},
 885:Generated_Source\PSoC5/cyfitter_cfg.c **** 			{0x86u, 0xC0u},
 886:Generated_Source\PSoC5/cyfitter_cfg.c **** 			{0x8Fu, 0x20u},
 887:Generated_Source\PSoC5/cyfitter_cfg.c **** 			{0xC0u, 0x04u},
 888:Generated_Source\PSoC5/cyfitter_cfg.c **** 			{0xC2u, 0x0Fu},
 889:Generated_Source\PSoC5/cyfitter_cfg.c **** 			{0xC4u, 0x0Cu},
 890:Generated_Source\PSoC5/cyfitter_cfg.c **** 			{0xD6u, 0x07u},
 891:Generated_Source\PSoC5/cyfitter_cfg.c **** 			{0xD8u, 0x03u},
 892:Generated_Source\PSoC5/cyfitter_cfg.c **** 			{0xDAu, 0x01u},
 893:Generated_Source\PSoC5/cyfitter_cfg.c **** 			{0xDCu, 0x03u},
 894:Generated_Source\PSoC5/cyfitter_cfg.c **** 			{0xDEu, 0x04u},
 895:Generated_Source\PSoC5/cyfitter_cfg.c **** 			{0xE4u, 0x08u},
 896:Generated_Source\PSoC5/cyfitter_cfg.c **** 			{0x00u, 0x24u},
 897:Generated_Source\PSoC5/cyfitter_cfg.c **** 			{0x05u, 0x20u},
 898:Generated_Source\PSoC5/cyfitter_cfg.c **** 			{0x06u, 0x20u},
 899:Generated_Source\PSoC5/cyfitter_cfg.c **** 			{0x09u, 0x22u},
 900:Generated_Source\PSoC5/cyfitter_cfg.c **** 			{0x0Du, 0x10u},
 901:Generated_Source\PSoC5/cyfitter_cfg.c **** 			{0x0Fu, 0x80u},
ARM GAS  C:\Users\HPz420\AppData\Local\Temp\ccAlG7g9.s 			page 27


 902:Generated_Source\PSoC5/cyfitter_cfg.c **** 			{0x52u, 0x82u},
 903:Generated_Source\PSoC5/cyfitter_cfg.c **** 			{0x57u, 0x08u},
 904:Generated_Source\PSoC5/cyfitter_cfg.c **** 			{0x5Fu, 0x20u},
 905:Generated_Source\PSoC5/cyfitter_cfg.c **** 			{0x60u, 0x01u},
 906:Generated_Source\PSoC5/cyfitter_cfg.c **** 			{0x62u, 0x01u},
 907:Generated_Source\PSoC5/cyfitter_cfg.c **** 			{0x66u, 0x10u},
 908:Generated_Source\PSoC5/cyfitter_cfg.c **** 			{0x67u, 0x02u},
 909:Generated_Source\PSoC5/cyfitter_cfg.c **** 			{0x73u, 0x02u},
 910:Generated_Source\PSoC5/cyfitter_cfg.c **** 			{0x8Eu, 0x02u},
 911:Generated_Source\PSoC5/cyfitter_cfg.c **** 			{0x90u, 0x01u},
 912:Generated_Source\PSoC5/cyfitter_cfg.c **** 			{0x91u, 0x05u},
 913:Generated_Source\PSoC5/cyfitter_cfg.c **** 			{0x93u, 0x0Au},
 914:Generated_Source\PSoC5/cyfitter_cfg.c **** 			{0x98u, 0x08u},
 915:Generated_Source\PSoC5/cyfitter_cfg.c **** 			{0x9Au, 0x01u},
 916:Generated_Source\PSoC5/cyfitter_cfg.c **** 			{0x9Bu, 0x20u},
 917:Generated_Source\PSoC5/cyfitter_cfg.c **** 			{0xA0u, 0x08u},
 918:Generated_Source\PSoC5/cyfitter_cfg.c **** 			{0xA2u, 0x80u},
 919:Generated_Source\PSoC5/cyfitter_cfg.c **** 			{0xA5u, 0x09u},
 920:Generated_Source\PSoC5/cyfitter_cfg.c **** 			{0xA7u, 0x22u},
 921:Generated_Source\PSoC5/cyfitter_cfg.c **** 			{0xA9u, 0x08u},
 922:Generated_Source\PSoC5/cyfitter_cfg.c **** 			{0xAAu, 0x09u},
 923:Generated_Source\PSoC5/cyfitter_cfg.c **** 			{0xAFu, 0x02u},
 924:Generated_Source\PSoC5/cyfitter_cfg.c **** 			{0xB0u, 0x81u},
 925:Generated_Source\PSoC5/cyfitter_cfg.c **** 			{0xB5u, 0x02u},
 926:Generated_Source\PSoC5/cyfitter_cfg.c **** 			{0xB7u, 0x80u},
 927:Generated_Source\PSoC5/cyfitter_cfg.c **** 			{0xC0u, 0x0Fu},
 928:Generated_Source\PSoC5/cyfitter_cfg.c **** 			{0xC2u, 0x0Fu},
 929:Generated_Source\PSoC5/cyfitter_cfg.c **** 			{0xD4u, 0x07u},
 930:Generated_Source\PSoC5/cyfitter_cfg.c **** 			{0xD6u, 0x07u},
 931:Generated_Source\PSoC5/cyfitter_cfg.c **** 			{0xD8u, 0x03u},
 932:Generated_Source\PSoC5/cyfitter_cfg.c **** 			{0xDCu, 0x04u},
 933:Generated_Source\PSoC5/cyfitter_cfg.c **** 			{0xE4u, 0x08u},
 934:Generated_Source\PSoC5/cyfitter_cfg.c **** 			{0xEAu, 0x02u},
 935:Generated_Source\PSoC5/cyfitter_cfg.c **** 			{0xECu, 0x0Cu},
 936:Generated_Source\PSoC5/cyfitter_cfg.c **** 			{0xEEu, 0x01u},
 937:Generated_Source\PSoC5/cyfitter_cfg.c **** 			{0x85u, 0x08u},
 938:Generated_Source\PSoC5/cyfitter_cfg.c **** 			{0x87u, 0x20u},
 939:Generated_Source\PSoC5/cyfitter_cfg.c **** 			{0x8Bu, 0x04u},
 940:Generated_Source\PSoC5/cyfitter_cfg.c **** 			{0x8Cu, 0x08u},
 941:Generated_Source\PSoC5/cyfitter_cfg.c **** 			{0x90u, 0x04u},
 942:Generated_Source\PSoC5/cyfitter_cfg.c **** 			{0x91u, 0x05u},
 943:Generated_Source\PSoC5/cyfitter_cfg.c **** 			{0x93u, 0x08u},
 944:Generated_Source\PSoC5/cyfitter_cfg.c **** 			{0x98u, 0x08u},
 945:Generated_Source\PSoC5/cyfitter_cfg.c **** 			{0x9Au, 0x20u},
 946:Generated_Source\PSoC5/cyfitter_cfg.c **** 			{0x9Fu, 0x02u},
 947:Generated_Source\PSoC5/cyfitter_cfg.c **** 			{0xA0u, 0x08u},
 948:Generated_Source\PSoC5/cyfitter_cfg.c **** 			{0xA1u, 0x20u},
 949:Generated_Source\PSoC5/cyfitter_cfg.c **** 			{0xA3u, 0x40u},
 950:Generated_Source\PSoC5/cyfitter_cfg.c **** 			{0xA5u, 0x09u},
 951:Generated_Source\PSoC5/cyfitter_cfg.c **** 			{0xA7u, 0x22u},
 952:Generated_Source\PSoC5/cyfitter_cfg.c **** 			{0xAEu, 0x10u},
 953:Generated_Source\PSoC5/cyfitter_cfg.c **** 			{0xAFu, 0x08u},
 954:Generated_Source\PSoC5/cyfitter_cfg.c **** 			{0xB0u, 0x10u},
 955:Generated_Source\PSoC5/cyfitter_cfg.c **** 			{0xB1u, 0x30u},
 956:Generated_Source\PSoC5/cyfitter_cfg.c **** 			{0xB5u, 0x02u},
 957:Generated_Source\PSoC5/cyfitter_cfg.c **** 			{0xE2u, 0x01u},
 958:Generated_Source\PSoC5/cyfitter_cfg.c **** 			{0xE6u, 0x08u},
ARM GAS  C:\Users\HPz420\AppData\Local\Temp\ccAlG7g9.s 			page 28


 959:Generated_Source\PSoC5/cyfitter_cfg.c **** 			{0xEAu, 0x04u},
 960:Generated_Source\PSoC5/cyfitter_cfg.c **** 			{0xEEu, 0x0Du},
 961:Generated_Source\PSoC5/cyfitter_cfg.c **** 			{0x08u, 0x08u},
 962:Generated_Source\PSoC5/cyfitter_cfg.c **** 			{0x0Bu, 0x01u},
 963:Generated_Source\PSoC5/cyfitter_cfg.c **** 			{0x0Fu, 0x40u},
 964:Generated_Source\PSoC5/cyfitter_cfg.c **** 			{0x53u, 0x10u},
 965:Generated_Source\PSoC5/cyfitter_cfg.c **** 			{0x81u, 0x01u},
 966:Generated_Source\PSoC5/cyfitter_cfg.c **** 			{0x83u, 0x41u},
 967:Generated_Source\PSoC5/cyfitter_cfg.c **** 			{0x8Du, 0x20u},
 968:Generated_Source\PSoC5/cyfitter_cfg.c **** 			{0x90u, 0x04u},
 969:Generated_Source\PSoC5/cyfitter_cfg.c **** 			{0x91u, 0x05u},
 970:Generated_Source\PSoC5/cyfitter_cfg.c **** 			{0x9Au, 0x20u},
 971:Generated_Source\PSoC5/cyfitter_cfg.c **** 			{0xA1u, 0x20u},
 972:Generated_Source\PSoC5/cyfitter_cfg.c **** 			{0xA3u, 0x40u},
 973:Generated_Source\PSoC5/cyfitter_cfg.c **** 			{0xA5u, 0x01u},
 974:Generated_Source\PSoC5/cyfitter_cfg.c **** 			{0xA7u, 0x02u},
 975:Generated_Source\PSoC5/cyfitter_cfg.c **** 			{0xAFu, 0x02u},
 976:Generated_Source\PSoC5/cyfitter_cfg.c **** 			{0xB4u, 0x08u},
 977:Generated_Source\PSoC5/cyfitter_cfg.c **** 			{0xC2u, 0x0Eu},
 978:Generated_Source\PSoC5/cyfitter_cfg.c **** 			{0xD4u, 0x04u},
 979:Generated_Source\PSoC5/cyfitter_cfg.c **** 			{0xE6u, 0x02u},
 980:Generated_Source\PSoC5/cyfitter_cfg.c **** 			{0xEAu, 0x02u},
 981:Generated_Source\PSoC5/cyfitter_cfg.c **** 			{0x01u, 0x80u},
 982:Generated_Source\PSoC5/cyfitter_cfg.c **** 			{0x02u, 0x20u},
 983:Generated_Source\PSoC5/cyfitter_cfg.c **** 			{0x04u, 0x81u},
 984:Generated_Source\PSoC5/cyfitter_cfg.c **** 			{0x52u, 0x80u},
 985:Generated_Source\PSoC5/cyfitter_cfg.c **** 			{0x56u, 0x0Au},
 986:Generated_Source\PSoC5/cyfitter_cfg.c **** 			{0x5Au, 0x80u},
 987:Generated_Source\PSoC5/cyfitter_cfg.c **** 			{0x81u, 0x40u},
 988:Generated_Source\PSoC5/cyfitter_cfg.c **** 			{0x82u, 0x40u},
 989:Generated_Source\PSoC5/cyfitter_cfg.c **** 			{0x85u, 0x08u},
 990:Generated_Source\PSoC5/cyfitter_cfg.c **** 			{0x88u, 0x20u},
 991:Generated_Source\PSoC5/cyfitter_cfg.c **** 			{0x8Cu, 0x01u},
 992:Generated_Source\PSoC5/cyfitter_cfg.c **** 			{0x8Du, 0x04u},
 993:Generated_Source\PSoC5/cyfitter_cfg.c **** 			{0x8Fu, 0x20u},
 994:Generated_Source\PSoC5/cyfitter_cfg.c **** 			{0x96u, 0x10u},
 995:Generated_Source\PSoC5/cyfitter_cfg.c **** 			{0x99u, 0x08u},
 996:Generated_Source\PSoC5/cyfitter_cfg.c **** 			{0xA7u, 0x20u},
 997:Generated_Source\PSoC5/cyfitter_cfg.c **** 			{0xAEu, 0x40u},
 998:Generated_Source\PSoC5/cyfitter_cfg.c **** 			{0xAFu, 0x80u},
 999:Generated_Source\PSoC5/cyfitter_cfg.c **** 			{0xB0u, 0x40u},
1000:Generated_Source\PSoC5/cyfitter_cfg.c **** 			{0xC0u, 0xF0u},
1001:Generated_Source\PSoC5/cyfitter_cfg.c **** 			{0xD4u, 0xE0u},
1002:Generated_Source\PSoC5/cyfitter_cfg.c **** 			{0xD6u, 0x20u},
1003:Generated_Source\PSoC5/cyfitter_cfg.c **** 			{0xE4u, 0x10u},
1004:Generated_Source\PSoC5/cyfitter_cfg.c **** 			{0xE6u, 0xA0u},
1005:Generated_Source\PSoC5/cyfitter_cfg.c **** 			{0xEEu, 0x50u},
1006:Generated_Source\PSoC5/cyfitter_cfg.c **** 			{0x02u, 0x22u},
1007:Generated_Source\PSoC5/cyfitter_cfg.c **** 			{0x05u, 0x88u},
1008:Generated_Source\PSoC5/cyfitter_cfg.c **** 			{0x08u, 0x10u},
1009:Generated_Source\PSoC5/cyfitter_cfg.c **** 			{0x09u, 0x01u},
1010:Generated_Source\PSoC5/cyfitter_cfg.c **** 			{0x0Cu, 0x80u},
1011:Generated_Source\PSoC5/cyfitter_cfg.c **** 			{0x0Eu, 0x40u},
1012:Generated_Source\PSoC5/cyfitter_cfg.c **** 			{0x13u, 0x08u},
1013:Generated_Source\PSoC5/cyfitter_cfg.c **** 			{0x14u, 0x40u},
1014:Generated_Source\PSoC5/cyfitter_cfg.c **** 			{0x51u, 0x80u},
1015:Generated_Source\PSoC5/cyfitter_cfg.c **** 			{0x53u, 0x01u},
ARM GAS  C:\Users\HPz420\AppData\Local\Temp\ccAlG7g9.s 			page 29


1016:Generated_Source\PSoC5/cyfitter_cfg.c **** 			{0x56u, 0x20u},
1017:Generated_Source\PSoC5/cyfitter_cfg.c **** 			{0x5Cu, 0x08u},
1018:Generated_Source\PSoC5/cyfitter_cfg.c **** 			{0x5Du, 0x40u},
1019:Generated_Source\PSoC5/cyfitter_cfg.c **** 			{0x60u, 0x01u},
1020:Generated_Source\PSoC5/cyfitter_cfg.c **** 			{0x61u, 0x02u},
1021:Generated_Source\PSoC5/cyfitter_cfg.c **** 			{0x66u, 0x04u},
1022:Generated_Source\PSoC5/cyfitter_cfg.c **** 			{0x70u, 0x20u},
1023:Generated_Source\PSoC5/cyfitter_cfg.c **** 			{0x71u, 0x04u},
1024:Generated_Source\PSoC5/cyfitter_cfg.c **** 			{0x76u, 0x80u},
1025:Generated_Source\PSoC5/cyfitter_cfg.c **** 			{0x80u, 0x01u},
1026:Generated_Source\PSoC5/cyfitter_cfg.c **** 			{0x82u, 0x60u},
1027:Generated_Source\PSoC5/cyfitter_cfg.c **** 			{0x83u, 0x01u},
1028:Generated_Source\PSoC5/cyfitter_cfg.c **** 			{0x84u, 0x98u},
1029:Generated_Source\PSoC5/cyfitter_cfg.c **** 			{0x86u, 0x02u},
1030:Generated_Source\PSoC5/cyfitter_cfg.c **** 			{0x89u, 0x8Au},
1031:Generated_Source\PSoC5/cyfitter_cfg.c **** 			{0x8Du, 0x01u},
1032:Generated_Source\PSoC5/cyfitter_cfg.c **** 			{0x8Eu, 0x04u},
1033:Generated_Source\PSoC5/cyfitter_cfg.c **** 			{0x8Fu, 0x08u},
1034:Generated_Source\PSoC5/cyfitter_cfg.c **** 			{0x91u, 0x40u},
1035:Generated_Source\PSoC5/cyfitter_cfg.c **** 			{0x99u, 0x04u},
1036:Generated_Source\PSoC5/cyfitter_cfg.c **** 			{0x9Au, 0xA0u},
1037:Generated_Source\PSoC5/cyfitter_cfg.c **** 			{0x9Cu, 0x40u},
1038:Generated_Source\PSoC5/cyfitter_cfg.c **** 			{0xA0u, 0x20u},
1039:Generated_Source\PSoC5/cyfitter_cfg.c **** 			{0xA1u, 0x80u},
1040:Generated_Source\PSoC5/cyfitter_cfg.c **** 			{0xA9u, 0x80u},
1041:Generated_Source\PSoC5/cyfitter_cfg.c **** 			{0xAAu, 0x90u},
1042:Generated_Source\PSoC5/cyfitter_cfg.c **** 			{0xACu, 0x40u},
1043:Generated_Source\PSoC5/cyfitter_cfg.c **** 			{0xAEu, 0x20u},
1044:Generated_Source\PSoC5/cyfitter_cfg.c **** 			{0xB2u, 0xA8u},
1045:Generated_Source\PSoC5/cyfitter_cfg.c **** 			{0xB4u, 0x40u},
1046:Generated_Source\PSoC5/cyfitter_cfg.c **** 			{0xB5u, 0x80u},
1047:Generated_Source\PSoC5/cyfitter_cfg.c **** 			{0xB6u, 0x02u},
1048:Generated_Source\PSoC5/cyfitter_cfg.c **** 			{0xC0u, 0xF0u},
1049:Generated_Source\PSoC5/cyfitter_cfg.c **** 			{0xC2u, 0xF0u},
1050:Generated_Source\PSoC5/cyfitter_cfg.c **** 			{0xC4u, 0x30u},
1051:Generated_Source\PSoC5/cyfitter_cfg.c **** 			{0xD4u, 0xE0u},
1052:Generated_Source\PSoC5/cyfitter_cfg.c **** 			{0xD6u, 0xE0u},
1053:Generated_Source\PSoC5/cyfitter_cfg.c **** 			{0xD8u, 0xC0u},
1054:Generated_Source\PSoC5/cyfitter_cfg.c **** 			{0xDCu, 0xA0u},
1055:Generated_Source\PSoC5/cyfitter_cfg.c **** 			{0xDEu, 0x20u},
1056:Generated_Source\PSoC5/cyfitter_cfg.c **** 			{0xE0u, 0x70u},
1057:Generated_Source\PSoC5/cyfitter_cfg.c **** 			{0xE2u, 0x80u},
1058:Generated_Source\PSoC5/cyfitter_cfg.c **** 			{0xE4u, 0xC0u},
1059:Generated_Source\PSoC5/cyfitter_cfg.c **** 			{0xE6u, 0x30u},
1060:Generated_Source\PSoC5/cyfitter_cfg.c **** 			{0xEAu, 0x80u},
1061:Generated_Source\PSoC5/cyfitter_cfg.c **** 			{0xECu, 0x50u},
1062:Generated_Source\PSoC5/cyfitter_cfg.c **** 			{0xEEu, 0xA0u},
1063:Generated_Source\PSoC5/cyfitter_cfg.c **** 			{0x01u, 0x40u},
1064:Generated_Source\PSoC5/cyfitter_cfg.c **** 			{0x05u, 0x80u},
1065:Generated_Source\PSoC5/cyfitter_cfg.c **** 			{0x0Au, 0x01u},
1066:Generated_Source\PSoC5/cyfitter_cfg.c **** 			{0x0Du, 0x10u},
1067:Generated_Source\PSoC5/cyfitter_cfg.c **** 			{0x0Eu, 0x20u},
1068:Generated_Source\PSoC5/cyfitter_cfg.c **** 			{0x10u, 0x40u},
1069:Generated_Source\PSoC5/cyfitter_cfg.c **** 			{0x13u, 0x20u},
1070:Generated_Source\PSoC5/cyfitter_cfg.c **** 			{0x16u, 0x10u},
1071:Generated_Source\PSoC5/cyfitter_cfg.c **** 			{0x51u, 0x02u},
1072:Generated_Source\PSoC5/cyfitter_cfg.c **** 			{0x57u, 0x08u},
ARM GAS  C:\Users\HPz420\AppData\Local\Temp\ccAlG7g9.s 			page 30


1073:Generated_Source\PSoC5/cyfitter_cfg.c **** 			{0x5Bu, 0x04u},
1074:Generated_Source\PSoC5/cyfitter_cfg.c **** 			{0x5Fu, 0x04u},
1075:Generated_Source\PSoC5/cyfitter_cfg.c **** 			{0x66u, 0x08u},
1076:Generated_Source\PSoC5/cyfitter_cfg.c **** 			{0x6Fu, 0x20u},
1077:Generated_Source\PSoC5/cyfitter_cfg.c **** 			{0x79u, 0x01u},
1078:Generated_Source\PSoC5/cyfitter_cfg.c **** 			{0x7Du, 0x04u},
1079:Generated_Source\PSoC5/cyfitter_cfg.c **** 			{0x81u, 0x02u},
1080:Generated_Source\PSoC5/cyfitter_cfg.c **** 			{0x83u, 0x08u},
1081:Generated_Source\PSoC5/cyfitter_cfg.c **** 			{0x87u, 0x06u},
1082:Generated_Source\PSoC5/cyfitter_cfg.c **** 			{0x8Au, 0x01u},
1083:Generated_Source\PSoC5/cyfitter_cfg.c **** 			{0x8Du, 0x42u},
1084:Generated_Source\PSoC5/cyfitter_cfg.c **** 			{0x91u, 0x05u},
1085:Generated_Source\PSoC5/cyfitter_cfg.c **** 			{0xA3u, 0x20u},
1086:Generated_Source\PSoC5/cyfitter_cfg.c **** 			{0xA8u, 0x04u},
1087:Generated_Source\PSoC5/cyfitter_cfg.c **** 			{0xABu, 0x20u},
1088:Generated_Source\PSoC5/cyfitter_cfg.c **** 			{0xACu, 0x08u},
1089:Generated_Source\PSoC5/cyfitter_cfg.c **** 			{0xAFu, 0x42u},
1090:Generated_Source\PSoC5/cyfitter_cfg.c **** 			{0xB3u, 0x10u},
1091:Generated_Source\PSoC5/cyfitter_cfg.c **** 			{0xB6u, 0x20u},
1092:Generated_Source\PSoC5/cyfitter_cfg.c **** 			{0xC0u, 0x03u},
1093:Generated_Source\PSoC5/cyfitter_cfg.c **** 			{0xC2u, 0x07u},
1094:Generated_Source\PSoC5/cyfitter_cfg.c **** 			{0xC4u, 0x0Eu},
1095:Generated_Source\PSoC5/cyfitter_cfg.c **** 			{0xD4u, 0x03u},
1096:Generated_Source\PSoC5/cyfitter_cfg.c **** 			{0xD6u, 0x03u},
1097:Generated_Source\PSoC5/cyfitter_cfg.c **** 			{0xD8u, 0x01u},
1098:Generated_Source\PSoC5/cyfitter_cfg.c **** 			{0xDAu, 0x01u},
1099:Generated_Source\PSoC5/cyfitter_cfg.c **** 			{0xDEu, 0x03u},
1100:Generated_Source\PSoC5/cyfitter_cfg.c **** 			{0xE2u, 0x02u},
1101:Generated_Source\PSoC5/cyfitter_cfg.c **** 			{0xE4u, 0x08u},
1102:Generated_Source\PSoC5/cyfitter_cfg.c **** 			{0xE6u, 0x01u},
1103:Generated_Source\PSoC5/cyfitter_cfg.c **** 			{0xE8u, 0x04u},
1104:Generated_Source\PSoC5/cyfitter_cfg.c **** 			{0xEEu, 0x02u},
1105:Generated_Source\PSoC5/cyfitter_cfg.c **** 			{0x02u, 0x40u},
1106:Generated_Source\PSoC5/cyfitter_cfg.c **** 			{0x0Bu, 0x28u},
1107:Generated_Source\PSoC5/cyfitter_cfg.c **** 			{0x0Cu, 0x08u},
1108:Generated_Source\PSoC5/cyfitter_cfg.c **** 			{0x0Fu, 0x08u},
1109:Generated_Source\PSoC5/cyfitter_cfg.c **** 			{0x12u, 0x80u},
1110:Generated_Source\PSoC5/cyfitter_cfg.c **** 			{0x14u, 0x10u},
1111:Generated_Source\PSoC5/cyfitter_cfg.c **** 			{0x56u, 0x20u},
1112:Generated_Source\PSoC5/cyfitter_cfg.c **** 			{0x59u, 0x02u},
1113:Generated_Source\PSoC5/cyfitter_cfg.c **** 			{0x5Fu, 0x08u},
1114:Generated_Source\PSoC5/cyfitter_cfg.c **** 			{0x63u, 0x20u},
1115:Generated_Source\PSoC5/cyfitter_cfg.c **** 			{0x66u, 0x01u},
1116:Generated_Source\PSoC5/cyfitter_cfg.c **** 			{0x6Fu, 0x02u},
1117:Generated_Source\PSoC5/cyfitter_cfg.c **** 			{0x76u, 0x10u},
1118:Generated_Source\PSoC5/cyfitter_cfg.c **** 			{0x78u, 0x40u},
1119:Generated_Source\PSoC5/cyfitter_cfg.c **** 			{0x80u, 0x08u},
1120:Generated_Source\PSoC5/cyfitter_cfg.c **** 			{0x83u, 0x08u},
1121:Generated_Source\PSoC5/cyfitter_cfg.c **** 			{0x86u, 0x20u},
1122:Generated_Source\PSoC5/cyfitter_cfg.c **** 			{0x87u, 0x14u},
1123:Generated_Source\PSoC5/cyfitter_cfg.c **** 			{0x88u, 0x10u},
1124:Generated_Source\PSoC5/cyfitter_cfg.c **** 			{0x8Eu, 0x80u},
1125:Generated_Source\PSoC5/cyfitter_cfg.c **** 			{0x98u, 0x40u},
1126:Generated_Source\PSoC5/cyfitter_cfg.c **** 			{0x99u, 0x02u},
1127:Generated_Source\PSoC5/cyfitter_cfg.c **** 			{0x9Au, 0x11u},
1128:Generated_Source\PSoC5/cyfitter_cfg.c **** 			{0x9Eu, 0x40u},
1129:Generated_Source\PSoC5/cyfitter_cfg.c **** 			{0xA3u, 0x12u},
ARM GAS  C:\Users\HPz420\AppData\Local\Temp\ccAlG7g9.s 			page 31


1130:Generated_Source\PSoC5/cyfitter_cfg.c **** 			{0xA7u, 0x04u},
1131:Generated_Source\PSoC5/cyfitter_cfg.c **** 			{0xAAu, 0x01u},
1132:Generated_Source\PSoC5/cyfitter_cfg.c **** 			{0xABu, 0x34u},
1133:Generated_Source\PSoC5/cyfitter_cfg.c **** 			{0xADu, 0x90u},
1134:Generated_Source\PSoC5/cyfitter_cfg.c **** 			{0xAEu, 0x18u},
1135:Generated_Source\PSoC5/cyfitter_cfg.c **** 			{0xB2u, 0x40u},
1136:Generated_Source\PSoC5/cyfitter_cfg.c **** 			{0xB7u, 0x04u},
1137:Generated_Source\PSoC5/cyfitter_cfg.c **** 			{0xC0u, 0x08u},
1138:Generated_Source\PSoC5/cyfitter_cfg.c **** 			{0xC2u, 0x0Fu},
1139:Generated_Source\PSoC5/cyfitter_cfg.c **** 			{0xC4u, 0x0Cu},
1140:Generated_Source\PSoC5/cyfitter_cfg.c **** 			{0xD4u, 0x02u},
1141:Generated_Source\PSoC5/cyfitter_cfg.c **** 			{0xD6u, 0x03u},
1142:Generated_Source\PSoC5/cyfitter_cfg.c **** 			{0xD8u, 0x03u},
1143:Generated_Source\PSoC5/cyfitter_cfg.c **** 			{0xDAu, 0x01u},
1144:Generated_Source\PSoC5/cyfitter_cfg.c **** 			{0xDCu, 0x01u},
1145:Generated_Source\PSoC5/cyfitter_cfg.c **** 			{0xDEu, 0x04u},
1146:Generated_Source\PSoC5/cyfitter_cfg.c **** 			{0xE2u, 0x06u},
1147:Generated_Source\PSoC5/cyfitter_cfg.c **** 			{0xECu, 0x08u},
1148:Generated_Source\PSoC5/cyfitter_cfg.c **** 			{0xEEu, 0x01u},
1149:Generated_Source\PSoC5/cyfitter_cfg.c **** 			{0x01u, 0x01u},
1150:Generated_Source\PSoC5/cyfitter_cfg.c **** 			{0x0Fu, 0x01u},
1151:Generated_Source\PSoC5/cyfitter_cfg.c **** 			{0x00u, 0x2Au},
1152:Generated_Source\PSoC5/cyfitter_cfg.c **** 			{0x03u, 0xC0u},
1153:Generated_Source\PSoC5/cyfitter_cfg.c **** 		};
1154:Generated_Source\PSoC5/cyfitter_cfg.c **** 
1155:Generated_Source\PSoC5/cyfitter_cfg.c **** 
1156:Generated_Source\PSoC5/cyfitter_cfg.c **** 
1157:Generated_Source\PSoC5/cyfitter_cfg.c **** 		CYPACKED typedef struct {
1158:Generated_Source\PSoC5/cyfitter_cfg.c **** 			void CYFAR *address;
1159:Generated_Source\PSoC5/cyfitter_cfg.c **** 			uint16 size;
1160:Generated_Source\PSoC5/cyfitter_cfg.c **** 		} CYPACKED_ATTR cfg_memset_t;
1161:Generated_Source\PSoC5/cyfitter_cfg.c **** 
1162:Generated_Source\PSoC5/cyfitter_cfg.c **** 
1163:Generated_Source\PSoC5/cyfitter_cfg.c **** 		CYPACKED typedef struct {
1164:Generated_Source\PSoC5/cyfitter_cfg.c **** 			void CYFAR *dest;
1165:Generated_Source\PSoC5/cyfitter_cfg.c **** 			const void CYCODE *src;
1166:Generated_Source\PSoC5/cyfitter_cfg.c **** 			uint16 size;
1167:Generated_Source\PSoC5/cyfitter_cfg.c **** 		} CYPACKED_ATTR cfg_memcpy_t;
1168:Generated_Source\PSoC5/cyfitter_cfg.c **** 
1169:Generated_Source\PSoC5/cyfitter_cfg.c **** 		static const cfg_memset_t CYCODE cfg_memset_list[] = {
1170:Generated_Source\PSoC5/cyfitter_cfg.c **** 			/* address, size */
1171:Generated_Source\PSoC5/cyfitter_cfg.c **** 			{(void CYFAR *)(CYREG_I2C_XCFG), 25u},
1172:Generated_Source\PSoC5/cyfitter_cfg.c **** 			{(void CYFAR *)(CYDEV_UCFG_B0_P0_U0_BASE), 4096u},
1173:Generated_Source\PSoC5/cyfitter_cfg.c **** 			{(void CYFAR *)(CYDEV_UCFG_B1_P2_U0_BASE), 2048u},
1174:Generated_Source\PSoC5/cyfitter_cfg.c **** 			{(void CYFAR *)(CYDEV_UCFG_DSI0_BASE), 2560u},
1175:Generated_Source\PSoC5/cyfitter_cfg.c **** 			{(void CYFAR *)(CYDEV_UCFG_DSI12_BASE), 512u},
1176:Generated_Source\PSoC5/cyfitter_cfg.c **** 			{(void CYFAR *)(CYREG_BCTL0_MDCLK_EN), 32u},
1177:Generated_Source\PSoC5/cyfitter_cfg.c **** 		};
1178:Generated_Source\PSoC5/cyfitter_cfg.c **** 
1179:Generated_Source\PSoC5/cyfitter_cfg.c **** 		/* IOPORT_4 Address: CYDEV_PRTDSI_PRT4_BASE Size (bytes): 7 */
1180:Generated_Source\PSoC5/cyfitter_cfg.c **** 		static const uint8 CYCODE BS_IOPORT_4_VAL[] = {
1181:Generated_Source\PSoC5/cyfitter_cfg.c **** 			0x35u, 0x1Cu, 0x3Du, 0x3Du, 0x00u, 0x00u, 0x00u};
1182:Generated_Source\PSoC5/cyfitter_cfg.c **** 
1183:Generated_Source\PSoC5/cyfitter_cfg.c **** 		/* IOPORT_6 Address: CYDEV_PRTDSI_PRT6_BASE Size (bytes): 7 */
1184:Generated_Source\PSoC5/cyfitter_cfg.c **** 		static const uint8 CYCODE BS_IOPORT_6_VAL[] = {
1185:Generated_Source\PSoC5/cyfitter_cfg.c **** 			0x32u, 0xA2u, 0xF2u, 0xF0u, 0x00u, 0x00u, 0x00u};
1186:Generated_Source\PSoC5/cyfitter_cfg.c **** 
ARM GAS  C:\Users\HPz420\AppData\Local\Temp\ccAlG7g9.s 			page 32


1187:Generated_Source\PSoC5/cyfitter_cfg.c **** 		/* IOPORT_8 Address: CYDEV_PRTDSI_PRT15_BASE Size (bytes): 7 */
1188:Generated_Source\PSoC5/cyfitter_cfg.c **** 		static const uint8 CYCODE BS_IOPORT_8_VAL[] = {
1189:Generated_Source\PSoC5/cyfitter_cfg.c **** 			0x06u, 0x0Cu, 0x00u, 0x0Fu, 0x40u, 0x00u, 0x00u};
1190:Generated_Source\PSoC5/cyfitter_cfg.c **** 
1191:Generated_Source\PSoC5/cyfitter_cfg.c **** 		static const cfg_memcpy_t CYCODE cfg_memcpy_list [] = {
1192:Generated_Source\PSoC5/cyfitter_cfg.c **** 			/* dest, src, size */
1193:Generated_Source\PSoC5/cyfitter_cfg.c **** 			{(void CYFAR *)(CYDEV_PRTDSI_PRT4_BASE), BS_IOPORT_4_VAL, 7u},
1194:Generated_Source\PSoC5/cyfitter_cfg.c **** 			{(void CYFAR *)(CYDEV_PRTDSI_PRT6_BASE), BS_IOPORT_6_VAL, 7u},
1195:Generated_Source\PSoC5/cyfitter_cfg.c **** 			{(void CYFAR *)(CYDEV_PRTDSI_PRT15_BASE), BS_IOPORT_8_VAL, 7u},
1196:Generated_Source\PSoC5/cyfitter_cfg.c **** 		};
1197:Generated_Source\PSoC5/cyfitter_cfg.c **** 
1198:Generated_Source\PSoC5/cyfitter_cfg.c **** 		uint8 CYDATA i;
1199:Generated_Source\PSoC5/cyfitter_cfg.c **** 
1200:Generated_Source\PSoC5/cyfitter_cfg.c **** 		/* Zero out critical memory blocks before beginning configuration */
1201:Generated_Source\PSoC5/cyfitter_cfg.c **** 		for (i = 0u; i < (sizeof(cfg_memset_list)/sizeof(cfg_memset_list[0])); i++)
 576              		.loc 1 1201 0
 577 0018 0023     		movs	r3, #0
 578 001a FB75     		strb	r3, [r7, #23]
 579 001c 13E0     		b	.L27
 580              	.L28:
 581              	.LBB4:
1202:Generated_Source\PSoC5/cyfitter_cfg.c **** 		{
1203:Generated_Source\PSoC5/cyfitter_cfg.c **** 			const cfg_memset_t CYCODE * CYDATA ms = &cfg_memset_list[i];
 582              		.loc 1 1203 0 discriminator 3
 583 001e FA7D     		ldrb	r2, [r7, #23]	@ zero_extendqisi2
 584 0020 1346     		mov	r3, r2
 585 0022 5B00     		lsls	r3, r3, #1
 586 0024 1344     		add	r3, r3, r2
 587 0026 5B00     		lsls	r3, r3, #1
 588 0028 4D4A     		ldr	r2, .L31+4
 589 002a 1344     		add	r3, r3, r2
 590 002c 3B61     		str	r3, [r7, #16]
1204:Generated_Source\PSoC5/cyfitter_cfg.c **** 			CYMEMZERO(ms->address, (size_t)(uint32)(ms->size));
 591              		.loc 1 1204 0 discriminator 3
 592 002e 3B69     		ldr	r3, [r7, #16]
 593 0030 1A68     		ldr	r2, [r3]	@ unaligned
 594 0032 3B69     		ldr	r3, [r7, #16]
 595 0034 9B88     		ldrh	r3, [r3, #4]	@ unaligned
 596 0036 9BB2     		uxth	r3, r3
 597 0038 1946     		mov	r1, r3
 598 003a 1046     		mov	r0, r2
 599 003c FFF7FEFF 		bl	CYMEMZERO
 600              	.LBE4:
1201:Generated_Source\PSoC5/cyfitter_cfg.c **** 		{
 601              		.loc 1 1201 0 discriminator 3
 602 0040 FB7D     		ldrb	r3, [r7, #23]	@ zero_extendqisi2
 603 0042 0133     		adds	r3, r3, #1
 604 0044 FB75     		strb	r3, [r7, #23]
 605              	.L27:
1201:Generated_Source\PSoC5/cyfitter_cfg.c **** 		{
 606              		.loc 1 1201 0 is_stmt 0 discriminator 1
 607 0046 FB7D     		ldrb	r3, [r7, #23]	@ zero_extendqisi2
 608 0048 052B     		cmp	r3, #5
 609 004a E8D9     		bls	.L28
1205:Generated_Source\PSoC5/cyfitter_cfg.c **** 		}
1206:Generated_Source\PSoC5/cyfitter_cfg.c **** 
1207:Generated_Source\PSoC5/cyfitter_cfg.c **** 		/* Copy device configuration data into registers */
ARM GAS  C:\Users\HPz420\AppData\Local\Temp\ccAlG7g9.s 			page 33


1208:Generated_Source\PSoC5/cyfitter_cfg.c **** 		for (i = 0u; i < (sizeof(cfg_memcpy_list)/sizeof(cfg_memcpy_list[0])); i++)
 610              		.loc 1 1208 0 is_stmt 1
 611 004c 0023     		movs	r3, #0
 612 004e FB75     		strb	r3, [r7, #23]
 613 0050 1CE0     		b	.L29
 614              	.L30:
 615              	.LBB5:
1209:Generated_Source\PSoC5/cyfitter_cfg.c **** 		{
1210:Generated_Source\PSoC5/cyfitter_cfg.c **** 			const cfg_memcpy_t CYCODE * CYDATA mc = &cfg_memcpy_list[i];
 616              		.loc 1 1210 0 discriminator 3
 617 0052 FA7D     		ldrb	r2, [r7, #23]	@ zero_extendqisi2
 618 0054 1346     		mov	r3, r2
 619 0056 9B00     		lsls	r3, r3, #2
 620 0058 1344     		add	r3, r3, r2
 621 005a 5B00     		lsls	r3, r3, #1
 622 005c 414A     		ldr	r2, .L31+8
 623 005e 1344     		add	r3, r3, r2
 624 0060 FB60     		str	r3, [r7, #12]
1211:Generated_Source\PSoC5/cyfitter_cfg.c **** 			void * CYDATA destPtr = mc->dest;
 625              		.loc 1 1211 0 discriminator 3
 626 0062 FB68     		ldr	r3, [r7, #12]
 627 0064 1B68     		ldr	r3, [r3]	@ unaligned
 628 0066 BB60     		str	r3, [r7, #8]
1212:Generated_Source\PSoC5/cyfitter_cfg.c **** 			const void CYCODE * CYDATA srcPtr = mc->src;
 629              		.loc 1 1212 0 discriminator 3
 630 0068 FB68     		ldr	r3, [r7, #12]
 631 006a 5B68     		ldr	r3, [r3, #4]	@ unaligned
 632 006c 7B60     		str	r3, [r7, #4]
1213:Generated_Source\PSoC5/cyfitter_cfg.c **** 			uint16 CYDATA numBytes = mc->size;
 633              		.loc 1 1213 0 discriminator 3
 634 006e FB68     		ldr	r3, [r7, #12]
 635 0070 1A7A     		ldrb	r2, [r3, #8]	@ zero_extendqisi2
 636 0072 5B7A     		ldrb	r3, [r3, #9]	@ zero_extendqisi2
 637 0074 1B02     		lsls	r3, r3, #8
 638 0076 1343     		orrs	r3, r3, r2
 639 0078 7B80     		strh	r3, [r7, #2]	@ movhi
1214:Generated_Source\PSoC5/cyfitter_cfg.c **** 			CYCONFIGCPYCODE(destPtr, srcPtr, numBytes);
 640              		.loc 1 1214 0 discriminator 3
 641 007a 7B88     		ldrh	r3, [r7, #2]
 642 007c 1A46     		mov	r2, r3
 643 007e 7968     		ldr	r1, [r7, #4]
 644 0080 B868     		ldr	r0, [r7, #8]
 645 0082 FFF7FEFF 		bl	CYCONFIGCPYCODE
 646              	.LBE5:
1208:Generated_Source\PSoC5/cyfitter_cfg.c **** 		{
 647              		.loc 1 1208 0 discriminator 3
 648 0086 FB7D     		ldrb	r3, [r7, #23]	@ zero_extendqisi2
 649 0088 0133     		adds	r3, r3, #1
 650 008a FB75     		strb	r3, [r7, #23]
 651              	.L29:
1208:Generated_Source\PSoC5/cyfitter_cfg.c **** 		{
 652              		.loc 1 1208 0 is_stmt 0 discriminator 1
 653 008c FB7D     		ldrb	r3, [r7, #23]	@ zero_extendqisi2
 654 008e 022B     		cmp	r3, #2
 655 0090 DFD9     		bls	.L30
1215:Generated_Source\PSoC5/cyfitter_cfg.c **** 		}
1216:Generated_Source\PSoC5/cyfitter_cfg.c **** 
ARM GAS  C:\Users\HPz420\AppData\Local\Temp\ccAlG7g9.s 			page 34


1217:Generated_Source\PSoC5/cyfitter_cfg.c **** 		cfg_write_bytes32(cy_cfg_addr_table, cy_cfg_data_table);
 656              		.loc 1 1217 0 is_stmt 1
 657 0092 3549     		ldr	r1, .L31+12
 658 0094 3548     		ldr	r0, .L31+16
 659 0096 FFF7FEFF 		bl	cfg_write_bytes32
1218:Generated_Source\PSoC5/cyfitter_cfg.c **** 
1219:Generated_Source\PSoC5/cyfitter_cfg.c **** 		/* Enable digital routing */
1220:Generated_Source\PSoC5/cyfitter_cfg.c **** 		CY_SET_XTND_REG8((void CYFAR *)CYREG_BCTL0_BANK_CTL, CY_GET_XTND_REG8((void CYFAR *)CYREG_BCTL0_B
 660              		.loc 1 1220 0
 661 009a 354A     		ldr	r2, .L31+20
 662 009c 344B     		ldr	r3, .L31+20
 663 009e 1B78     		ldrb	r3, [r3]
 664 00a0 DBB2     		uxtb	r3, r3
 665 00a2 43F00203 		orr	r3, r3, #2
 666 00a6 DBB2     		uxtb	r3, r3
 667 00a8 1370     		strb	r3, [r2]
1221:Generated_Source\PSoC5/cyfitter_cfg.c **** 		CY_SET_XTND_REG8((void CYFAR *)CYREG_BCTL1_BANK_CTL, CY_GET_XTND_REG8((void CYFAR *)CYREG_BCTL1_B
 668              		.loc 1 1221 0
 669 00aa 324A     		ldr	r2, .L31+24
 670 00ac 314B     		ldr	r3, .L31+24
 671 00ae 1B78     		ldrb	r3, [r3]
 672 00b0 DBB2     		uxtb	r3, r3
 673 00b2 43F00203 		orr	r3, r3, #2
 674 00b6 DBB2     		uxtb	r3, r3
 675 00b8 1370     		strb	r3, [r2]
1222:Generated_Source\PSoC5/cyfitter_cfg.c **** 
1223:Generated_Source\PSoC5/cyfitter_cfg.c **** 		/* Enable UDB array */
1224:Generated_Source\PSoC5/cyfitter_cfg.c **** 		CY_SET_XTND_REG8((void CYFAR *)CYREG_PM_ACT_CFG0, CY_GET_XTND_REG8((void CYFAR *)CYREG_PM_ACT_CFG
 676              		.loc 1 1224 0
 677 00ba 2F4A     		ldr	r2, .L31+28
 678 00bc 2E4B     		ldr	r3, .L31+28
 679 00be 1B78     		ldrb	r3, [r3]
 680 00c0 DBB2     		uxtb	r3, r3
 681 00c2 43F04003 		orr	r3, r3, #64
 682 00c6 DBB2     		uxtb	r3, r3
 683 00c8 1370     		strb	r3, [r2]
1225:Generated_Source\PSoC5/cyfitter_cfg.c **** 		CY_SET_XTND_REG8((void CYFAR *)CYREG_PM_AVAIL_CR2, CY_GET_XTND_REG8((void CYFAR *)CYREG_PM_AVAIL_
 684              		.loc 1 1225 0
 685 00ca 2C4A     		ldr	r2, .L31+32
 686 00cc 2B4B     		ldr	r3, .L31+32
 687 00ce 1B78     		ldrb	r3, [r3]
 688 00d0 DBB2     		uxtb	r3, r3
 689 00d2 43F01003 		orr	r3, r3, #16
 690 00d6 DBB2     		uxtb	r3, r3
 691 00d8 1370     		strb	r3, [r2]
 692              	.LBE3:
1226:Generated_Source\PSoC5/cyfitter_cfg.c **** 	}
1227:Generated_Source\PSoC5/cyfitter_cfg.c **** 
1228:Generated_Source\PSoC5/cyfitter_cfg.c **** 
1229:Generated_Source\PSoC5/cyfitter_cfg.c **** 	/* Perform second pass device configuration. These items must be configured in specific order afte
1230:Generated_Source\PSoC5/cyfitter_cfg.c **** 	CYCONFIGCPYCODE((void CYFAR *)(CYREG_PRT0_DM0), (const void CYCODE *)(BS_IOPINS0_0_VAL), 8u);
 693              		.loc 1 1230 0
 694 00da 0822     		movs	r2, #8
 695 00dc 2849     		ldr	r1, .L31+36
 696 00de 2948     		ldr	r0, .L31+40
 697 00e0 FFF7FEFF 		bl	CYCONFIGCPYCODE
1231:Generated_Source\PSoC5/cyfitter_cfg.c **** 	CYCONFIGCPYCODE((void CYFAR *)(CYREG_PRT12_DR), (const void CYCODE *)(BS_IOPINS0_7_VAL), 10u);
ARM GAS  C:\Users\HPz420\AppData\Local\Temp\ccAlG7g9.s 			page 35


 698              		.loc 1 1231 0
 699 00e4 0A22     		movs	r2, #10
 700 00e6 2849     		ldr	r1, .L31+44
 701 00e8 2848     		ldr	r0, .L31+48
 702 00ea FFF7FEFF 		bl	CYCONFIGCPYCODE
1232:Generated_Source\PSoC5/cyfitter_cfg.c **** 	CYCONFIGCPYCODE((void CYFAR *)(CYREG_PRT15_DR), (const void CYCODE *)(BS_IOPINS0_8_VAL), 10u);
 703              		.loc 1 1232 0
 704 00ee 0A22     		movs	r2, #10
 705 00f0 2749     		ldr	r1, .L31+52
 706 00f2 2848     		ldr	r0, .L31+56
 707 00f4 FFF7FEFF 		bl	CYCONFIGCPYCODE
1233:Generated_Source\PSoC5/cyfitter_cfg.c **** 	CYCONFIGCPYCODE((void CYFAR *)(CYREG_PRT1_DM0), (const void CYCODE *)(BS_IOPINS0_1_VAL), 8u);
 708              		.loc 1 1233 0
 709 00f8 0822     		movs	r2, #8
 710 00fa 2749     		ldr	r1, .L31+60
 711 00fc 2748     		ldr	r0, .L31+64
 712 00fe FFF7FEFF 		bl	CYCONFIGCPYCODE
1234:Generated_Source\PSoC5/cyfitter_cfg.c **** 	CYCONFIGCPYCODE((void CYFAR *)(CYREG_PRT2_DM0), (const void CYCODE *)(BS_IOPINS0_2_VAL), 8u);
 713              		.loc 1 1234 0
 714 0102 0822     		movs	r2, #8
 715 0104 2649     		ldr	r1, .L31+68
 716 0106 2748     		ldr	r0, .L31+72
 717 0108 FFF7FEFF 		bl	CYCONFIGCPYCODE
1235:Generated_Source\PSoC5/cyfitter_cfg.c **** 	CYCONFIGCPYCODE((void CYFAR *)(CYREG_PRT3_DM0), (const void CYCODE *)(BS_IOPINS0_3_VAL), 8u);
 718              		.loc 1 1235 0
 719 010c 0822     		movs	r2, #8
 720 010e 2649     		ldr	r1, .L31+76
 721 0110 2648     		ldr	r0, .L31+80
 722 0112 FFF7FEFF 		bl	CYCONFIGCPYCODE
1236:Generated_Source\PSoC5/cyfitter_cfg.c **** 	CYCONFIGCPYCODE((void CYFAR *)(CYREG_PRT4_DM0), (const void CYCODE *)(BS_IOPINS0_4_VAL), 8u);
 723              		.loc 1 1236 0
 724 0116 0822     		movs	r2, #8
 725 0118 2549     		ldr	r1, .L31+84
 726 011a 2648     		ldr	r0, .L31+88
 727 011c FFF7FEFF 		bl	CYCONFIGCPYCODE
1237:Generated_Source\PSoC5/cyfitter_cfg.c **** 	CYCONFIGCPYCODE((void CYFAR *)(CYREG_PRT5_DM0), (const void CYCODE *)(BS_IOPINS0_5_VAL), 8u);
 728              		.loc 1 1237 0
 729 0120 0822     		movs	r2, #8
 730 0122 2549     		ldr	r1, .L31+92
 731 0124 2548     		ldr	r0, .L31+96
 732 0126 FFF7FEFF 		bl	CYCONFIGCPYCODE
1238:Generated_Source\PSoC5/cyfitter_cfg.c **** 	CYCONFIGCPYCODE((void CYFAR *)(CYREG_PRT6_DM0), (const void CYCODE *)(BS_IOPINS0_6_VAL), 8u);
 733              		.loc 1 1238 0
 734 012a 0822     		movs	r2, #8
 735 012c 2449     		ldr	r1, .L31+100
 736 012e 2548     		ldr	r0, .L31+104
 737 0130 FFF7FEFF 		bl	CYCONFIGCPYCODE
1239:Generated_Source\PSoC5/cyfitter_cfg.c **** 	/* Switch Boost to the precision bandgap reference from its internal reference */
1240:Generated_Source\PSoC5/cyfitter_cfg.c **** 	CY_SET_REG8((void CYXDATA *)CYREG_BOOST_CR2, (CY_GET_REG8((void CYXDATA *)CYREG_BOOST_CR2) | 0x08u
 738              		.loc 1 1240 0
 739 0134 244A     		ldr	r2, .L31+108
 740 0136 244B     		ldr	r3, .L31+108
 741 0138 1B78     		ldrb	r3, [r3]
 742 013a DBB2     		uxtb	r3, r3
 743 013c 43F00803 		orr	r3, r3, #8
 744 0140 DBB2     		uxtb	r3, r3
 745 0142 1370     		strb	r3, [r2]
ARM GAS  C:\Users\HPz420\AppData\Local\Temp\ccAlG7g9.s 			page 36


1241:Generated_Source\PSoC5/cyfitter_cfg.c **** 
1242:Generated_Source\PSoC5/cyfitter_cfg.c **** 	/* Perform basic analog initialization to defaults */
1243:Generated_Source\PSoC5/cyfitter_cfg.c **** 	AnalogSetDefault();
 746              		.loc 1 1243 0
 747 0144 FFF7FEFF 		bl	AnalogSetDefault
1244:Generated_Source\PSoC5/cyfitter_cfg.c **** 
1245:Generated_Source\PSoC5/cyfitter_cfg.c **** 	/* Configure alternate active mode */
1246:Generated_Source\PSoC5/cyfitter_cfg.c **** 	CYCONFIGCPY((void CYFAR *)CYDEV_PM_STBY_BASE, (const void CYFAR *)CYDEV_PM_ACT_BASE, 14u);
 748              		.loc 1 1246 0
 749 0148 0E22     		movs	r2, #14
 750 014a 0B49     		ldr	r1, .L31+28
 751 014c 1F48     		ldr	r0, .L31+112
 752 014e FFF7FEFF 		bl	CYCONFIGCPY
1247:Generated_Source\PSoC5/cyfitter_cfg.c **** }
 753              		.loc 1 1247 0
 754 0152 00BF     		nop
 755 0154 1837     		adds	r7, r7, #24
 756              		.cfi_def_cfa_offset 8
 757 0156 BD46     		mov	sp, r7
 758              		.cfi_def_cfa_register 13
 759              		@ sp needed
 760 0158 80BD     		pop	{r7, pc}
 761              	.L32:
 762 015a 00BF     		.align	2
 763              	.L31:
 764 015c 00480040 		.word	1073760256
 765 0160 04000000 		.word	cfg_memset_list.5052
 766 0164 28000000 		.word	cfg_memcpy_list.5056
 767 0168 D0000000 		.word	cy_cfg_data_table.5042
 768 016c 48000000 		.word	cy_cfg_addr_table.5041
 769 0170 03500140 		.word	1073827843
 770 0174 13500140 		.word	1073827859
 771 0178 A0430040 		.word	1073759136
 772 017c C2430040 		.word	1073759170
 773 0180 70060000 		.word	BS_IOPINS0_0_VAL.5032
 774 0184 02510040 		.word	1073762562
 775 0188 78060000 		.word	BS_IOPINS0_7_VAL.5033
 776 018c C0510040 		.word	1073762752
 777 0190 84060000 		.word	BS_IOPINS0_8_VAL.5034
 778 0194 F0510040 		.word	1073762800
 779 0198 90060000 		.word	BS_IOPINS0_1_VAL.5035
 780 019c 12510040 		.word	1073762578
 781 01a0 98060000 		.word	BS_IOPINS0_2_VAL.5036
 782 01a4 22510040 		.word	1073762594
 783 01a8 A0060000 		.word	BS_IOPINS0_3_VAL.5037
 784 01ac 32510040 		.word	1073762610
 785 01b0 A8060000 		.word	BS_IOPINS0_4_VAL.5038
 786 01b4 42510040 		.word	1073762626
 787 01b8 B0060000 		.word	BS_IOPINS0_5_VAL.5039
 788 01bc 52510040 		.word	1073762642
 789 01c0 B8060000 		.word	BS_IOPINS0_6_VAL.5040
 790 01c4 62510040 		.word	1073762658
 791 01c8 22430040 		.word	1073759010
 792 01cc B0430040 		.word	1073759152
 793              		.cfi_endproc
 794              	.LFE8:
 795              		.size	cyfitter_cfg, .-cyfitter_cfg
ARM GAS  C:\Users\HPz420\AppData\Local\Temp\ccAlG7g9.s 			page 37


 796              		.section	.rodata
 797              		.align	2
 798              		.type	BS_CYDEV_CLKDIST_ACFG0_CFG0_VAL.5013, %object
 799              		.size	BS_CYDEV_CLKDIST_ACFG0_CFG0_VAL.5013, 4
 800              	BS_CYDEV_CLKDIST_ACFG0_CFG0_VAL.5013:
 801 0000 05       		.byte	5
 802 0001 00       		.byte	0
 803 0002 14       		.byte	20
 804 0003 01       		.byte	1
 805              		.align	2
 806              		.type	cfg_memset_list.5052, %object
 807              		.size	cfg_memset_list.5052, 36
 808              	cfg_memset_list.5052:
 809 0004 C8490040 		.word	1073760712
 810 0008 1900     		.short	25
 811 000a 00000140 		.4byte	1073807360
 812 000e 0010     		.short	4096
 813 0010 00140140 		.word	1073812480
 814 0014 0008     		.short	2048
 815 0016 00400140 		.4byte	1073823744
 816 001a 000A     		.short	2560
 817 001c 004C0140 		.word	1073826816
 818 0020 0002     		.short	512
 819 0022 00500140 		.4byte	1073827840
 820 0026 2000     		.short	32
 821              		.align	2
 822              		.type	cfg_memcpy_list.5056, %object
 823              		.size	cfg_memcpy_list.5056, 30
 824              	cfg_memcpy_list.5056:
 825 0028 20520040 		.word	1073762848
 826 002c D0060000 		.word	BS_IOPORT_4_VAL.5053
 827 0030 0700     		.short	7
 828 0032 30520040 		.4byte	1073762864
 829 0036 C8060000 		.4byte	BS_IOPORT_6_VAL.5054
 830 003a 0700     		.short	7
 831 003c 78520040 		.word	1073762936
 832 0040 C0060000 		.word	BS_IOPORT_8_VAL.5055
 833 0044 0700     		.short	7
 834 0046 0000     		.align	2
 835              		.type	cy_cfg_addr_table.5041, %object
 836              		.size	cy_cfg_addr_table.5041, 136
 837              	cy_cfg_addr_table.5041:
 838 0048 01450040 		.word	1073759489
 839 004c 11520040 		.word	1073762833
 840 0050 05010140 		.word	1073807621
 841 0054 04020140 		.word	1073807876
 842 0058 2B030140 		.word	1073808171
 843 005c 0E050140 		.word	1073808654
 844 0060 07070140 		.word	1073809159
 845 0064 04080140 		.word	1073809412
 846 0068 20090140 		.word	1073809696
 847 006c 110B0140 		.word	1073810193
 848 0070 0E0D0140 		.word	1073810702
 849 0074 060E0140 		.word	1073810950
 850 0078 140F0140 		.word	1073811220
 851 007c 04140140 		.word	1073812484
 852 0080 2E150140 		.word	1073812782
ARM GAS  C:\Users\HPz420\AppData\Local\Temp\ccAlG7g9.s 			page 38


 853 0084 04160140 		.word	1073812996
 854 0088 1D170140 		.word	1073813277
 855 008c 04180140 		.word	1073813508
 856 0090 22190140 		.word	1073813794
 857 0094 181B0140 		.word	1073814296
 858 0098 1A400140 		.word	1073823770
 859 009c 27410140 		.word	1073824039
 860 00a0 1B420140 		.word	1073824283
 861 00a4 0C430140 		.word	1073824524
 862 00a8 1E440140 		.word	1073824798
 863 00ac 29450140 		.word	1073825065
 864 00b0 18460140 		.word	1073825304
 865 00b4 14470140 		.word	1073825556
 866 00b8 19480140 		.word	1073825817
 867 00bc 39490140 		.word	1073826105
 868 00c0 2A4C0140 		.word	1073826858
 869 00c4 2C4D0140 		.word	1073827116
 870 00c8 02500140 		.word	1073827842
 871 00cc 02510140 		.word	1073828098
 872              		.align	2
 873              		.type	cy_cfg_data_table.5042, %object
 874              		.size	cy_cfg_data_table.5042, 1440
 875              	cy_cfg_data_table.5042:
 876 00d0 7E       		.byte	126
 877 00d1 02       		.byte	2
 878 00d2 00       		.byte	0
 879 00d3 55       		.byte	85
 880 00d4 01       		.byte	1
 881 00d5 9C       		.byte	-100
 882 00d6 02       		.byte	2
 883 00d7 FF       		.byte	-1
 884 00d8 08       		.byte	8
 885 00d9 64       		.byte	100
 886 00da 09       		.byte	9
 887 00db 48       		.byte	72
 888 00dc 0A       		.byte	10
 889 00dd EC       		.byte	-20
 890 00de 10       		.byte	16
 891 00df 3A       		.byte	58
 892 00e0 11       		.byte	17
 893 00e1 6C       		.byte	108
 894 00e2 13       		.byte	19
 895 00e3 FF       		.byte	-1
 896 00e4 18       		.byte	24
 897 00e5 35       		.byte	53
 898 00e6 19       		.byte	25
 899 00e7 AC       		.byte	-84
 900 00e8 1B       		.byte	27
 901 00e9 FF       		.byte	-1
 902 00ea 28       		.byte	40
 903 00eb A1       		.byte	-95
 904 00ec 29       		.byte	41
 905 00ed 90       		.byte	-112
 906 00ee 2A       		.byte	42
 907 00ef F1       		.byte	-15
 908 00f0 60       		.byte	96
 909 00f1 6C       		.byte	108
ARM GAS  C:\Users\HPz420\AppData\Local\Temp\ccAlG7g9.s 			page 39


 910 00f2 61       		.byte	97
 911 00f3 36       		.byte	54
 912 00f4 80       		.byte	-128
 913 00f5 08       		.byte	8
 914 00f6 82       		.byte	-126
 915 00f7 20       		.byte	32
 916 00f8 85       		.byte	-123
 917 00f9 82       		.byte	-126
 918 00fa 88       		.byte	-120
 919 00fb 40       		.byte	64
 920 00fc E6       		.byte	-26
 921 00fd 20       		.byte	32
 922 00fe 5B       		.byte	91
 923 00ff 04       		.byte	4
 924 0100 5F       		.byte	95
 925 0101 01       		.byte	1
 926 0102 DB       		.byte	-37
 927 0103 04       		.byte	4
 928 0104 DF       		.byte	-33
 929 0105 01       		.byte	1
 930 0106 58       		.byte	88
 931 0107 08       		.byte	8
 932 0108 59       		.byte	89
 933 0109 52       		.byte	82
 934 010a 5C       		.byte	92
 935 010b 04       		.byte	4
 936 010c 5E       		.byte	94
 937 010d 12       		.byte	18
 938 010e 5F       		.byte	95
 939 010f 40       		.byte	64
 940 0110 60       		.byte	96
 941 0111 02       		.byte	2
 942 0112 62       		.byte	98
 943 0113 20       		.byte	32
 944 0114 66       		.byte	102
 945 0115 22       		.byte	34
 946 0116 67       		.byte	103
 947 0117 22       		.byte	34
 948 0118 68       		.byte	104
 949 0119 40       		.byte	64
 950 011a 69       		.byte	105
 951 011b 88       		.byte	-120
 952 011c 6B       		.byte	107
 953 011d 04       		.byte	4
 954 011e 6C       		.byte	108
 955 011f 01       		.byte	1
 956 0120 6E       		.byte	110
 957 0121 20       		.byte	32
 958 0122 6F       		.byte	111
 959 0123 A0       		.byte	-96
 960 0124 71       		.byte	113
 961 0125 A0       		.byte	-96
 962 0126 74       		.byte	116
 963 0127 08       		.byte	8
 964 0128 75       		.byte	117
 965 0129 20       		.byte	32
 966 012a 76       		.byte	118
ARM GAS  C:\Users\HPz420\AppData\Local\Temp\ccAlG7g9.s 			page 40


 967 012b 81       		.byte	-127
 968 012c 81       		.byte	-127
 969 012d 20       		.byte	32
 970 012e 83       		.byte	-125
 971 012f 80       		.byte	-128
 972 0130 86       		.byte	-122
 973 0131 02       		.byte	2
 974 0132 89       		.byte	-119
 975 0133 20       		.byte	32
 976 0134 8C       		.byte	-116
 977 0135 04       		.byte	4
 978 0136 8D       		.byte	-115
 979 0137 40       		.byte	64
 980 0138 8F       		.byte	-113
 981 0139 20       		.byte	32
 982 013a 95       		.byte	-107
 983 013b 08       		.byte	8
 984 013c 98       		.byte	-104
 985 013d 0A       		.byte	10
 986 013e 99       		.byte	-103
 987 013f 52       		.byte	82
 988 0140 9F       		.byte	-97
 989 0141 04       		.byte	4
 990 0142 A2       		.byte	-94
 991 0143 20       		.byte	32
 992 0144 A4       		.byte	-92
 993 0145 40       		.byte	64
 994 0146 A5       		.byte	-91
 995 0147 80       		.byte	-128
 996 0148 AD       		.byte	-83
 997 0149 44       		.byte	68
 998 014a B0       		.byte	-80
 999 014b 02       		.byte	2
 1000 014c B5       		.byte	-75
 1001 014d 10       		.byte	16
 1002 014e B7       		.byte	-73
 1003 014f 04       		.byte	4
 1004 0150 D6       		.byte	-42
 1005 0151 FF       		.byte	-1
 1006 0152 D8       		.byte	-40
 1007 0153 FC       		.byte	-4
 1008 0154 E2       		.byte	-30
 1009 0155 40       		.byte	64
 1010 0156 E4       		.byte	-28
 1011 0157 40       		.byte	64
 1012 0158 E6       		.byte	-26
 1013 0159 90       		.byte	-112
 1014 015a E8       		.byte	-24
 1015 015b 20       		.byte	32
 1016 015c 87       		.byte	-121
 1017 015d 04       		.byte	4
 1018 015e AA       		.byte	-86
 1019 015f 11       		.byte	17
 1020 0160 AB       		.byte	-85
 1021 0161 01       		.byte	1
 1022 0162 AF       		.byte	-81
 1023 0163 40       		.byte	64
ARM GAS  C:\Users\HPz420\AppData\Local\Temp\ccAlG7g9.s 			page 41


 1024 0164 B2       		.byte	-78
 1025 0165 B0       		.byte	-80
 1026 0166 B3       		.byte	-77
 1027 0167 10       		.byte	16
 1028 0168 B4       		.byte	-76
 1029 0169 09       		.byte	9
 1030 016a B6       		.byte	-74
 1031 016b 01       		.byte	1
 1032 016c E0       		.byte	-32
 1033 016d 02       		.byte	2
 1034 016e E6       		.byte	-26
 1035 016f 09       		.byte	9
 1036 0170 E8       		.byte	-24
 1037 0171 20       		.byte	32
 1038 0172 EA       		.byte	-22
 1039 0173 C0       		.byte	-64
 1040 0174 EC       		.byte	-20
 1041 0175 80       		.byte	-128
 1042 0176 EE       		.byte	-18
 1043 0177 70       		.byte	112
 1044 0178 88       		.byte	-120
 1045 0179 01       		.byte	1
 1046 017a 97       		.byte	-105
 1047 017b 04       		.byte	4
 1048 017c 9F       		.byte	-97
 1049 017d 10       		.byte	16
 1050 017e B7       		.byte	-73
 1051 017f 10       		.byte	16
 1052 0180 E2       		.byte	-30
 1053 0181 01       		.byte	1
 1054 0182 E4       		.byte	-28
 1055 0183 20       		.byte	32
 1056 0184 EE       		.byte	-18
 1057 0185 40       		.byte	64
 1058 0186 5B       		.byte	91
 1059 0187 04       		.byte	4
 1060 0188 5F       		.byte	95
 1061 0189 01       		.byte	1
 1062 018a DB       		.byte	-37
 1063 018b 04       		.byte	4
 1064 018c DF       		.byte	-33
 1065 018d 01       		.byte	1
 1066 018e 58       		.byte	88
 1067 018f 06       		.byte	6
 1068 0190 59       		.byte	89
 1069 0191 80       		.byte	-128
 1070 0192 5B       		.byte	91
 1071 0193 10       		.byte	16
 1072 0194 5C       		.byte	92
 1073 0195 08       		.byte	8
 1074 0196 5D       		.byte	93
 1075 0197 40       		.byte	64
 1076 0198 5E       		.byte	94
 1077 0199 11       		.byte	17
 1078 019a 60       		.byte	96
 1079 019b 01       		.byte	1
 1080 019c 61       		.byte	97
ARM GAS  C:\Users\HPz420\AppData\Local\Temp\ccAlG7g9.s 			page 42


 1081 019d 28       		.byte	40
 1082 019e 63       		.byte	99
 1083 019f 80       		.byte	-128
 1084 01a0 69       		.byte	105
 1085 01a1 04       		.byte	4
 1086 01a2 6A       		.byte	106
 1087 01a3 A0       		.byte	-96
 1088 01a4 6B       		.byte	107
 1089 01a5 80       		.byte	-128
 1090 01a6 71       		.byte	113
 1091 01a7 04       		.byte	4
 1092 01a8 72       		.byte	114
 1093 01a9 02       		.byte	2
 1094 01aa 73       		.byte	115
 1095 01ab 48       		.byte	72
 1096 01ac 81       		.byte	-127
 1097 01ad 24       		.byte	36
 1098 01ae 8F       		.byte	-113
 1099 01af 40       		.byte	64
 1100 01b0 90       		.byte	-112
 1101 01b1 01       		.byte	1
 1102 01b2 91       		.byte	-111
 1103 01b3 40       		.byte	64
 1104 01b4 92       		.byte	-110
 1105 01b5 11       		.byte	17
 1106 01b6 95       		.byte	-107
 1107 01b7 04       		.byte	4
 1108 01b8 96       		.byte	-106
 1109 01b9 80       		.byte	-128
 1110 01ba 98       		.byte	-104
 1111 01bb 0E       		.byte	14
 1112 01bc 9E       		.byte	-98
 1113 01bd 02       		.byte	2
 1114 01be A1       		.byte	-95
 1115 01bf 08       		.byte	8
 1116 01c0 AD       		.byte	-83
 1117 01c1 04       		.byte	4
 1118 01c2 B5       		.byte	-75
 1119 01c3 40       		.byte	64
 1120 01c4 D6       		.byte	-42
 1121 01c5 FF       		.byte	-1
 1122 01c6 D8       		.byte	-40
 1123 01c7 0F       		.byte	15
 1124 01c8 E2       		.byte	-30
 1125 01c9 05       		.byte	5
 1126 01ca E4       		.byte	-28
 1127 01cb 01       		.byte	1
 1128 01cc EC       		.byte	-20
 1129 01cd 02       		.byte	2
 1130 01ce 82       		.byte	-126
 1131 01cf 40       		.byte	64
 1132 01d0 86       		.byte	-122
 1133 01d1 02       		.byte	2
 1134 01d2 88       		.byte	-120
 1135 01d3 08       		.byte	8
 1136 01d4 8E       		.byte	-114
 1137 01d5 10       		.byte	16
ARM GAS  C:\Users\HPz420\AppData\Local\Temp\ccAlG7g9.s 			page 43


 1138 01d6 90       		.byte	-112
 1139 01d7 01       		.byte	1
 1140 01d8 92       		.byte	-110
 1141 01d9 01       		.byte	1
 1142 01da 98       		.byte	-104
 1143 01db 06       		.byte	6
 1144 01dc A1       		.byte	-95
 1145 01dd 08       		.byte	8
 1146 01de AC       		.byte	-84
 1147 01df 04       		.byte	4
 1148 01e0 AE       		.byte	-82
 1149 01e1 04       		.byte	4
 1150 01e2 B0       		.byte	-80
 1151 01e3 06       		.byte	6
 1152 01e4 B1       		.byte	-79
 1153 01e5 08       		.byte	8
 1154 01e6 B4       		.byte	-76
 1155 01e7 01       		.byte	1
 1156 01e8 E0       		.byte	-32
 1157 01e9 02       		.byte	2
 1158 01ea E4       		.byte	-28
 1159 01eb 08       		.byte	8
 1160 01ec E8       		.byte	-24
 1161 01ed 02       		.byte	2
 1162 01ee EC       		.byte	-20
 1163 01ef 02       		.byte	2
 1164 01f0 8F       		.byte	-113
 1165 01f1 20       		.byte	32
 1166 01f2 92       		.byte	-110
 1167 01f3 05       		.byte	5
 1168 01f4 9B       		.byte	-101
 1169 01f5 20       		.byte	32
 1170 01f6 A0       		.byte	-96
 1171 01f7 04       		.byte	4
 1172 01f8 A9       		.byte	-87
 1173 01f9 01       		.byte	1
 1174 01fa AA       		.byte	-86
 1175 01fb 04       		.byte	4
 1176 01fc AB       		.byte	-85
 1177 01fd 08       		.byte	8
 1178 01fe AC       		.byte	-84
 1179 01ff 10       		.byte	16
 1180 0200 B2       		.byte	-78
 1181 0201 01       		.byte	1
 1182 0202 B3       		.byte	-77
 1183 0203 01       		.byte	1
 1184 0204 E8       		.byte	-24
 1185 0205 04       		.byte	4
 1186 0206 EA       		.byte	-22
 1187 0207 40       		.byte	64
 1188 0208 EC       		.byte	-20
 1189 0209 15       		.byte	21
 1190 020a EE       		.byte	-18
 1191 020b 02       		.byte	2
 1192 020c 56       		.byte	86
 1193 020d 08       		.byte	8
 1194 020e 5B       		.byte	91
ARM GAS  C:\Users\HPz420\AppData\Local\Temp\ccAlG7g9.s 			page 44


 1195 020f 04       		.byte	4
 1196 0210 5D       		.byte	93
 1197 0211 90       		.byte	-112
 1198 0212 5F       		.byte	95
 1199 0213 01       		.byte	1
 1200 0214 DB       		.byte	-37
 1201 0215 04       		.byte	4
 1202 0216 DF       		.byte	-33
 1203 0217 01       		.byte	1
 1204 0218 58       		.byte	88
 1205 0219 10       		.byte	16
 1206 021a 59       		.byte	89
 1207 021b 80       		.byte	-128
 1208 021c 68       		.byte	104
 1209 021d 05       		.byte	5
 1210 021e 6B       		.byte	107
 1211 021f A0       		.byte	-96
 1212 0220 6D       		.byte	109
 1213 0221 02       		.byte	2
 1214 0222 6E       		.byte	110
 1215 0223 08       		.byte	8
 1216 0224 6F       		.byte	111
 1217 0225 09       		.byte	9
 1218 0226 70       		.byte	112
 1219 0227 08       		.byte	8
 1220 0228 71       		.byte	113
 1221 0229 01       		.byte	1
 1222 022a 72       		.byte	114
 1223 022b 06       		.byte	6
 1224 022c 80       		.byte	-128
 1225 022d 08       		.byte	8
 1226 022e 81       		.byte	-127
 1227 022f 01       		.byte	1
 1228 0230 82       		.byte	-126
 1229 0231 02       		.byte	2
 1230 0232 84       		.byte	-124
 1231 0233 01       		.byte	1
 1232 0234 85       		.byte	-123
 1233 0235 80       		.byte	-128
 1234 0236 8F       		.byte	-113
 1235 0237 80       		.byte	-128
 1236 0238 D6       		.byte	-42
 1237 0239 0C       		.byte	12
 1238 023a E0       		.byte	-32
 1239 023b 01       		.byte	1
 1240 023c E2       		.byte	-30
 1241 023d 08       		.byte	8
 1242 023e E4       		.byte	-28
 1243 023f 0D       		.byte	13
 1244 0240 5B       		.byte	91
 1245 0241 04       		.byte	4
 1246 0242 5F       		.byte	95
 1247 0243 01       		.byte	1
 1248 0244 DB       		.byte	-37
 1249 0245 04       		.byte	4
 1250 0246 DF       		.byte	-33
 1251 0247 01       		.byte	1
ARM GAS  C:\Users\HPz420\AppData\Local\Temp\ccAlG7g9.s 			page 45


 1252 0248 58       		.byte	88
 1253 0249 21       		.byte	33
 1254 024a 5A       		.byte	90
 1255 024b 48       		.byte	72
 1256 024c 5C       		.byte	92
 1257 024d 80       		.byte	-128
 1258 024e 5D       		.byte	93
 1259 024f 11       		.byte	17
 1260 0250 5E       		.byte	94
 1261 0251 04       		.byte	4
 1262 0252 62       		.byte	98
 1263 0253 A0       		.byte	-96
 1264 0254 64       		.byte	100
 1265 0255 02       		.byte	2
 1266 0256 66       		.byte	102
 1267 0257 20       		.byte	32
 1268 0258 67       		.byte	103
 1269 0259 A0       		.byte	-96
 1270 025a 6C       		.byte	108
 1271 025b 04       		.byte	4
 1272 025c 6E       		.byte	110
 1273 025d 08       		.byte	8
 1274 025e 6F       		.byte	111
 1275 025f 82       		.byte	-126
 1276 0260 74       		.byte	116
 1277 0261 08       		.byte	8
 1278 0262 75       		.byte	117
 1279 0263 40       		.byte	64
 1280 0264 77       		.byte	119
 1281 0265 84       		.byte	-124
 1282 0266 80       		.byte	-128
 1283 0267 88       		.byte	-120
 1284 0268 82       		.byte	-126
 1285 0269 20       		.byte	32
 1286 026a 83       		.byte	-125
 1287 026b 80       		.byte	-128
 1288 026c 85       		.byte	-123
 1289 026d 40       		.byte	64
 1290 026e 86       		.byte	-122
 1291 026f 04       		.byte	4
 1292 0270 87       		.byte	-121
 1293 0271 50       		.byte	80
 1294 0272 89       		.byte	-119
 1295 0273 11       		.byte	17
 1296 0274 8A       		.byte	-118
 1297 0275 20       		.byte	32
 1298 0276 8B       		.byte	-117
 1299 0277 80       		.byte	-128
 1300 0278 8C       		.byte	-116
 1301 0279 02       		.byte	2
 1302 027a 8E       		.byte	-114
 1303 027b C0       		.byte	-64
 1304 027c 8F       		.byte	-113
 1305 027d 04       		.byte	4
 1306 027e 92       		.byte	-110
 1307 027f 08       		.byte	8
 1308 0280 94       		.byte	-108
ARM GAS  C:\Users\HPz420\AppData\Local\Temp\ccAlG7g9.s 			page 46


 1309 0281 08       		.byte	8
 1310 0282 98       		.byte	-104
 1311 0283 21       		.byte	33
 1312 0284 A6       		.byte	-90
 1313 0285 04       		.byte	4
 1314 0286 A7       		.byte	-89
 1315 0287 02       		.byte	2
 1316 0288 A8       		.byte	-88
 1317 0289 05       		.byte	5
 1318 028a AC       		.byte	-84
 1319 028b 20       		.byte	32
 1320 028c AE       		.byte	-82
 1321 028d 40       		.byte	64
 1322 028e B3       		.byte	-77
 1323 028f 8A       		.byte	-118
 1324 0290 B4       		.byte	-76
 1325 0291 05       		.byte	5
 1326 0292 B7       		.byte	-73
 1327 0293 20       		.byte	32
 1328 0294 D6       		.byte	-42
 1329 0295 FF       		.byte	-1
 1330 0296 D8       		.byte	-40
 1331 0297 FC       		.byte	-4
 1332 0298 E0       		.byte	-32
 1333 0299 90       		.byte	-112
 1334 029a E4       		.byte	-28
 1335 029b C0       		.byte	-64
 1336 029c E6       		.byte	-26
 1337 029d 30       		.byte	48
 1338 029e EA       		.byte	-22
 1339 029f 61       		.byte	97
 1340 02a0 EC       		.byte	-20
 1341 02a1 50       		.byte	80
 1342 02a2 EE       		.byte	-18
 1343 02a3 A0       		.byte	-96
 1344 02a4 5B       		.byte	91
 1345 02a5 04       		.byte	4
 1346 02a6 5F       		.byte	95
 1347 02a7 01       		.byte	1
 1348 02a8 DB       		.byte	-37
 1349 02a9 04       		.byte	4
 1350 02aa DF       		.byte	-33
 1351 02ab 01       		.byte	1
 1352 02ac 5C       		.byte	92
 1353 02ad 05       		.byte	5
 1354 02ae 5E       		.byte	94
 1355 02af 80       		.byte	-128
 1356 02b0 5F       		.byte	95
 1357 02b1 20       		.byte	32
 1358 02b2 6A       		.byte	106
 1359 02b3 A0       		.byte	-96
 1360 02b4 6B       		.byte	107
 1361 02b5 90       		.byte	-112
 1362 02b6 6C       		.byte	108
 1363 02b7 01       		.byte	1
 1364 02b8 6F       		.byte	111
 1365 02b9 68       		.byte	104
ARM GAS  C:\Users\HPz420\AppData\Local\Temp\ccAlG7g9.s 			page 47


 1366 02ba 70       		.byte	112
 1367 02bb 80       		.byte	-128
 1368 02bc 73       		.byte	115
 1369 02bd 04       		.byte	4
 1370 02be 76       		.byte	118
 1371 02bf 02       		.byte	2
 1372 02c0 82       		.byte	-126
 1373 02c1 04       		.byte	4
 1374 02c2 83       		.byte	-125
 1375 02c3 40       		.byte	64
 1376 02c4 86       		.byte	-122
 1377 02c5 04       		.byte	4
 1378 02c6 8E       		.byte	-114
 1379 02c7 50       		.byte	80
 1380 02c8 8F       		.byte	-113
 1381 02c9 20       		.byte	32
 1382 02ca 97       		.byte	-105
 1383 02cb 04       		.byte	4
 1384 02cc 98       		.byte	-104
 1385 02cd 01       		.byte	1
 1386 02ce 9E       		.byte	-98
 1387 02cf 02       		.byte	2
 1388 02d0 9F       		.byte	-97
 1389 02d1 10       		.byte	16
 1390 02d2 A4       		.byte	-92
 1391 02d3 80       		.byte	-128
 1392 02d4 AC       		.byte	-84
 1393 02d5 80       		.byte	-128
 1394 02d6 B2       		.byte	-78
 1395 02d7 02       		.byte	2
 1396 02d8 D6       		.byte	-42
 1397 02d9 F0       		.byte	-16
 1398 02da E2       		.byte	-30
 1399 02db 50       		.byte	80
 1400 02dc E4       		.byte	-28
 1401 02dd 10       		.byte	16
 1402 02de E6       		.byte	-26
 1403 02df 20       		.byte	32
 1404 02e0 E8       		.byte	-24
 1405 02e1 08       		.byte	8
 1406 02e2 EA       		.byte	-22
 1407 02e3 80       		.byte	-128
 1408 02e4 EE       		.byte	-18
 1409 02e5 0A       		.byte	10
 1410 02e6 5B       		.byte	91
 1411 02e7 04       		.byte	4
 1412 02e8 5F       		.byte	95
 1413 02e9 01       		.byte	1
 1414 02ea DB       		.byte	-37
 1415 02eb 04       		.byte	4
 1416 02ec DF       		.byte	-33
 1417 02ed 01       		.byte	1
 1418 02ee 58       		.byte	88
 1419 02ef 10       		.byte	16
 1420 02f0 59       		.byte	89
 1421 02f1 82       		.byte	-126
 1422 02f2 5B       		.byte	91
ARM GAS  C:\Users\HPz420\AppData\Local\Temp\ccAlG7g9.s 			page 48


 1423 02f3 04       		.byte	4
 1424 02f4 5C       		.byte	92
 1425 02f5 48       		.byte	72
 1426 02f6 5D       		.byte	93
 1427 02f7 01       		.byte	1
 1428 02f8 5F       		.byte	95
 1429 02f9 10       		.byte	16
 1430 02fa 62       		.byte	98
 1431 02fb 80       		.byte	-128
 1432 02fc 64       		.byte	100
 1433 02fd 01       		.byte	1
 1434 02fe 6A       		.byte	106
 1435 02ff 92       		.byte	-110
 1436 0300 6B       		.byte	107
 1437 0301 20       		.byte	32
 1438 0302 6F       		.byte	111
 1439 0303 9A       		.byte	-102
 1440 0304 70       		.byte	112
 1441 0305 40       		.byte	64
 1442 0306 74       		.byte	116
 1443 0307 80       		.byte	-128
 1444 0308 82       		.byte	-126
 1445 0309 40       		.byte	64
 1446 030a 83       		.byte	-125
 1447 030b 80       		.byte	-128
 1448 030c 87       		.byte	-121
 1449 030d 28       		.byte	40
 1450 030e 89       		.byte	-119
 1451 030f 01       		.byte	1
 1452 0310 8B       		.byte	-117
 1453 0311 80       		.byte	-128
 1454 0312 8C       		.byte	-116
 1455 0313 40       		.byte	64
 1456 0314 8E       		.byte	-114
 1457 0315 10       		.byte	16
 1458 0316 9B       		.byte	-101
 1459 0317 88       		.byte	-120
 1460 0318 A9       		.byte	-87
 1461 0319 80       		.byte	-128
 1462 031a AA       		.byte	-86
 1463 031b 10       		.byte	16
 1464 031c B3       		.byte	-77
 1465 031d 40       		.byte	64
 1466 031e B7       		.byte	-73
 1467 031f 10       		.byte	16
 1468 0320 D6       		.byte	-42
 1469 0321 FF       		.byte	-1
 1470 0322 D8       		.byte	-40
 1471 0323 18       		.byte	24
 1472 0324 E0       		.byte	-32
 1473 0325 0A       		.byte	10
 1474 0326 E4       		.byte	-28
 1475 0327 05       		.byte	5
 1476 0328 E6       		.byte	-26
 1477 0329 20       		.byte	32
 1478 032a E8       		.byte	-24
 1479 032b 08       		.byte	8
ARM GAS  C:\Users\HPz420\AppData\Local\Temp\ccAlG7g9.s 			page 49


 1480 032c EA       		.byte	-22
 1481 032d 04       		.byte	4
 1482 032e EC       		.byte	-20
 1483 032f 04       		.byte	4
 1484 0330 EE       		.byte	-18
 1485 0331 0A       		.byte	10
 1486 0332 83       		.byte	-125
 1487 0333 14       		.byte	20
 1488 0334 84       		.byte	-124
 1489 0335 10       		.byte	16
 1490 0336 85       		.byte	-123
 1491 0337 02       		.byte	2
 1492 0338 87       		.byte	-121
 1493 0339 02       		.byte	2
 1494 033a 9B       		.byte	-101
 1495 033b 10       		.byte	16
 1496 033c 9C       		.byte	-100
 1497 033d 10       		.byte	16
 1498 033e 9D       		.byte	-99
 1499 033f 02       		.byte	2
 1500 0340 9F       		.byte	-97
 1501 0341 04       		.byte	4
 1502 0342 A3       		.byte	-93
 1503 0343 02       		.byte	2
 1504 0344 A8       		.byte	-88
 1505 0345 80       		.byte	-128
 1506 0346 AA       		.byte	-86
 1507 0347 80       		.byte	-128
 1508 0348 AB       		.byte	-85
 1509 0349 08       		.byte	8
 1510 034a AC       		.byte	-84
 1511 034b 09       		.byte	9
 1512 034c AE       		.byte	-82
 1513 034d 01       		.byte	1
 1514 034e AF       		.byte	-81
 1515 034f 10       		.byte	16
 1516 0350 B1       		.byte	-79
 1517 0351 80       		.byte	-128
 1518 0352 B4       		.byte	-76
 1519 0353 40       		.byte	64
 1520 0354 E0       		.byte	-32
 1521 0355 0C       		.byte	12
 1522 0356 E2       		.byte	-30
 1523 0357 61       		.byte	97
 1524 0358 E6       		.byte	-26
 1525 0359 0A       		.byte	10
 1526 035a E8       		.byte	-24
 1527 035b 04       		.byte	4
 1528 035c EA       		.byte	-22
 1529 035d 0B       		.byte	11
 1530 035e EC       		.byte	-20
 1531 035f 03       		.byte	3
 1532 0360 EE       		.byte	-18
 1533 0361 0C       		.byte	12
 1534 0362 01       		.byte	1
 1535 0363 40       		.byte	64
 1536 0364 03       		.byte	3
ARM GAS  C:\Users\HPz420\AppData\Local\Temp\ccAlG7g9.s 			page 50


 1537 0365 20       		.byte	32
 1538 0366 06       		.byte	6
 1539 0367 02       		.byte	2
 1540 0368 0B       		.byte	11
 1541 0369 20       		.byte	32
 1542 036a 0F       		.byte	15
 1543 036b 20       		.byte	32
 1544 036c 33       		.byte	51
 1545 036d 84       		.byte	-124
 1546 036e 36       		.byte	54
 1547 036f 40       		.byte	64
 1548 0370 52       		.byte	82
 1549 0371 02       		.byte	2
 1550 0372 55       		.byte	85
 1551 0373 10       		.byte	16
 1552 0374 5F       		.byte	95
 1553 0375 10       		.byte	16
 1554 0376 65       		.byte	101
 1555 0377 A0       		.byte	-96
 1556 0378 75       		.byte	117
 1557 0379 40       		.byte	64
 1558 037a 81       		.byte	-127
 1559 037b 40       		.byte	64
 1560 037c 83       		.byte	-125
 1561 037d 10       		.byte	16
 1562 037e 85       		.byte	-123
 1563 037f 20       		.byte	32
 1564 0380 86       		.byte	-122
 1565 0381 02       		.byte	2
 1566 0382 8A       		.byte	-118
 1567 0383 02       		.byte	2
 1568 0384 C0       		.byte	-64
 1569 0385 D0       		.byte	-48
 1570 0386 C2       		.byte	-62
 1571 0387 30       		.byte	48
 1572 0388 CC       		.byte	-52
 1573 0389 70       		.byte	112
 1574 038a D4       		.byte	-44
 1575 038b C0       		.byte	-64
 1576 038c D6       		.byte	-42
 1577 038d A0       		.byte	-96
 1578 038e D8       		.byte	-40
 1579 038f 80       		.byte	-128
 1580 0390 DC       		.byte	-36
 1581 0391 40       		.byte	64
 1582 0392 E4       		.byte	-28
 1583 0393 B0       		.byte	-80
 1584 0394 E6       		.byte	-26
 1585 0395 40       		.byte	64
 1586 0396 00       		.byte	0
 1587 0397 08       		.byte	8
 1588 0398 02       		.byte	2
 1589 0399 01       		.byte	1
 1590 039a 06       		.byte	6
 1591 039b 80       		.byte	-128
 1592 039c 07       		.byte	7
 1593 039d 02       		.byte	2
ARM GAS  C:\Users\HPz420\AppData\Local\Temp\ccAlG7g9.s 			page 51


 1594 039e 08       		.byte	8
 1595 039f 10       		.byte	16
 1596 03a0 0A       		.byte	10
 1597 03a1 20       		.byte	32
 1598 03a2 0F       		.byte	15
 1599 03a3 12       		.byte	18
 1600 03a4 52       		.byte	82
 1601 03a5 80       		.byte	-128
 1602 03a6 53       		.byte	83
 1603 03a7 01       		.byte	1
 1604 03a8 56       		.byte	86
 1605 03a9 02       		.byte	2
 1606 03aa 57       		.byte	87
 1607 03ab 20       		.byte	32
 1608 03ac 59       		.byte	89
 1609 03ad 04       		.byte	4
 1610 03ae 5C       		.byte	92
 1611 03af 01       		.byte	1
 1612 03b0 62       		.byte	98
 1613 03b1 02       		.byte	2
 1614 03b2 65       		.byte	101
 1615 03b3 01       		.byte	1
 1616 03b4 6C       		.byte	108
 1617 03b5 04       		.byte	4
 1618 03b6 81       		.byte	-127
 1619 03b7 04       		.byte	4
 1620 03b8 83       		.byte	-125
 1621 03b9 01       		.byte	1
 1622 03ba 87       		.byte	-121
 1623 03bb 01       		.byte	1
 1624 03bc 89       		.byte	-119
 1625 03bd 80       		.byte	-128
 1626 03be 8D       		.byte	-115
 1627 03bf 10       		.byte	16
 1628 03c0 8E       		.byte	-114
 1629 03c1 03       		.byte	3
 1630 03c2 9D       		.byte	-99
 1631 03c3 C0       		.byte	-64
 1632 03c4 9F       		.byte	-97
 1633 03c5 04       		.byte	4
 1634 03c6 A5       		.byte	-91
 1635 03c7 10       		.byte	16
 1636 03c8 A6       		.byte	-90
 1637 03c9 40       		.byte	64
 1638 03ca A7       		.byte	-89
 1639 03cb 80       		.byte	-128
 1640 03cc AF       		.byte	-81
 1641 03cd 30       		.byte	48
 1642 03ce B3       		.byte	-77
 1643 03cf 10       		.byte	16
 1644 03d0 C0       		.byte	-64
 1645 03d1 F0       		.byte	-16
 1646 03d2 C2       		.byte	-62
 1647 03d3 F0       		.byte	-16
 1648 03d4 D4       		.byte	-44
 1649 03d5 E0       		.byte	-32
 1650 03d6 D6       		.byte	-42
ARM GAS  C:\Users\HPz420\AppData\Local\Temp\ccAlG7g9.s 			page 52


 1651 03d7 E0       		.byte	-32
 1652 03d8 D8       		.byte	-40
 1653 03d9 C0       		.byte	-64
 1654 03da DA       		.byte	-38
 1655 03db 80       		.byte	-128
 1656 03dc E4       		.byte	-28
 1657 03dd 10       		.byte	16
 1658 03de E6       		.byte	-26
 1659 03df A0       		.byte	-96
 1660 03e0 EA       		.byte	-22
 1661 03e1 10       		.byte	16
 1662 03e2 EC       		.byte	-20
 1663 03e3 10       		.byte	16
 1664 03e4 01       		.byte	1
 1665 03e5 08       		.byte	8
 1666 03e6 07       		.byte	7
 1667 03e7 20       		.byte	32
 1668 03e8 3E       		.byte	62
 1669 03e9 10       		.byte	16
 1670 03ea 53       		.byte	83
 1671 03eb 20       		.byte	32
 1672 03ec 56       		.byte	86
 1673 03ed 20       		.byte	32
 1674 03ee 80       		.byte	-128
 1675 03ef 04       		.byte	4
 1676 03f0 85       		.byte	-123
 1677 03f1 40       		.byte	64
 1678 03f2 94       		.byte	-108
 1679 03f3 08       		.byte	8
 1680 03f4 9D       		.byte	-99
 1681 03f5 40       		.byte	64
 1682 03f6 9F       		.byte	-97
 1683 03f7 04       		.byte	4
 1684 03f8 A6       		.byte	-90
 1685 03f9 40       		.byte	64
 1686 03fa A7       		.byte	-89
 1687 03fb 80       		.byte	-128
 1688 03fc AA       		.byte	-86
 1689 03fd 90       		.byte	-112
 1690 03fe AB       		.byte	-85
 1691 03ff 02       		.byte	2
 1692 0400 AC       		.byte	-84
 1693 0401 04       		.byte	4
 1694 0402 B0       		.byte	-80
 1695 0403 10       		.byte	16
 1696 0404 B2       		.byte	-78
 1697 0405 82       		.byte	-126
 1698 0406 B3       		.byte	-77
 1699 0407 10       		.byte	16
 1700 0408 B4       		.byte	-76
 1701 0409 01       		.byte	1
 1702 040a B5       		.byte	-75
 1703 040b 01       		.byte	1
 1704 040c B7       		.byte	-73
 1705 040d 20       		.byte	32
 1706 040e C0       		.byte	-64
 1707 040f 30       		.byte	48
ARM GAS  C:\Users\HPz420\AppData\Local\Temp\ccAlG7g9.s 			page 53


 1708 0410 CE       		.byte	-50
 1709 0411 20       		.byte	32
 1710 0412 D4       		.byte	-44
 1711 0413 60       		.byte	96
 1712 0414 E6       		.byte	-26
 1713 0415 90       		.byte	-112
 1714 0416 E8       		.byte	-24
 1715 0417 80       		.byte	-128
 1716 0418 EC       		.byte	-20
 1717 0419 E0       		.byte	-32
 1718 041a 58       		.byte	88
 1719 041b 40       		.byte	64
 1720 041c 83       		.byte	-125
 1721 041d 04       		.byte	4
 1722 041e 8B       		.byte	-117
 1723 041f 20       		.byte	32
 1724 0420 96       		.byte	-106
 1725 0421 10       		.byte	16
 1726 0422 99       		.byte	-103
 1727 0423 08       		.byte	8
 1728 0424 9B       		.byte	-101
 1729 0425 20       		.byte	32
 1730 0426 9F       		.byte	-97
 1731 0427 04       		.byte	4
 1732 0428 A6       		.byte	-90
 1733 0429 40       		.byte	64
 1734 042a A7       		.byte	-89
 1735 042b A0       		.byte	-96
 1736 042c B6       		.byte	-74
 1737 042d 20       		.byte	32
 1738 042e D4       		.byte	-44
 1739 042f 80       		.byte	-128
 1740 0430 E2       		.byte	-30
 1741 0431 80       		.byte	-128
 1742 0432 05       		.byte	5
 1743 0433 02       		.byte	2
 1744 0434 08       		.byte	8
 1745 0435 08       		.byte	8
 1746 0436 0B       		.byte	11
 1747 0437 08       		.byte	8
 1748 0438 0C       		.byte	12
 1749 0439 88       		.byte	-120
 1750 043a 11       		.byte	17
 1751 043b 01       		.byte	1
 1752 043c 13       		.byte	19
 1753 043d 02       		.byte	2
 1754 043e 15       		.byte	21
 1755 043f 04       		.byte	4
 1756 0440 16       		.byte	22
 1757 0441 40       		.byte	64
 1758 0442 59       		.byte	89
 1759 0443 08       		.byte	8
 1760 0444 5F       		.byte	95
 1761 0445 80       		.byte	-128
 1762 0446 60       		.byte	96
 1763 0447 10       		.byte	16
 1764 0448 64       		.byte	100
ARM GAS  C:\Users\HPz420\AppData\Local\Temp\ccAlG7g9.s 			page 54


 1765 0449 01       		.byte	1
 1766 044a 66       		.byte	102
 1767 044b 08       		.byte	8
 1768 044c 6D       		.byte	109
 1769 044d 02       		.byte	2
 1770 044e 6F       		.byte	111
 1771 044f 20       		.byte	32
 1772 0450 71       		.byte	113
 1773 0451 08       		.byte	8
 1774 0452 7F       		.byte	127
 1775 0453 02       		.byte	2
 1776 0454 80       		.byte	-128
 1777 0455 11       		.byte	17
 1778 0456 83       		.byte	-125
 1779 0457 01       		.byte	1
 1780 0458 86       		.byte	-122
 1781 0459 C0       		.byte	-64
 1782 045a 8F       		.byte	-113
 1783 045b 20       		.byte	32
 1784 045c C0       		.byte	-64
 1785 045d 04       		.byte	4
 1786 045e C2       		.byte	-62
 1787 045f 0F       		.byte	15
 1788 0460 C4       		.byte	-60
 1789 0461 0C       		.byte	12
 1790 0462 D6       		.byte	-42
 1791 0463 07       		.byte	7
 1792 0464 D8       		.byte	-40
 1793 0465 03       		.byte	3
 1794 0466 DA       		.byte	-38
 1795 0467 01       		.byte	1
 1796 0468 DC       		.byte	-36
 1797 0469 03       		.byte	3
 1798 046a DE       		.byte	-34
 1799 046b 04       		.byte	4
 1800 046c E4       		.byte	-28
 1801 046d 08       		.byte	8
 1802 046e 00       		.byte	0
 1803 046f 24       		.byte	36
 1804 0470 05       		.byte	5
 1805 0471 20       		.byte	32
 1806 0472 06       		.byte	6
 1807 0473 20       		.byte	32
 1808 0474 09       		.byte	9
 1809 0475 22       		.byte	34
 1810 0476 0D       		.byte	13
 1811 0477 10       		.byte	16
 1812 0478 0F       		.byte	15
 1813 0479 80       		.byte	-128
 1814 047a 52       		.byte	82
 1815 047b 82       		.byte	-126
 1816 047c 57       		.byte	87
 1817 047d 08       		.byte	8
 1818 047e 5F       		.byte	95
 1819 047f 20       		.byte	32
 1820 0480 60       		.byte	96
 1821 0481 01       		.byte	1
ARM GAS  C:\Users\HPz420\AppData\Local\Temp\ccAlG7g9.s 			page 55


 1822 0482 62       		.byte	98
 1823 0483 01       		.byte	1
 1824 0484 66       		.byte	102
 1825 0485 10       		.byte	16
 1826 0486 67       		.byte	103
 1827 0487 02       		.byte	2
 1828 0488 73       		.byte	115
 1829 0489 02       		.byte	2
 1830 048a 8E       		.byte	-114
 1831 048b 02       		.byte	2
 1832 048c 90       		.byte	-112
 1833 048d 01       		.byte	1
 1834 048e 91       		.byte	-111
 1835 048f 05       		.byte	5
 1836 0490 93       		.byte	-109
 1837 0491 0A       		.byte	10
 1838 0492 98       		.byte	-104
 1839 0493 08       		.byte	8
 1840 0494 9A       		.byte	-102
 1841 0495 01       		.byte	1
 1842 0496 9B       		.byte	-101
 1843 0497 20       		.byte	32
 1844 0498 A0       		.byte	-96
 1845 0499 08       		.byte	8
 1846 049a A2       		.byte	-94
 1847 049b 80       		.byte	-128
 1848 049c A5       		.byte	-91
 1849 049d 09       		.byte	9
 1850 049e A7       		.byte	-89
 1851 049f 22       		.byte	34
 1852 04a0 A9       		.byte	-87
 1853 04a1 08       		.byte	8
 1854 04a2 AA       		.byte	-86
 1855 04a3 09       		.byte	9
 1856 04a4 AF       		.byte	-81
 1857 04a5 02       		.byte	2
 1858 04a6 B0       		.byte	-80
 1859 04a7 81       		.byte	-127
 1860 04a8 B5       		.byte	-75
 1861 04a9 02       		.byte	2
 1862 04aa B7       		.byte	-73
 1863 04ab 80       		.byte	-128
 1864 04ac C0       		.byte	-64
 1865 04ad 0F       		.byte	15
 1866 04ae C2       		.byte	-62
 1867 04af 0F       		.byte	15
 1868 04b0 D4       		.byte	-44
 1869 04b1 07       		.byte	7
 1870 04b2 D6       		.byte	-42
 1871 04b3 07       		.byte	7
 1872 04b4 D8       		.byte	-40
 1873 04b5 03       		.byte	3
 1874 04b6 DC       		.byte	-36
 1875 04b7 04       		.byte	4
 1876 04b8 E4       		.byte	-28
 1877 04b9 08       		.byte	8
 1878 04ba EA       		.byte	-22
ARM GAS  C:\Users\HPz420\AppData\Local\Temp\ccAlG7g9.s 			page 56


 1879 04bb 02       		.byte	2
 1880 04bc EC       		.byte	-20
 1881 04bd 0C       		.byte	12
 1882 04be EE       		.byte	-18
 1883 04bf 01       		.byte	1
 1884 04c0 85       		.byte	-123
 1885 04c1 08       		.byte	8
 1886 04c2 87       		.byte	-121
 1887 04c3 20       		.byte	32
 1888 04c4 8B       		.byte	-117
 1889 04c5 04       		.byte	4
 1890 04c6 8C       		.byte	-116
 1891 04c7 08       		.byte	8
 1892 04c8 90       		.byte	-112
 1893 04c9 04       		.byte	4
 1894 04ca 91       		.byte	-111
 1895 04cb 05       		.byte	5
 1896 04cc 93       		.byte	-109
 1897 04cd 08       		.byte	8
 1898 04ce 98       		.byte	-104
 1899 04cf 08       		.byte	8
 1900 04d0 9A       		.byte	-102
 1901 04d1 20       		.byte	32
 1902 04d2 9F       		.byte	-97
 1903 04d3 02       		.byte	2
 1904 04d4 A0       		.byte	-96
 1905 04d5 08       		.byte	8
 1906 04d6 A1       		.byte	-95
 1907 04d7 20       		.byte	32
 1908 04d8 A3       		.byte	-93
 1909 04d9 40       		.byte	64
 1910 04da A5       		.byte	-91
 1911 04db 09       		.byte	9
 1912 04dc A7       		.byte	-89
 1913 04dd 22       		.byte	34
 1914 04de AE       		.byte	-82
 1915 04df 10       		.byte	16
 1916 04e0 AF       		.byte	-81
 1917 04e1 08       		.byte	8
 1918 04e2 B0       		.byte	-80
 1919 04e3 10       		.byte	16
 1920 04e4 B1       		.byte	-79
 1921 04e5 30       		.byte	48
 1922 04e6 B5       		.byte	-75
 1923 04e7 02       		.byte	2
 1924 04e8 E2       		.byte	-30
 1925 04e9 01       		.byte	1
 1926 04ea E6       		.byte	-26
 1927 04eb 08       		.byte	8
 1928 04ec EA       		.byte	-22
 1929 04ed 04       		.byte	4
 1930 04ee EE       		.byte	-18
 1931 04ef 0D       		.byte	13
 1932 04f0 08       		.byte	8
 1933 04f1 08       		.byte	8
 1934 04f2 0B       		.byte	11
 1935 04f3 01       		.byte	1
ARM GAS  C:\Users\HPz420\AppData\Local\Temp\ccAlG7g9.s 			page 57


 1936 04f4 0F       		.byte	15
 1937 04f5 40       		.byte	64
 1938 04f6 53       		.byte	83
 1939 04f7 10       		.byte	16
 1940 04f8 81       		.byte	-127
 1941 04f9 01       		.byte	1
 1942 04fa 83       		.byte	-125
 1943 04fb 41       		.byte	65
 1944 04fc 8D       		.byte	-115
 1945 04fd 20       		.byte	32
 1946 04fe 90       		.byte	-112
 1947 04ff 04       		.byte	4
 1948 0500 91       		.byte	-111
 1949 0501 05       		.byte	5
 1950 0502 9A       		.byte	-102
 1951 0503 20       		.byte	32
 1952 0504 A1       		.byte	-95
 1953 0505 20       		.byte	32
 1954 0506 A3       		.byte	-93
 1955 0507 40       		.byte	64
 1956 0508 A5       		.byte	-91
 1957 0509 01       		.byte	1
 1958 050a A7       		.byte	-89
 1959 050b 02       		.byte	2
 1960 050c AF       		.byte	-81
 1961 050d 02       		.byte	2
 1962 050e B4       		.byte	-76
 1963 050f 08       		.byte	8
 1964 0510 C2       		.byte	-62
 1965 0511 0E       		.byte	14
 1966 0512 D4       		.byte	-44
 1967 0513 04       		.byte	4
 1968 0514 E6       		.byte	-26
 1969 0515 02       		.byte	2
 1970 0516 EA       		.byte	-22
 1971 0517 02       		.byte	2
 1972 0518 01       		.byte	1
 1973 0519 80       		.byte	-128
 1974 051a 02       		.byte	2
 1975 051b 20       		.byte	32
 1976 051c 04       		.byte	4
 1977 051d 81       		.byte	-127
 1978 051e 52       		.byte	82
 1979 051f 80       		.byte	-128
 1980 0520 56       		.byte	86
 1981 0521 0A       		.byte	10
 1982 0522 5A       		.byte	90
 1983 0523 80       		.byte	-128
 1984 0524 81       		.byte	-127
 1985 0525 40       		.byte	64
 1986 0526 82       		.byte	-126
 1987 0527 40       		.byte	64
 1988 0528 85       		.byte	-123
 1989 0529 08       		.byte	8
 1990 052a 88       		.byte	-120
 1991 052b 20       		.byte	32
 1992 052c 8C       		.byte	-116
ARM GAS  C:\Users\HPz420\AppData\Local\Temp\ccAlG7g9.s 			page 58


 1993 052d 01       		.byte	1
 1994 052e 8D       		.byte	-115
 1995 052f 04       		.byte	4
 1996 0530 8F       		.byte	-113
 1997 0531 20       		.byte	32
 1998 0532 96       		.byte	-106
 1999 0533 10       		.byte	16
 2000 0534 99       		.byte	-103
 2001 0535 08       		.byte	8
 2002 0536 A7       		.byte	-89
 2003 0537 20       		.byte	32
 2004 0538 AE       		.byte	-82
 2005 0539 40       		.byte	64
 2006 053a AF       		.byte	-81
 2007 053b 80       		.byte	-128
 2008 053c B0       		.byte	-80
 2009 053d 40       		.byte	64
 2010 053e C0       		.byte	-64
 2011 053f F0       		.byte	-16
 2012 0540 D4       		.byte	-44
 2013 0541 E0       		.byte	-32
 2014 0542 D6       		.byte	-42
 2015 0543 20       		.byte	32
 2016 0544 E4       		.byte	-28
 2017 0545 10       		.byte	16
 2018 0546 E6       		.byte	-26
 2019 0547 A0       		.byte	-96
 2020 0548 EE       		.byte	-18
 2021 0549 50       		.byte	80
 2022 054a 02       		.byte	2
 2023 054b 22       		.byte	34
 2024 054c 05       		.byte	5
 2025 054d 88       		.byte	-120
 2026 054e 08       		.byte	8
 2027 054f 10       		.byte	16
 2028 0550 09       		.byte	9
 2029 0551 01       		.byte	1
 2030 0552 0C       		.byte	12
 2031 0553 80       		.byte	-128
 2032 0554 0E       		.byte	14
 2033 0555 40       		.byte	64
 2034 0556 13       		.byte	19
 2035 0557 08       		.byte	8
 2036 0558 14       		.byte	20
 2037 0559 40       		.byte	64
 2038 055a 51       		.byte	81
 2039 055b 80       		.byte	-128
 2040 055c 53       		.byte	83
 2041 055d 01       		.byte	1
 2042 055e 56       		.byte	86
 2043 055f 20       		.byte	32
 2044 0560 5C       		.byte	92
 2045 0561 08       		.byte	8
 2046 0562 5D       		.byte	93
 2047 0563 40       		.byte	64
 2048 0564 60       		.byte	96
 2049 0565 01       		.byte	1
ARM GAS  C:\Users\HPz420\AppData\Local\Temp\ccAlG7g9.s 			page 59


 2050 0566 61       		.byte	97
 2051 0567 02       		.byte	2
 2052 0568 66       		.byte	102
 2053 0569 04       		.byte	4
 2054 056a 70       		.byte	112
 2055 056b 20       		.byte	32
 2056 056c 71       		.byte	113
 2057 056d 04       		.byte	4
 2058 056e 76       		.byte	118
 2059 056f 80       		.byte	-128
 2060 0570 80       		.byte	-128
 2061 0571 01       		.byte	1
 2062 0572 82       		.byte	-126
 2063 0573 60       		.byte	96
 2064 0574 83       		.byte	-125
 2065 0575 01       		.byte	1
 2066 0576 84       		.byte	-124
 2067 0577 98       		.byte	-104
 2068 0578 86       		.byte	-122
 2069 0579 02       		.byte	2
 2070 057a 89       		.byte	-119
 2071 057b 8A       		.byte	-118
 2072 057c 8D       		.byte	-115
 2073 057d 01       		.byte	1
 2074 057e 8E       		.byte	-114
 2075 057f 04       		.byte	4
 2076 0580 8F       		.byte	-113
 2077 0581 08       		.byte	8
 2078 0582 91       		.byte	-111
 2079 0583 40       		.byte	64
 2080 0584 99       		.byte	-103
 2081 0585 04       		.byte	4
 2082 0586 9A       		.byte	-102
 2083 0587 A0       		.byte	-96
 2084 0588 9C       		.byte	-100
 2085 0589 40       		.byte	64
 2086 058a A0       		.byte	-96
 2087 058b 20       		.byte	32
 2088 058c A1       		.byte	-95
 2089 058d 80       		.byte	-128
 2090 058e A9       		.byte	-87
 2091 058f 80       		.byte	-128
 2092 0590 AA       		.byte	-86
 2093 0591 90       		.byte	-112
 2094 0592 AC       		.byte	-84
 2095 0593 40       		.byte	64
 2096 0594 AE       		.byte	-82
 2097 0595 20       		.byte	32
 2098 0596 B2       		.byte	-78
 2099 0597 A8       		.byte	-88
 2100 0598 B4       		.byte	-76
 2101 0599 40       		.byte	64
 2102 059a B5       		.byte	-75
 2103 059b 80       		.byte	-128
 2104 059c B6       		.byte	-74
 2105 059d 02       		.byte	2
 2106 059e C0       		.byte	-64
ARM GAS  C:\Users\HPz420\AppData\Local\Temp\ccAlG7g9.s 			page 60


 2107 059f F0       		.byte	-16
 2108 05a0 C2       		.byte	-62
 2109 05a1 F0       		.byte	-16
 2110 05a2 C4       		.byte	-60
 2111 05a3 30       		.byte	48
 2112 05a4 D4       		.byte	-44
 2113 05a5 E0       		.byte	-32
 2114 05a6 D6       		.byte	-42
 2115 05a7 E0       		.byte	-32
 2116 05a8 D8       		.byte	-40
 2117 05a9 C0       		.byte	-64
 2118 05aa DC       		.byte	-36
 2119 05ab A0       		.byte	-96
 2120 05ac DE       		.byte	-34
 2121 05ad 20       		.byte	32
 2122 05ae E0       		.byte	-32
 2123 05af 70       		.byte	112
 2124 05b0 E2       		.byte	-30
 2125 05b1 80       		.byte	-128
 2126 05b2 E4       		.byte	-28
 2127 05b3 C0       		.byte	-64
 2128 05b4 E6       		.byte	-26
 2129 05b5 30       		.byte	48
 2130 05b6 EA       		.byte	-22
 2131 05b7 80       		.byte	-128
 2132 05b8 EC       		.byte	-20
 2133 05b9 50       		.byte	80
 2134 05ba EE       		.byte	-18
 2135 05bb A0       		.byte	-96
 2136 05bc 01       		.byte	1
 2137 05bd 40       		.byte	64
 2138 05be 05       		.byte	5
 2139 05bf 80       		.byte	-128
 2140 05c0 0A       		.byte	10
 2141 05c1 01       		.byte	1
 2142 05c2 0D       		.byte	13
 2143 05c3 10       		.byte	16
 2144 05c4 0E       		.byte	14
 2145 05c5 20       		.byte	32
 2146 05c6 10       		.byte	16
 2147 05c7 40       		.byte	64
 2148 05c8 13       		.byte	19
 2149 05c9 20       		.byte	32
 2150 05ca 16       		.byte	22
 2151 05cb 10       		.byte	16
 2152 05cc 51       		.byte	81
 2153 05cd 02       		.byte	2
 2154 05ce 57       		.byte	87
 2155 05cf 08       		.byte	8
 2156 05d0 5B       		.byte	91
 2157 05d1 04       		.byte	4
 2158 05d2 5F       		.byte	95
 2159 05d3 04       		.byte	4
 2160 05d4 66       		.byte	102
 2161 05d5 08       		.byte	8
 2162 05d6 6F       		.byte	111
 2163 05d7 20       		.byte	32
ARM GAS  C:\Users\HPz420\AppData\Local\Temp\ccAlG7g9.s 			page 61


 2164 05d8 79       		.byte	121
 2165 05d9 01       		.byte	1
 2166 05da 7D       		.byte	125
 2167 05db 04       		.byte	4
 2168 05dc 81       		.byte	-127
 2169 05dd 02       		.byte	2
 2170 05de 83       		.byte	-125
 2171 05df 08       		.byte	8
 2172 05e0 87       		.byte	-121
 2173 05e1 06       		.byte	6
 2174 05e2 8A       		.byte	-118
 2175 05e3 01       		.byte	1
 2176 05e4 8D       		.byte	-115
 2177 05e5 42       		.byte	66
 2178 05e6 91       		.byte	-111
 2179 05e7 05       		.byte	5
 2180 05e8 A3       		.byte	-93
 2181 05e9 20       		.byte	32
 2182 05ea A8       		.byte	-88
 2183 05eb 04       		.byte	4
 2184 05ec AB       		.byte	-85
 2185 05ed 20       		.byte	32
 2186 05ee AC       		.byte	-84
 2187 05ef 08       		.byte	8
 2188 05f0 AF       		.byte	-81
 2189 05f1 42       		.byte	66
 2190 05f2 B3       		.byte	-77
 2191 05f3 10       		.byte	16
 2192 05f4 B6       		.byte	-74
 2193 05f5 20       		.byte	32
 2194 05f6 C0       		.byte	-64
 2195 05f7 03       		.byte	3
 2196 05f8 C2       		.byte	-62
 2197 05f9 07       		.byte	7
 2198 05fa C4       		.byte	-60
 2199 05fb 0E       		.byte	14
 2200 05fc D4       		.byte	-44
 2201 05fd 03       		.byte	3
 2202 05fe D6       		.byte	-42
 2203 05ff 03       		.byte	3
 2204 0600 D8       		.byte	-40
 2205 0601 01       		.byte	1
 2206 0602 DA       		.byte	-38
 2207 0603 01       		.byte	1
 2208 0604 DE       		.byte	-34
 2209 0605 03       		.byte	3
 2210 0606 E2       		.byte	-30
 2211 0607 02       		.byte	2
 2212 0608 E4       		.byte	-28
 2213 0609 08       		.byte	8
 2214 060a E6       		.byte	-26
 2215 060b 01       		.byte	1
 2216 060c E8       		.byte	-24
 2217 060d 04       		.byte	4
 2218 060e EE       		.byte	-18
 2219 060f 02       		.byte	2
 2220 0610 02       		.byte	2
ARM GAS  C:\Users\HPz420\AppData\Local\Temp\ccAlG7g9.s 			page 62


 2221 0611 40       		.byte	64
 2222 0612 0B       		.byte	11
 2223 0613 28       		.byte	40
 2224 0614 0C       		.byte	12
 2225 0615 08       		.byte	8
 2226 0616 0F       		.byte	15
 2227 0617 08       		.byte	8
 2228 0618 12       		.byte	18
 2229 0619 80       		.byte	-128
 2230 061a 14       		.byte	20
 2231 061b 10       		.byte	16
 2232 061c 56       		.byte	86
 2233 061d 20       		.byte	32
 2234 061e 59       		.byte	89
 2235 061f 02       		.byte	2
 2236 0620 5F       		.byte	95
 2237 0621 08       		.byte	8
 2238 0622 63       		.byte	99
 2239 0623 20       		.byte	32
 2240 0624 66       		.byte	102
 2241 0625 01       		.byte	1
 2242 0626 6F       		.byte	111
 2243 0627 02       		.byte	2
 2244 0628 76       		.byte	118
 2245 0629 10       		.byte	16
 2246 062a 78       		.byte	120
 2247 062b 40       		.byte	64
 2248 062c 80       		.byte	-128
 2249 062d 08       		.byte	8
 2250 062e 83       		.byte	-125
 2251 062f 08       		.byte	8
 2252 0630 86       		.byte	-122
 2253 0631 20       		.byte	32
 2254 0632 87       		.byte	-121
 2255 0633 14       		.byte	20
 2256 0634 88       		.byte	-120
 2257 0635 10       		.byte	16
 2258 0636 8E       		.byte	-114
 2259 0637 80       		.byte	-128
 2260 0638 98       		.byte	-104
 2261 0639 40       		.byte	64
 2262 063a 99       		.byte	-103
 2263 063b 02       		.byte	2
 2264 063c 9A       		.byte	-102
 2265 063d 11       		.byte	17
 2266 063e 9E       		.byte	-98
 2267 063f 40       		.byte	64
 2268 0640 A3       		.byte	-93
 2269 0641 12       		.byte	18
 2270 0642 A7       		.byte	-89
 2271 0643 04       		.byte	4
 2272 0644 AA       		.byte	-86
 2273 0645 01       		.byte	1
 2274 0646 AB       		.byte	-85
 2275 0647 34       		.byte	52
 2276 0648 AD       		.byte	-83
 2277 0649 90       		.byte	-112
ARM GAS  C:\Users\HPz420\AppData\Local\Temp\ccAlG7g9.s 			page 63


 2278 064a AE       		.byte	-82
 2279 064b 18       		.byte	24
 2280 064c B2       		.byte	-78
 2281 064d 40       		.byte	64
 2282 064e B7       		.byte	-73
 2283 064f 04       		.byte	4
 2284 0650 C0       		.byte	-64
 2285 0651 08       		.byte	8
 2286 0652 C2       		.byte	-62
 2287 0653 0F       		.byte	15
 2288 0654 C4       		.byte	-60
 2289 0655 0C       		.byte	12
 2290 0656 D4       		.byte	-44
 2291 0657 02       		.byte	2
 2292 0658 D6       		.byte	-42
 2293 0659 03       		.byte	3
 2294 065a D8       		.byte	-40
 2295 065b 03       		.byte	3
 2296 065c DA       		.byte	-38
 2297 065d 01       		.byte	1
 2298 065e DC       		.byte	-36
 2299 065f 01       		.byte	1
 2300 0660 DE       		.byte	-34
 2301 0661 04       		.byte	4
 2302 0662 E2       		.byte	-30
 2303 0663 06       		.byte	6
 2304 0664 EC       		.byte	-20
 2305 0665 08       		.byte	8
 2306 0666 EE       		.byte	-18
 2307 0667 01       		.byte	1
 2308 0668 01       		.byte	1
 2309 0669 01       		.byte	1
 2310 066a 0F       		.byte	15
 2311 066b 01       		.byte	1
 2312 066c 00       		.byte	0
 2313 066d 2A       		.byte	42
 2314 066e 03       		.byte	3
 2315 066f C0       		.byte	-64
 2316              		.align	2
 2317              		.type	BS_IOPINS0_0_VAL.5032, %object
 2318              		.size	BS_IOPINS0_0_VAL.5032, 8
 2319              	BS_IOPINS0_0_VAL.5032:
 2320 0670 00       		.byte	0
 2321 0671 FF       		.byte	-1
 2322 0672 FF       		.byte	-1
 2323 0673 00       		.byte	0
 2324 0674 FF       		.byte	-1
 2325 0675 FF       		.byte	-1
 2326 0676 00       		.byte	0
 2327 0677 00       		.byte	0
 2328              		.align	2
 2329              		.type	BS_IOPINS0_7_VAL.5033, %object
 2330              		.size	BS_IOPINS0_7_VAL.5033, 10
 2331              	BS_IOPINS0_7_VAL.5033:
 2332 0678 30       		.byte	48
 2333 0679 00       		.byte	0
 2334 067a 00       		.byte	0
ARM GAS  C:\Users\HPz420\AppData\Local\Temp\ccAlG7g9.s 			page 64


 2335 067b CF       		.byte	-49
 2336 067c FF       		.byte	-1
 2337 067d 00       		.byte	0
 2338 067e FF       		.byte	-1
 2339 067f CF       		.byte	-49
 2340 0680 00       		.byte	0
 2341 0681 00       		.byte	0
 2342 0682 0000     		.align	2
 2343              		.type	BS_IOPINS0_8_VAL.5034, %object
 2344              		.size	BS_IOPINS0_8_VAL.5034, 10
 2345              	BS_IOPINS0_8_VAL.5034:
 2346 0684 40       		.byte	64
 2347 0685 00       		.byte	0
 2348 0686 00       		.byte	0
 2349 0687 0F       		.byte	15
 2350 0688 0F       		.byte	15
 2351 0689 00       		.byte	0
 2352 068a 0F       		.byte	15
 2353 068b 0F       		.byte	15
 2354 068c C0       		.byte	-64
 2355 068d 00       		.byte	0
 2356 068e 0000     		.align	2
 2357              		.type	BS_IOPINS0_1_VAL.5035, %object
 2358              		.size	BS_IOPINS0_1_VAL.5035, 8
 2359              	BS_IOPINS0_1_VAL.5035:
 2360 0690 00       		.byte	0
 2361 0691 EF       		.byte	-17
 2362 0692 EF       		.byte	-17
 2363 0693 00       		.byte	0
 2364 0694 EC       		.byte	-20
 2365 0695 EC       		.byte	-20
 2366 0696 00       		.byte	0
 2367 0697 00       		.byte	0
 2368              		.align	2
 2369              		.type	BS_IOPINS0_2_VAL.5036, %object
 2370              		.size	BS_IOPINS0_2_VAL.5036, 8
 2371              	BS_IOPINS0_2_VAL.5036:
 2372 0698 00       		.byte	0
 2373 0699 FF       		.byte	-1
 2374 069a FF       		.byte	-1
 2375 069b 00       		.byte	0
 2376 069c FF       		.byte	-1
 2377 069d FF       		.byte	-1
 2378 069e 00       		.byte	0
 2379 069f 00       		.byte	0
 2380              		.align	2
 2381              		.type	BS_IOPINS0_3_VAL.5037, %object
 2382              		.size	BS_IOPINS0_3_VAL.5037, 8
 2383              	BS_IOPINS0_3_VAL.5037:
 2384 06a0 00       		.byte	0
 2385 06a1 FF       		.byte	-1
 2386 06a2 FF       		.byte	-1
 2387 06a3 00       		.byte	0
 2388 06a4 FF       		.byte	-1
 2389 06a5 FF       		.byte	-1
 2390 06a6 00       		.byte	0
 2391 06a7 00       		.byte	0
ARM GAS  C:\Users\HPz420\AppData\Local\Temp\ccAlG7g9.s 			page 65


 2392              		.align	2
 2393              		.type	BS_IOPINS0_4_VAL.5038, %object
 2394              		.size	BS_IOPINS0_4_VAL.5038, 8
 2395              	BS_IOPINS0_4_VAL.5038:
 2396 06a8 00       		.byte	0
 2397 06a9 3D       		.byte	61
 2398 06aa 3D       		.byte	61
 2399 06ab 00       		.byte	0
 2400 06ac 3D       		.byte	61
 2401 06ad 3D       		.byte	61
 2402 06ae 00       		.byte	0
 2403 06af 00       		.byte	0
 2404              		.align	2
 2405              		.type	BS_IOPINS0_5_VAL.5039, %object
 2406              		.size	BS_IOPINS0_5_VAL.5039, 8
 2407              	BS_IOPINS0_5_VAL.5039:
 2408 06b0 00       		.byte	0
 2409 06b1 F1       		.byte	-15
 2410 06b2 F1       		.byte	-15
 2411 06b3 00       		.byte	0
 2412 06b4 F1       		.byte	-15
 2413 06b5 F1       		.byte	-15
 2414 06b6 00       		.byte	0
 2415 06b7 00       		.byte	0
 2416              		.align	2
 2417              		.type	BS_IOPINS0_6_VAL.5040, %object
 2418              		.size	BS_IOPINS0_6_VAL.5040, 8
 2419              	BS_IOPINS0_6_VAL.5040:
 2420 06b8 00       		.byte	0
 2421 06b9 F2       		.byte	-14
 2422 06ba F2       		.byte	-14
 2423 06bb 00       		.byte	0
 2424 06bc F2       		.byte	-14
 2425 06bd F2       		.byte	-14
 2426 06be 00       		.byte	0
 2427 06bf 00       		.byte	0
 2428              		.align	2
 2429              		.type	BS_IOPORT_8_VAL.5055, %object
 2430              		.size	BS_IOPORT_8_VAL.5055, 7
 2431              	BS_IOPORT_8_VAL.5055:
 2432 06c0 06       		.byte	6
 2433 06c1 0C       		.byte	12
 2434 06c2 00       		.byte	0
 2435 06c3 0F       		.byte	15
 2436 06c4 40       		.byte	64
 2437 06c5 00       		.byte	0
 2438 06c6 00       		.byte	0
 2439 06c7 00       		.align	2
 2440              		.type	BS_IOPORT_6_VAL.5054, %object
 2441              		.size	BS_IOPORT_6_VAL.5054, 7
 2442              	BS_IOPORT_6_VAL.5054:
 2443 06c8 32       		.byte	50
 2444 06c9 A2       		.byte	-94
 2445 06ca F2       		.byte	-14
 2446 06cb F0       		.byte	-16
 2447 06cc 00       		.byte	0
 2448 06cd 00       		.byte	0
ARM GAS  C:\Users\HPz420\AppData\Local\Temp\ccAlG7g9.s 			page 66


 2449 06ce 00       		.byte	0
 2450 06cf 00       		.align	2
 2451              		.type	BS_IOPORT_4_VAL.5053, %object
 2452              		.size	BS_IOPORT_4_VAL.5053, 7
 2453              	BS_IOPORT_4_VAL.5053:
 2454 06d0 35       		.byte	53
 2455 06d1 1C       		.byte	28
 2456 06d2 3D       		.byte	61
 2457 06d3 3D       		.byte	61
 2458 06d4 00       		.byte	0
 2459 06d5 00       		.byte	0
 2460 06d6 00       		.byte	0
 2461              		.text
 2462              	.Letext0:
 2463              		.file 2 "c:\\program files (x86)\\cypress\\psoc creator\\4.2\\psoc creator\\import\\gnu\\arm\\5.4.
 2464              		.file 3 "Generated_Source\\PSoC5\\cytypes.h"