ARM GAS  C:\DOCUME~1\akay\LOCALS~1\Temp\cckS0rBX.s 			page 1


   1              		.syntax unified
   2              		.cpu cortex-m3
   3              		.fpu softvfp
   4              		.eabi_attribute 20, 1
   5              		.eabi_attribute 21, 1
   6              		.eabi_attribute 23, 3
   7              		.eabi_attribute 24, 1
   8              		.eabi_attribute 25, 1
   9              		.eabi_attribute 26, 1
  10              		.eabi_attribute 30, 6
  11              		.eabi_attribute 18, 4
  12              		.thumb
  13              		.file	"Clock.c"
  20 0000 C3000000 		.text
  20      02004400 
  20      00000201 
  20      FB0E0D00 
  20      01010101 
  21              	.Ltext0:
  22              		.cfi_sections	.debug_frame
  23              		.section	.text.Clock_Start,"ax",%progbits
  24              		.align	2
  25              		.global	Clock_Start
  26              		.thumb
  27              		.thumb_func
  28              		.type	Clock_Start, %function
  29              	Clock_Start:
  30              	.LFB0:
  31              		.file 1 "./Generated_Source/PSoC5/Clock.c"
   1:./Generated_Source/PSoC5/Clock.c **** /*******************************************************************************
   2:./Generated_Source/PSoC5/Clock.c **** * File Name: Clock.c
   3:./Generated_Source/PSoC5/Clock.c **** * Version 1.0
   4:./Generated_Source/PSoC5/Clock.c **** *
   5:./Generated_Source/PSoC5/Clock.c **** *  Description:
   6:./Generated_Source/PSoC5/Clock.c **** *    API for controlling a clock.
   7:./Generated_Source/PSoC5/Clock.c **** *
   8:./Generated_Source/PSoC5/Clock.c **** *    A clock has an input source and a divider.  These are assigned 
   9:./Generated_Source/PSoC5/Clock.c **** *    by CyDesigner.  Durring code generation, CyDesigner creates
  10:./Generated_Source/PSoC5/Clock.c **** *    the necessary defines for manipulating the registers associated
  11:./Generated_Source/PSoC5/Clock.c **** *    with the assigned clock.  This API uses those register definitions
  12:./Generated_Source/PSoC5/Clock.c **** *    to control the clock.  
  13:./Generated_Source/PSoC5/Clock.c **** *
  14:./Generated_Source/PSoC5/Clock.c **** *   Note:
  15:./Generated_Source/PSoC5/Clock.c **** *
  16:./Generated_Source/PSoC5/Clock.c **** *
  17:./Generated_Source/PSoC5/Clock.c **** ********************************************************************************
  18:./Generated_Source/PSoC5/Clock.c **** * Copyright 2008-2009, Cypress Semiconductor Corporation.  All rights reserved.
  19:./Generated_Source/PSoC5/Clock.c **** * You may use this file only in accordance with the license, terms, conditions, 
  20:./Generated_Source/PSoC5/Clock.c **** * disclaimers, and limitations in the end user license agreement accompanying 
  21:./Generated_Source/PSoC5/Clock.c **** * the software package with which this file was provided.
  22:./Generated_Source/PSoC5/Clock.c **** ********************************************************************************/
ARM GAS  C:\DOCUME~1\akay\LOCALS~1\Temp\cckS0rBX.s 			page 2


  23:./Generated_Source/PSoC5/Clock.c **** 
  24:./Generated_Source/PSoC5/Clock.c **** 
  25:./Generated_Source/PSoC5/Clock.c **** #include <CYDEVICE.H>
  26:./Generated_Source/PSoC5/Clock.c **** #include "Clock.H"
  27:./Generated_Source/PSoC5/Clock.c **** 
  28:./Generated_Source/PSoC5/Clock.c **** 
  29:./Generated_Source/PSoC5/Clock.c **** 
  30:./Generated_Source/PSoC5/Clock.c **** 
  31:./Generated_Source/PSoC5/Clock.c **** 
  32:./Generated_Source/PSoC5/Clock.c **** 
  33:./Generated_Source/PSoC5/Clock.c **** 
  34:./Generated_Source/PSoC5/Clock.c **** /* Clock Distribution registers. */
  35:./Generated_Source/PSoC5/Clock.c **** #define CLK_DIST_CR                  ((reg8 *) CYDEV_CLKDIST_CR)
  36:./Generated_Source/PSoC5/Clock.c **** #define CLK_DIST_LD                  ((reg8 *) CYDEV_CLKDIST_LD)
  37:./Generated_Source/PSoC5/Clock.c **** 
  38:./Generated_Source/PSoC5/Clock.c **** #define CLK_DIST_BCFG0               ((reg8 *) CYDEV_CLKDIST_BCFG0)
  39:./Generated_Source/PSoC5/Clock.c **** #define CLK_DIST_BCFG1               ((reg8 *) CYDEV_CLKDIST_BCFG1)
  40:./Generated_Source/PSoC5/Clock.c **** #define CLK_DIST_BCFG2               ((reg8 *) CYDEV_CLKDIST_BCFG2)
  41:./Generated_Source/PSoC5/Clock.c **** 
  42:./Generated_Source/PSoC5/Clock.c **** #define BCFG2_SHADOW_MASK            (0x80)
  43:./Generated_Source/PSoC5/Clock.c **** 
  44:./Generated_Source/PSoC5/Clock.c **** #define CLK_DIST_WRK0                ((reg8 *) CYDEV_CLKDIST_WRK0)
  45:./Generated_Source/PSoC5/Clock.c **** #define CLK_DIST_WRK1                ((reg8 *) CYDEV_CLKDIST_WRK1)
  46:./Generated_Source/PSoC5/Clock.c **** 
  47:./Generated_Source/PSoC5/Clock.c **** #define CLK_DIST_DMASK               ((reg8 *) CYDEV_CLKDIST_DMASK)
  48:./Generated_Source/PSoC5/Clock.c **** #define CLK_DIST_AMASK               ((reg8 *) CYDEV_CLKDIST_AMASK)
  49:./Generated_Source/PSoC5/Clock.c **** 
  50:./Generated_Source/PSoC5/Clock.c **** 
  51:./Generated_Source/PSoC5/Clock.c **** /*******************************************************************************
  52:./Generated_Source/PSoC5/Clock.c **** * Function Name: Clock_Start
  53:./Generated_Source/PSoC5/Clock.c **** ********************************************************************************
  54:./Generated_Source/PSoC5/Clock.c **** * Summary:
  55:./Generated_Source/PSoC5/Clock.c **** *   Enables the clock by setting the enable bit in the 'Active Power Mode
  56:./Generated_Source/PSoC5/Clock.c **** *   Configuration Register' corresponding to this clock.
  57:./Generated_Source/PSoC5/Clock.c **** *
  58:./Generated_Source/PSoC5/Clock.c **** *
  59:./Generated_Source/PSoC5/Clock.c **** * Parameters:
  60:./Generated_Source/PSoC5/Clock.c **** *   void.
  61:./Generated_Source/PSoC5/Clock.c **** *
  62:./Generated_Source/PSoC5/Clock.c **** * Return:
  63:./Generated_Source/PSoC5/Clock.c **** *   void.
  64:./Generated_Source/PSoC5/Clock.c **** *   
  65:./Generated_Source/PSoC5/Clock.c **** *
  66:./Generated_Source/PSoC5/Clock.c **** *******************************************************************************/
  67:./Generated_Source/PSoC5/Clock.c **** void Clock_Start(void)
  68:./Generated_Source/PSoC5/Clock.c **** {
  32              		.loc 1 68 0
  33              		.cfi_startproc
  34              		@ args = 0, pretend = 0, frame = 0
  35              		@ frame_needed = 1, uses_anonymous_args = 0
  36              		@ link register save eliminated.
  37 0000 80B4     		push	{r7}
  38              	.LCFI0:
  39              		.cfi_def_cfa_offset 4
  40 0002 00AF     		add	r7, sp, #0
  41              		.cfi_offset 7, -4
  42              	.LCFI1:
ARM GAS  C:\DOCUME~1\akay\LOCALS~1\Temp\cckS0rBX.s 			page 3


  43              		.cfi_def_cfa_register 7
  69:./Generated_Source/PSoC5/Clock.c ****     /* Set the bit to enable the clock. */
  70:./Generated_Source/PSoC5/Clock.c ****     *Clock_CLKEN |= Clock_CLKEN_MASK;
  44              		.loc 1 70 0
  45 0004 44F2A233 		movw	r3, #:lower16:1073759138
  46 0008 C4F20003 		movt	r3, #:upper16:1073759138
  47 000c 44F2A232 		movw	r2, #:lower16:1073759138
  48 0010 C4F20002 		movt	r2, #:upper16:1073759138
  49 0014 1278     		ldrb	r2, [r2, #0]
  50 0016 D2B2     		uxtb	r2, r2
  51 0018 42F00102 		orr	r2, r2, #1
  52 001c D2B2     		uxtb	r2, r2
  53 001e 1A70     		strb	r2, [r3, #0]
  71:./Generated_Source/PSoC5/Clock.c **** }
  54              		.loc 1 71 0
  55 0020 BD46     		mov	sp, r7
  56 0022 80BC     		pop	{r7}
  57 0024 7047     		bx	lr
  58              		.cfi_endproc
  59              	.LFE0:
  60              		.size	Clock_Start, .-Clock_Start
  61 0026 00BF     		.section	.text.Clock_Stop,"ax",%progbits
  62              		.align	2
  63              		.global	Clock_Stop
  64              		.thumb
  65              		.thumb_func
  66              		.type	Clock_Stop, %function
  67              	Clock_Stop:
  68              	.LFB1:
  72:./Generated_Source/PSoC5/Clock.c **** 
  73:./Generated_Source/PSoC5/Clock.c **** 
  74:./Generated_Source/PSoC5/Clock.c **** /*******************************************************************************
  75:./Generated_Source/PSoC5/Clock.c **** * Function Name: Clock_Stop
  76:./Generated_Source/PSoC5/Clock.c **** ********************************************************************************
  77:./Generated_Source/PSoC5/Clock.c **** * Summary:
  78:./Generated_Source/PSoC5/Clock.c **** *   Disables the clock by clearing the enable bit in the 'Active Power Mode
  79:./Generated_Source/PSoC5/Clock.c **** *   Configuration Register' corresponding to this clock.
  80:./Generated_Source/PSoC5/Clock.c **** *
  81:./Generated_Source/PSoC5/Clock.c **** *   if the clock is disabled, the output will be held at logic 0 when the
  82:./Generated_Source/PSoC5/Clock.c **** *   signal transitions to a logic 0.
  83:./Generated_Source/PSoC5/Clock.c **** *
  84:./Generated_Source/PSoC5/Clock.c **** * Parameters:
  85:./Generated_Source/PSoC5/Clock.c **** *   void.
  86:./Generated_Source/PSoC5/Clock.c **** *
  87:./Generated_Source/PSoC5/Clock.c **** *
  88:./Generated_Source/PSoC5/Clock.c **** * Return:
  89:./Generated_Source/PSoC5/Clock.c **** *   void.
  90:./Generated_Source/PSoC5/Clock.c **** *   
  91:./Generated_Source/PSoC5/Clock.c **** *
  92:./Generated_Source/PSoC5/Clock.c **** *******************************************************************************/
  93:./Generated_Source/PSoC5/Clock.c **** void Clock_Stop(void)
  94:./Generated_Source/PSoC5/Clock.c **** {
  69              		.loc 1 94 0
  70              		.cfi_startproc
  71              		@ args = 0, pretend = 0, frame = 0
  72              		@ frame_needed = 1, uses_anonymous_args = 0
  73              		@ link register save eliminated.
ARM GAS  C:\DOCUME~1\akay\LOCALS~1\Temp\cckS0rBX.s 			page 4


  74 0000 80B4     		push	{r7}
  75              	.LCFI2:
  76              		.cfi_def_cfa_offset 4
  77 0002 00AF     		add	r7, sp, #0
  78              		.cfi_offset 7, -4
  79              	.LCFI3:
  80              		.cfi_def_cfa_register 7
  95:./Generated_Source/PSoC5/Clock.c ****     /* Clear the bit to enable the clock. */
  96:./Generated_Source/PSoC5/Clock.c ****     *Clock_CLKEN &= ~Clock_CLKEN_MASK;
  81              		.loc 1 96 0
  82 0004 44F2A233 		movw	r3, #:lower16:1073759138
  83 0008 C4F20003 		movt	r3, #:upper16:1073759138
  84 000c 44F2A232 		movw	r2, #:lower16:1073759138
  85 0010 C4F20002 		movt	r2, #:upper16:1073759138
  86 0014 1278     		ldrb	r2, [r2, #0]
  87 0016 D2B2     		uxtb	r2, r2
  88 0018 02F0FE02 		and	r2, r2, #254
  89 001c 1A70     		strb	r2, [r3, #0]
  97:./Generated_Source/PSoC5/Clock.c **** }
  90              		.loc 1 97 0
  91 001e BD46     		mov	sp, r7
  92 0020 80BC     		pop	{r7}
  93 0022 7047     		bx	lr
  94              		.cfi_endproc
  95              	.LFE1:
  96              		.size	Clock_Stop, .-Clock_Stop
  97              		.section	.text.Clock_StandbyPower,"ax",%progbits
  98              		.align	2
  99              		.global	Clock_StandbyPower
 100              		.thumb
 101              		.thumb_func
 102              		.type	Clock_StandbyPower, %function
 103              	Clock_StandbyPower:
 104              	.LFB2:
  98:./Generated_Source/PSoC5/Clock.c **** 
  99:./Generated_Source/PSoC5/Clock.c **** 
 100:./Generated_Source/PSoC5/Clock.c **** /*******************************************************************************
 101:./Generated_Source/PSoC5/Clock.c **** * Function Name: Clock_StandbyPower
 102:./Generated_Source/PSoC5/Clock.c **** ********************************************************************************
 103:./Generated_Source/PSoC5/Clock.c **** * Summary:
 104:./Generated_Source/PSoC5/Clock.c **** *   Selects the power state for this clock when in standby power mode.
 105:./Generated_Source/PSoC5/Clock.c **** *
 106:./Generated_Source/PSoC5/Clock.c **** * Parameters:
 107:./Generated_Source/PSoC5/Clock.c **** *   state:
 108:./Generated_Source/PSoC5/Clock.c **** *       state of this clock during standby power mode. 1 is active, 0 inactive.
 109:./Generated_Source/PSoC5/Clock.c **** *
 110:./Generated_Source/PSoC5/Clock.c **** *   
 111:./Generated_Source/PSoC5/Clock.c **** * Return:
 112:./Generated_Source/PSoC5/Clock.c **** *   void.
 113:./Generated_Source/PSoC5/Clock.c **** *
 114:./Generated_Source/PSoC5/Clock.c **** *
 115:./Generated_Source/PSoC5/Clock.c **** *******************************************************************************/
 116:./Generated_Source/PSoC5/Clock.c **** void Clock_StandbyPower(uint8 state)
 117:./Generated_Source/PSoC5/Clock.c **** {
 105              		.loc 1 117 0
 106              		.cfi_startproc
 107              		@ args = 0, pretend = 0, frame = 8
ARM GAS  C:\DOCUME~1\akay\LOCALS~1\Temp\cckS0rBX.s 			page 5


 108              		@ frame_needed = 1, uses_anonymous_args = 0
 109              		@ link register save eliminated.
 110 0000 80B4     		push	{r7}
 111              	.LCFI4:
 112              		.cfi_def_cfa_offset 4
 113 0002 83B0     		sub	sp, sp, #12
 114              	.LCFI5:
 115              		.cfi_def_cfa_offset 16
 116 0004 00AF     		add	r7, sp, #0
 117              		.cfi_offset 7, -4
 118              	.LCFI6:
 119              		.cfi_def_cfa_register 7
 120 0006 0346     		mov	r3, r0
 121 0008 FB71     		strb	r3, [r7, #7]
 118:./Generated_Source/PSoC5/Clock.c ****     if(state == 0)
 122              		.loc 1 118 0
 123 000a FB79     		ldrb	r3, [r7, #7]	@ zero_extendqisi2
 124 000c 002B     		cmp	r3, #0
 125 000e 0DD1     		bne	.L6
 119:./Generated_Source/PSoC5/Clock.c ****     {
 120:./Generated_Source/PSoC5/Clock.c ****         *Clock_CLKSTBY &= ~Clock_CLKSTBY_MASK;
 126              		.loc 1 120 0
 127 0010 44F2B233 		movw	r3, #:lower16:1073759154
 128 0014 C4F20003 		movt	r3, #:upper16:1073759154
 129 0018 44F2B232 		movw	r2, #:lower16:1073759154
 130 001c C4F20002 		movt	r2, #:upper16:1073759154
 131 0020 1278     		ldrb	r2, [r2, #0]
 132 0022 D2B2     		uxtb	r2, r2
 133 0024 02F0FE02 		and	r2, r2, #254
 134 0028 1A70     		strb	r2, [r3, #0]
 135 002a 0DE0     		b	.L8
 136              	.L6:
 121:./Generated_Source/PSoC5/Clock.c ****     }
 122:./Generated_Source/PSoC5/Clock.c ****     else
 123:./Generated_Source/PSoC5/Clock.c ****     {
 124:./Generated_Source/PSoC5/Clock.c ****         *Clock_CLKSTBY |= Clock_CLKSTBY_MASK;
 137              		.loc 1 124 0
 138 002c 44F2B233 		movw	r3, #:lower16:1073759154
 139 0030 C4F20003 		movt	r3, #:upper16:1073759154
 140 0034 44F2B232 		movw	r2, #:lower16:1073759154
 141 0038 C4F20002 		movt	r2, #:upper16:1073759154
 142 003c 1278     		ldrb	r2, [r2, #0]
 143 003e D2B2     		uxtb	r2, r2
 144 0040 42F00102 		orr	r2, r2, #1
 145 0044 D2B2     		uxtb	r2, r2
 146 0046 1A70     		strb	r2, [r3, #0]
 147              	.L8:
 125:./Generated_Source/PSoC5/Clock.c ****     }
 126:./Generated_Source/PSoC5/Clock.c **** }
 148              		.loc 1 126 0
 149 0048 07F10C07 		add	r7, r7, #12
 150 004c BD46     		mov	sp, r7
 151 004e 80BC     		pop	{r7}
 152 0050 7047     		bx	lr
 153              		.cfi_endproc
 154              	.LFE2:
 155              		.size	Clock_StandbyPower, .-Clock_StandbyPower
ARM GAS  C:\DOCUME~1\akay\LOCALS~1\Temp\cckS0rBX.s 			page 6


 156 0052 00BF     		.section	.text.Clock_SetDivider,"ax",%progbits
 157              		.align	2
 158              		.global	Clock_SetDivider
 159              		.thumb
 160              		.thumb_func
 161              		.type	Clock_SetDivider, %function
 162              	Clock_SetDivider:
 163              	.LFB3:
 127:./Generated_Source/PSoC5/Clock.c **** 
 128:./Generated_Source/PSoC5/Clock.c **** 
 129:./Generated_Source/PSoC5/Clock.c **** /*******************************************************************************
 130:./Generated_Source/PSoC5/Clock.c **** * Function Name: Clock_SetDivider
 131:./Generated_Source/PSoC5/Clock.c **** ********************************************************************************
 132:./Generated_Source/PSoC5/Clock.c **** * Summary:
 133:./Generated_Source/PSoC5/Clock.c **** *   Sets the divider of the clock.
 134:./Generated_Source/PSoC5/Clock.c **** *
 135:./Generated_Source/PSoC5/Clock.c **** *
 136:./Generated_Source/PSoC5/Clock.c **** * Parameters:
 137:./Generated_Source/PSoC5/Clock.c **** * clkDivider:
 138:./Generated_Source/PSoC5/Clock.c **** *   Value to device the input clock by.
 139:./Generated_Source/PSoC5/Clock.c **** *
 140:./Generated_Source/PSoC5/Clock.c **** *
 141:./Generated_Source/PSoC5/Clock.c **** * Return:
 142:./Generated_Source/PSoC5/Clock.c **** *   void.
 143:./Generated_Source/PSoC5/Clock.c **** *   
 144:./Generated_Source/PSoC5/Clock.c **** *
 145:./Generated_Source/PSoC5/Clock.c **** * Theory:
 146:./Generated_Source/PSoC5/Clock.c **** *   Any value other than zero is acceptable.
 147:./Generated_Source/PSoC5/Clock.c **** *
 148:./Generated_Source/PSoC5/Clock.c **** *
 149:./Generated_Source/PSoC5/Clock.c **** *******************************************************************************/
 150:./Generated_Source/PSoC5/Clock.c **** void Clock_SetDivider(uint16 clkDivider)
 151:./Generated_Source/PSoC5/Clock.c **** {
 164              		.loc 1 151 0
 165              		.cfi_startproc
 166              		@ args = 0, pretend = 0, frame = 8
 167              		@ frame_needed = 1, uses_anonymous_args = 0
 168              		@ link register save eliminated.
 169 0000 80B4     		push	{r7}
 170              	.LCFI7:
 171              		.cfi_def_cfa_offset 4
 172 0002 83B0     		sub	sp, sp, #12
 173              	.LCFI8:
 174              		.cfi_def_cfa_offset 16
 175 0004 00AF     		add	r7, sp, #0
 176              		.cfi_offset 7, -4
 177              	.LCFI9:
 178              		.cfi_def_cfa_register 7
 179 0006 0346     		mov	r3, r0
 180 0008 FB80     		strh	r3, [r7, #6]	@ movhi
 152:./Generated_Source/PSoC5/Clock.c ****     // Clear all the mask bits except ours.
 153:./Generated_Source/PSoC5/Clock.c **** #if defined(Clock__CFG3)
 154:./Generated_Source/PSoC5/Clock.c ****     *CLK_DIST_AMASK = Clock_CLKEN_MASK;
 155:./Generated_Source/PSoC5/Clock.c ****     *CLK_DIST_DMASK = 0;
 156:./Generated_Source/PSoC5/Clock.c **** #else
 157:./Generated_Source/PSoC5/Clock.c ****     *CLK_DIST_DMASK = Clock_CLKEN_MASK;
 181              		.loc 1 157 0
ARM GAS  C:\DOCUME~1\akay\LOCALS~1\Temp\cckS0rBX.s 			page 7


 182 000a 44F21003 		movw	r3, #:lower16:1073758224
 183 000e C4F20003 		movt	r3, #:upper16:1073758224
 184 0012 4FF00102 		mov	r2, #1
 185 0016 1A70     		strb	r2, [r3, #0]
 158:./Generated_Source/PSoC5/Clock.c ****     *CLK_DIST_AMASK = 0;
 186              		.loc 1 158 0
 187 0018 44F21403 		movw	r3, #:lower16:1073758228
 188 001c C4F20003 		movt	r3, #:upper16:1073758228
 189 0020 4FF00002 		mov	r2, #0
 190 0024 1A70     		strb	r2, [r3, #0]
 159:./Generated_Source/PSoC5/Clock.c **** #endif
 160:./Generated_Source/PSoC5/Clock.c **** 
 161:./Generated_Source/PSoC5/Clock.c ****     /* Set the mask bit to enable shadow loads. */
 162:./Generated_Source/PSoC5/Clock.c ****     *CLK_DIST_BCFG2 |= BCFG2_SHADOW_MASK;
 191              		.loc 1 162 0
 192 0026 44F20803 		movw	r3, #:lower16:1073758216
 193 002a C4F20003 		movt	r3, #:upper16:1073758216
 194 002e 44F20802 		movw	r2, #:lower16:1073758216
 195 0032 C4F20002 		movt	r2, #:upper16:1073758216
 196 0036 1278     		ldrb	r2, [r2, #0]
 197 0038 D2B2     		uxtb	r2, r2
 198 003a 6FEA4262 		mvn	r2, r2, lsl #25
 199 003e 6FEA5262 		mvn	r2, r2, lsr #25
 200 0042 D2B2     		uxtb	r2, r2
 201 0044 1A70     		strb	r2, [r3, #0]
 163:./Generated_Source/PSoC5/Clock.c **** 
 164:./Generated_Source/PSoC5/Clock.c ****     *CLK_DIST_WRK0 = LO8(clkDivider);
 202              		.loc 1 164 0
 203 0046 44F20203 		movw	r3, #:lower16:1073758210
 204 004a C4F20003 		movt	r3, #:upper16:1073758210
 205 004e FA88     		ldrh	r2, [r7, #6]	@ movhi
 206 0050 D2B2     		uxtb	r2, r2
 207 0052 1A70     		strb	r2, [r3, #0]
 165:./Generated_Source/PSoC5/Clock.c ****     *CLK_DIST_WRK1 = HI8(clkDivider);
 208              		.loc 1 165 0
 209 0054 44F20303 		movw	r3, #:lower16:1073758211
 210 0058 C4F20003 		movt	r3, #:upper16:1073758211
 211 005c FA88     		ldrh	r2, [r7, #6]
 212 005e 4FEA1222 		lsr	r2, r2, #8
 213 0062 92B2     		uxth	r2, r2
 214 0064 D2B2     		uxtb	r2, r2
 215 0066 1A70     		strb	r2, [r3, #0]
 166:./Generated_Source/PSoC5/Clock.c **** 
 167:./Generated_Source/PSoC5/Clock.c ****     /* Load mask and restart together. */
 168:./Generated_Source/PSoC5/Clock.c ****     *CLK_DIST_LD = 3;
 216              		.loc 1 168 0
 217 0068 44F20103 		movw	r3, #:lower16:1073758209
 218 006c C4F20003 		movt	r3, #:upper16:1073758209
 219 0070 4FF00302 		mov	r2, #3
 220 0074 1A70     		strb	r2, [r3, #0]
 169:./Generated_Source/PSoC5/Clock.c **** }
 221              		.loc 1 169 0
 222 0076 07F10C07 		add	r7, r7, #12
 223 007a BD46     		mov	sp, r7
 224 007c 80BC     		pop	{r7}
 225 007e 7047     		bx	lr
 226              		.cfi_endproc
ARM GAS  C:\DOCUME~1\akay\LOCALS~1\Temp\cckS0rBX.s 			page 8


 227              	.LFE3:
 228              		.size	Clock_SetDivider, .-Clock_SetDivider
 229              		.section	.text.Clock_SetMode,"ax",%progbits
 230              		.align	2
 231              		.global	Clock_SetMode
 232              		.thumb
 233              		.thumb_func
 234              		.type	Clock_SetMode, %function
 235              	Clock_SetMode:
 236              	.LFB4:
 170:./Generated_Source/PSoC5/Clock.c **** 
 171:./Generated_Source/PSoC5/Clock.c **** 
 172:./Generated_Source/PSoC5/Clock.c **** /*******************************************************************************
 173:./Generated_Source/PSoC5/Clock.c **** * Function Name: Clock_SetMode
 174:./Generated_Source/PSoC5/Clock.c **** ********************************************************************************
 175:./Generated_Source/PSoC5/Clock.c **** * Summary:
 176:./Generated_Source/PSoC5/Clock.c **** *   Sets the operating mode of the clock.
 177:./Generated_Source/PSoC5/Clock.c **** *
 178:./Generated_Source/PSoC5/Clock.c **** *
 179:./Generated_Source/PSoC5/Clock.c **** * Parameters:
 180:./Generated_Source/PSoC5/Clock.c **** * clkMode: The following optional bits or'ed together.
 181:./Generated_Source/PSoC5/Clock.c **** *
 182:./Generated_Source/PSoC5/Clock.c **** *   CYCLK_PIPE 
 183:./Generated_Source/PSoC5/Clock.c **** *   CYCLK_SSS  
 184:./Generated_Source/PSoC5/Clock.c **** *   CYCLK_EARLY
 185:./Generated_Source/PSoC5/Clock.c **** *   CYCLK_DUTY 
 186:./Generated_Source/PSoC5/Clock.c **** *   CYCLK_SYNC 
 187:./Generated_Source/PSoC5/Clock.c **** *
 188:./Generated_Source/PSoC5/Clock.c **** * Return:
 189:./Generated_Source/PSoC5/Clock.c **** *   void.
 190:./Generated_Source/PSoC5/Clock.c **** *   
 191:./Generated_Source/PSoC5/Clock.c **** *
 192:./Generated_Source/PSoC5/Clock.c **** *******************************************************************************/
 193:./Generated_Source/PSoC5/Clock.c **** void Clock_SetMode(uint8 clkMode)
 194:./Generated_Source/PSoC5/Clock.c **** {
 237              		.loc 1 194 0
 238              		.cfi_startproc
 239              		@ args = 0, pretend = 0, frame = 16
 240              		@ frame_needed = 1, uses_anonymous_args = 0
 241              		@ link register save eliminated.
 242 0000 80B4     		push	{r7}
 243              	.LCFI10:
 244              		.cfi_def_cfa_offset 4
 245 0002 85B0     		sub	sp, sp, #20
 246              	.LCFI11:
 247              		.cfi_def_cfa_offset 24
 248 0004 00AF     		add	r7, sp, #0
 249              		.cfi_offset 7, -4
 250              	.LCFI12:
 251              		.cfi_def_cfa_register 7
 252 0006 0346     		mov	r3, r0
 253 0008 FB71     		strb	r3, [r7, #7]
 195:./Generated_Source/PSoC5/Clock.c ****     uint8 value;
 196:./Generated_Source/PSoC5/Clock.c **** 
 197:./Generated_Source/PSoC5/Clock.c **** 
 198:./Generated_Source/PSoC5/Clock.c ****     /* Get the mode and source for the clock. */
 199:./Generated_Source/PSoC5/Clock.c ****     value = *Clock_MOD_SRC;
ARM GAS  C:\DOCUME~1\akay\LOCALS~1\Temp\cckS0rBX.s 			page 9


 254              		.loc 1 199 0
 255 000a 44F28203 		movw	r3, #:lower16:1073758338
 256 000e C4F20003 		movt	r3, #:upper16:1073758338
 257 0012 1B78     		ldrb	r3, [r3, #0]
 258 0014 FB73     		strb	r3, [r7, #15]
 200:./Generated_Source/PSoC5/Clock.c **** 
 201:./Generated_Source/PSoC5/Clock.c ****     /* Clear out the mode. */
 202:./Generated_Source/PSoC5/Clock.c ****     value &= 0x07u;
 259              		.loc 1 202 0
 260 0016 FB7B     		ldrb	r3, [r7, #15]
 261 0018 03F00703 		and	r3, r3, #7
 262 001c FB73     		strb	r3, [r7, #15]
 203:./Generated_Source/PSoC5/Clock.c **** 
 204:./Generated_Source/PSoC5/Clock.c ****     /* Write the new mode. */
 205:./Generated_Source/PSoC5/Clock.c ****     value |= clkMode;
 263              		.loc 1 205 0
 264 001e FA7B     		ldrb	r2, [r7, #15]
 265 0020 FB79     		ldrb	r3, [r7, #7]
 266 0022 42EA0303 		orr	r3, r2, r3
 267 0026 FB73     		strb	r3, [r7, #15]
 206:./Generated_Source/PSoC5/Clock.c **** 
 207:./Generated_Source/PSoC5/Clock.c ****     /* Set the new mode of the clock. */
 208:./Generated_Source/PSoC5/Clock.c ****     *Clock_MOD_SRC = value;
 268              		.loc 1 208 0
 269 0028 44F28203 		movw	r3, #:lower16:1073758338
 270 002c C4F20003 		movt	r3, #:upper16:1073758338
 271 0030 FA7B     		ldrb	r2, [r7, #15]
 272 0032 1A70     		strb	r2, [r3, #0]
 209:./Generated_Source/PSoC5/Clock.c **** }
 273              		.loc 1 209 0
 274 0034 07F11407 		add	r7, r7, #20
 275 0038 BD46     		mov	sp, r7
 276 003a 80BC     		pop	{r7}
 277 003c 7047     		bx	lr
 278              		.cfi_endproc
 279              	.LFE4:
 280              		.size	Clock_SetMode, .-Clock_SetMode
 281 003e 00BF     		.section	.text.Clock_SetSource,"ax",%progbits
 282              		.align	2
 283              		.global	Clock_SetSource
 284              		.thumb
 285              		.thumb_func
 286              		.type	Clock_SetSource, %function
 287              	Clock_SetSource:
 288              	.LFB5:
 210:./Generated_Source/PSoC5/Clock.c **** 
 211:./Generated_Source/PSoC5/Clock.c **** 
 212:./Generated_Source/PSoC5/Clock.c **** /*******************************************************************************
 213:./Generated_Source/PSoC5/Clock.c **** * Function Name: Clock_SetSource
 214:./Generated_Source/PSoC5/Clock.c **** ********************************************************************************
 215:./Generated_Source/PSoC5/Clock.c **** * Summary:
 216:./Generated_Source/PSoC5/Clock.c **** *   Sets the input source of the clock.
 217:./Generated_Source/PSoC5/Clock.c **** *
 218:./Generated_Source/PSoC5/Clock.c **** * Parameters:
 219:./Generated_Source/PSoC5/Clock.c **** * clkSource:
 220:./Generated_Source/PSoC5/Clock.c **** *   One of the following input sources.
 221:./Generated_Source/PSoC5/Clock.c **** *
ARM GAS  C:\DOCUME~1\akay\LOCALS~1\Temp\cckS0rBX.s 			page 10


 222:./Generated_Source/PSoC5/Clock.c **** *   CYCLK_SRC_SEL_SYNC_DIG
 223:./Generated_Source/PSoC5/Clock.c **** *   CYCLK_SRC_SEL_IMO  
 224:./Generated_Source/PSoC5/Clock.c **** *   CYCLK_SRC_SEL_XTALM
 225:./Generated_Source/PSoC5/Clock.c **** *   CYCLK_SRC_SEL_ILO  
 226:./Generated_Source/PSoC5/Clock.c **** *   CYCLK_SRC_SEL_PLL  
 227:./Generated_Source/PSoC5/Clock.c **** *   CYCLK_SRC_SEL_XTALK
 228:./Generated_Source/PSoC5/Clock.c **** *   CYCLK_SRC_SEL_DSI_G
 229:./Generated_Source/PSoC5/Clock.c **** *   CYCLK_SRC_SEL_DSI_D
 230:./Generated_Source/PSoC5/Clock.c **** *
 231:./Generated_Source/PSoC5/Clock.c **** * Return:
 232:./Generated_Source/PSoC5/Clock.c **** *   void.
 233:./Generated_Source/PSoC5/Clock.c **** *   
 234:./Generated_Source/PSoC5/Clock.c **** *
 235:./Generated_Source/PSoC5/Clock.c **** *******************************************************************************/
 236:./Generated_Source/PSoC5/Clock.c **** void Clock_SetSource(uint8 clkSource)
 237:./Generated_Source/PSoC5/Clock.c **** {
 289              		.loc 1 237 0
 290              		.cfi_startproc
 291              		@ args = 0, pretend = 0, frame = 16
 292              		@ frame_needed = 1, uses_anonymous_args = 0
 293              		@ link register save eliminated.
 294 0000 80B4     		push	{r7}
 295              	.LCFI13:
 296              		.cfi_def_cfa_offset 4
 297 0002 85B0     		sub	sp, sp, #20
 298              	.LCFI14:
 299              		.cfi_def_cfa_offset 24
 300 0004 00AF     		add	r7, sp, #0
 301              		.cfi_offset 7, -4
 302              	.LCFI15:
 303              		.cfi_def_cfa_register 7
 304 0006 0346     		mov	r3, r0
 305 0008 FB71     		strb	r3, [r7, #7]
 238:./Generated_Source/PSoC5/Clock.c ****     uint8 value;
 239:./Generated_Source/PSoC5/Clock.c **** 
 240:./Generated_Source/PSoC5/Clock.c **** 
 241:./Generated_Source/PSoC5/Clock.c ****     /* Get the mode and source for the clock. */
 242:./Generated_Source/PSoC5/Clock.c ****     value = *Clock_MOD_SRC;
 306              		.loc 1 242 0
 307 000a 44F28203 		movw	r3, #:lower16:1073758338
 308 000e C4F20003 		movt	r3, #:upper16:1073758338
 309 0012 1B78     		ldrb	r3, [r3, #0]
 310 0014 FB73     		strb	r3, [r7, #15]
 243:./Generated_Source/PSoC5/Clock.c **** 
 244:./Generated_Source/PSoC5/Clock.c ****     /* Clear out the source. */
 245:./Generated_Source/PSoC5/Clock.c ****     value &= 0xF8u;
 311              		.loc 1 245 0
 312 0016 FB7B     		ldrb	r3, [r7, #15]
 313 0018 23F00703 		bic	r3, r3, #7
 314 001c FB73     		strb	r3, [r7, #15]
 246:./Generated_Source/PSoC5/Clock.c **** 
 247:./Generated_Source/PSoC5/Clock.c ****     /* Write the new source. */
 248:./Generated_Source/PSoC5/Clock.c ****     value |= clkSource;
 315              		.loc 1 248 0
 316 001e FA7B     		ldrb	r2, [r7, #15]
 317 0020 FB79     		ldrb	r3, [r7, #7]
 318 0022 42EA0303 		orr	r3, r2, r3
ARM GAS  C:\DOCUME~1\akay\LOCALS~1\Temp\cckS0rBX.s 			page 11


 319 0026 FB73     		strb	r3, [r7, #15]
 249:./Generated_Source/PSoC5/Clock.c **** 
 250:./Generated_Source/PSoC5/Clock.c ****     /* Set the new mode of the clock. */
 251:./Generated_Source/PSoC5/Clock.c ****     *Clock_MOD_SRC = value;
 320              		.loc 1 251 0
 321 0028 44F28203 		movw	r3, #:lower16:1073758338
 322 002c C4F20003 		movt	r3, #:upper16:1073758338
 323 0030 FA7B     		ldrb	r2, [r7, #15]
 324 0032 1A70     		strb	r2, [r3, #0]
 252:./Generated_Source/PSoC5/Clock.c **** }
 325              		.loc 1 252 0
 326 0034 07F11407 		add	r7, r7, #20
 327 0038 BD46     		mov	sp, r7
 328 003a 80BC     		pop	{r7}
 329 003c 7047     		bx	lr
 330              		.cfi_endproc
 331              	.LFE5:
 332              		.size	Clock_SetSource, .-Clock_SetSource
 333 003e 00BF     		.text
 334              	.Letext0: