ARM GAS  C:\DOCUME~1\akay\LOCALS~1\Temp\ccXV5DRf.s 			page 1


   1              		.syntax unified
   2              		.cpu cortex-m3
   3              		.fpu softvfp
   4              		.eabi_attribute 20, 1
   5              		.eabi_attribute 21, 1
   6              		.eabi_attribute 23, 3
   7              		.eabi_attribute 24, 1
   8              		.eabi_attribute 25, 1
   9              		.eabi_attribute 26, 1
  10              		.eabi_attribute 30, 6
  11              		.eabi_attribute 18, 4
  12              		.thumb
  13              		.file	"Cm3Start.c"
  20 0000 9D000000 		.text
  20      02004700 
  20      00000201 
  20      FB0E0D00 
  20      01010101 
  21              	.Ltext0:
  22              		.cfi_sections	.debug_frame
  23              		.global	CyRamVectors
  24              		.section	.ramvectors,"aw",%progbits
  25              		.align	8
  26              		.type	CyRamVectors, %object
  27              		.size	CyRamVectors, 192
  28              	CyRamVectors:
  29 0000 00000000 		.space	192
  29      00000000 
  29      00000000 
  29      00000000 
  29      00000000 
  30 00c0 00000000 		.section	.text.IntDefaultHandler,"ax",%progbits
  30      00000000 
  30      00000000 
  30      00000000 
  30      00000000 
  31              		.align	2
  32              		.global	IntDefaultHandler
  33              		.thumb
  34              		.thumb_func
  35              		.type	IntDefaultHandler, %function
  36              	IntDefaultHandler:
  37              	.LFB0:
  38              		.file 1 "./Generated_Source/PSoC5/Cm3Start.c"
   1:./Generated_Source/PSoC5/Cm3Start.c **** /*******************************************************************************
   2:./Generated_Source/PSoC5/Cm3Start.c **** * File Name: Cm3Start.c  
   3:./Generated_Source/PSoC5/Cm3Start.c **** * Version 2.0
   4:./Generated_Source/PSoC5/Cm3Start.c **** *
   5:./Generated_Source/PSoC5/Cm3Start.c **** *  Description:
   6:./Generated_Source/PSoC5/Cm3Start.c **** *  Startp code for the ARM CM3.
   7:./Generated_Source/PSoC5/Cm3Start.c **** *
ARM GAS  C:\DOCUME~1\akay\LOCALS~1\Temp\ccXV5DRf.s 			page 2


   8:./Generated_Source/PSoC5/Cm3Start.c **** *
   9:./Generated_Source/PSoC5/Cm3Start.c **** *
  10:./Generated_Source/PSoC5/Cm3Start.c **** *  Note:
  11:./Generated_Source/PSoC5/Cm3Start.c **** *
  12:./Generated_Source/PSoC5/Cm3Start.c **** *   
  13:./Generated_Source/PSoC5/Cm3Start.c **** *
  14:./Generated_Source/PSoC5/Cm3Start.c **** ********************************************************************************
  15:./Generated_Source/PSoC5/Cm3Start.c **** * Copyright 2008-2010, Cypress Semiconductor Corporation.  All rights reserved.
  16:./Generated_Source/PSoC5/Cm3Start.c **** * You may use this file only in accordance with the license, terms, conditions, 
  17:./Generated_Source/PSoC5/Cm3Start.c **** * disclaimers, and limitations in the end user license agreement accompanying 
  18:./Generated_Source/PSoC5/Cm3Start.c **** * the software package with which this file was provided.
  19:./Generated_Source/PSoC5/Cm3Start.c **** ********************************************************************************/
  20:./Generated_Source/PSoC5/Cm3Start.c **** 
  21:./Generated_Source/PSoC5/Cm3Start.c **** #include <CYDEVICE_TRM.H>
  22:./Generated_Source/PSoC5/Cm3Start.c **** #include <CYTYPES.H>
  23:./Generated_Source/PSoC5/Cm3Start.c **** #include <CYFITTER_CFG.H>
  24:./Generated_Source/PSoC5/Cm3Start.c **** #include <CYLIB.H>
  25:./Generated_Source/PSoC5/Cm3Start.c **** #include <CYDMAC.H>
  26:./Generated_Source/PSoC5/Cm3Start.c **** #include <CYFITTER.H>
  27:./Generated_Source/PSoC5/Cm3Start.c **** 
  28:./Generated_Source/PSoC5/Cm3Start.c **** 
  29:./Generated_Source/PSoC5/Cm3Start.c **** #define NUM_INTERRUPTS              32
  30:./Generated_Source/PSoC5/Cm3Start.c **** #define NUM_VECTORS                 (CYINT_IRQ_BASE+NUM_INTERRUPTS)
  31:./Generated_Source/PSoC5/Cm3Start.c **** #define NVIC_APINT                  ((reg32 *) CYREG_NVIC_APPLN_INTR)
  32:./Generated_Source/PSoC5/Cm3Start.c **** #define NVIC_CFG_CTRL               ((reg32 *) CYREG_NVIC_CFG_CONTROL)
  33:./Generated_Source/PSoC5/Cm3Start.c **** #define NVIC_APINT_PRIGROUP_3_5     0x00000400  /* Priority group 3.5 split */
  34:./Generated_Source/PSoC5/Cm3Start.c **** #define NVIC_APINT_VECTKEY          0x05FA0000  /* This key is required in order to write the NVIC_
  35:./Generated_Source/PSoC5/Cm3Start.c **** #define NVIC_CFG_STACKALIGN         0x00000200  /* This specifies that the exception stack must be 
  36:./Generated_Source/PSoC5/Cm3Start.c **** 
  37:./Generated_Source/PSoC5/Cm3Start.c **** /* extern functions */
  38:./Generated_Source/PSoC5/Cm3Start.c **** extern void CyBtldr_CheckLaunch(void);
  39:./Generated_Source/PSoC5/Cm3Start.c **** /* function prototypes */
  40:./Generated_Source/PSoC5/Cm3Start.c **** void initialize_psoc(void);
  41:./Generated_Source/PSoC5/Cm3Start.c **** 
  42:./Generated_Source/PSoC5/Cm3Start.c **** 
  43:./Generated_Source/PSoC5/Cm3Start.c **** /*******************************************************************************
  44:./Generated_Source/PSoC5/Cm3Start.c **** *
  45:./Generated_Source/PSoC5/Cm3Start.c **** * Default Ram Interrupt Vector table storage area. Must be 256-byte aligned.
  46:./Generated_Source/PSoC5/Cm3Start.c **** *
  47:./Generated_Source/PSoC5/Cm3Start.c **** *******************************************************************************/
  48:./Generated_Source/PSoC5/Cm3Start.c **** __attribute__ ((section(".ramvectors")))
  49:./Generated_Source/PSoC5/Cm3Start.c **** #if defined(__ARMCC_VERSION)
  50:./Generated_Source/PSoC5/Cm3Start.c **** __align(256)
  51:./Generated_Source/PSoC5/Cm3Start.c **** #elif defined (__GNUC__)
  52:./Generated_Source/PSoC5/Cm3Start.c **** __attribute__ ((aligned(256)))
  53:./Generated_Source/PSoC5/Cm3Start.c **** #endif
  54:./Generated_Source/PSoC5/Cm3Start.c **** cyisraddress CyRamVectors[NUM_VECTORS];
  55:./Generated_Source/PSoC5/Cm3Start.c **** 
  56:./Generated_Source/PSoC5/Cm3Start.c **** 
  57:./Generated_Source/PSoC5/Cm3Start.c **** /*******************************************************************************
  58:./Generated_Source/PSoC5/Cm3Start.c **** * Function Name: IntDefaultHandler
  59:./Generated_Source/PSoC5/Cm3Start.c **** ********************************************************************************
  60:./Generated_Source/PSoC5/Cm3Start.c **** * Summary:
  61:./Generated_Source/PSoC5/Cm3Start.c **** *   This function is called for all interrupts, other than reset, that get
  62:./Generated_Source/PSoC5/Cm3Start.c **** *   called before the system is setup.
  63:./Generated_Source/PSoC5/Cm3Start.c **** *
  64:./Generated_Source/PSoC5/Cm3Start.c **** *
ARM GAS  C:\DOCUME~1\akay\LOCALS~1\Temp\ccXV5DRf.s 			page 3


  65:./Generated_Source/PSoC5/Cm3Start.c **** * Parameters:
  66:./Generated_Source/PSoC5/Cm3Start.c **** *   void.
  67:./Generated_Source/PSoC5/Cm3Start.c **** *
  68:./Generated_Source/PSoC5/Cm3Start.c **** *
  69:./Generated_Source/PSoC5/Cm3Start.c **** * Return:
  70:./Generated_Source/PSoC5/Cm3Start.c **** *   void.
  71:./Generated_Source/PSoC5/Cm3Start.c **** *   
  72:./Generated_Source/PSoC5/Cm3Start.c **** *
  73:./Generated_Source/PSoC5/Cm3Start.c **** * Theory:
  74:./Generated_Source/PSoC5/Cm3Start.c **** *   Any value other than zero is acceptable.
  75:./Generated_Source/PSoC5/Cm3Start.c **** *
  76:./Generated_Source/PSoC5/Cm3Start.c **** *
  77:./Generated_Source/PSoC5/Cm3Start.c **** *******************************************************************************/
  78:./Generated_Source/PSoC5/Cm3Start.c **** CY_ISR(IntDefaultHandler)
  79:./Generated_Source/PSoC5/Cm3Start.c **** {
  39              		.loc 1 79 0
  40              		.cfi_startproc
  41              		@ args = 0, pretend = 0, frame = 0
  42              		@ frame_needed = 1, uses_anonymous_args = 0
  43              		@ link register save eliminated.
  44 0000 80B4     		push	{r7}
  45              	.LCFI0:
  46              		.cfi_def_cfa_offset 4
  47 0002 00AF     		add	r7, sp, #0
  48              		.cfi_offset 7, -4
  49              	.LCFI1:
  50              		.cfi_def_cfa_register 7
  51              	.L2:
  80:./Generated_Source/PSoC5/Cm3Start.c ****     /* We should never get here. If we do, a serious problem occured, so 
  81:./Generated_Source/PSoC5/Cm3Start.c ****      * go into an infinite loop. 
  82:./Generated_Source/PSoC5/Cm3Start.c ****      */
  83:./Generated_Source/PSoC5/Cm3Start.c ****     while(1);
  52              		.loc 1 83 0
  53 0004 FEE7     		b	.L2
  54              		.cfi_endproc
  55              	.LFE0:
  56              		.size	IntDefaultHandler, .-IntDefaultHandler
  57 0006 00BF     		.section	.text.CheckBootloader,"ax",%progbits
  58              		.align	2
  59              		.global	CheckBootloader
  60              		.thumb
  61              		.thumb_func
  62              		.type	CheckBootloader, %function
  63              	CheckBootloader:
  64              	.LFB1:
  84:./Generated_Source/PSoC5/Cm3Start.c **** }
  85:./Generated_Source/PSoC5/Cm3Start.c **** 
  86:./Generated_Source/PSoC5/Cm3Start.c **** /*******************************************************************************
  87:./Generated_Source/PSoC5/Cm3Start.c **** * Function Name: CheckBootloader
  88:./Generated_Source/PSoC5/Cm3Start.c **** ********************************************************************************
  89:./Generated_Source/PSoC5/Cm3Start.c **** * Summary:
  90:./Generated_Source/PSoC5/Cm3Start.c **** *   This function is called before configuring a bootloader device. This function
  91:./Generated_Source/PSoC5/Cm3Start.c **** *	may never return, instead jumping control directly to the Bootloader's
  92:./Generated_Source/PSoC5/Cm3Start.c **** *	associated Boot Loadable project in flash.
  93:./Generated_Source/PSoC5/Cm3Start.c **** *
  94:./Generated_Source/PSoC5/Cm3Start.c **** *
  95:./Generated_Source/PSoC5/Cm3Start.c **** * Parameters:
ARM GAS  C:\DOCUME~1\akay\LOCALS~1\Temp\ccXV5DRf.s 			page 4


  96:./Generated_Source/PSoC5/Cm3Start.c **** *   void.
  97:./Generated_Source/PSoC5/Cm3Start.c **** *
  98:./Generated_Source/PSoC5/Cm3Start.c **** *
  99:./Generated_Source/PSoC5/Cm3Start.c **** * Return:
 100:./Generated_Source/PSoC5/Cm3Start.c **** *   void.
 101:./Generated_Source/PSoC5/Cm3Start.c **** *   
 102:./Generated_Source/PSoC5/Cm3Start.c **** *
 103:./Generated_Source/PSoC5/Cm3Start.c **** * Theory:
 104:./Generated_Source/PSoC5/Cm3Start.c **** *   May never return.
 105:./Generated_Source/PSoC5/Cm3Start.c **** *
 106:./Generated_Source/PSoC5/Cm3Start.c **** *
 107:./Generated_Source/PSoC5/Cm3Start.c **** *******************************************************************************/
 108:./Generated_Source/PSoC5/Cm3Start.c **** void CheckBootloader()
 109:./Generated_Source/PSoC5/Cm3Start.c **** {
  65              		.loc 1 109 0
  66              		.cfi_startproc
  67              		@ args = 0, pretend = 0, frame = 0
  68              		@ frame_needed = 1, uses_anonymous_args = 0
  69              		@ link register save eliminated.
  70 0000 80B4     		push	{r7}
  71              	.LCFI2:
  72              		.cfi_def_cfa_offset 4
  73 0002 00AF     		add	r7, sp, #0
  74              		.cfi_offset 7, -4
  75              	.LCFI3:
  76              		.cfi_def_cfa_register 7
 110:./Generated_Source/PSoC5/Cm3Start.c **** #if (CYDEV_BOOTLOADER_ENABLE)
 111:./Generated_Source/PSoC5/Cm3Start.c **** 	/* If second MSB of CYREG_RESET_SR0 is high then we are to do a bootload operation */
 112:./Generated_Source/PSoC5/Cm3Start.c **** 	uint8 *resetSR0 = (uint8*)CYREG_RESET_SR0;
 113:./Generated_Source/PSoC5/Cm3Start.c **** 	if (((*resetSR0) & 0x40) != 0x40)
 114:./Generated_Source/PSoC5/Cm3Start.c **** 		CyBtldr_CheckLaunch();
 115:./Generated_Source/PSoC5/Cm3Start.c **** #endif
 116:./Generated_Source/PSoC5/Cm3Start.c **** }
  77              		.loc 1 116 0
  78 0004 BD46     		mov	sp, r7
  79 0006 80BC     		pop	{r7}
  80 0008 7047     		bx	lr
  81              		.cfi_endproc
  82              	.LFE1:
  83              		.size	CheckBootloader, .-CheckBootloader
  84 000a 00BF     		.section	.text.Reset,"ax",%progbits
  85              		.align	2
  86              		.global	Reset
  87              		.thumb
  88              		.thumb_func
  89              		.type	Reset, %function
  90              	Reset:
  91              	.LFB2:
 117:./Generated_Source/PSoC5/Cm3Start.c **** 
 118:./Generated_Source/PSoC5/Cm3Start.c **** #if defined(__ARMCC_VERSION)
 119:./Generated_Source/PSoC5/Cm3Start.c **** 
 120:./Generated_Source/PSoC5/Cm3Start.c **** /* Local function for the device reset. */
 121:./Generated_Source/PSoC5/Cm3Start.c **** extern void Reset(void);
 122:./Generated_Source/PSoC5/Cm3Start.c **** 
 123:./Generated_Source/PSoC5/Cm3Start.c **** /* Application entry point. */
 124:./Generated_Source/PSoC5/Cm3Start.c **** extern void $Super$$main(void);
 125:./Generated_Source/PSoC5/Cm3Start.c **** 
ARM GAS  C:\DOCUME~1\akay\LOCALS~1\Temp\ccXV5DRf.s 			page 5


 126:./Generated_Source/PSoC5/Cm3Start.c **** /* Linker-generated Stack Base addresses, Two Region and One Region */
 127:./Generated_Source/PSoC5/Cm3Start.c **** extern unsigned long Image$$ARM_LIB_STACK$$ZI$$Limit;
 128:./Generated_Source/PSoC5/Cm3Start.c **** 
 129:./Generated_Source/PSoC5/Cm3Start.c **** /* RealView C Library initialization. */
 130:./Generated_Source/PSoC5/Cm3Start.c **** extern int __main(void);
 131:./Generated_Source/PSoC5/Cm3Start.c **** 
 132:./Generated_Source/PSoC5/Cm3Start.c **** /*******************************************************************************
 133:./Generated_Source/PSoC5/Cm3Start.c **** *
 134:./Generated_Source/PSoC5/Cm3Start.c **** * Default Rom Interrupt Vector table.
 135:./Generated_Source/PSoC5/Cm3Start.c **** *
 136:./Generated_Source/PSoC5/Cm3Start.c **** *******************************************************************************/
 137:./Generated_Source/PSoC5/Cm3Start.c **** #pragma diag_suppress 1296
 138:./Generated_Source/PSoC5/Cm3Start.c **** __attribute__ ((section(".romvectors")))
 139:./Generated_Source/PSoC5/Cm3Start.c **** const cyisraddress RomVectors[NUM_VECTORS] =
 140:./Generated_Source/PSoC5/Cm3Start.c **** {
 141:./Generated_Source/PSoC5/Cm3Start.c ****     (cyisraddress)(uint32)&Image$$ARM_LIB_STACK$$ZI$$Limit,             /* The initial stack pointe
 142:./Generated_Source/PSoC5/Cm3Start.c ****     (cyisraddress)Reset,                                                /* The reset handler       
 143:./Generated_Source/PSoC5/Cm3Start.c ****     IntDefaultHandler,                                                  /* The NMI handler         
 144:./Generated_Source/PSoC5/Cm3Start.c ****     IntDefaultHandler,                                                  /* The hard fault handler  
 145:./Generated_Source/PSoC5/Cm3Start.c ****     IntDefaultHandler,                                                  /* The MPU fault handler   
 146:./Generated_Source/PSoC5/Cm3Start.c ****     IntDefaultHandler,                                                  /* The bus fault handler   
 147:./Generated_Source/PSoC5/Cm3Start.c ****     IntDefaultHandler,                                                  /* The usage fault handler 
 148:./Generated_Source/PSoC5/Cm3Start.c ****     IntDefaultHandler,                                                  /* Reserved                
 149:./Generated_Source/PSoC5/Cm3Start.c ****     IntDefaultHandler,                                                  /* Reserved                
 150:./Generated_Source/PSoC5/Cm3Start.c ****     IntDefaultHandler,                                                  /* Reserved                
 151:./Generated_Source/PSoC5/Cm3Start.c ****     IntDefaultHandler,                                                  /* Reserved                
 152:./Generated_Source/PSoC5/Cm3Start.c ****     IntDefaultHandler,                                                  /* SVCall handler          
 153:./Generated_Source/PSoC5/Cm3Start.c ****     IntDefaultHandler,                                                  /* Debug monitor handler   
 154:./Generated_Source/PSoC5/Cm3Start.c ****     IntDefaultHandler,                                                  /* Reserved                
 155:./Generated_Source/PSoC5/Cm3Start.c ****     IntDefaultHandler,                                                  /* The PendSV handler      
 156:./Generated_Source/PSoC5/Cm3Start.c ****     IntDefaultHandler,                                                  /* The SysTick handler     
 157:./Generated_Source/PSoC5/Cm3Start.c ****     IntDefaultHandler,                                                  /* External Interrupt(0)   
 158:./Generated_Source/PSoC5/Cm3Start.c ****     IntDefaultHandler,                                                  /* External Interrupt(1)   
 159:./Generated_Source/PSoC5/Cm3Start.c ****     IntDefaultHandler,                                                  /* External Interrupt(2)   
 160:./Generated_Source/PSoC5/Cm3Start.c ****     IntDefaultHandler,                                                  /* External Interrupt(3)   
 161:./Generated_Source/PSoC5/Cm3Start.c ****     IntDefaultHandler,                                                  /* External Interrupt(4)   
 162:./Generated_Source/PSoC5/Cm3Start.c ****     IntDefaultHandler,                                                  /* External Interrupt(5)   
 163:./Generated_Source/PSoC5/Cm3Start.c ****     IntDefaultHandler,                                                  /* External Interrupt(6)   
 164:./Generated_Source/PSoC5/Cm3Start.c ****     IntDefaultHandler,                                                  /* External Interrupt(7)   
 165:./Generated_Source/PSoC5/Cm3Start.c ****     IntDefaultHandler,                                                  /* External Interrupt(8)   
 166:./Generated_Source/PSoC5/Cm3Start.c ****     IntDefaultHandler,                                                  /* External Interrupt(9)   
 167:./Generated_Source/PSoC5/Cm3Start.c ****     IntDefaultHandler,                                                  /* External Interrupt(A)   
 168:./Generated_Source/PSoC5/Cm3Start.c ****     IntDefaultHandler,                                                  /* External Interrupt(B)   
 169:./Generated_Source/PSoC5/Cm3Start.c ****     IntDefaultHandler,                                                  /* External Interrupt(C)   
 170:./Generated_Source/PSoC5/Cm3Start.c ****     IntDefaultHandler,                                                  /* External Interrupt(D)   
 171:./Generated_Source/PSoC5/Cm3Start.c ****     IntDefaultHandler,                                                  /* External Interrupt(E)   
 172:./Generated_Source/PSoC5/Cm3Start.c ****     IntDefaultHandler,                                                  /* External Interrupt(F)   
 173:./Generated_Source/PSoC5/Cm3Start.c ****     IntDefaultHandler,                                                  /* External Interrupt(10)  
 174:./Generated_Source/PSoC5/Cm3Start.c ****     IntDefaultHandler,                                                  /* External Interrupt(11)  
 175:./Generated_Source/PSoC5/Cm3Start.c ****     IntDefaultHandler,                                                  /* External Interrupt(12)  
 176:./Generated_Source/PSoC5/Cm3Start.c ****     IntDefaultHandler,                                                  /* External Interrupt(13)  
 177:./Generated_Source/PSoC5/Cm3Start.c ****     IntDefaultHandler,                                                  /* External Interrupt(14)  
 178:./Generated_Source/PSoC5/Cm3Start.c ****     IntDefaultHandler,                                                  /* External Interrupt(15)  
 179:./Generated_Source/PSoC5/Cm3Start.c ****     IntDefaultHandler,                                                  /* External Interrupt(16)  
 180:./Generated_Source/PSoC5/Cm3Start.c ****     IntDefaultHandler,                                                  /* External Interrupt(17)  
 181:./Generated_Source/PSoC5/Cm3Start.c ****     IntDefaultHandler,                                                  /* External Interrupt(18)  
 182:./Generated_Source/PSoC5/Cm3Start.c ****     IntDefaultHandler,                                                  /* External Interrupt(19)  
ARM GAS  C:\DOCUME~1\akay\LOCALS~1\Temp\ccXV5DRf.s 			page 6


 183:./Generated_Source/PSoC5/Cm3Start.c ****     IntDefaultHandler,                                                  /* External Interrupt(1A)  
 184:./Generated_Source/PSoC5/Cm3Start.c ****     IntDefaultHandler,                                                  /* External Interrupt(1B)  
 185:./Generated_Source/PSoC5/Cm3Start.c ****     IntDefaultHandler,                                                  /* External Interrupt(1C)  
 186:./Generated_Source/PSoC5/Cm3Start.c ****     IntDefaultHandler,                                                  /* External Interrupt(1D)  
 187:./Generated_Source/PSoC5/Cm3Start.c ****     IntDefaultHandler,                                                  /* External Interrupt(1E)  
 188:./Generated_Source/PSoC5/Cm3Start.c ****     IntDefaultHandler                                                   /* External Interrupt(1F)  
 189:./Generated_Source/PSoC5/Cm3Start.c **** };
 190:./Generated_Source/PSoC5/Cm3Start.c **** 
 191:./Generated_Source/PSoC5/Cm3Start.c **** 
 192:./Generated_Source/PSoC5/Cm3Start.c **** /*******************************************************************************
 193:./Generated_Source/PSoC5/Cm3Start.c **** * Function Name: debugEnabled
 194:./Generated_Source/PSoC5/Cm3Start.c **** ********************************************************************************
 195:./Generated_Source/PSoC5/Cm3Start.c **** * Summary:
 196:./Generated_Source/PSoC5/Cm3Start.c **** *   This function is called when the DebugEnable bit has been set to allow the
 197:./Generated_Source/PSoC5/Cm3Start.c **** *   debugger to attach after a minimal amount of code has been executed.
 198:./Generated_Source/PSoC5/Cm3Start.c **** *   
 199:./Generated_Source/PSoC5/Cm3Start.c **** *
 200:./Generated_Source/PSoC5/Cm3Start.c **** *
 201:./Generated_Source/PSoC5/Cm3Start.c **** * Parameters:
 202:./Generated_Source/PSoC5/Cm3Start.c **** *   void.
 203:./Generated_Source/PSoC5/Cm3Start.c **** *
 204:./Generated_Source/PSoC5/Cm3Start.c **** *
 205:./Generated_Source/PSoC5/Cm3Start.c **** * Return:
 206:./Generated_Source/PSoC5/Cm3Start.c **** *   void.
 207:./Generated_Source/PSoC5/Cm3Start.c **** *   
 208:./Generated_Source/PSoC5/Cm3Start.c **** *
 209:./Generated_Source/PSoC5/Cm3Start.c **** *******************************************************************************/
 210:./Generated_Source/PSoC5/Cm3Start.c **** void debugEnabled()
 211:./Generated_Source/PSoC5/Cm3Start.c **** {
 212:./Generated_Source/PSoC5/Cm3Start.c ****     /* nop instruction to keep this from being optimized out */
 213:./Generated_Source/PSoC5/Cm3Start.c **** 	CY_NOP;
 214:./Generated_Source/PSoC5/Cm3Start.c **** }
 215:./Generated_Source/PSoC5/Cm3Start.c **** 
 216:./Generated_Source/PSoC5/Cm3Start.c **** 
 217:./Generated_Source/PSoC5/Cm3Start.c **** /*******************************************************************************
 218:./Generated_Source/PSoC5/Cm3Start.c **** * Function Name: Reset
 219:./Generated_Source/PSoC5/Cm3Start.c **** ********************************************************************************
 220:./Generated_Source/PSoC5/Cm3Start.c **** * Summary:
 221:./Generated_Source/PSoC5/Cm3Start.c **** *   This function is called when the PSoC5 begins execution on reset.
 222:./Generated_Source/PSoC5/Cm3Start.c **** *   
 223:./Generated_Source/PSoC5/Cm3Start.c **** *
 224:./Generated_Source/PSoC5/Cm3Start.c **** * Parameters:
 225:./Generated_Source/PSoC5/Cm3Start.c **** *   void.
 226:./Generated_Source/PSoC5/Cm3Start.c **** *
 227:./Generated_Source/PSoC5/Cm3Start.c **** *
 228:./Generated_Source/PSoC5/Cm3Start.c **** * Return:
 229:./Generated_Source/PSoC5/Cm3Start.c **** *   void.
 230:./Generated_Source/PSoC5/Cm3Start.c **** *   
 231:./Generated_Source/PSoC5/Cm3Start.c **** *
 232:./Generated_Source/PSoC5/Cm3Start.c **** *******************************************************************************/
 233:./Generated_Source/PSoC5/Cm3Start.c **** void Reset(void)
 234:./Generated_Source/PSoC5/Cm3Start.c **** {
 235:./Generated_Source/PSoC5/Cm3Start.c **** #if (CYDEV_DEBUGGING_ENABLE)
 236:./Generated_Source/PSoC5/Cm3Start.c ****     char value = CY_GET_XTND_REG8(CYDEV_DEBUG_ENABLE_REGISTER) | CYDEV_DEBUG_ENABLE_MASK;
 237:./Generated_Source/PSoC5/Cm3Start.c **** 	CY_SET_XTND_REG8(CYDEV_DEBUG_ENABLE_REGISTER, value);
 238:./Generated_Source/PSoC5/Cm3Start.c ****     debugEnabled();
 239:./Generated_Source/PSoC5/Cm3Start.c **** #endif /* CYDEV_DEBUGGING_ENABLE */
ARM GAS  C:\DOCUME~1\akay\LOCALS~1\Temp\ccXV5DRf.s 			page 7


 240:./Generated_Source/PSoC5/Cm3Start.c **** 
 241:./Generated_Source/PSoC5/Cm3Start.c **** #if (CYDEV_BOOTLOADER_ENABLE)
 242:./Generated_Source/PSoC5/Cm3Start.c **** 	CheckBootloader();
 243:./Generated_Source/PSoC5/Cm3Start.c **** #endif /* CYDEV_BOOTLOADER_ENABLE */
 244:./Generated_Source/PSoC5/Cm3Start.c **** 
 245:./Generated_Source/PSoC5/Cm3Start.c ****     /* Let RealView setup the libraries. */    
 246:./Generated_Source/PSoC5/Cm3Start.c ****     __main();
 247:./Generated_Source/PSoC5/Cm3Start.c **** }
 248:./Generated_Source/PSoC5/Cm3Start.c **** 
 249:./Generated_Source/PSoC5/Cm3Start.c **** 
 250:./Generated_Source/PSoC5/Cm3Start.c **** /*******************************************************************************
 251:./Generated_Source/PSoC5/Cm3Start.c **** * Function Name: $Sub$$main
 252:./Generated_Source/PSoC5/Cm3Start.c **** ********************************************************************************
 253:./Generated_Source/PSoC5/Cm3Start.c **** * Summary:
 254:./Generated_Source/PSoC5/Cm3Start.c **** *   This function is called imediatly before the users main
 255:./Generated_Source/PSoC5/Cm3Start.c **** *
 256:./Generated_Source/PSoC5/Cm3Start.c **** *
 257:./Generated_Source/PSoC5/Cm3Start.c **** * Parameters:
 258:./Generated_Source/PSoC5/Cm3Start.c **** *   void.
 259:./Generated_Source/PSoC5/Cm3Start.c **** *
 260:./Generated_Source/PSoC5/Cm3Start.c **** *
 261:./Generated_Source/PSoC5/Cm3Start.c **** * Return:
 262:./Generated_Source/PSoC5/Cm3Start.c **** *   void.
 263:./Generated_Source/PSoC5/Cm3Start.c **** *   
 264:./Generated_Source/PSoC5/Cm3Start.c **** *
 265:./Generated_Source/PSoC5/Cm3Start.c **** *******************************************************************************/
 266:./Generated_Source/PSoC5/Cm3Start.c **** void $Sub$$main(void)
 267:./Generated_Source/PSoC5/Cm3Start.c **** {
 268:./Generated_Source/PSoC5/Cm3Start.c ****     initialize_psoc();
 269:./Generated_Source/PSoC5/Cm3Start.c **** 
 270:./Generated_Source/PSoC5/Cm3Start.c ****     /* Call original main */
 271:./Generated_Source/PSoC5/Cm3Start.c ****     $Super$$main();
 272:./Generated_Source/PSoC5/Cm3Start.c **** 
 273:./Generated_Source/PSoC5/Cm3Start.c ****     /* If main returns it is undefined what we should do. */
 274:./Generated_Source/PSoC5/Cm3Start.c ****     while (1);
 275:./Generated_Source/PSoC5/Cm3Start.c **** }
 276:./Generated_Source/PSoC5/Cm3Start.c **** 
 277:./Generated_Source/PSoC5/Cm3Start.c **** #elif defined(__GNUC__)
 278:./Generated_Source/PSoC5/Cm3Start.c **** 
 279:./Generated_Source/PSoC5/Cm3Start.c **** extern unsigned long __cs3_interrupt_vector;
 280:./Generated_Source/PSoC5/Cm3Start.c **** extern void __cs3_start_c(void);
 281:./Generated_Source/PSoC5/Cm3Start.c **** 
 282:./Generated_Source/PSoC5/Cm3Start.c **** #define RomVectors (cyisraddress)(&__cs3_interrupt_vector)
 283:./Generated_Source/PSoC5/Cm3Start.c **** 
 284:./Generated_Source/PSoC5/Cm3Start.c **** 
 285:./Generated_Source/PSoC5/Cm3Start.c **** /*******************************************************************************
 286:./Generated_Source/PSoC5/Cm3Start.c **** * Function Name: Reset
 287:./Generated_Source/PSoC5/Cm3Start.c **** ********************************************************************************
 288:./Generated_Source/PSoC5/Cm3Start.c **** * Summary:
 289:./Generated_Source/PSoC5/Cm3Start.c **** *   This function handles the reset interrupt.  This is the first bit of code
 290:./Generated_Source/PSoC5/Cm3Start.c **** *   that is executed at startup.
 291:./Generated_Source/PSoC5/Cm3Start.c **** *
 292:./Generated_Source/PSoC5/Cm3Start.c **** *
 293:./Generated_Source/PSoC5/Cm3Start.c **** * Parameters:
 294:./Generated_Source/PSoC5/Cm3Start.c **** *   void.
 295:./Generated_Source/PSoC5/Cm3Start.c **** *
 296:./Generated_Source/PSoC5/Cm3Start.c **** *
ARM GAS  C:\DOCUME~1\akay\LOCALS~1\Temp\ccXV5DRf.s 			page 8


 297:./Generated_Source/PSoC5/Cm3Start.c **** * Return:
 298:./Generated_Source/PSoC5/Cm3Start.c **** *   void.
 299:./Generated_Source/PSoC5/Cm3Start.c **** *
 300:./Generated_Source/PSoC5/Cm3Start.c **** *
 301:./Generated_Source/PSoC5/Cm3Start.c **** *******************************************************************************/
 302:./Generated_Source/PSoC5/Cm3Start.c **** void Reset(void)
 303:./Generated_Source/PSoC5/Cm3Start.c **** {
  92              		.loc 1 303 0
  93              		.cfi_startproc
  94              		@ args = 0, pretend = 0, frame = 8
  95              		@ frame_needed = 1, uses_anonymous_args = 0
  96 0000 80B5     		push	{r7, lr}
  97              	.LCFI4:
  98              		.cfi_def_cfa_offset 8
  99 0002 82B0     		sub	sp, sp, #8
 100              	.LCFI5:
 101              		.cfi_def_cfa_offset 16
 102 0004 00AF     		add	r7, sp, #0
 103              		.cfi_offset 14, -4
 104              		.cfi_offset 7, -8
 105              	.LCFI6:
 106              		.cfi_def_cfa_register 7
 304:./Generated_Source/PSoC5/Cm3Start.c **** #if (CYDEV_DEBUGGING_ENABLE)
 305:./Generated_Source/PSoC5/Cm3Start.c ****     char value = CY_GET_XTND_REG8(CYDEV_DEBUG_ENABLE_REGISTER) | CYDEV_DEBUG_ENABLE_MASK;
 107              		.loc 1 305 0
 108 0006 44F2E863 		movw	r3, #:lower16:1073759976
 109 000a C4F20003 		movt	r3, #:upper16:1073759976
 110 000e 1B78     		ldrb	r3, [r3, #0]
 111 0010 DBB2     		uxtb	r3, r3
 112 0012 43F00103 		orr	r3, r3, #1
 113 0016 FB71     		strb	r3, [r7, #7]
 306:./Generated_Source/PSoC5/Cm3Start.c **** 	CY_SET_XTND_REG8(CYDEV_DEBUG_ENABLE_REGISTER, value);
 114              		.loc 1 306 0
 115 0018 44F2E863 		movw	r3, #:lower16:1073759976
 116 001c C4F20003 		movt	r3, #:upper16:1073759976
 117 0020 FA79     		ldrb	r2, [r7, #7]
 118 0022 1A70     		strb	r2, [r3, #0]
 307:./Generated_Source/PSoC5/Cm3Start.c ****     __asm("debugEnabled:\n");
 119              		.loc 1 307 0
 120              	@ 307 "./Generated_Source/PSoC5/Cm3Start.c" 1
 121              		debugEnabled:
 122              	
 123              	@ 0 "" 2
 308:./Generated_Source/PSoC5/Cm3Start.c **** #endif /* CYDEV_DEBUGGING_ENABLE */
 309:./Generated_Source/PSoC5/Cm3Start.c **** 
 310:./Generated_Source/PSoC5/Cm3Start.c **** #if (CYDEV_BOOTLOADER_ENABLE)
 311:./Generated_Source/PSoC5/Cm3Start.c **** 	CheckBootloader();
 312:./Generated_Source/PSoC5/Cm3Start.c **** #endif /* CYDEV_BOOTLOADER_ENABLE */
 313:./Generated_Source/PSoC5/Cm3Start.c **** 
 314:./Generated_Source/PSoC5/Cm3Start.c **** 	__cs3_start_c();
 124              		.loc 1 314 0
 125              		.thumb
 126 0024 FFF7FEFF 		bl	__cs3_start_c
 315:./Generated_Source/PSoC5/Cm3Start.c **** }
 127              		.loc 1 315 0
 128 0028 07F10807 		add	r7, r7, #8
 129 002c BD46     		mov	sp, r7
ARM GAS  C:\DOCUME~1\akay\LOCALS~1\Temp\ccXV5DRf.s 			page 9


 130 002e 80BD     		pop	{r7, pc}
 131              		.cfi_endproc
 132              	.LFE2:
 133              		.size	Reset, .-Reset
 134              		.section	.text.initialize_psoc,"ax",%progbits
 135              		.align	2
 136              		.global	initialize_psoc
 137              		.thumb
 138              		.thumb_func
 139              		.type	initialize_psoc, %function
 140              	initialize_psoc:
 141              	.LFB3:
 316:./Generated_Source/PSoC5/Cm3Start.c **** 
 317:./Generated_Source/PSoC5/Cm3Start.c **** #endif /* __GNUC__ */
 318:./Generated_Source/PSoC5/Cm3Start.c **** 
 319:./Generated_Source/PSoC5/Cm3Start.c **** /*******************************************************************************
 320:./Generated_Source/PSoC5/Cm3Start.c **** * Function Name: initialize_psoc
 321:./Generated_Source/PSoC5/Cm3Start.c **** ********************************************************************************
 322:./Generated_Source/PSoC5/Cm3Start.c **** * Summary:
 323:./Generated_Source/PSoC5/Cm3Start.c **** *   This function used to initialize the PSoC chip before calling main.
 324:./Generated_Source/PSoC5/Cm3Start.c **** *
 325:./Generated_Source/PSoC5/Cm3Start.c **** *
 326:./Generated_Source/PSoC5/Cm3Start.c **** * Parameters:
 327:./Generated_Source/PSoC5/Cm3Start.c **** *   void.
 328:./Generated_Source/PSoC5/Cm3Start.c **** *
 329:./Generated_Source/PSoC5/Cm3Start.c **** *
 330:./Generated_Source/PSoC5/Cm3Start.c **** * Return:
 331:./Generated_Source/PSoC5/Cm3Start.c **** *   void.
 332:./Generated_Source/PSoC5/Cm3Start.c **** *
 333:./Generated_Source/PSoC5/Cm3Start.c **** *
 334:./Generated_Source/PSoC5/Cm3Start.c **** *******************************************************************************/
 335:./Generated_Source/PSoC5/Cm3Start.c **** #if defined(__GNUC__)
 336:./Generated_Source/PSoC5/Cm3Start.c **** __attribute__ ((constructor(101)))
 337:./Generated_Source/PSoC5/Cm3Start.c **** #endif /* __GNUC__ */
 338:./Generated_Source/PSoC5/Cm3Start.c **** void initialize_psoc(void)
 339:./Generated_Source/PSoC5/Cm3Start.c **** {
 142              		.loc 1 339 0
 143              		.cfi_startproc
 144              		@ args = 0, pretend = 0, frame = 8
 145              		@ frame_needed = 1, uses_anonymous_args = 0
 146 0000 80B5     		push	{r7, lr}
 147              	.LCFI7:
 148              		.cfi_def_cfa_offset 8
 149 0002 82B0     		sub	sp, sp, #8
 150              	.LCFI8:
 151              		.cfi_def_cfa_offset 16
 152 0004 00AF     		add	r7, sp, #0
 153              		.cfi_offset 14, -4
 154              		.cfi_offset 7, -8
 155              	.LCFI9:
 156              		.cfi_def_cfa_register 7
 340:./Generated_Source/PSoC5/Cm3Start.c ****     unsigned long index;
 341:./Generated_Source/PSoC5/Cm3Start.c **** 
 342:./Generated_Source/PSoC5/Cm3Start.c ****     /* Set Priority group 5. */
 343:./Generated_Source/PSoC5/Cm3Start.c ****     /* Writes to the NVIC_APINT register require the VECTKEY in the upper half */
 344:./Generated_Source/PSoC5/Cm3Start.c ****     *NVIC_APINT = NVIC_APINT_VECTKEY | NVIC_APINT_PRIGROUP_3_5;
 157              		.loc 1 344 0
ARM GAS  C:\DOCUME~1\akay\LOCALS~1\Temp\ccXV5DRf.s 			page 10


 158 0006 4EF60C53 		movw	r3, #:lower16:-536810228
 159 000a CEF20003 		movt	r3, #:upper16:-536810228
 160 000e 40F20042 		movw	r2, #:lower16:100271104
 161 0012 C0F2FA52 		movt	r2, #:upper16:100271104
 162 0016 1A60     		str	r2, [r3, #0]
 345:./Generated_Source/PSoC5/Cm3Start.c ****     *NVIC_CFG_CTRL |= NVIC_CFG_STACKALIGN;
 163              		.loc 1 345 0
 164 0018 4EF61453 		movw	r3, #:lower16:-536810220
 165 001c CEF20003 		movt	r3, #:upper16:-536810220
 166 0020 4EF61452 		movw	r2, #:lower16:-536810220
 167 0024 CEF20002 		movt	r2, #:upper16:-536810220
 168 0028 1268     		ldr	r2, [r2, #0]
 169 002a 42F40072 		orr	r2, r2, #512
 170 002e 1A60     		str	r2, [r3, #0]
 346:./Generated_Source/PSoC5/Cm3Start.c **** 	
 347:./Generated_Source/PSoC5/Cm3Start.c ****     /* Set Ram interrupt vectors to default functions. */
 348:./Generated_Source/PSoC5/Cm3Start.c ****     for(index = 0; index < NUM_VECTORS; index++)
 171              		.loc 1 348 0
 172 0030 4FF00003 		mov	r3, #0
 173 0034 7B60     		str	r3, [r7, #4]
 174 0036 14E0     		b	.L9
 175              	.L10:
 349:./Generated_Source/PSoC5/Cm3Start.c ****     {
 350:./Generated_Source/PSoC5/Cm3Start.c ****         CyRamVectors[index] = RomVectors[index];
 176              		.loc 1 350 0
 177 0038 7A68     		ldr	r2, [r7, #4]
 178 003a 7B68     		ldr	r3, [r7, #4]
 179 003c 4FEA8301 		lsl	r1, r3, #2
 180 0040 40F20003 		movw	r3, #:lower16:__cs3_interrupt_vector
 181 0044 C0F20003 		movt	r3, #:upper16:__cs3_interrupt_vector
 182 0048 0B44     		add	r3, r1, r3
 183 004a 1B68     		ldr	r3, [r3, #0]
 184 004c 1946     		mov	r1, r3
 185 004e 40F20003 		movw	r3, #:lower16:CyRamVectors
 186 0052 C0F20003 		movt	r3, #:upper16:CyRamVectors
 187 0056 43F82210 		str	r1, [r3, r2, lsl #2]
 188              		.loc 1 348 0
 189 005a 7B68     		ldr	r3, [r7, #4]
 190 005c 03F10103 		add	r3, r3, #1
 191 0060 7B60     		str	r3, [r7, #4]
 192              	.L9:
 193 0062 7B68     		ldr	r3, [r7, #4]
 194 0064 2F2B     		cmp	r3, #47
 195 0066 E7D9     		bls	.L10
 351:./Generated_Source/PSoC5/Cm3Start.c ****     }
 352:./Generated_Source/PSoC5/Cm3Start.c **** 
 353:./Generated_Source/PSoC5/Cm3Start.c ****     /* Point NVIC at the RAM vector table. */
 354:./Generated_Source/PSoC5/Cm3Start.c ****     *CYINT_VECT_TABLE = CyRamVectors;
 196              		.loc 1 354 0
 197 0068 4EF60853 		movw	r3, #:lower16:-536810232
 198 006c CEF20003 		movt	r3, #:upper16:-536810232
 199 0070 40F20002 		movw	r2, #:lower16:CyRamVectors
 200 0074 C0F20002 		movt	r2, #:upper16:CyRamVectors
 201 0078 1A60     		str	r2, [r3, #0]
 355:./Generated_Source/PSoC5/Cm3Start.c ****     
 356:./Generated_Source/PSoC5/Cm3Start.c ****     /* Initialize the configuration registers. */
 357:./Generated_Source/PSoC5/Cm3Start.c ****     cyfitter_cfg();
ARM GAS  C:\DOCUME~1\akay\LOCALS~1\Temp\ccXV5DRf.s 			page 11


 202              		.loc 1 357 0
 203 007a FFF7FEFF 		bl	cyfitter_cfg
 358:./Generated_Source/PSoC5/Cm3Start.c **** 
 359:./Generated_Source/PSoC5/Cm3Start.c ****     /* Setup DMA td linked list. */
 360:./Generated_Source/PSoC5/Cm3Start.c ****     CyDmacConfigure();
 204              		.loc 1 360 0
 205 007e FFF7FEFF 		bl	CyDmacConfigure
 361:./Generated_Source/PSoC5/Cm3Start.c **** }
 206              		.loc 1 361 0
 207 0082 07F10807 		add	r7, r7, #8
 208 0086 BD46     		mov	sp, r7
 209 0088 80BD     		pop	{r7, pc}
 210              		.cfi_endproc
 211              	.LFE3:
 212              		.size	initialize_psoc, .-initialize_psoc
 213 008a 00BF     		.section	.init_array,"aw",%init_array
 214              		.align	2
 215 0000 00000000 		.word	initialize_psoc(target1)
 216              		.text
 217              	.Letext0: