ARM GAS  C:\DOCUME~1\akay\LOCALS~1\Temp\ccUz6l5r.s 			page 1


   1              		.syntax unified
   2              		.cpu cortex-m3
   3              		.fpu softvfp
   4              		.eabi_attribute 20, 1
   5              		.eabi_attribute 21, 1
   6              		.eabi_attribute 23, 3
   7              		.eabi_attribute 24, 1
   8              		.eabi_attribute 25, 1
   9              		.eabi_attribute 26, 1
  10              		.eabi_attribute 30, 6
  11              		.eabi_attribute 18, 4
  12              		.thumb
  13              		.file	"CyDmac.c"
  20 0000 7C020000 		.text
  20      02005100 
  20      00000201 
  20      FB0E0D00 
  20      01010101 
  21              	.Ltext0:
  22              		.cfi_sections	.debug_frame
  23              		.bss
  24              	CyDmaTdCurrentNumber:
  25 0000 00       		.space	1
  26              	CyDmaTdFreeIndex:
  27 0001 00       		.space	1
  28 0002 0000     		.align	2
  29              	CyDmaChannels:
  30 0004 00000000 		.space	4
  31              		.section	.text.CyDmacConfigure,"ax",%progbits
  32              		.align	2
  33              		.global	CyDmacConfigure
  34              		.thumb
  35              		.thumb_func
  36              		.type	CyDmacConfigure, %function
  37              	CyDmacConfigure:
  38              	.LFB0:
  39              		.file 1 "./Generated_Source/PSoC5/CyDmac.c"
   1:./Generated_Source/PSoC5/CyDmac.c **** /*******************************************************************************
   2:./Generated_Source/PSoC5/CyDmac.c **** * File Name: CyDmac.c  
   3:./Generated_Source/PSoC5/CyDmac.c **** * Version 2.0
   4:./Generated_Source/PSoC5/CyDmac.c **** *
   5:./Generated_Source/PSoC5/CyDmac.c **** *  Description:
   6:./Generated_Source/PSoC5/CyDmac.c **** *   Provides an API for the DMAC component. The API includes functions
   7:./Generated_Source/PSoC5/CyDmac.c **** *   for the DMA controller, DMA channels and Transfer Descriptors.
   8:./Generated_Source/PSoC5/CyDmac.c **** *
   9:./Generated_Source/PSoC5/CyDmac.c **** *   This API is the library version not the auto generated code that gets
  10:./Generated_Source/PSoC5/CyDmac.c **** *   generated when the user places a DMA component on the schematic.
  11:./Generated_Source/PSoC5/CyDmac.c **** *   The auto generated code would use the APi's in this module.
  12:./Generated_Source/PSoC5/CyDmac.c **** *
  13:./Generated_Source/PSoC5/CyDmac.c **** *  Note:
  14:./Generated_Source/PSoC5/CyDmac.c **** *   This code is endian agnostic.
ARM GAS  C:\DOCUME~1\akay\LOCALS~1\Temp\ccUz6l5r.s 			page 2


  15:./Generated_Source/PSoC5/CyDmac.c **** *
  16:./Generated_Source/PSoC5/CyDmac.c **** *   The Transfer Descriptor memory can be used as regular memory if the TD's
  17:./Generated_Source/PSoC5/CyDmac.c **** *   are not being used.
  18:./Generated_Source/PSoC5/CyDmac.c **** *
  19:./Generated_Source/PSoC5/CyDmac.c **** *   This code uses the first byte of each TD to manage
  20:./Generated_Source/PSoC5/CyDmac.c **** *   the free list of TD's. The user can over write this once the TD is
  21:./Generated_Source/PSoC5/CyDmac.c **** *   allocated.
  22:./Generated_Source/PSoC5/CyDmac.c **** *
  23:./Generated_Source/PSoC5/CyDmac.c **** *  Note: 
  24:./Generated_Source/PSoC5/CyDmac.c **** *   Documentation of the API's in this file is located in the
  25:./Generated_Source/PSoC5/CyDmac.c **** *   System Reference Guide provided with PSoC Creator.
  26:./Generated_Source/PSoC5/CyDmac.c **** * 
  27:./Generated_Source/PSoC5/CyDmac.c **** *
  28:./Generated_Source/PSoC5/CyDmac.c **** *******************************************************************************
  29:./Generated_Source/PSoC5/CyDmac.c **** * Copyright 2008-2010, Cypress Semiconductor Corporation.  All rights reserved.
  30:./Generated_Source/PSoC5/CyDmac.c **** * You may use this file only in accordance with the license, terms, conditions, 
  31:./Generated_Source/PSoC5/CyDmac.c **** * disclaimers, and limitations in the end user license agreement accompanying 
  32:./Generated_Source/PSoC5/CyDmac.c **** * the software package with which this file was provided.
  33:./Generated_Source/PSoC5/CyDmac.c **** ********************************************************************************/
  34:./Generated_Source/PSoC5/CyDmac.c **** 
  35:./Generated_Source/PSoC5/CyDmac.c **** #include <CYDMAC.H>
  36:./Generated_Source/PSoC5/CyDmac.c **** 
  37:./Generated_Source/PSoC5/CyDmac.c **** /* Current Number of free elements in the list. */
  38:./Generated_Source/PSoC5/CyDmac.c **** static uint8 CyDmaTdCurrentNumber;
  39:./Generated_Source/PSoC5/CyDmac.c **** 
  40:./Generated_Source/PSoC5/CyDmac.c **** /* Index of the first available TD. */
  41:./Generated_Source/PSoC5/CyDmac.c **** static uint8 CyDmaTdFreeIndex;
  42:./Generated_Source/PSoC5/CyDmac.c **** 
  43:./Generated_Source/PSoC5/CyDmac.c **** /* Bit map of DMA channel ownership. */
  44:./Generated_Source/PSoC5/CyDmac.c **** static uint32 CyDmaChannels = DMA_CHANNELS_USED__MASK0;
  45:./Generated_Source/PSoC5/CyDmac.c **** 
  46:./Generated_Source/PSoC5/CyDmac.c **** /*Pointer type conversions are restricted to avoid conflicts with compiler 
  47:./Generated_Source/PSoC5/CyDmac.c **** optimizations. */
  48:./Generated_Source/PSoC5/CyDmac.c **** typedef union { volatile uint8 bytes[2]; uint16 word; } CONVERT_WORD;
  49:./Generated_Source/PSoC5/CyDmac.c **** 
  50:./Generated_Source/PSoC5/CyDmac.c **** /*******************************************************************************
  51:./Generated_Source/PSoC5/CyDmac.c **** * Function Name: CyDmacConfigure
  52:./Generated_Source/PSoC5/CyDmac.c **** ********************************************************************************
  53:./Generated_Source/PSoC5/CyDmac.c **** * Summary:
  54:./Generated_Source/PSoC5/CyDmac.c **** *   Sets the DMAC Configuration register with the default values.
  55:./Generated_Source/PSoC5/CyDmac.c **** *   Initializes the linked list of Transfer Descriptors.
  56:./Generated_Source/PSoC5/CyDmac.c **** *
  57:./Generated_Source/PSoC5/CyDmac.c **** * Parameters:
  58:./Generated_Source/PSoC5/CyDmac.c **** *   void.
  59:./Generated_Source/PSoC5/CyDmac.c **** *
  60:./Generated_Source/PSoC5/CyDmac.c **** *
  61:./Generated_Source/PSoC5/CyDmac.c **** * Return:
  62:./Generated_Source/PSoC5/CyDmac.c **** *   void.
  63:./Generated_Source/PSoC5/CyDmac.c **** *
  64:./Generated_Source/PSoC5/CyDmac.c **** *
  65:./Generated_Source/PSoC5/CyDmac.c **** *******************************************************************************/
  66:./Generated_Source/PSoC5/CyDmac.c **** void CyDmacConfigure(void)
  67:./Generated_Source/PSoC5/CyDmac.c **** {
  40              		.loc 1 67 0
  41              		.cfi_startproc
  42              		@ args = 0, pretend = 0, frame = 8
  43              		@ frame_needed = 1, uses_anonymous_args = 0
ARM GAS  C:\DOCUME~1\akay\LOCALS~1\Temp\ccUz6l5r.s 			page 3


  44              		@ link register save eliminated.
  45 0000 80B4     		push	{r7}
  46              	.LCFI0:
  47              		.cfi_def_cfa_offset 4
  48 0002 83B0     		sub	sp, sp, #12
  49              	.LCFI1:
  50              		.cfi_def_cfa_offset 16
  51 0004 00AF     		add	r7, sp, #0
  52              		.cfi_offset 7, -4
  53              	.LCFI2:
  54              		.cfi_def_cfa_register 7
  68:./Generated_Source/PSoC5/CyDmac.c ****     uint8 index;
  69:./Generated_Source/PSoC5/CyDmac.c **** 
  70:./Generated_Source/PSoC5/CyDmac.c **** 
  71:./Generated_Source/PSoC5/CyDmac.c ****     /* Set TD list variables. */
  72:./Generated_Source/PSoC5/CyDmac.c ****     CyDmaTdFreeIndex = NUMBEROF_TDS - 1;
  55              		.loc 1 72 0
  56 0006 40F20003 		movw	r3, #:lower16:CyDmaTdFreeIndex
  57 000a C0F20003 		movt	r3, #:upper16:CyDmaTdFreeIndex
  58 000e 4FF07F02 		mov	r2, #127
  59 0012 1A70     		strb	r2, [r3, #0]
  73:./Generated_Source/PSoC5/CyDmac.c ****     CyDmaTdCurrentNumber = NUMBEROF_TDS;
  60              		.loc 1 73 0
  61 0014 40F20003 		movw	r3, #:lower16:CyDmaTdCurrentNumber
  62 0018 C0F20003 		movt	r3, #:upper16:CyDmaTdCurrentNumber
  63 001c 6FF07F02 		mvn	r2, #127
  64 0020 1A70     		strb	r2, [r3, #0]
  74:./Generated_Source/PSoC5/CyDmac.c **** 
  75:./Generated_Source/PSoC5/CyDmac.c ****     /* Make TD free list. */
  76:./Generated_Source/PSoC5/CyDmac.c ****     for(index = NUMBEROF_TDS - 1; index; index--)
  65              		.loc 1 76 0
  66 0022 4FF07F03 		mov	r3, #127
  67 0026 FB71     		strb	r3, [r7, #7]
  68 0028 0FE0     		b	.L2
  69              	.L3:
  77:./Generated_Source/PSoC5/CyDmac.c ****     {
  78:./Generated_Source/PSoC5/CyDmac.c ****         DMAC_TDMEM[index].TD0[0] = index - 1;
  70              		.loc 1 78 0
  71 002a FB79     		ldrb	r3, [r7, #7]	@ zero_extendqisi2
  72 002c 4FEAC303 		lsl	r3, r3, #3
  73 0030 03F18043 		add	r3, r3, #1073741824
  74 0034 03F5F043 		add	r3, r3, #30720
  75 0038 FA79     		ldrb	r2, [r7, #7]
  76 003a 02F1FF32 		add	r2, r2, #-1
  77 003e D2B2     		uxtb	r2, r2
  78 0040 1A70     		strb	r2, [r3, #0]
  79              		.loc 1 76 0
  80 0042 FB79     		ldrb	r3, [r7, #7]
  81 0044 03F1FF33 		add	r3, r3, #-1
  82 0048 FB71     		strb	r3, [r7, #7]
  83              	.L2:
  84 004a FB79     		ldrb	r3, [r7, #7]	@ zero_extendqisi2
  85 004c 002B     		cmp	r3, #0
  86 004e ECD1     		bne	.L3
  79:./Generated_Source/PSoC5/CyDmac.c ****     }
  80:./Generated_Source/PSoC5/CyDmac.c **** 
  81:./Generated_Source/PSoC5/CyDmac.c ****     /* Make the last one point to zero. */
ARM GAS  C:\DOCUME~1\akay\LOCALS~1\Temp\ccUz6l5r.s 			page 4


  82:./Generated_Source/PSoC5/CyDmac.c ****     DMAC_TDMEM[index].TD0[0] = 0;
  87              		.loc 1 82 0
  88 0050 FB79     		ldrb	r3, [r7, #7]	@ zero_extendqisi2
  89 0052 4FEAC303 		lsl	r3, r3, #3
  90 0056 03F18043 		add	r3, r3, #1073741824
  91 005a 03F5F043 		add	r3, r3, #30720
  92 005e 4FF00002 		mov	r2, #0
  93 0062 1A70     		strb	r2, [r3, #0]
  83:./Generated_Source/PSoC5/CyDmac.c **** }
  94              		.loc 1 83 0
  95 0064 07F10C07 		add	r7, r7, #12
  96 0068 BD46     		mov	sp, r7
  97 006a 80BC     		pop	{r7}
  98 006c 7047     		bx	lr
  99              		.cfi_endproc
 100              	.LFE0:
 101              		.size	CyDmacConfigure, .-CyDmacConfigure
 102 006e 00BF     		.section	.text.CyDmacError,"ax",%progbits
 103              		.align	2
 104              		.global	CyDmacError
 105              		.thumb
 106              		.thumb_func
 107              		.type	CyDmacError, %function
 108              	CyDmacError:
 109              	.LFB1:
  84:./Generated_Source/PSoC5/CyDmac.c **** 
  85:./Generated_Source/PSoC5/CyDmac.c **** 
  86:./Generated_Source/PSoC5/CyDmac.c **** /*******************************************************************************
  87:./Generated_Source/PSoC5/CyDmac.c **** * Function Name: CyDmacError
  88:./Generated_Source/PSoC5/CyDmac.c **** ********************************************************************************
  89:./Generated_Source/PSoC5/CyDmac.c **** * Summary:
  90:./Generated_Source/PSoC5/CyDmac.c **** * Gets the error bits from the DMAC.
  91:./Generated_Source/PSoC5/CyDmac.c **** *
  92:./Generated_Source/PSoC5/CyDmac.c **** * Parameters:
  93:./Generated_Source/PSoC5/CyDmac.c **** *   void.
  94:./Generated_Source/PSoC5/CyDmac.c **** *
  95:./Generated_Source/PSoC5/CyDmac.c **** *
  96:./Generated_Source/PSoC5/CyDmac.c **** *
  97:./Generated_Source/PSoC5/CyDmac.c **** * Return:
  98:./Generated_Source/PSoC5/CyDmac.c **** *   Returns the 4 bits of error data from the DMAC error register.
  99:./Generated_Source/PSoC5/CyDmac.c **** *
 100:./Generated_Source/PSoC5/CyDmac.c **** *   should each bit get described here?
 101:./Generated_Source/PSoC5/CyDmac.c **** *
 102:./Generated_Source/PSoC5/CyDmac.c **** *
 103:./Generated_Source/PSoC5/CyDmac.c **** *******************************************************************************/
 104:./Generated_Source/PSoC5/CyDmac.c **** uint8 CyDmacError(void) 
 105:./Generated_Source/PSoC5/CyDmac.c **** {
 110              		.loc 1 105 0
 111              		.cfi_startproc
 112              		@ args = 0, pretend = 0, frame = 0
 113              		@ frame_needed = 1, uses_anonymous_args = 0
 114              		@ link register save eliminated.
 115 0000 80B4     		push	{r7}
 116              	.LCFI3:
 117              		.cfi_def_cfa_offset 4
 118 0002 00AF     		add	r7, sp, #0
 119              		.cfi_offset 7, -4
ARM GAS  C:\DOCUME~1\akay\LOCALS~1\Temp\ccUz6l5r.s 			page 5


 120              	.LCFI4:
 121              		.cfi_def_cfa_register 7
 106:./Generated_Source/PSoC5/CyDmac.c ****     return (0x0Fu & *DMAC_ERR);
 122              		.loc 1 106 0
 123 0004 47F20403 		movw	r3, #:lower16:1073770500
 124 0008 C4F20003 		movt	r3, #:upper16:1073770500
 125 000c 1B68     		ldr	r3, [r3, #0]
 126 000e DBB2     		uxtb	r3, r3
 127 0010 03F00F03 		and	r3, r3, #15
 107:./Generated_Source/PSoC5/CyDmac.c **** }
 128              		.loc 1 107 0
 129 0014 1846     		mov	r0, r3
 130 0016 BD46     		mov	sp, r7
 131 0018 80BC     		pop	{r7}
 132 001a 7047     		bx	lr
 133              		.cfi_endproc
 134              	.LFE1:
 135              		.size	CyDmacError, .-CyDmacError
 136              		.section	.text.CyDmacClearError,"ax",%progbits
 137              		.align	2
 138              		.global	CyDmacClearError
 139              		.thumb
 140              		.thumb_func
 141              		.type	CyDmacClearError, %function
 142              	CyDmacClearError:
 143              	.LFB2:
 108:./Generated_Source/PSoC5/CyDmac.c **** 
 109:./Generated_Source/PSoC5/CyDmac.c **** 
 110:./Generated_Source/PSoC5/CyDmac.c **** /*******************************************************************************
 111:./Generated_Source/PSoC5/CyDmac.c **** * Function Name: CyDmacClearError
 112:./Generated_Source/PSoC5/CyDmac.c **** ********************************************************************************
 113:./Generated_Source/PSoC5/CyDmac.c **** * Summary:
 114:./Generated_Source/PSoC5/CyDmac.c **** *   Clears the error bits in the error register of the DMAC..
 115:./Generated_Source/PSoC5/CyDmac.c **** *
 116:./Generated_Source/PSoC5/CyDmac.c **** * Parameters:
 117:./Generated_Source/PSoC5/CyDmac.c **** * error:
 118:./Generated_Source/PSoC5/CyDmac.c **** *   Clears the error bits in the DMAC error register.
 119:./Generated_Source/PSoC5/CyDmac.c **** *
 120:./Generated_Source/PSoC5/CyDmac.c **** *
 121:./Generated_Source/PSoC5/CyDmac.c **** *
 122:./Generated_Source/PSoC5/CyDmac.c **** * Return:
 123:./Generated_Source/PSoC5/CyDmac.c **** *   void.
 124:./Generated_Source/PSoC5/CyDmac.c **** *
 125:./Generated_Source/PSoC5/CyDmac.c **** * Theory:
 126:./Generated_Source/PSoC5/CyDmac.c **** *   Once an error occurs the error bits are sticky and are only cleared
 127:./Generated_Source/PSoC5/CyDmac.c **** *   by a write to the error register.
 128:./Generated_Source/PSoC5/CyDmac.c **** *
 129:./Generated_Source/PSoC5/CyDmac.c **** *******************************************************************************/
 130:./Generated_Source/PSoC5/CyDmac.c **** void CyDmacClearError(uint8 error) 
 131:./Generated_Source/PSoC5/CyDmac.c **** {
 144              		.loc 1 131 0
 145              		.cfi_startproc
 146              		@ args = 0, pretend = 0, frame = 8
 147              		@ frame_needed = 1, uses_anonymous_args = 0
 148              		@ link register save eliminated.
 149 0000 80B4     		push	{r7}
 150              	.LCFI5:
ARM GAS  C:\DOCUME~1\akay\LOCALS~1\Temp\ccUz6l5r.s 			page 6


 151              		.cfi_def_cfa_offset 4
 152 0002 83B0     		sub	sp, sp, #12
 153              	.LCFI6:
 154              		.cfi_def_cfa_offset 16
 155 0004 00AF     		add	r7, sp, #0
 156              		.cfi_offset 7, -4
 157              	.LCFI7:
 158              		.cfi_def_cfa_register 7
 159 0006 0346     		mov	r3, r0
 160 0008 FB71     		strb	r3, [r7, #7]
 132:./Generated_Source/PSoC5/CyDmac.c ****     *DMAC_ERR = 0x0Fu & error;
 161              		.loc 1 132 0
 162 000a 47F20403 		movw	r3, #:lower16:1073770500
 163 000e C4F20003 		movt	r3, #:upper16:1073770500
 164 0012 FA79     		ldrb	r2, [r7, #7]	@ zero_extendqisi2
 165 0014 02F00F02 		and	r2, r2, #15
 166 0018 1A60     		str	r2, [r3, #0]
 133:./Generated_Source/PSoC5/CyDmac.c **** }
 167              		.loc 1 133 0
 168 001a 07F10C07 		add	r7, r7, #12
 169 001e BD46     		mov	sp, r7
 170 0020 80BC     		pop	{r7}
 171 0022 7047     		bx	lr
 172              		.cfi_endproc
 173              	.LFE2:
 174              		.size	CyDmacClearError, .-CyDmacClearError
 175              		.section	.text.CyDmacErrorAddress,"ax",%progbits
 176              		.align	2
 177              		.global	CyDmacErrorAddress
 178              		.thumb
 179              		.thumb_func
 180              		.type	CyDmacErrorAddress, %function
 181              	CyDmacErrorAddress:
 182              	.LFB3:
 134:./Generated_Source/PSoC5/CyDmac.c **** 
 135:./Generated_Source/PSoC5/CyDmac.c **** 
 136:./Generated_Source/PSoC5/CyDmac.c **** /*******************************************************************************
 137:./Generated_Source/PSoC5/CyDmac.c **** * Function Name: CyDmacErrorAddress
 138:./Generated_Source/PSoC5/CyDmac.c **** ********************************************************************************
 139:./Generated_Source/PSoC5/CyDmac.c **** * Summary:
 140:./Generated_Source/PSoC5/CyDmac.c **** *   when an BUS_TIMEOUT, UNPOP_ACC and PERIPH_ERR occurs the address
 141:./Generated_Source/PSoC5/CyDmac.c **** *   of the error is written to the error address register and
 142:./Generated_Source/PSoC5/CyDmac.c **** *   can be read with this function.
 143:./Generated_Source/PSoC5/CyDmac.c **** *
 144:./Generated_Source/PSoC5/CyDmac.c **** *   If there are multiple errors, only the address of the first is
 145:./Generated_Source/PSoC5/CyDmac.c **** *   saved.
 146:./Generated_Source/PSoC5/CyDmac.c **** *
 147:./Generated_Source/PSoC5/CyDmac.c **** * Parameters:
 148:./Generated_Source/PSoC5/CyDmac.c **** *   void.
 149:./Generated_Source/PSoC5/CyDmac.c **** *
 150:./Generated_Source/PSoC5/CyDmac.c **** *
 151:./Generated_Source/PSoC5/CyDmac.c **** *
 152:./Generated_Source/PSoC5/CyDmac.c **** * Return:
 153:./Generated_Source/PSoC5/CyDmac.c **** *   The address that caused the error.
 154:./Generated_Source/PSoC5/CyDmac.c **** *
 155:./Generated_Source/PSoC5/CyDmac.c **** *
 156:./Generated_Source/PSoC5/CyDmac.c **** *******************************************************************************/
ARM GAS  C:\DOCUME~1\akay\LOCALS~1\Temp\ccUz6l5r.s 			page 7


 157:./Generated_Source/PSoC5/CyDmac.c **** uint32 CyDmacErrorAddress(void) 
 158:./Generated_Source/PSoC5/CyDmac.c **** {
 183              		.loc 1 158 0
 184              		.cfi_startproc
 185              		@ args = 0, pretend = 0, frame = 0
 186              		@ frame_needed = 1, uses_anonymous_args = 0
 187              		@ link register save eliminated.
 188 0000 80B4     		push	{r7}
 189              	.LCFI8:
 190              		.cfi_def_cfa_offset 4
 191 0002 00AF     		add	r7, sp, #0
 192              		.cfi_offset 7, -4
 193              	.LCFI9:
 194              		.cfi_def_cfa_register 7
 159:./Generated_Source/PSoC5/CyDmac.c ****     return CY_GET_REG32(DMAC_ERR_ADR);
 195              		.loc 1 159 0
 196 0004 47F20803 		movw	r3, #:lower16:1073770504
 197 0008 C4F20003 		movt	r3, #:upper16:1073770504
 198 000c 1B68     		ldr	r3, [r3, #0]
 160:./Generated_Source/PSoC5/CyDmac.c **** }
 199              		.loc 1 160 0
 200 000e 1846     		mov	r0, r3
 201 0010 BD46     		mov	sp, r7
 202 0012 80BC     		pop	{r7}
 203 0014 7047     		bx	lr
 204              		.cfi_endproc
 205              	.LFE3:
 206              		.size	CyDmacErrorAddress, .-CyDmacErrorAddress
 207 0016 00BF     		.section	.text.CyDmaChAlloc,"ax",%progbits
 208              		.align	2
 209              		.global	CyDmaChAlloc
 210              		.thumb
 211              		.thumb_func
 212              		.type	CyDmaChAlloc, %function
 213              	CyDmaChAlloc:
 214              	.LFB4:
 161:./Generated_Source/PSoC5/CyDmac.c **** 
 162:./Generated_Source/PSoC5/CyDmac.c **** 
 163:./Generated_Source/PSoC5/CyDmac.c **** /*******************************************************************************
 164:./Generated_Source/PSoC5/CyDmac.c **** * Function Name: CyDmaChAlloc
 165:./Generated_Source/PSoC5/CyDmac.c **** ********************************************************************************
 166:./Generated_Source/PSoC5/CyDmac.c **** * Summary:
 167:./Generated_Source/PSoC5/CyDmac.c **** *   Allocates a channel of the DMAC to be used by the caller.
 168:./Generated_Source/PSoC5/CyDmac.c **** *
 169:./Generated_Source/PSoC5/CyDmac.c **** * Parameters:
 170:./Generated_Source/PSoC5/CyDmac.c **** *   void.
 171:./Generated_Source/PSoC5/CyDmac.c **** *
 172:./Generated_Source/PSoC5/CyDmac.c **** *
 173:./Generated_Source/PSoC5/CyDmac.c **** *
 174:./Generated_Source/PSoC5/CyDmac.c **** * Return:
 175:./Generated_Source/PSoC5/CyDmac.c **** *   The channel that can be used by the caller for DMA activity.
 176:./Generated_Source/PSoC5/CyDmac.c **** *   DMA_INVALID_CHANNEL if there are no channels left. 
 177:./Generated_Source/PSoC5/CyDmac.c **** *
 178:./Generated_Source/PSoC5/CyDmac.c **** *
 179:./Generated_Source/PSoC5/CyDmac.c **** *******************************************************************************/
 180:./Generated_Source/PSoC5/CyDmac.c **** uint8 CyDmaChAlloc(void) 
 181:./Generated_Source/PSoC5/CyDmac.c **** {
ARM GAS  C:\DOCUME~1\akay\LOCALS~1\Temp\ccUz6l5r.s 			page 8


 215              		.loc 1 181 0
 216              		.cfi_startproc
 217              		@ args = 0, pretend = 0, frame = 8
 218              		@ frame_needed = 1, uses_anonymous_args = 0
 219 0000 80B5     		push	{r7, lr}
 220              	.LCFI10:
 221              		.cfi_def_cfa_offset 8
 222 0002 82B0     		sub	sp, sp, #8
 223              	.LCFI11:
 224              		.cfi_def_cfa_offset 16
 225 0004 00AF     		add	r7, sp, #0
 226              		.cfi_offset 14, -4
 227              		.cfi_offset 7, -8
 228              	.LCFI12:
 229              		.cfi_def_cfa_register 7
 182:./Generated_Source/PSoC5/CyDmac.c ****     uint8 interruptState;
 183:./Generated_Source/PSoC5/CyDmac.c ****     uint8 index;
 184:./Generated_Source/PSoC5/CyDmac.c ****     uint32 channel;
 185:./Generated_Source/PSoC5/CyDmac.c **** 
 186:./Generated_Source/PSoC5/CyDmac.c **** 
 187:./Generated_Source/PSoC5/CyDmac.c ****     /* Enter critical section! */
 188:./Generated_Source/PSoC5/CyDmac.c ****     interruptState = CyEnterCriticalSection();
 230              		.loc 1 188 0
 231 0006 FFF7FEFF 		bl	CyEnterCriticalSection
 232 000a 0346     		mov	r3, r0
 233 000c BB70     		strb	r3, [r7, #2]
 189:./Generated_Source/PSoC5/CyDmac.c **** 
 190:./Generated_Source/PSoC5/CyDmac.c ****     /* Look for a free channel. */
 191:./Generated_Source/PSoC5/CyDmac.c ****     for(index = 0, channel = 1; index < NUMBEROF_CHANNELS; index++, channel <<= 1)
 234              		.loc 1 191 0
 235 000e 4FF00003 		mov	r3, #0
 236 0012 FB70     		strb	r3, [r7, #3]
 237 0014 4FF00103 		mov	r3, #1
 238 0018 7B60     		str	r3, [r7, #4]
 239 001a 1FE0     		b	.L12
 240              	.L15:
 192:./Generated_Source/PSoC5/CyDmac.c ****     {
 193:./Generated_Source/PSoC5/CyDmac.c ****         if(!(CyDmaChannels & channel))
 241              		.loc 1 193 0
 242 001c 40F20003 		movw	r3, #:lower16:CyDmaChannels
 243 0020 C0F20003 		movt	r3, #:upper16:CyDmaChannels
 244 0024 1A68     		ldr	r2, [r3, #0]
 245 0026 7B68     		ldr	r3, [r7, #4]
 246 0028 02EA0303 		and	r3, r2, r3
 247 002c 002B     		cmp	r3, #0
 248 002e 0DD1     		bne	.L13
 194:./Generated_Source/PSoC5/CyDmac.c ****         {
 195:./Generated_Source/PSoC5/CyDmac.c ****             /* Mark the channel as used. */
 196:./Generated_Source/PSoC5/CyDmac.c ****             CyDmaChannels |= channel;
 249              		.loc 1 196 0
 250 0030 40F20003 		movw	r3, #:lower16:CyDmaChannels
 251 0034 C0F20003 		movt	r3, #:upper16:CyDmaChannels
 252 0038 1A68     		ldr	r2, [r3, #0]
 253 003a 7B68     		ldr	r3, [r7, #4]
 254 003c 42EA0302 		orr	r2, r2, r3
 255 0040 40F20003 		movw	r3, #:lower16:CyDmaChannels
 256 0044 C0F20003 		movt	r3, #:upper16:CyDmaChannels
ARM GAS  C:\DOCUME~1\akay\LOCALS~1\Temp\ccUz6l5r.s 			page 9


 257 0048 1A60     		str	r2, [r3, #0]
 197:./Generated_Source/PSoC5/CyDmac.c ****             break;
 258              		.loc 1 197 0
 259 004a 0AE0     		b	.L14
 260              	.L13:
 261              		.loc 1 191 0
 262 004c FB78     		ldrb	r3, [r7, #3]
 263 004e 03F10103 		add	r3, r3, #1
 264 0052 FB70     		strb	r3, [r7, #3]
 265 0054 7B68     		ldr	r3, [r7, #4]
 266 0056 4FEA4303 		lsl	r3, r3, #1
 267 005a 7B60     		str	r3, [r7, #4]
 268              	.L12:
 269 005c FB78     		ldrb	r3, [r7, #3]	@ zero_extendqisi2
 270 005e 172B     		cmp	r3, #23
 271 0060 DCD9     		bls	.L15
 272              	.L14:
 198:./Generated_Source/PSoC5/CyDmac.c ****         }
 199:./Generated_Source/PSoC5/CyDmac.c ****     }
 200:./Generated_Source/PSoC5/CyDmac.c **** 
 201:./Generated_Source/PSoC5/CyDmac.c ****     if(index >= NUMBEROF_CHANNELS)
 273              		.loc 1 201 0
 274 0062 FB78     		ldrb	r3, [r7, #3]	@ zero_extendqisi2
 275 0064 172B     		cmp	r3, #23
 276 0066 02D9     		bls	.L16
 202:./Generated_Source/PSoC5/CyDmac.c ****     {
 203:./Generated_Source/PSoC5/CyDmac.c ****         index = DMA_INVALID_CHANNEL;    
 277              		.loc 1 203 0
 278 0068 4FF0FF33 		mov	r3, #-1
 279 006c FB70     		strb	r3, [r7, #3]
 280              	.L16:
 204:./Generated_Source/PSoC5/CyDmac.c ****     }
 205:./Generated_Source/PSoC5/CyDmac.c **** 
 206:./Generated_Source/PSoC5/CyDmac.c ****     /* Exit critical section! */
 207:./Generated_Source/PSoC5/CyDmac.c ****     CyExitCriticalSection(interruptState);
 281              		.loc 1 207 0
 282 006e BB78     		ldrb	r3, [r7, #2]	@ zero_extendqisi2
 283 0070 1846     		mov	r0, r3
 284 0072 FFF7FEFF 		bl	CyExitCriticalSection
 208:./Generated_Source/PSoC5/CyDmac.c **** 
 209:./Generated_Source/PSoC5/CyDmac.c ****     return index;
 285              		.loc 1 209 0
 286 0076 FB78     		ldrb	r3, [r7, #3]	@ zero_extendqisi2
 210:./Generated_Source/PSoC5/CyDmac.c **** }
 287              		.loc 1 210 0
 288 0078 1846     		mov	r0, r3
 289 007a 07F10807 		add	r7, r7, #8
 290 007e BD46     		mov	sp, r7
 291 0080 80BD     		pop	{r7, pc}
 292              		.cfi_endproc
 293              	.LFE4:
 294              		.size	CyDmaChAlloc, .-CyDmaChAlloc
 295 0082 00BF     		.section	.text.CyDmaChFree,"ax",%progbits
 296              		.align	2
 297              		.global	CyDmaChFree
 298              		.thumb
 299              		.thumb_func
ARM GAS  C:\DOCUME~1\akay\LOCALS~1\Temp\ccUz6l5r.s 			page 10


 300              		.type	CyDmaChFree, %function
 301              	CyDmaChFree:
 302              	.LFB5:
 211:./Generated_Source/PSoC5/CyDmac.c **** 
 212:./Generated_Source/PSoC5/CyDmac.c **** 
 213:./Generated_Source/PSoC5/CyDmac.c **** /*******************************************************************************
 214:./Generated_Source/PSoC5/CyDmac.c **** * Function Name: CyDmaChFree
 215:./Generated_Source/PSoC5/CyDmac.c **** ********************************************************************************
 216:./Generated_Source/PSoC5/CyDmac.c **** * Summary:
 217:./Generated_Source/PSoC5/CyDmac.c **** * Frees a channel allocated by DmaChAlloc.
 218:./Generated_Source/PSoC5/CyDmac.c **** *
 219:./Generated_Source/PSoC5/CyDmac.c **** * Parameters:
 220:./Generated_Source/PSoC5/CyDmac.c **** * chHandle:
 221:./Generated_Source/PSoC5/CyDmac.c **** *   Handle to the DMA channel previously allocated by a call to DmaChAlloc.
 222:./Generated_Source/PSoC5/CyDmac.c **** *
 223:./Generated_Source/PSoC5/CyDmac.c **** *
 224:./Generated_Source/PSoC5/CyDmac.c **** * Return:
 225:./Generated_Source/PSoC5/CyDmac.c **** *   0 in successful or CYRET_BAD_PARAM.
 226:./Generated_Source/PSoC5/CyDmac.c **** *
 227:./Generated_Source/PSoC5/CyDmac.c **** *
 228:./Generated_Source/PSoC5/CyDmac.c **** *******************************************************************************/
 229:./Generated_Source/PSoC5/CyDmac.c **** cystatus CyDmaChFree(uint8 chHandle) 
 230:./Generated_Source/PSoC5/CyDmac.c **** {
 303              		.loc 1 230 0
 304              		.cfi_startproc
 305              		@ args = 0, pretend = 0, frame = 16
 306              		@ frame_needed = 1, uses_anonymous_args = 0
 307 0000 80B5     		push	{r7, lr}
 308              	.LCFI13:
 309              		.cfi_def_cfa_offset 8
 310 0002 84B0     		sub	sp, sp, #16
 311              	.LCFI14:
 312              		.cfi_def_cfa_offset 24
 313 0004 00AF     		add	r7, sp, #0
 314              		.cfi_offset 14, -4
 315              		.cfi_offset 7, -8
 316              	.LCFI15:
 317              		.cfi_def_cfa_register 7
 318 0006 0346     		mov	r3, r0
 319 0008 FB71     		strb	r3, [r7, #7]
 231:./Generated_Source/PSoC5/CyDmac.c ****     cystatus status;
 232:./Generated_Source/PSoC5/CyDmac.c **** 
 233:./Generated_Source/PSoC5/CyDmac.c **** 
 234:./Generated_Source/PSoC5/CyDmac.c ****     if(chHandle < NUMBEROF_CHANNELS)
 320              		.loc 1 234 0
 321 000a FB79     		ldrb	r3, [r7, #7]	@ zero_extendqisi2
 322 000c 172B     		cmp	r3, #23
 323 000e 1FD8     		bhi	.L19
 324              	.LBB2:
 235:./Generated_Source/PSoC5/CyDmac.c ****     {
 236:./Generated_Source/PSoC5/CyDmac.c ****         /* Enter critical section! */
 237:./Generated_Source/PSoC5/CyDmac.c ****         uint8 interruptState = CyEnterCriticalSection();
 325              		.loc 1 237 0
 326 0010 FFF7FEFF 		bl	CyEnterCriticalSection
 327 0014 0346     		mov	r3, r0
 328 0016 FB73     		strb	r3, [r7, #15]
 238:./Generated_Source/PSoC5/CyDmac.c **** 
ARM GAS  C:\DOCUME~1\akay\LOCALS~1\Temp\ccUz6l5r.s 			page 11


 239:./Generated_Source/PSoC5/CyDmac.c ****         /* Clear the bit mask that keeps track of ownership. */
 240:./Generated_Source/PSoC5/CyDmac.c ****         CyDmaChannels &= ~(1 << chHandle);
 329              		.loc 1 240 0
 330 0018 FB79     		ldrb	r3, [r7, #7]	@ zero_extendqisi2
 331 001a 4FF00102 		mov	r2, #1
 332 001e 02FA03F3 		lsl	r3, r2, r3
 333 0022 6FEA0303 		mvn	r3, r3
 334 0026 1A46     		mov	r2, r3
 335 0028 40F20003 		movw	r3, #:lower16:CyDmaChannels
 336 002c C0F20003 		movt	r3, #:upper16:CyDmaChannels
 337 0030 1B68     		ldr	r3, [r3, #0]
 338 0032 02EA0302 		and	r2, r2, r3
 339 0036 40F20003 		movw	r3, #:lower16:CyDmaChannels
 340 003a C0F20003 		movt	r3, #:upper16:CyDmaChannels
 341 003e 1A60     		str	r2, [r3, #0]
 241:./Generated_Source/PSoC5/CyDmac.c **** 
 242:./Generated_Source/PSoC5/CyDmac.c ****         /* Exit critical section! */
 243:./Generated_Source/PSoC5/CyDmac.c ****         CyExitCriticalSection(interruptState);
 342              		.loc 1 243 0
 343 0040 FB7B     		ldrb	r3, [r7, #15]	@ zero_extendqisi2
 344 0042 1846     		mov	r0, r3
 345 0044 FFF7FEFF 		bl	CyExitCriticalSection
 244:./Generated_Source/PSoC5/CyDmac.c ****         status = CYRET_SUCCESS;
 346              		.loc 1 244 0
 347 0048 4FF00003 		mov	r3, #0
 348 004c BB60     		str	r3, [r7, #8]
 349 004e 02E0     		b	.L20
 350              	.L19:
 351              	.LBE2:
 245:./Generated_Source/PSoC5/CyDmac.c ****     }
 246:./Generated_Source/PSoC5/CyDmac.c ****     else
 247:./Generated_Source/PSoC5/CyDmac.c ****     {
 248:./Generated_Source/PSoC5/CyDmac.c ****         status = CYRET_BAD_PARAM;
 352              		.loc 1 248 0
 353 0050 4FF00103 		mov	r3, #1
 354 0054 BB60     		str	r3, [r7, #8]
 355              	.L20:
 249:./Generated_Source/PSoC5/CyDmac.c ****     }
 250:./Generated_Source/PSoC5/CyDmac.c **** 
 251:./Generated_Source/PSoC5/CyDmac.c ****     return status;
 356              		.loc 1 251 0
 357 0056 BB68     		ldr	r3, [r7, #8]
 252:./Generated_Source/PSoC5/CyDmac.c **** }
 358              		.loc 1 252 0
 359 0058 1846     		mov	r0, r3
 360 005a 07F11007 		add	r7, r7, #16
 361 005e BD46     		mov	sp, r7
 362 0060 80BD     		pop	{r7, pc}
 363              		.cfi_endproc
 364              	.LFE5:
 365              		.size	CyDmaChFree, .-CyDmaChFree
 366 0062 00BF     		.section	.text.CyDmaChEnable,"ax",%progbits
 367              		.align	2
 368              		.global	CyDmaChEnable
 369              		.thumb
 370              		.thumb_func
 371              		.type	CyDmaChEnable, %function
ARM GAS  C:\DOCUME~1\akay\LOCALS~1\Temp\ccUz6l5r.s 			page 12


 372              	CyDmaChEnable:
 373              	.LFB6:
 253:./Generated_Source/PSoC5/CyDmac.c **** 
 254:./Generated_Source/PSoC5/CyDmac.c **** 
 255:./Generated_Source/PSoC5/CyDmac.c **** /*******************************************************************************
 256:./Generated_Source/PSoC5/CyDmac.c **** * Function Name: CyDmaChEnable
 257:./Generated_Source/PSoC5/CyDmac.c **** ********************************************************************************
 258:./Generated_Source/PSoC5/CyDmac.c **** * Summary:
 259:./Generated_Source/PSoC5/CyDmac.c **** * Enables the DMA channel for execution depending on how it was configured.
 260:./Generated_Source/PSoC5/CyDmac.c **** *
 261:./Generated_Source/PSoC5/CyDmac.c **** * Parameters:
 262:./Generated_Source/PSoC5/CyDmac.c **** * chHandle:
 263:./Generated_Source/PSoC5/CyDmac.c **** *   Handle to the dma channel to be enabled.
 264:./Generated_Source/PSoC5/CyDmac.c **** *
 265:./Generated_Source/PSoC5/CyDmac.c **** * preserveTds;
 266:./Generated_Source/PSoC5/CyDmac.c **** *   0 if elements of TD should reflect current state of TD execuction.
 267:./Generated_Source/PSoC5/CyDmac.c **** *   1 if the DMA controller should not change values of the TD.
 268:./Generated_Source/PSoC5/CyDmac.c **** *
 269:./Generated_Source/PSoC5/CyDmac.c **** * Return:
 270:./Generated_Source/PSoC5/CyDmac.c **** *   0 in successful or CYRET_BAD_PARAM.
 271:./Generated_Source/PSoC5/CyDmac.c **** *
 272:./Generated_Source/PSoC5/CyDmac.c **** *
 273:./Generated_Source/PSoC5/CyDmac.c **** *******************************************************************************/
 274:./Generated_Source/PSoC5/CyDmac.c **** cystatus CyDmaChEnable(uint8 chHandle, uint8 preserveTds) 
 275:./Generated_Source/PSoC5/CyDmac.c **** {
 374              		.loc 1 275 0
 375              		.cfi_startproc
 376              		@ args = 0, pretend = 0, frame = 16
 377              		@ frame_needed = 1, uses_anonymous_args = 0
 378              		@ link register save eliminated.
 379 0000 80B4     		push	{r7}
 380              	.LCFI16:
 381              		.cfi_def_cfa_offset 4
 382 0002 85B0     		sub	sp, sp, #20
 383              	.LCFI17:
 384              		.cfi_def_cfa_offset 24
 385 0004 00AF     		add	r7, sp, #0
 386              		.cfi_offset 7, -4
 387              	.LCFI18:
 388              		.cfi_def_cfa_register 7
 389 0006 0246     		mov	r2, r0
 390 0008 0B46     		mov	r3, r1
 391 000a FA71     		strb	r2, [r7, #7]
 392 000c BB71     		strb	r3, [r7, #6]
 276:./Generated_Source/PSoC5/CyDmac.c ****     cystatus status;
 277:./Generated_Source/PSoC5/CyDmac.c **** 
 278:./Generated_Source/PSoC5/CyDmac.c **** 
 279:./Generated_Source/PSoC5/CyDmac.c ****     if(chHandle < NUMBEROF_CHANNELS)
 393              		.loc 1 279 0
 394 000e FB79     		ldrb	r3, [r7, #7]	@ zero_extendqisi2
 395 0010 172B     		cmp	r3, #23
 396 0012 23D8     		bhi	.L23
 280:./Generated_Source/PSoC5/CyDmac.c ****     {
 281:./Generated_Source/PSoC5/CyDmac.c ****         DMAC_CH[chHandle].basic_cfg[0] = (DMAC_CH[chHandle].basic_cfg[0] &  ~0x20u) | ((preserveTds
 397              		.loc 1 281 0
 398 0014 FB79     		ldrb	r3, [r7, #7]	@ zero_extendqisi2
 399 0016 4FEA0312 		lsl	r2, r3, #4
ARM GAS  C:\DOCUME~1\akay\LOCALS~1\Temp\ccUz6l5r.s 			page 13


 400 001a 47F21003 		movw	r3, #:lower16:1073770512
 401 001e C4F20003 		movt	r3, #:upper16:1073770512
 402 0022 1344     		add	r3, r2, r3
 403 0024 FA79     		ldrb	r2, [r7, #7]	@ zero_extendqisi2
 404 0026 4FEA0211 		lsl	r1, r2, #4
 405 002a 47F21002 		movw	r2, #:lower16:1073770512
 406 002e C4F20002 		movt	r2, #:upper16:1073770512
 407 0032 0A44     		add	r2, r1, r2
 408 0034 1278     		ldrb	r2, [r2, #0]
 409 0036 D2B2     		uxtb	r2, r2
 410 0038 02F0DF02 		and	r2, r2, #223
 411 003c B979     		ldrb	r1, [r7, #6]	@ zero_extendqisi2
 412 003e 0029     		cmp	r1, #0
 413 0040 02D0     		beq	.L24
 414 0042 4FF02101 		mov	r1, #33
 415 0046 01E0     		b	.L25
 416              	.L24:
 417 0048 4FF00101 		mov	r1, #1
 418              	.L25:
 419 004c 42EA0102 		orr	r2, r2, r1
 420 0050 D2B2     		uxtb	r2, r2
 421 0052 1A70     		strb	r2, [r3, #0]
 282:./Generated_Source/PSoC5/CyDmac.c ****         status = CYRET_SUCCESS;
 422              		.loc 1 282 0
 423 0054 4FF00003 		mov	r3, #0
 424 0058 FB60     		str	r3, [r7, #12]
 425 005a 02E0     		b	.L26
 426              	.L23:
 283:./Generated_Source/PSoC5/CyDmac.c ****     }
 284:./Generated_Source/PSoC5/CyDmac.c ****     else
 285:./Generated_Source/PSoC5/CyDmac.c ****     {
 286:./Generated_Source/PSoC5/CyDmac.c ****         status = CYRET_BAD_PARAM;
 427              		.loc 1 286 0
 428 005c 4FF00103 		mov	r3, #1
 429 0060 FB60     		str	r3, [r7, #12]
 430              	.L26:
 287:./Generated_Source/PSoC5/CyDmac.c ****     }
 288:./Generated_Source/PSoC5/CyDmac.c **** 
 289:./Generated_Source/PSoC5/CyDmac.c ****     return status;
 431              		.loc 1 289 0
 432 0062 FB68     		ldr	r3, [r7, #12]
 290:./Generated_Source/PSoC5/CyDmac.c **** }
 433              		.loc 1 290 0
 434 0064 1846     		mov	r0, r3
 435 0066 07F11407 		add	r7, r7, #20
 436 006a BD46     		mov	sp, r7
 437 006c 80BC     		pop	{r7}
 438 006e 7047     		bx	lr
 439              		.cfi_endproc
 440              	.LFE6:
 441              		.size	CyDmaChEnable, .-CyDmaChEnable
 442              		.section	.text.CyDmaChDisable,"ax",%progbits
 443              		.align	2
 444              		.global	CyDmaChDisable
 445              		.thumb
 446              		.thumb_func
 447              		.type	CyDmaChDisable, %function
ARM GAS  C:\DOCUME~1\akay\LOCALS~1\Temp\ccUz6l5r.s 			page 14


 448              	CyDmaChDisable:
 449              	.LFB7:
 291:./Generated_Source/PSoC5/CyDmac.c **** 
 292:./Generated_Source/PSoC5/CyDmac.c **** 
 293:./Generated_Source/PSoC5/CyDmac.c **** /*******************************************************************************
 294:./Generated_Source/PSoC5/CyDmac.c **** * Function Name: CyDmaChDisable
 295:./Generated_Source/PSoC5/CyDmac.c **** ********************************************************************************
 296:./Generated_Source/PSoC5/CyDmac.c **** * Summary:
 297:./Generated_Source/PSoC5/CyDmac.c **** *   Disables the DMA channel.
 298:./Generated_Source/PSoC5/CyDmac.c **** *
 299:./Generated_Source/PSoC5/CyDmac.c **** * Parameters:
 300:./Generated_Source/PSoC5/CyDmac.c **** * chHandle:
 301:./Generated_Source/PSoC5/CyDmac.c **** *   Handle to the dma channel.
 302:./Generated_Source/PSoC5/CyDmac.c **** *
 303:./Generated_Source/PSoC5/CyDmac.c **** *
 304:./Generated_Source/PSoC5/CyDmac.c **** * Return:
 305:./Generated_Source/PSoC5/CyDmac.c **** *   0 in successful or CYRET_BAD_PARAM.
 306:./Generated_Source/PSoC5/CyDmac.c **** *
 307:./Generated_Source/PSoC5/CyDmac.c **** * Theory:
 308:./Generated_Source/PSoC5/CyDmac.c **** *   Once this function has been called. DmaChStatus can be polled
 309:./Generated_Source/PSoC5/CyDmac.c **** *   to determine when the Channel has been disabled and determine
 310:./Generated_Source/PSoC5/CyDmac.c **** *   which TD was being executed.
 311:./Generated_Source/PSoC5/CyDmac.c **** *
 312:./Generated_Source/PSoC5/CyDmac.c **** *   If it is currently executing it will
 313:./Generated_Source/PSoC5/CyDmac.c **** *   allow the current burst to finish naturally.
 314:./Generated_Source/PSoC5/CyDmac.c **** *
 315:./Generated_Source/PSoC5/CyDmac.c **** *******************************************************************************/
 316:./Generated_Source/PSoC5/CyDmac.c **** cystatus CyDmaChDisable(uint8 chHandle) 
 317:./Generated_Source/PSoC5/CyDmac.c **** {
 450              		.loc 1 317 0
 451              		.cfi_startproc
 452              		@ args = 0, pretend = 0, frame = 16
 453              		@ frame_needed = 1, uses_anonymous_args = 0
 454              		@ link register save eliminated.
 455 0000 80B4     		push	{r7}
 456              	.LCFI19:
 457              		.cfi_def_cfa_offset 4
 458 0002 85B0     		sub	sp, sp, #20
 459              	.LCFI20:
 460              		.cfi_def_cfa_offset 24
 461 0004 00AF     		add	r7, sp, #0
 462              		.cfi_offset 7, -4
 463              	.LCFI21:
 464              		.cfi_def_cfa_register 7
 465 0006 0346     		mov	r3, r0
 466 0008 FB71     		strb	r3, [r7, #7]
 318:./Generated_Source/PSoC5/CyDmac.c ****     cystatus status;
 319:./Generated_Source/PSoC5/CyDmac.c **** 
 320:./Generated_Source/PSoC5/CyDmac.c **** 
 321:./Generated_Source/PSoC5/CyDmac.c ****     if(chHandle < NUMBEROF_CHANNELS)
 467              		.loc 1 321 0
 468 000a FB79     		ldrb	r3, [r7, #7]	@ zero_extendqisi2
 469 000c 172B     		cmp	r3, #23
 470 000e 18D8     		bhi	.L29
 322:./Generated_Source/PSoC5/CyDmac.c ****     {
 323:./Generated_Source/PSoC5/CyDmac.c ****         DMAC_CH[chHandle].basic_cfg[0] &= ~0x21u;
 471              		.loc 1 323 0
ARM GAS  C:\DOCUME~1\akay\LOCALS~1\Temp\ccUz6l5r.s 			page 15


 472 0010 FB79     		ldrb	r3, [r7, #7]	@ zero_extendqisi2
 473 0012 4FEA0312 		lsl	r2, r3, #4
 474 0016 47F21003 		movw	r3, #:lower16:1073770512
 475 001a C4F20003 		movt	r3, #:upper16:1073770512
 476 001e 1344     		add	r3, r2, r3
 477 0020 FA79     		ldrb	r2, [r7, #7]	@ zero_extendqisi2
 478 0022 4FEA0211 		lsl	r1, r2, #4
 479 0026 47F21002 		movw	r2, #:lower16:1073770512
 480 002a C4F20002 		movt	r2, #:upper16:1073770512
 481 002e 0A44     		add	r2, r1, r2
 482 0030 1278     		ldrb	r2, [r2, #0]
 483 0032 D2B2     		uxtb	r2, r2
 484 0034 02F0DE02 		and	r2, r2, #222
 485 0038 1A70     		strb	r2, [r3, #0]
 324:./Generated_Source/PSoC5/CyDmac.c ****         status = CYRET_SUCCESS;
 486              		.loc 1 324 0
 487 003a 4FF00003 		mov	r3, #0
 488 003e FB60     		str	r3, [r7, #12]
 489 0040 02E0     		b	.L30
 490              	.L29:
 325:./Generated_Source/PSoC5/CyDmac.c ****     }
 326:./Generated_Source/PSoC5/CyDmac.c ****     else
 327:./Generated_Source/PSoC5/CyDmac.c ****     {
 328:./Generated_Source/PSoC5/CyDmac.c ****         status = CYRET_BAD_PARAM;
 491              		.loc 1 328 0
 492 0042 4FF00103 		mov	r3, #1
 493 0046 FB60     		str	r3, [r7, #12]
 494              	.L30:
 329:./Generated_Source/PSoC5/CyDmac.c ****     }
 330:./Generated_Source/PSoC5/CyDmac.c **** 
 331:./Generated_Source/PSoC5/CyDmac.c ****     return status;
 495              		.loc 1 331 0
 496 0048 FB68     		ldr	r3, [r7, #12]
 332:./Generated_Source/PSoC5/CyDmac.c **** }
 497              		.loc 1 332 0
 498 004a 1846     		mov	r0, r3
 499 004c 07F11407 		add	r7, r7, #20
 500 0050 BD46     		mov	sp, r7
 501 0052 80BC     		pop	{r7}
 502 0054 7047     		bx	lr
 503              		.cfi_endproc
 504              	.LFE7:
 505              		.size	CyDmaChDisable, .-CyDmaChDisable
 506 0056 00BF     		.section	.text.CyDmaClearPendingDrq,"ax",%progbits
 507              		.align	2
 508              		.global	CyDmaClearPendingDrq
 509              		.thumb
 510              		.thumb_func
 511              		.type	CyDmaClearPendingDrq, %function
 512              	CyDmaClearPendingDrq:
 513              	.LFB8:
 333:./Generated_Source/PSoC5/CyDmac.c **** 
 334:./Generated_Source/PSoC5/CyDmac.c **** /*******************************************************************************
 335:./Generated_Source/PSoC5/CyDmac.c **** * Function Name: CyDmaClearPendingDrq
 336:./Generated_Source/PSoC5/CyDmac.c **** ********************************************************************************
 337:./Generated_Source/PSoC5/CyDmac.c **** * Summary:
 338:./Generated_Source/PSoC5/CyDmac.c **** *   Clears pending DMA data request.
ARM GAS  C:\DOCUME~1\akay\LOCALS~1\Temp\ccUz6l5r.s 			page 16


 339:./Generated_Source/PSoC5/CyDmac.c **** *
 340:./Generated_Source/PSoC5/CyDmac.c **** * Parameters:
 341:./Generated_Source/PSoC5/CyDmac.c **** * chHandle:
 342:./Generated_Source/PSoC5/CyDmac.c **** *   Handle to the dma channel.
 343:./Generated_Source/PSoC5/CyDmac.c **** *
 344:./Generated_Source/PSoC5/CyDmac.c **** *
 345:./Generated_Source/PSoC5/CyDmac.c **** * Return:
 346:./Generated_Source/PSoC5/CyDmac.c **** *   0 in successful or CYRET_BAD_PARAM.
 347:./Generated_Source/PSoC5/CyDmac.c **** *
 348:./Generated_Source/PSoC5/CyDmac.c **** *******************************************************************************/
 349:./Generated_Source/PSoC5/CyDmac.c **** cystatus CyDmaClearPendingDrq(uint8 chHandle) 
 350:./Generated_Source/PSoC5/CyDmac.c **** {
 514              		.loc 1 350 0
 515              		.cfi_startproc
 516              		@ args = 0, pretend = 0, frame = 16
 517              		@ frame_needed = 1, uses_anonymous_args = 0
 518              		@ link register save eliminated.
 519 0000 80B4     		push	{r7}
 520              	.LCFI22:
 521              		.cfi_def_cfa_offset 4
 522 0002 85B0     		sub	sp, sp, #20
 523              	.LCFI23:
 524              		.cfi_def_cfa_offset 24
 525 0004 00AF     		add	r7, sp, #0
 526              		.cfi_offset 7, -4
 527              	.LCFI24:
 528              		.cfi_def_cfa_register 7
 529 0006 0346     		mov	r3, r0
 530 0008 FB71     		strb	r3, [r7, #7]
 351:./Generated_Source/PSoC5/CyDmac.c ****     cystatus status;
 352:./Generated_Source/PSoC5/CyDmac.c ****     
 353:./Generated_Source/PSoC5/CyDmac.c ****     if(chHandle < NUMBEROF_CHANNELS)
 531              		.loc 1 353 0
 532 000a FB79     		ldrb	r3, [r7, #7]	@ zero_extendqisi2
 533 000c 172B     		cmp	r3, #23
 534 000e 2FD8     		bhi	.L33
 354:./Generated_Source/PSoC5/CyDmac.c ****     {
 355:./Generated_Source/PSoC5/CyDmac.c ****         DMAC_CH[chHandle].action[0] |= CPU_TERM_CHAIN;
 535              		.loc 1 355 0
 536 0010 FB79     		ldrb	r3, [r7, #7]	@ zero_extendqisi2
 537 0012 4FEA0312 		lsl	r2, r3, #4
 538 0016 47F21003 		movw	r3, #:lower16:1073770512
 539 001a C4F20003 		movt	r3, #:upper16:1073770512
 540 001e 1344     		add	r3, r2, r3
 541 0020 FA79     		ldrb	r2, [r7, #7]	@ zero_extendqisi2
 542 0022 4FEA0211 		lsl	r1, r2, #4
 543 0026 47F21002 		movw	r2, #:lower16:1073770512
 544 002a C4F20002 		movt	r2, #:upper16:1073770512
 545 002e 0A44     		add	r2, r1, r2
 546 0030 1279     		ldrb	r2, [r2, #4]
 547 0032 D2B2     		uxtb	r2, r2
 548 0034 42F00402 		orr	r2, r2, #4
 549 0038 D2B2     		uxtb	r2, r2
 550 003a 1A71     		strb	r2, [r3, #4]
 356:./Generated_Source/PSoC5/CyDmac.c ****         DMAC_CH[chHandle].basic_cfg[0] |= 0x01u;
 551              		.loc 1 356 0
 552 003c FB79     		ldrb	r3, [r7, #7]	@ zero_extendqisi2
ARM GAS  C:\DOCUME~1\akay\LOCALS~1\Temp\ccUz6l5r.s 			page 17


 553 003e 4FEA0312 		lsl	r2, r3, #4
 554 0042 47F21003 		movw	r3, #:lower16:1073770512
 555 0046 C4F20003 		movt	r3, #:upper16:1073770512
 556 004a 1344     		add	r3, r2, r3
 557 004c FA79     		ldrb	r2, [r7, #7]	@ zero_extendqisi2
 558 004e 4FEA0211 		lsl	r1, r2, #4
 559 0052 47F21002 		movw	r2, #:lower16:1073770512
 560 0056 C4F20002 		movt	r2, #:upper16:1073770512
 561 005a 0A44     		add	r2, r1, r2
 562 005c 1278     		ldrb	r2, [r2, #0]
 563 005e D2B2     		uxtb	r2, r2
 564 0060 42F00102 		orr	r2, r2, #1
 565 0064 D2B2     		uxtb	r2, r2
 566 0066 1A70     		strb	r2, [r3, #0]
 357:./Generated_Source/PSoC5/CyDmac.c ****         status = CYRET_SUCCESS;
 567              		.loc 1 357 0
 568 0068 4FF00003 		mov	r3, #0
 569 006c FB60     		str	r3, [r7, #12]
 570 006e 02E0     		b	.L34
 571              	.L33:
 358:./Generated_Source/PSoC5/CyDmac.c ****     }
 359:./Generated_Source/PSoC5/CyDmac.c ****     else
 360:./Generated_Source/PSoC5/CyDmac.c ****     {
 361:./Generated_Source/PSoC5/CyDmac.c ****         status = CYRET_BAD_PARAM;
 572              		.loc 1 361 0
 573 0070 4FF00103 		mov	r3, #1
 574 0074 FB60     		str	r3, [r7, #12]
 575              	.L34:
 362:./Generated_Source/PSoC5/CyDmac.c ****     }
 363:./Generated_Source/PSoC5/CyDmac.c ****     
 364:./Generated_Source/PSoC5/CyDmac.c ****     return status;
 576              		.loc 1 364 0
 577 0076 FB68     		ldr	r3, [r7, #12]
 365:./Generated_Source/PSoC5/CyDmac.c **** }
 578              		.loc 1 365 0
 579 0078 1846     		mov	r0, r3
 580 007a 07F11407 		add	r7, r7, #20
 581 007e BD46     		mov	sp, r7
 582 0080 80BC     		pop	{r7}
 583 0082 7047     		bx	lr
 584              		.cfi_endproc
 585              	.LFE8:
 586              		.size	CyDmaClearPendingDrq, .-CyDmaClearPendingDrq
 587              		.section	.text.CyDmaChPriority,"ax",%progbits
 588              		.align	2
 589              		.global	CyDmaChPriority
 590              		.thumb
 591              		.thumb_func
 592              		.type	CyDmaChPriority, %function
 593              	CyDmaChPriority:
 594              	.LFB9:
 366:./Generated_Source/PSoC5/CyDmac.c **** 
 367:./Generated_Source/PSoC5/CyDmac.c **** 
 368:./Generated_Source/PSoC5/CyDmac.c **** /*******************************************************************************
 369:./Generated_Source/PSoC5/CyDmac.c **** * Function Name: CyDmaChPriority
 370:./Generated_Source/PSoC5/CyDmac.c **** ********************************************************************************
 371:./Generated_Source/PSoC5/CyDmac.c **** * Summary:
ARM GAS  C:\DOCUME~1\akay\LOCALS~1\Temp\ccUz6l5r.s 			page 18


 372:./Generated_Source/PSoC5/CyDmac.c **** * Sets the priority of a DMA channel.
 373:./Generated_Source/PSoC5/CyDmac.c **** *
 374:./Generated_Source/PSoC5/CyDmac.c **** * Parameters:
 375:./Generated_Source/PSoC5/CyDmac.c **** * chHandle:
 376:./Generated_Source/PSoC5/CyDmac.c **** *   Handle to the dma channel.
 377:./Generated_Source/PSoC5/CyDmac.c **** *
 378:./Generated_Source/PSoC5/CyDmac.c **** * priority:
 379:./Generated_Source/PSoC5/CyDmac.c **** *   Priority to set the channel to, 0 - 7.
 380:./Generated_Source/PSoC5/CyDmac.c **** *
 381:./Generated_Source/PSoC5/CyDmac.c **** *
 382:./Generated_Source/PSoC5/CyDmac.c **** *
 383:./Generated_Source/PSoC5/CyDmac.c **** * Return:
 384:./Generated_Source/PSoC5/CyDmac.c **** *   0 in successful or CYRET_BAD_PARAM.
 385:./Generated_Source/PSoC5/CyDmac.c **** *
 386:./Generated_Source/PSoC5/CyDmac.c **** *
 387:./Generated_Source/PSoC5/CyDmac.c **** *******************************************************************************/
 388:./Generated_Source/PSoC5/CyDmac.c **** cystatus CyDmaChPriority(uint8 chHandle, uint8 priority) 
 389:./Generated_Source/PSoC5/CyDmac.c **** {
 595              		.loc 1 389 0
 596              		.cfi_startproc
 597              		@ args = 0, pretend = 0, frame = 16
 598              		@ frame_needed = 1, uses_anonymous_args = 0
 599              		@ link register save eliminated.
 600 0000 80B4     		push	{r7}
 601              	.LCFI25:
 602              		.cfi_def_cfa_offset 4
 603 0002 85B0     		sub	sp, sp, #20
 604              	.LCFI26:
 605              		.cfi_def_cfa_offset 24
 606 0004 00AF     		add	r7, sp, #0
 607              		.cfi_offset 7, -4
 608              	.LCFI27:
 609              		.cfi_def_cfa_register 7
 610 0006 0246     		mov	r2, r0
 611 0008 0B46     		mov	r3, r1
 612 000a FA71     		strb	r2, [r7, #7]
 613 000c BB71     		strb	r3, [r7, #6]
 390:./Generated_Source/PSoC5/CyDmac.c ****     uint8 Value;
 391:./Generated_Source/PSoC5/CyDmac.c ****     cystatus status;
 392:./Generated_Source/PSoC5/CyDmac.c **** 
 393:./Generated_Source/PSoC5/CyDmac.c **** 
 394:./Generated_Source/PSoC5/CyDmac.c ****     if(chHandle < NUMBEROF_CHANNELS)
 614              		.loc 1 394 0
 615 000e FB79     		ldrb	r3, [r7, #7]	@ zero_extendqisi2
 616 0010 172B     		cmp	r3, #23
 617 0012 22D8     		bhi	.L37
 395:./Generated_Source/PSoC5/CyDmac.c ****     {
 396:./Generated_Source/PSoC5/CyDmac.c ****         Value = DMAC_CH[chHandle].basic_cfg[0] & ~(0x0Eu);
 618              		.loc 1 396 0
 619 0014 FB79     		ldrb	r3, [r7, #7]	@ zero_extendqisi2
 620 0016 4FEA0312 		lsl	r2, r3, #4
 621 001a 47F21003 		movw	r3, #:lower16:1073770512
 622 001e C4F20003 		movt	r3, #:upper16:1073770512
 623 0022 1344     		add	r3, r2, r3
 624 0024 1B78     		ldrb	r3, [r3, #0]
 625 0026 DBB2     		uxtb	r3, r3
 626 0028 23F00E03 		bic	r3, r3, #14
ARM GAS  C:\DOCUME~1\akay\LOCALS~1\Temp\ccUz6l5r.s 			page 19


 627 002c FB72     		strb	r3, [r7, #11]
 397:./Generated_Source/PSoC5/CyDmac.c ****         DMAC_CH[chHandle].basic_cfg[0] = Value | (priority << 0x01u);
 628              		.loc 1 397 0
 629 002e FB79     		ldrb	r3, [r7, #7]	@ zero_extendqisi2
 630 0030 4FEA0312 		lsl	r2, r3, #4
 631 0034 47F21003 		movw	r3, #:lower16:1073770512
 632 0038 C4F20003 		movt	r3, #:upper16:1073770512
 633 003c 1344     		add	r3, r2, r3
 634 003e BA79     		ldrb	r2, [r7, #6]	@ zero_extendqisi2
 635 0040 4FEA4202 		lsl	r2, r2, #1
 636 0044 D1B2     		uxtb	r1, r2
 637 0046 FA7A     		ldrb	r2, [r7, #11]	@ zero_extendqisi2
 638 0048 41EA0202 		orr	r2, r1, r2
 639 004c D2B2     		uxtb	r2, r2
 640 004e D2B2     		uxtb	r2, r2
 641 0050 1A70     		strb	r2, [r3, #0]
 398:./Generated_Source/PSoC5/CyDmac.c ****         status = CYRET_SUCCESS;
 642              		.loc 1 398 0
 643 0052 4FF00003 		mov	r3, #0
 644 0056 FB60     		str	r3, [r7, #12]
 645 0058 02E0     		b	.L38
 646              	.L37:
 399:./Generated_Source/PSoC5/CyDmac.c ****     }
 400:./Generated_Source/PSoC5/CyDmac.c ****     else
 401:./Generated_Source/PSoC5/CyDmac.c ****     {
 402:./Generated_Source/PSoC5/CyDmac.c ****         status = CYRET_BAD_PARAM;
 647              		.loc 1 402 0
 648 005a 4FF00103 		mov	r3, #1
 649 005e FB60     		str	r3, [r7, #12]
 650              	.L38:
 403:./Generated_Source/PSoC5/CyDmac.c ****     }
 404:./Generated_Source/PSoC5/CyDmac.c **** 
 405:./Generated_Source/PSoC5/CyDmac.c ****     return status;
 651              		.loc 1 405 0
 652 0060 FB68     		ldr	r3, [r7, #12]
 406:./Generated_Source/PSoC5/CyDmac.c **** }
 653              		.loc 1 406 0
 654 0062 1846     		mov	r0, r3
 655 0064 07F11407 		add	r7, r7, #20
 656 0068 BD46     		mov	sp, r7
 657 006a 80BC     		pop	{r7}
 658 006c 7047     		bx	lr
 659              		.cfi_endproc
 660              	.LFE9:
 661              		.size	CyDmaChPriority, .-CyDmaChPriority
 662 006e 00BF     		.section	.text.CyDmaChSetExtendedAddress,"ax",%progbits
 663              		.align	2
 664              		.global	CyDmaChSetExtendedAddress
 665              		.thumb
 666              		.thumb_func
 667              		.type	CyDmaChSetExtendedAddress, %function
 668              	CyDmaChSetExtendedAddress:
 669              	.LFB10:
 407:./Generated_Source/PSoC5/CyDmac.c **** 
 408:./Generated_Source/PSoC5/CyDmac.c **** 
 409:./Generated_Source/PSoC5/CyDmac.c **** /*******************************************************************************
 410:./Generated_Source/PSoC5/CyDmac.c **** * Function Name: CyDmaChSetExtendedAddress
ARM GAS  C:\DOCUME~1\akay\LOCALS~1\Temp\ccUz6l5r.s 			page 20


 411:./Generated_Source/PSoC5/CyDmac.c **** ********************************************************************************
 412:./Generated_Source/PSoC5/CyDmac.c **** * Summary:
 413:./Generated_Source/PSoC5/CyDmac.c **** *   Sets the high 16 bits of the source and destination addresses for
 414:./Generated_Source/PSoC5/CyDmac.c **** *   the DMA channel (all TD's in the chain).
 415:./Generated_Source/PSoC5/CyDmac.c **** *
 416:./Generated_Source/PSoC5/CyDmac.c **** * Parameters:
 417:./Generated_Source/PSoC5/CyDmac.c **** * chHandle:
 418:./Generated_Source/PSoC5/CyDmac.c **** *   Handle to the dma channel.
 419:./Generated_Source/PSoC5/CyDmac.c **** *
 420:./Generated_Source/PSoC5/CyDmac.c **** * source:
 421:./Generated_Source/PSoC5/CyDmac.c **** *   The source of the DMA transfer.
 422:./Generated_Source/PSoC5/CyDmac.c **** *
 423:./Generated_Source/PSoC5/CyDmac.c **** * destination:
 424:./Generated_Source/PSoC5/CyDmac.c **** *   The destination of the DMA transfer.
 425:./Generated_Source/PSoC5/CyDmac.c **** *
 426:./Generated_Source/PSoC5/CyDmac.c **** *
 427:./Generated_Source/PSoC5/CyDmac.c **** *
 428:./Generated_Source/PSoC5/CyDmac.c **** * Return:
 429:./Generated_Source/PSoC5/CyDmac.c **** *   0 in successful or CYRET_BAD_PARAM.
 430:./Generated_Source/PSoC5/CyDmac.c **** *
 431:./Generated_Source/PSoC5/CyDmac.c **** *
 432:./Generated_Source/PSoC5/CyDmac.c **** *******************************************************************************/
 433:./Generated_Source/PSoC5/CyDmac.c **** cystatus CyDmaChSetExtendedAddress(uint8 chHandle, uint16 source, uint16 destination) 
 434:./Generated_Source/PSoC5/CyDmac.c **** {
 670              		.loc 1 434 0
 671              		.cfi_startproc
 672              		@ args = 0, pretend = 0, frame = 16
 673              		@ frame_needed = 1, uses_anonymous_args = 0
 674              		@ link register save eliminated.
 675 0000 80B4     		push	{r7}
 676              	.LCFI28:
 677              		.cfi_def_cfa_offset 4
 678 0002 85B0     		sub	sp, sp, #20
 679              	.LCFI29:
 680              		.cfi_def_cfa_offset 24
 681 0004 00AF     		add	r7, sp, #0
 682              		.cfi_offset 7, -4
 683              	.LCFI30:
 684              		.cfi_def_cfa_register 7
 685 0006 1346     		mov	r3, r2
 686 0008 0246     		mov	r2, r0
 687 000a FA71     		strb	r2, [r7, #7]
 688 000c 0A46     		mov	r2, r1	@ movhi
 689 000e BA80     		strh	r2, [r7, #4]	@ movhi
 690 0010 7B80     		strh	r3, [r7, #2]	@ movhi
 435:./Generated_Source/PSoC5/CyDmac.c ****     cystatus status;
 436:./Generated_Source/PSoC5/CyDmac.c **** 
 437:./Generated_Source/PSoC5/CyDmac.c **** #if CYDEV_CHIP_MEMBER_USED == CYDEV_CHIP_MEMBER_5A
 438:./Generated_Source/PSoC5/CyDmac.c ****     /* 0x1FFF8000-0x1FFFFFFF needs to use alias at 0x20008000-0x2000FFFF */
 439:./Generated_Source/PSoC5/CyDmac.c ****     if (source == 0x1FFF)
 691              		.loc 1 439 0
 692 0012 BA88     		ldrh	r2, [r7, #4]
 693 0014 41F6FF73 		movw	r3, #8191
 694 0018 9A42     		cmp	r2, r3
 695 001a 02D1     		bne	.L41
 440:./Generated_Source/PSoC5/CyDmac.c ****         source = 0x2000;
 696              		.loc 1 440 0
ARM GAS  C:\DOCUME~1\akay\LOCALS~1\Temp\ccUz6l5r.s 			page 21


 697 001c 4FF40053 		mov	r3, #8192
 698 0020 BB80     		strh	r3, [r7, #4]	@ movhi
 699              	.L41:
 441:./Generated_Source/PSoC5/CyDmac.c ****     if (destination == 0x1FFF)
 700              		.loc 1 441 0
 701 0022 7A88     		ldrh	r2, [r7, #2]
 702 0024 41F6FF73 		movw	r3, #8191
 703 0028 9A42     		cmp	r2, r3
 704 002a 02D1     		bne	.L42
 442:./Generated_Source/PSoC5/CyDmac.c ****         destination = 0x2000;
 705              		.loc 1 442 0
 706 002c 4FF40053 		mov	r3, #8192
 707 0030 7B80     		strh	r3, [r7, #2]	@ movhi
 708              	.L42:
 443:./Generated_Source/PSoC5/CyDmac.c **** #endif
 444:./Generated_Source/PSoC5/CyDmac.c **** 
 445:./Generated_Source/PSoC5/CyDmac.c ****     if(chHandle < NUMBEROF_CHANNELS)
 709              		.loc 1 445 0
 710 0032 FB79     		ldrb	r3, [r7, #7]	@ zero_extendqisi2
 711 0034 172B     		cmp	r3, #23
 712 0036 1DD8     		bhi	.L43
 713              	.LBB3:
 446:./Generated_Source/PSoC5/CyDmac.c ****     {
 447:./Generated_Source/PSoC5/CyDmac.c ****         /* Set Source address. */
 448:./Generated_Source/PSoC5/CyDmac.c ****         CONVERT_WORD *convert = (CONVERT_WORD *)&DMAC_CFGMEM[chHandle].CFG1[0];
 714              		.loc 1 448 0
 715 0038 FB79     		ldrb	r3, [r7, #7]	@ zero_extendqisi2
 716 003a 4FEAC303 		lsl	r3, r3, #3
 717 003e 03F18043 		add	r3, r3, #1073741824
 718 0042 03F5EC43 		add	r3, r3, #30208
 719 0046 03F10403 		add	r3, r3, #4
 720 004a FB60     		str	r3, [r7, #12]
 449:./Generated_Source/PSoC5/CyDmac.c ****         CY_SET_REG16(&convert->word, source);
 721              		.loc 1 449 0
 722 004c FB68     		ldr	r3, [r7, #12]
 723 004e BA88     		ldrh	r2, [r7, #4]	@ movhi
 724 0050 1A80     		strh	r2, [r3, #0]	@ movhi
 450:./Generated_Source/PSoC5/CyDmac.c **** 
 451:./Generated_Source/PSoC5/CyDmac.c ****         /* Set Destination address. */
 452:./Generated_Source/PSoC5/CyDmac.c ****         CY_SET_REG16((reg16 *) &DMAC_CFGMEM[chHandle].CFG1[2], destination);
 725              		.loc 1 452 0
 726 0052 FB79     		ldrb	r3, [r7, #7]	@ zero_extendqisi2
 727 0054 4FEAC303 		lsl	r3, r3, #3
 728 0058 03F18043 		add	r3, r3, #1073741824
 729 005c 03F5EC43 		add	r3, r3, #30208
 730 0060 03F10403 		add	r3, r3, #4
 731 0064 03F10203 		add	r3, r3, #2
 732 0068 7A88     		ldrh	r2, [r7, #2]	@ movhi
 733 006a 1A80     		strh	r2, [r3, #0]	@ movhi
 453:./Generated_Source/PSoC5/CyDmac.c ****         status = CYRET_SUCCESS;
 734              		.loc 1 453 0
 735 006c 4FF00003 		mov	r3, #0
 736 0070 BB60     		str	r3, [r7, #8]
 737 0072 02E0     		b	.L44
 738              	.L43:
 739              	.LBE3:
 454:./Generated_Source/PSoC5/CyDmac.c ****     }
ARM GAS  C:\DOCUME~1\akay\LOCALS~1\Temp\ccUz6l5r.s 			page 22


 455:./Generated_Source/PSoC5/CyDmac.c ****     else
 456:./Generated_Source/PSoC5/CyDmac.c ****     {
 457:./Generated_Source/PSoC5/CyDmac.c ****         status = CYRET_BAD_PARAM;
 740              		.loc 1 457 0
 741 0074 4FF00103 		mov	r3, #1
 742 0078 BB60     		str	r3, [r7, #8]
 743              	.L44:
 458:./Generated_Source/PSoC5/CyDmac.c ****     }
 459:./Generated_Source/PSoC5/CyDmac.c **** 
 460:./Generated_Source/PSoC5/CyDmac.c ****     return status;
 744              		.loc 1 460 0
 745 007a BB68     		ldr	r3, [r7, #8]
 461:./Generated_Source/PSoC5/CyDmac.c **** }
 746              		.loc 1 461 0
 747 007c 1846     		mov	r0, r3
 748 007e 07F11407 		add	r7, r7, #20
 749 0082 BD46     		mov	sp, r7
 750 0084 80BC     		pop	{r7}
 751 0086 7047     		bx	lr
 752              		.cfi_endproc
 753              	.LFE10:
 754              		.size	CyDmaChSetExtendedAddress, .-CyDmaChSetExtendedAddress
 755              		.section	.text.CyDmaChSetInitialTd,"ax",%progbits
 756              		.align	2
 757              		.global	CyDmaChSetInitialTd
 758              		.thumb
 759              		.thumb_func
 760              		.type	CyDmaChSetInitialTd, %function
 761              	CyDmaChSetInitialTd:
 762              	.LFB11:
 462:./Generated_Source/PSoC5/CyDmac.c **** 
 463:./Generated_Source/PSoC5/CyDmac.c **** 
 464:./Generated_Source/PSoC5/CyDmac.c **** /*******************************************************************************
 465:./Generated_Source/PSoC5/CyDmac.c **** * Function Name: CyDmaChSetTd
 466:./Generated_Source/PSoC5/CyDmac.c **** ********************************************************************************
 467:./Generated_Source/PSoC5/CyDmac.c **** * Summary:
 468:./Generated_Source/PSoC5/CyDmac.c **** * Set the initial TD for the channel.
 469:./Generated_Source/PSoC5/CyDmac.c **** *
 470:./Generated_Source/PSoC5/CyDmac.c **** * Parameters:
 471:./Generated_Source/PSoC5/CyDmac.c **** * chHandle:
 472:./Generated_Source/PSoC5/CyDmac.c **** *   Handle to the dma channel.
 473:./Generated_Source/PSoC5/CyDmac.c **** *
 474:./Generated_Source/PSoC5/CyDmac.c **** * startTd:
 475:./Generated_Source/PSoC5/CyDmac.c **** *   Index of TD to set as the first TD associated with the Channel.
 476:./Generated_Source/PSoC5/CyDmac.c **** *
 477:./Generated_Source/PSoC5/CyDmac.c **** *
 478:./Generated_Source/PSoC5/CyDmac.c **** * Return:
 479:./Generated_Source/PSoC5/CyDmac.c **** *   0 in successful or CYRET_BAD_PARAM.
 480:./Generated_Source/PSoC5/CyDmac.c **** *
 481:./Generated_Source/PSoC5/CyDmac.c **** *
 482:./Generated_Source/PSoC5/CyDmac.c **** *******************************************************************************/
 483:./Generated_Source/PSoC5/CyDmac.c **** cystatus CyDmaChSetInitialTd(uint8 chHandle, uint8 startTd) 
 484:./Generated_Source/PSoC5/CyDmac.c **** {
 763              		.loc 1 484 0
 764              		.cfi_startproc
 765              		@ args = 0, pretend = 0, frame = 16
 766              		@ frame_needed = 1, uses_anonymous_args = 0
ARM GAS  C:\DOCUME~1\akay\LOCALS~1\Temp\ccUz6l5r.s 			page 23


 767              		@ link register save eliminated.
 768 0000 80B4     		push	{r7}
 769              	.LCFI31:
 770              		.cfi_def_cfa_offset 4
 771 0002 85B0     		sub	sp, sp, #20
 772              	.LCFI32:
 773              		.cfi_def_cfa_offset 24
 774 0004 00AF     		add	r7, sp, #0
 775              		.cfi_offset 7, -4
 776              	.LCFI33:
 777              		.cfi_def_cfa_register 7
 778 0006 0246     		mov	r2, r0
 779 0008 0B46     		mov	r3, r1
 780 000a FA71     		strb	r2, [r7, #7]
 781 000c BB71     		strb	r3, [r7, #6]
 485:./Generated_Source/PSoC5/CyDmac.c ****     cystatus status;
 486:./Generated_Source/PSoC5/CyDmac.c **** 
 487:./Generated_Source/PSoC5/CyDmac.c **** 
 488:./Generated_Source/PSoC5/CyDmac.c ****     if(chHandle < NUMBEROF_CHANNELS)
 782              		.loc 1 488 0
 783 000e FB79     		ldrb	r3, [r7, #7]	@ zero_extendqisi2
 784 0010 172B     		cmp	r3, #23
 785 0012 0DD8     		bhi	.L47
 489:./Generated_Source/PSoC5/CyDmac.c ****     {
 490:./Generated_Source/PSoC5/CyDmac.c ****         DMAC_CH[chHandle].basic_status[1] = startTd;
 786              		.loc 1 490 0
 787 0014 FB79     		ldrb	r3, [r7, #7]	@ zero_extendqisi2
 788 0016 4FEA0312 		lsl	r2, r3, #4
 789 001a 47F21003 		movw	r3, #:lower16:1073770512
 790 001e C4F20003 		movt	r3, #:upper16:1073770512
 791 0022 1344     		add	r3, r2, r3
 792 0024 BA79     		ldrb	r2, [r7, #6]
 793 0026 5A72     		strb	r2, [r3, #9]
 491:./Generated_Source/PSoC5/CyDmac.c ****         status = CYRET_SUCCESS;
 794              		.loc 1 491 0
 795 0028 4FF00003 		mov	r3, #0
 796 002c FB60     		str	r3, [r7, #12]
 797 002e 02E0     		b	.L48
 798              	.L47:
 492:./Generated_Source/PSoC5/CyDmac.c ****     }
 493:./Generated_Source/PSoC5/CyDmac.c ****     else
 494:./Generated_Source/PSoC5/CyDmac.c ****     {
 495:./Generated_Source/PSoC5/CyDmac.c ****         status = CYRET_BAD_PARAM;
 799              		.loc 1 495 0
 800 0030 4FF00103 		mov	r3, #1
 801 0034 FB60     		str	r3, [r7, #12]
 802              	.L48:
 496:./Generated_Source/PSoC5/CyDmac.c ****     }
 497:./Generated_Source/PSoC5/CyDmac.c **** 
 498:./Generated_Source/PSoC5/CyDmac.c ****     return status;
 803              		.loc 1 498 0
 804 0036 FB68     		ldr	r3, [r7, #12]
 499:./Generated_Source/PSoC5/CyDmac.c **** }
 805              		.loc 1 499 0
 806 0038 1846     		mov	r0, r3
 807 003a 07F11407 		add	r7, r7, #20
 808 003e BD46     		mov	sp, r7
ARM GAS  C:\DOCUME~1\akay\LOCALS~1\Temp\ccUz6l5r.s 			page 24


 809 0040 80BC     		pop	{r7}
 810 0042 7047     		bx	lr
 811              		.cfi_endproc
 812              	.LFE11:
 813              		.size	CyDmaChSetInitialTd, .-CyDmaChSetInitialTd
 814              		.section	.text.CyDmaChSetRequest,"ax",%progbits
 815              		.align	2
 816              		.global	CyDmaChSetRequest
 817              		.thumb
 818              		.thumb_func
 819              		.type	CyDmaChSetRequest, %function
 820              	CyDmaChSetRequest:
 821              	.LFB12:
 500:./Generated_Source/PSoC5/CyDmac.c **** 
 501:./Generated_Source/PSoC5/CyDmac.c **** 
 502:./Generated_Source/PSoC5/CyDmac.c **** /*******************************************************************************
 503:./Generated_Source/PSoC5/CyDmac.c **** * Function Name: CyDmaChSetRequest
 504:./Generated_Source/PSoC5/CyDmac.c **** ********************************************************************************
 505:./Generated_Source/PSoC5/CyDmac.c **** * Summary:
 506:./Generated_Source/PSoC5/CyDmac.c **** *   Allows the caller to terminate a chain of TD's, terminate one TD or
 507:./Generated_Source/PSoC5/CyDmac.c **** *   Create a direct request to start the DMA channel.
 508:./Generated_Source/PSoC5/CyDmac.c **** *
 509:./Generated_Source/PSoC5/CyDmac.c **** * Parameters:
 510:./Generated_Source/PSoC5/CyDmac.c **** * chHandle:
 511:./Generated_Source/PSoC5/CyDmac.c **** *   Handle to the dma channel.
 512:./Generated_Source/PSoC5/CyDmac.c **** *
 513:./Generated_Source/PSoC5/CyDmac.c **** * request:
 514:./Generated_Source/PSoC5/CyDmac.c **** *   3 bit field describing the request.
 515:./Generated_Source/PSoC5/CyDmac.c **** *
 516:./Generated_Source/PSoC5/CyDmac.c **** *   CPU_REQ       
 517:./Generated_Source/PSoC5/CyDmac.c **** *   CPU_TERM_TD   
 518:./Generated_Source/PSoC5/CyDmac.c **** *   CPU_TERM_CHAIN
 519:./Generated_Source/PSoC5/CyDmac.c **** *
 520:./Generated_Source/PSoC5/CyDmac.c **** *
 521:./Generated_Source/PSoC5/CyDmac.c **** * Return:
 522:./Generated_Source/PSoC5/CyDmac.c **** *   0 in successful or CYRET_BAD_PARAM.
 523:./Generated_Source/PSoC5/CyDmac.c **** *
 524:./Generated_Source/PSoC5/CyDmac.c **** *
 525:./Generated_Source/PSoC5/CyDmac.c **** *******************************************************************************/
 526:./Generated_Source/PSoC5/CyDmac.c **** cystatus CyDmaChSetRequest(uint8 chHandle, uint8 request) 
 527:./Generated_Source/PSoC5/CyDmac.c **** {
 822              		.loc 1 527 0
 823              		.cfi_startproc
 824              		@ args = 0, pretend = 0, frame = 16
 825              		@ frame_needed = 1, uses_anonymous_args = 0
 826              		@ link register save eliminated.
 827 0000 80B4     		push	{r7}
 828              	.LCFI34:
 829              		.cfi_def_cfa_offset 4
 830 0002 85B0     		sub	sp, sp, #20
 831              	.LCFI35:
 832              		.cfi_def_cfa_offset 24
 833 0004 00AF     		add	r7, sp, #0
 834              		.cfi_offset 7, -4
 835              	.LCFI36:
 836              		.cfi_def_cfa_register 7
 837 0006 0246     		mov	r2, r0
ARM GAS  C:\DOCUME~1\akay\LOCALS~1\Temp\ccUz6l5r.s 			page 25


 838 0008 0B46     		mov	r3, r1
 839 000a FA71     		strb	r2, [r7, #7]
 840 000c BB71     		strb	r3, [r7, #6]
 528:./Generated_Source/PSoC5/CyDmac.c ****     cystatus status;
 529:./Generated_Source/PSoC5/CyDmac.c **** 
 530:./Generated_Source/PSoC5/CyDmac.c **** 
 531:./Generated_Source/PSoC5/CyDmac.c ****     if(chHandle < NUMBEROF_CHANNELS)
 841              		.loc 1 531 0
 842 000e FB79     		ldrb	r3, [r7, #7]	@ zero_extendqisi2
 843 0010 172B     		cmp	r3, #23
 844 0012 1AD8     		bhi	.L51
 532:./Generated_Source/PSoC5/CyDmac.c ****     {
 533:./Generated_Source/PSoC5/CyDmac.c ****         DMAC_CH[chHandle].action[0] |= request;
 845              		.loc 1 533 0
 846 0014 FB79     		ldrb	r3, [r7, #7]	@ zero_extendqisi2
 847 0016 4FEA0312 		lsl	r2, r3, #4
 848 001a 47F21003 		movw	r3, #:lower16:1073770512
 849 001e C4F20003 		movt	r3, #:upper16:1073770512
 850 0022 1344     		add	r3, r2, r3
 851 0024 FA79     		ldrb	r2, [r7, #7]	@ zero_extendqisi2
 852 0026 4FEA0211 		lsl	r1, r2, #4
 853 002a 47F21002 		movw	r2, #:lower16:1073770512
 854 002e C4F20002 		movt	r2, #:upper16:1073770512
 855 0032 0A44     		add	r2, r1, r2
 856 0034 1279     		ldrb	r2, [r2, #4]
 857 0036 D1B2     		uxtb	r1, r2
 858 0038 BA79     		ldrb	r2, [r7, #6]
 859 003a 41EA0202 		orr	r2, r1, r2
 860 003e D2B2     		uxtb	r2, r2
 861 0040 1A71     		strb	r2, [r3, #4]
 534:./Generated_Source/PSoC5/CyDmac.c ****         status = CYRET_SUCCESS;
 862              		.loc 1 534 0
 863 0042 4FF00003 		mov	r3, #0
 864 0046 FB60     		str	r3, [r7, #12]
 865 0048 02E0     		b	.L52
 866              	.L51:
 535:./Generated_Source/PSoC5/CyDmac.c ****     }
 536:./Generated_Source/PSoC5/CyDmac.c ****     else
 537:./Generated_Source/PSoC5/CyDmac.c ****     {
 538:./Generated_Source/PSoC5/CyDmac.c ****         status = CYRET_BAD_PARAM;
 867              		.loc 1 538 0
 868 004a 4FF00103 		mov	r3, #1
 869 004e FB60     		str	r3, [r7, #12]
 870              	.L52:
 539:./Generated_Source/PSoC5/CyDmac.c ****     }
 540:./Generated_Source/PSoC5/CyDmac.c **** 
 541:./Generated_Source/PSoC5/CyDmac.c ****     return status;
 871              		.loc 1 541 0
 872 0050 FB68     		ldr	r3, [r7, #12]
 542:./Generated_Source/PSoC5/CyDmac.c **** }
 873              		.loc 1 542 0
 874 0052 1846     		mov	r0, r3
 875 0054 07F11407 		add	r7, r7, #20
 876 0058 BD46     		mov	sp, r7
 877 005a 80BC     		pop	{r7}
 878 005c 7047     		bx	lr
 879              		.cfi_endproc
ARM GAS  C:\DOCUME~1\akay\LOCALS~1\Temp\ccUz6l5r.s 			page 26


 880              	.LFE12:
 881              		.size	CyDmaChSetRequest, .-CyDmaChSetRequest
 882 005e 00BF     		.section	.text.CyDmaChGetRequest,"ax",%progbits
 883              		.align	2
 884              		.global	CyDmaChGetRequest
 885              		.thumb
 886              		.thumb_func
 887              		.type	CyDmaChGetRequest, %function
 888              	CyDmaChGetRequest:
 889              	.LFB13:
 543:./Generated_Source/PSoC5/CyDmac.c **** 
 544:./Generated_Source/PSoC5/CyDmac.c **** 
 545:./Generated_Source/PSoC5/CyDmac.c **** /*******************************************************************************
 546:./Generated_Source/PSoC5/CyDmac.c **** * Function Name: CyDmaChGetRequest
 547:./Generated_Source/PSoC5/CyDmac.c **** ********************************************************************************
 548:./Generated_Source/PSoC5/CyDmac.c **** * Summary:
 549:./Generated_Source/PSoC5/CyDmac.c **** *   Allows the caller of DmaChSetRequest to check if the request was
 550:./Generated_Source/PSoC5/CyDmac.c **** *   satisfied.
 551:./Generated_Source/PSoC5/CyDmac.c **** *
 552:./Generated_Source/PSoC5/CyDmac.c **** * Parameters:
 553:./Generated_Source/PSoC5/CyDmac.c **** * chHandle:
 554:./Generated_Source/PSoC5/CyDmac.c **** *   Handle to the dma channel.
 555:./Generated_Source/PSoC5/CyDmac.c **** *
 556:./Generated_Source/PSoC5/CyDmac.c **** *
 557:./Generated_Source/PSoC5/CyDmac.c **** *
 558:./Generated_Source/PSoC5/CyDmac.c **** * Return:
 559:./Generated_Source/PSoC5/CyDmac.c **** *   The state of the 3 bit field describing the requests previous
 560:./Generated_Source/PSoC5/CyDmac.c **** *   request. If the bit is cleared the request has be satisfied.
 561:./Generated_Source/PSoC5/CyDmac.c **** *
 562:./Generated_Source/PSoC5/CyDmac.c **** *   DMA_INVALID_CHANNEL if the handle is invalid.
 563:./Generated_Source/PSoC5/CyDmac.c **** *
 564:./Generated_Source/PSoC5/CyDmac.c **** *
 565:./Generated_Source/PSoC5/CyDmac.c **** *******************************************************************************/
 566:./Generated_Source/PSoC5/CyDmac.c **** cystatus CyDmaChGetRequest(uint8 chHandle) 
 567:./Generated_Source/PSoC5/CyDmac.c **** {
 890              		.loc 1 567 0
 891              		.cfi_startproc
 892              		@ args = 0, pretend = 0, frame = 16
 893              		@ frame_needed = 1, uses_anonymous_args = 0
 894              		@ link register save eliminated.
 895 0000 80B4     		push	{r7}
 896              	.LCFI37:
 897              		.cfi_def_cfa_offset 4
 898 0002 85B0     		sub	sp, sp, #20
 899              	.LCFI38:
 900              		.cfi_def_cfa_offset 24
 901 0004 00AF     		add	r7, sp, #0
 902              		.cfi_offset 7, -4
 903              	.LCFI39:
 904              		.cfi_def_cfa_register 7
 905 0006 0346     		mov	r3, r0
 906 0008 FB71     		strb	r3, [r7, #7]
 568:./Generated_Source/PSoC5/CyDmac.c ****     cystatus status;
 569:./Generated_Source/PSoC5/CyDmac.c **** 
 570:./Generated_Source/PSoC5/CyDmac.c **** 
 571:./Generated_Source/PSoC5/CyDmac.c ****     if(chHandle < NUMBEROF_CHANNELS)
 907              		.loc 1 571 0
ARM GAS  C:\DOCUME~1\akay\LOCALS~1\Temp\ccUz6l5r.s 			page 27


 908 000a FB79     		ldrb	r3, [r7, #7]	@ zero_extendqisi2
 909 000c 172B     		cmp	r3, #23
 910 000e 0DD8     		bhi	.L55
 572:./Generated_Source/PSoC5/CyDmac.c ****     {
 573:./Generated_Source/PSoC5/CyDmac.c ****         status = DMAC_CH[chHandle].action[0] & (CPU_REQ | CPU_TERM_TD | CPU_TERM_CHAIN);
 911              		.loc 1 573 0
 912 0010 FB79     		ldrb	r3, [r7, #7]	@ zero_extendqisi2
 913 0012 4FEA0312 		lsl	r2, r3, #4
 914 0016 47F21003 		movw	r3, #:lower16:1073770512
 915 001a C4F20003 		movt	r3, #:upper16:1073770512
 916 001e 1344     		add	r3, r2, r3
 917 0020 1B79     		ldrb	r3, [r3, #4]
 918 0022 DBB2     		uxtb	r3, r3
 919 0024 03F00703 		and	r3, r3, #7
 920 0028 FB60     		str	r3, [r7, #12]
 921 002a 02E0     		b	.L56
 922              	.L55:
 574:./Generated_Source/PSoC5/CyDmac.c ****     }
 575:./Generated_Source/PSoC5/CyDmac.c ****     else
 576:./Generated_Source/PSoC5/CyDmac.c ****     {
 577:./Generated_Source/PSoC5/CyDmac.c ****         status = DMA_INVALID_CHANNEL;
 923              		.loc 1 577 0
 924 002c 4FF0FF03 		mov	r3, #255
 925 0030 FB60     		str	r3, [r7, #12]
 926              	.L56:
 578:./Generated_Source/PSoC5/CyDmac.c ****     }
 579:./Generated_Source/PSoC5/CyDmac.c **** 
 580:./Generated_Source/PSoC5/CyDmac.c ****     return status;
 927              		.loc 1 580 0
 928 0032 FB68     		ldr	r3, [r7, #12]
 581:./Generated_Source/PSoC5/CyDmac.c **** }
 929              		.loc 1 581 0
 930 0034 1846     		mov	r0, r3
 931 0036 07F11407 		add	r7, r7, #20
 932 003a BD46     		mov	sp, r7
 933 003c 80BC     		pop	{r7}
 934 003e 7047     		bx	lr
 935              		.cfi_endproc
 936              	.LFE13:
 937              		.size	CyDmaChGetRequest, .-CyDmaChGetRequest
 938              		.section	.text.CyDmaChStatus,"ax",%progbits
 939              		.align	2
 940              		.global	CyDmaChStatus
 941              		.thumb
 942              		.thumb_func
 943              		.type	CyDmaChStatus, %function
 944              	CyDmaChStatus:
 945              	.LFB14:
 582:./Generated_Source/PSoC5/CyDmac.c **** 
 583:./Generated_Source/PSoC5/CyDmac.c **** 
 584:./Generated_Source/PSoC5/CyDmac.c **** /*******************************************************************************
 585:./Generated_Source/PSoC5/CyDmac.c **** * Function Name: CyDmaChStatus
 586:./Generated_Source/PSoC5/CyDmac.c **** ********************************************************************************
 587:./Generated_Source/PSoC5/CyDmac.c **** * Summary:
 588:./Generated_Source/PSoC5/CyDmac.c **** *   Determines the status of the current Transfer descriptor.
 589:./Generated_Source/PSoC5/CyDmac.c **** *
 590:./Generated_Source/PSoC5/CyDmac.c **** * Parameters:
ARM GAS  C:\DOCUME~1\akay\LOCALS~1\Temp\ccUz6l5r.s 			page 28


 591:./Generated_Source/PSoC5/CyDmac.c **** * chHandle:
 592:./Generated_Source/PSoC5/CyDmac.c **** *   Handle to the dma channel.
 593:./Generated_Source/PSoC5/CyDmac.c **** *
 594:./Generated_Source/PSoC5/CyDmac.c **** * currentTd:
 595:./Generated_Source/PSoC5/CyDmac.c **** *   Address to store the Index of the current Transfer Descriptor.
 596:./Generated_Source/PSoC5/CyDmac.c **** *   Can be NULL if the value is not needed.
 597:./Generated_Source/PSoC5/CyDmac.c **** *
 598:./Generated_Source/PSoC5/CyDmac.c **** * state:
 599:./Generated_Source/PSoC5/CyDmac.c **** *   Address to store the State of the Channel.
 600:./Generated_Source/PSoC5/CyDmac.c **** *   Can be NULL if the value is not needed.
 601:./Generated_Source/PSoC5/CyDmac.c **** *
 602:./Generated_Source/PSoC5/CyDmac.c **** *
 603:./Generated_Source/PSoC5/CyDmac.c **** * Return:
 604:./Generated_Source/PSoC5/CyDmac.c **** *   0 in successful or CYRET_BAD_PARAM.
 605:./Generated_Source/PSoC5/CyDmac.c **** *   
 606:./Generated_Source/PSoC5/CyDmac.c **** *
 607:./Generated_Source/PSoC5/CyDmac.c **** * Theory:
 608:./Generated_Source/PSoC5/CyDmac.c **** *   The caller can check on the activity of the Current TD and the
 609:./Generated_Source/PSoC5/CyDmac.c **** *   Chain.
 610:./Generated_Source/PSoC5/CyDmac.c **** *
 611:./Generated_Source/PSoC5/CyDmac.c **** *******************************************************************************/
 612:./Generated_Source/PSoC5/CyDmac.c **** cystatus CyDmaChStatus(uint8 chHandle, uint8 * currentTd, uint8 * state) 
 613:./Generated_Source/PSoC5/CyDmac.c **** {
 946              		.loc 1 613 0
 947              		.cfi_startproc
 948              		@ args = 0, pretend = 0, frame = 24
 949              		@ frame_needed = 1, uses_anonymous_args = 0
 950              		@ link register save eliminated.
 951 0000 80B4     		push	{r7}
 952              	.LCFI40:
 953              		.cfi_def_cfa_offset 4
 954 0002 87B0     		sub	sp, sp, #28
 955              	.LCFI41:
 956              		.cfi_def_cfa_offset 32
 957 0004 00AF     		add	r7, sp, #0
 958              		.cfi_offset 7, -4
 959              	.LCFI42:
 960              		.cfi_def_cfa_register 7
 961 0006 0346     		mov	r3, r0
 962 0008 B960     		str	r1, [r7, #8]
 963 000a 7A60     		str	r2, [r7, #4]
 964 000c FB73     		strb	r3, [r7, #15]
 614:./Generated_Source/PSoC5/CyDmac.c ****     cystatus status;
 615:./Generated_Source/PSoC5/CyDmac.c **** 
 616:./Generated_Source/PSoC5/CyDmac.c **** 
 617:./Generated_Source/PSoC5/CyDmac.c ****     if(chHandle < NUMBEROF_CHANNELS)
 965              		.loc 1 617 0
 966 000e FB7B     		ldrb	r3, [r7, #15]	@ zero_extendqisi2
 967 0010 172B     		cmp	r3, #23
 968 0012 23D8     		bhi	.L59
 618:./Generated_Source/PSoC5/CyDmac.c ****     {
 619:./Generated_Source/PSoC5/CyDmac.c ****         if(currentTd)
 969              		.loc 1 619 0
 970 0014 BB68     		ldr	r3, [r7, #8]
 971 0016 002B     		cmp	r3, #0
 972 0018 0DD0     		beq	.L60
 620:./Generated_Source/PSoC5/CyDmac.c ****         {
ARM GAS  C:\DOCUME~1\akay\LOCALS~1\Temp\ccUz6l5r.s 			page 29


 621:./Generated_Source/PSoC5/CyDmac.c ****             *currentTd = DMAC_CH[chHandle].basic_status[1] & 0x7Fu;
 973              		.loc 1 621 0
 974 001a FB7B     		ldrb	r3, [r7, #15]	@ zero_extendqisi2
 975 001c 4FEA0312 		lsl	r2, r3, #4
 976 0020 47F21003 		movw	r3, #:lower16:1073770512
 977 0024 C4F20003 		movt	r3, #:upper16:1073770512
 978 0028 1344     		add	r3, r2, r3
 979 002a 5B7A     		ldrb	r3, [r3, #9]
 980 002c DBB2     		uxtb	r3, r3
 981 002e 03F07F03 		and	r3, r3, #127
 982 0032 BA68     		ldr	r2, [r7, #8]
 983 0034 1370     		strb	r3, [r2, #0]
 984              	.L60:
 622:./Generated_Source/PSoC5/CyDmac.c ****         }
 623:./Generated_Source/PSoC5/CyDmac.c **** 
 624:./Generated_Source/PSoC5/CyDmac.c ****         if(state)
 985              		.loc 1 624 0
 986 0036 7B68     		ldr	r3, [r7, #4]
 987 0038 002B     		cmp	r3, #0
 988 003a 0BD0     		beq	.L61
 625:./Generated_Source/PSoC5/CyDmac.c ****         {
 626:./Generated_Source/PSoC5/CyDmac.c ****             *state= DMAC_CH[chHandle].basic_status[0];
 989              		.loc 1 626 0
 990 003c FB7B     		ldrb	r3, [r7, #15]	@ zero_extendqisi2
 991 003e 4FEA0312 		lsl	r2, r3, #4
 992 0042 47F21003 		movw	r3, #:lower16:1073770512
 993 0046 C4F20003 		movt	r3, #:upper16:1073770512
 994 004a 1344     		add	r3, r2, r3
 995 004c 1B7A     		ldrb	r3, [r3, #8]
 996 004e DAB2     		uxtb	r2, r3
 997 0050 7B68     		ldr	r3, [r7, #4]
 998 0052 1A70     		strb	r2, [r3, #0]
 999              	.L61:
 627:./Generated_Source/PSoC5/CyDmac.c ****         }
 628:./Generated_Source/PSoC5/CyDmac.c **** 
 629:./Generated_Source/PSoC5/CyDmac.c ****         status = CYRET_SUCCESS;
 1000              		.loc 1 629 0
 1001 0054 4FF00003 		mov	r3, #0
 1002 0058 7B61     		str	r3, [r7, #20]
 1003 005a 02E0     		b	.L62
 1004              	.L59:
 630:./Generated_Source/PSoC5/CyDmac.c ****     }
 631:./Generated_Source/PSoC5/CyDmac.c ****     else
 632:./Generated_Source/PSoC5/CyDmac.c ****     {
 633:./Generated_Source/PSoC5/CyDmac.c ****         status = CYRET_BAD_PARAM;
 1005              		.loc 1 633 0
 1006 005c 4FF00103 		mov	r3, #1
 1007 0060 7B61     		str	r3, [r7, #20]
 1008              	.L62:
 634:./Generated_Source/PSoC5/CyDmac.c ****     }
 635:./Generated_Source/PSoC5/CyDmac.c **** 
 636:./Generated_Source/PSoC5/CyDmac.c ****     return status;
 1009              		.loc 1 636 0
 1010 0062 7B69     		ldr	r3, [r7, #20]
 637:./Generated_Source/PSoC5/CyDmac.c **** }
 1011              		.loc 1 637 0
 1012 0064 1846     		mov	r0, r3
ARM GAS  C:\DOCUME~1\akay\LOCALS~1\Temp\ccUz6l5r.s 			page 30


 1013 0066 07F11C07 		add	r7, r7, #28
 1014 006a BD46     		mov	sp, r7
 1015 006c 80BC     		pop	{r7}
 1016 006e 7047     		bx	lr
 1017              		.cfi_endproc
 1018              	.LFE14:
 1019              		.size	CyDmaChStatus, .-CyDmaChStatus
 1020              		.section	.text.CyDmaChSetConfiguration,"ax",%progbits
 1021              		.align	2
 1022              		.global	CyDmaChSetConfiguration
 1023              		.thumb
 1024              		.thumb_func
 1025              		.type	CyDmaChSetConfiguration, %function
 1026              	CyDmaChSetConfiguration:
 1027              	.LFB15:
 638:./Generated_Source/PSoC5/CyDmac.c **** 
 639:./Generated_Source/PSoC5/CyDmac.c **** 
 640:./Generated_Source/PSoC5/CyDmac.c **** /*******************************************************************************
 641:./Generated_Source/PSoC5/CyDmac.c **** * Function Name: CyDmaChSetConfiguration
 642:./Generated_Source/PSoC5/CyDmac.c **** ********************************************************************************
 643:./Generated_Source/PSoC5/CyDmac.c **** * Summary:
 644:./Generated_Source/PSoC5/CyDmac.c **** * Sets Configuration information for the channel.
 645:./Generated_Source/PSoC5/CyDmac.c **** *
 646:./Generated_Source/PSoC5/CyDmac.c **** * Parameters:
 647:./Generated_Source/PSoC5/CyDmac.c **** * chHandle:
 648:./Generated_Source/PSoC5/CyDmac.c **** *   Handle to the dma channel.
 649:./Generated_Source/PSoC5/CyDmac.c **** *
 650:./Generated_Source/PSoC5/CyDmac.c **** * burstCount:
 651:./Generated_Source/PSoC5/CyDmac.c **** *   Number of bytes in a burst.
 652:./Generated_Source/PSoC5/CyDmac.c **** *
 653:./Generated_Source/PSoC5/CyDmac.c **** * requestPerBurst:
 654:./Generated_Source/PSoC5/CyDmac.c **** *   A DMA request is required per burst.
 655:./Generated_Source/PSoC5/CyDmac.c **** *
 656:./Generated_Source/PSoC5/CyDmac.c **** * tdDone0:
 657:./Generated_Source/PSoC5/CyDmac.c **** *   Selects one of the TERMOUT0 interrupt lines to signal completion.
 658:./Generated_Source/PSoC5/CyDmac.c **** *
 659:./Generated_Source/PSoC5/CyDmac.c **** * tdDone1:
 660:./Generated_Source/PSoC5/CyDmac.c **** *   Selects one of the TERMOUT1 interrupt lines to signal complete.
 661:./Generated_Source/PSoC5/CyDmac.c **** *
 662:./Generated_Source/PSoC5/CyDmac.c **** *
 663:./Generated_Source/PSoC5/CyDmac.c **** * tdStop:
 664:./Generated_Source/PSoC5/CyDmac.c **** *   Selects one of the TERMIN interrupt lines to signal to the DMAC
 665:./Generated_Source/PSoC5/CyDmac.c **** *   that the TD should terminate.
 666:./Generated_Source/PSoC5/CyDmac.c **** *
 667:./Generated_Source/PSoC5/CyDmac.c **** * Return:
 668:./Generated_Source/PSoC5/CyDmac.c **** *   0 in successful or CYRET_BAD_PARAM.
 669:./Generated_Source/PSoC5/CyDmac.c **** *
 670:./Generated_Source/PSoC5/CyDmac.c **** *
 671:./Generated_Source/PSoC5/CyDmac.c **** *******************************************************************************/
 672:./Generated_Source/PSoC5/CyDmac.c **** cystatus CyDmaChSetConfiguration(uint8 chHandle, uint8 burstCount, uint8 requestPerBurst, uint8 tdD
 673:./Generated_Source/PSoC5/CyDmac.c **** {
 1028              		.loc 1 673 0
 1029              		.cfi_startproc
 1030              		@ args = 8, pretend = 0, frame = 16
 1031              		@ frame_needed = 1, uses_anonymous_args = 0
 1032              		@ link register save eliminated.
 1033 0000 80B4     		push	{r7}
ARM GAS  C:\DOCUME~1\akay\LOCALS~1\Temp\ccUz6l5r.s 			page 31


 1034              	.LCFI43:
 1035              		.cfi_def_cfa_offset 4
 1036 0002 85B0     		sub	sp, sp, #20
 1037              	.LCFI44:
 1038              		.cfi_def_cfa_offset 24
 1039 0004 00AF     		add	r7, sp, #0
 1040              		.cfi_offset 7, -4
 1041              	.LCFI45:
 1042              		.cfi_def_cfa_register 7
 1043 0006 F871     		strb	r0, [r7, #7]
 1044 0008 B971     		strb	r1, [r7, #6]
 1045 000a 7A71     		strb	r2, [r7, #5]
 1046 000c 3B71     		strb	r3, [r7, #4]
 674:./Generated_Source/PSoC5/CyDmac.c ****     cystatus status;
 675:./Generated_Source/PSoC5/CyDmac.c **** 
 676:./Generated_Source/PSoC5/CyDmac.c **** 
 677:./Generated_Source/PSoC5/CyDmac.c ****     if(chHandle < NUMBEROF_CHANNELS)
 1047              		.loc 1 677 0
 1048 000e FB79     		ldrb	r3, [r7, #7]	@ zero_extendqisi2
 1049 0010 172B     		cmp	r3, #23
 1050 0012 3AD8     		bhi	.L65
 678:./Generated_Source/PSoC5/CyDmac.c ****     {
 679:./Generated_Source/PSoC5/CyDmac.c ****         DMAC_CFGMEM[chHandle].CFG0[0] = burstCount | (requestPerBurst << 7);
 1051              		.loc 1 679 0
 1052 0014 FB79     		ldrb	r3, [r7, #7]	@ zero_extendqisi2
 1053 0016 4FEAC303 		lsl	r3, r3, #3
 1054 001a 03F18043 		add	r3, r3, #1073741824
 1055 001e 03F5EC43 		add	r3, r3, #30208
 1056 0022 7A79     		ldrb	r2, [r7, #5]	@ zero_extendqisi2
 1057 0024 4FEAC212 		lsl	r2, r2, #7
 1058 0028 D1B2     		uxtb	r1, r2
 1059 002a BA79     		ldrb	r2, [r7, #6]	@ zero_extendqisi2
 1060 002c 41EA0202 		orr	r2, r1, r2
 1061 0030 D2B2     		uxtb	r2, r2
 1062 0032 D2B2     		uxtb	r2, r2
 1063 0034 1A70     		strb	r2, [r3, #0]
 680:./Generated_Source/PSoC5/CyDmac.c ****         DMAC_CFGMEM[chHandle].CFG0[1] = (tdDone1 << 4) | tdDone0;
 1064              		.loc 1 680 0
 1065 0036 FB79     		ldrb	r3, [r7, #7]	@ zero_extendqisi2
 1066 0038 4FEAC303 		lsl	r3, r3, #3
 1067 003c 03F18043 		add	r3, r3, #1073741824
 1068 0040 03F5EC43 		add	r3, r3, #30208
 1069 0044 3A7E     		ldrb	r2, [r7, #24]	@ zero_extendqisi2
 1070 0046 4FEA0212 		lsl	r2, r2, #4
 1071 004a D1B2     		uxtb	r1, r2
 1072 004c 3A79     		ldrb	r2, [r7, #4]	@ zero_extendqisi2
 1073 004e 41EA0202 		orr	r2, r1, r2
 1074 0052 D2B2     		uxtb	r2, r2
 1075 0054 D2B2     		uxtb	r2, r2
 1076 0056 5A70     		strb	r2, [r3, #1]
 681:./Generated_Source/PSoC5/CyDmac.c ****         DMAC_CFGMEM[chHandle].CFG0[2] = 0x0Fu & tdStop;
 1077              		.loc 1 681 0
 1078 0058 FB79     		ldrb	r3, [r7, #7]	@ zero_extendqisi2
 1079 005a 4FEAC303 		lsl	r3, r3, #3
 1080 005e 03F18043 		add	r3, r3, #1073741824
 1081 0062 03F5EC43 		add	r3, r3, #30208
 1082 0066 3A7F     		ldrb	r2, [r7, #28]	@ zero_extendqisi2
ARM GAS  C:\DOCUME~1\akay\LOCALS~1\Temp\ccUz6l5r.s 			page 32


 1083 0068 02F00F02 		and	r2, r2, #15
 1084 006c 9A70     		strb	r2, [r3, #2]
 682:./Generated_Source/PSoC5/CyDmac.c ****         DMAC_CFGMEM[chHandle].CFG0[3] = 0; /* burstcount_remain. */
 1085              		.loc 1 682 0
 1086 006e FB79     		ldrb	r3, [r7, #7]	@ zero_extendqisi2
 1087 0070 4FEAC303 		lsl	r3, r3, #3
 1088 0074 03F18043 		add	r3, r3, #1073741824
 1089 0078 03F5EC43 		add	r3, r3, #30208
 1090 007c 4FF00002 		mov	r2, #0
 1091 0080 DA70     		strb	r2, [r3, #3]
 683:./Generated_Source/PSoC5/CyDmac.c **** 
 684:./Generated_Source/PSoC5/CyDmac.c ****         status = CYRET_SUCCESS;
 1092              		.loc 1 684 0
 1093 0082 4FF00003 		mov	r3, #0
 1094 0086 FB60     		str	r3, [r7, #12]
 1095 0088 02E0     		b	.L66
 1096              	.L65:
 685:./Generated_Source/PSoC5/CyDmac.c ****     }
 686:./Generated_Source/PSoC5/CyDmac.c ****     else
 687:./Generated_Source/PSoC5/CyDmac.c ****     {
 688:./Generated_Source/PSoC5/CyDmac.c ****         status = CYRET_BAD_PARAM;
 1097              		.loc 1 688 0
 1098 008a 4FF00103 		mov	r3, #1
 1099 008e FB60     		str	r3, [r7, #12]
 1100              	.L66:
 689:./Generated_Source/PSoC5/CyDmac.c ****     }
 690:./Generated_Source/PSoC5/CyDmac.c **** 
 691:./Generated_Source/PSoC5/CyDmac.c ****     return status;
 1101              		.loc 1 691 0
 1102 0090 FB68     		ldr	r3, [r7, #12]
 692:./Generated_Source/PSoC5/CyDmac.c **** }
 1103              		.loc 1 692 0
 1104 0092 1846     		mov	r0, r3
 1105 0094 07F11407 		add	r7, r7, #20
 1106 0098 BD46     		mov	sp, r7
 1107 009a 80BC     		pop	{r7}
 1108 009c 7047     		bx	lr
 1109              		.cfi_endproc
 1110              	.LFE15:
 1111              		.size	CyDmaChSetConfiguration, .-CyDmaChSetConfiguration
 1112 009e 00BF     		.section	.text.CyDmaTdAllocate,"ax",%progbits
 1113              		.align	2
 1114              		.global	CyDmaTdAllocate
 1115              		.thumb
 1116              		.thumb_func
 1117              		.type	CyDmaTdAllocate, %function
 1118              	CyDmaTdAllocate:
 1119              	.LFB16:
 693:./Generated_Source/PSoC5/CyDmac.c **** 
 694:./Generated_Source/PSoC5/CyDmac.c **** 
 695:./Generated_Source/PSoC5/CyDmac.c **** /*******************************************************************************
 696:./Generated_Source/PSoC5/CyDmac.c **** * Function Name: CyDmaTdAllocate
 697:./Generated_Source/PSoC5/CyDmac.c **** ********************************************************************************
 698:./Generated_Source/PSoC5/CyDmac.c **** * Summary:
 699:./Generated_Source/PSoC5/CyDmac.c **** *   Removes a Transfer Descriptor from the free list for use by the
 700:./Generated_Source/PSoC5/CyDmac.c **** *   caller.
 701:./Generated_Source/PSoC5/CyDmac.c **** *
ARM GAS  C:\DOCUME~1\akay\LOCALS~1\Temp\ccUz6l5r.s 			page 33


 702:./Generated_Source/PSoC5/CyDmac.c **** * Parameters:
 703:./Generated_Source/PSoC5/CyDmac.c **** *   void.
 704:./Generated_Source/PSoC5/CyDmac.c **** *
 705:./Generated_Source/PSoC5/CyDmac.c **** *
 706:./Generated_Source/PSoC5/CyDmac.c **** * Return:
 707:./Generated_Source/PSoC5/CyDmac.c **** *   Zero based index of the Transfer Descriptor to be used by the
 708:./Generated_Source/PSoC5/CyDmac.c **** *   caller. Zero is a valid TD index. DMA_INVALID_TD implies
 709:./Generated_Source/PSoC5/CyDmac.c **** *   there are no free TD's available.
 710:./Generated_Source/PSoC5/CyDmac.c **** *
 711:./Generated_Source/PSoC5/CyDmac.c **** *
 712:./Generated_Source/PSoC5/CyDmac.c **** *******************************************************************************/
 713:./Generated_Source/PSoC5/CyDmac.c **** uint8 CyDmaTdAllocate(void) 
 714:./Generated_Source/PSoC5/CyDmac.c **** {
 1120              		.loc 1 714 0
 1121              		.cfi_startproc
 1122              		@ args = 0, pretend = 0, frame = 8
 1123              		@ frame_needed = 1, uses_anonymous_args = 0
 1124 0000 80B5     		push	{r7, lr}
 1125              	.LCFI46:
 1126              		.cfi_def_cfa_offset 8
 1127 0002 82B0     		sub	sp, sp, #8
 1128              	.LCFI47:
 1129              		.cfi_def_cfa_offset 16
 1130 0004 00AF     		add	r7, sp, #0
 1131              		.cfi_offset 14, -4
 1132              		.cfi_offset 7, -8
 1133              	.LCFI48:
 1134              		.cfi_def_cfa_register 7
 715:./Generated_Source/PSoC5/CyDmac.c ****     uint8 interruptState;
 716:./Generated_Source/PSoC5/CyDmac.c ****     uint8 Element;
 717:./Generated_Source/PSoC5/CyDmac.c **** 
 718:./Generated_Source/PSoC5/CyDmac.c **** 
 719:./Generated_Source/PSoC5/CyDmac.c ****     /* Enter critical section! */
 720:./Generated_Source/PSoC5/CyDmac.c ****     interruptState = CyEnterCriticalSection();
 1135              		.loc 1 720 0
 1136 0006 FFF7FEFF 		bl	CyEnterCriticalSection
 1137 000a 0346     		mov	r3, r0
 1138 000c BB71     		strb	r3, [r7, #6]
 721:./Generated_Source/PSoC5/CyDmac.c **** 
 722:./Generated_Source/PSoC5/CyDmac.c ****     if(CyDmaTdCurrentNumber)
 1139              		.loc 1 722 0
 1140 000e 40F20003 		movw	r3, #:lower16:CyDmaTdCurrentNumber
 1141 0012 C0F20003 		movt	r3, #:upper16:CyDmaTdCurrentNumber
 1142 0016 1B78     		ldrb	r3, [r3, #0]	@ zero_extendqisi2
 1143 0018 002B     		cmp	r3, #0
 1144 001a 21D0     		beq	.L69
 723:./Generated_Source/PSoC5/CyDmac.c ****     {
 724:./Generated_Source/PSoC5/CyDmac.c ****         /* Get pointer to the Next available. */
 725:./Generated_Source/PSoC5/CyDmac.c ****         Element = CyDmaTdFreeIndex;
 1145              		.loc 1 725 0
 1146 001c 40F20003 		movw	r3, #:lower16:CyDmaTdFreeIndex
 1147 0020 C0F20003 		movt	r3, #:upper16:CyDmaTdFreeIndex
 1148 0024 1B78     		ldrb	r3, [r3, #0]
 1149 0026 FB71     		strb	r3, [r7, #7]
 726:./Generated_Source/PSoC5/CyDmac.c **** 
 727:./Generated_Source/PSoC5/CyDmac.c ****         /* Decrement the count. */
 728:./Generated_Source/PSoC5/CyDmac.c ****         CyDmaTdCurrentNumber--;
ARM GAS  C:\DOCUME~1\akay\LOCALS~1\Temp\ccUz6l5r.s 			page 34


 1150              		.loc 1 728 0
 1151 0028 40F20003 		movw	r3, #:lower16:CyDmaTdCurrentNumber
 1152 002c C0F20003 		movt	r3, #:upper16:CyDmaTdCurrentNumber
 1153 0030 1B78     		ldrb	r3, [r3, #0]	@ zero_extendqisi2
 1154 0032 03F1FF33 		add	r3, r3, #-1
 1155 0036 DAB2     		uxtb	r2, r3
 1156 0038 40F20003 		movw	r3, #:lower16:CyDmaTdCurrentNumber
 1157 003c C0F20003 		movt	r3, #:upper16:CyDmaTdCurrentNumber
 1158 0040 1A70     		strb	r2, [r3, #0]
 729:./Generated_Source/PSoC5/CyDmac.c **** 
 730:./Generated_Source/PSoC5/CyDmac.c ****         /* Update the next available pointer. */
 731:./Generated_Source/PSoC5/CyDmac.c ****         CyDmaTdFreeIndex = DMAC_TDMEM[Element].TD0[0];
 1159              		.loc 1 731 0
 1160 0042 FB79     		ldrb	r3, [r7, #7]	@ zero_extendqisi2
 1161 0044 4FEAC303 		lsl	r3, r3, #3
 1162 0048 03F18043 		add	r3, r3, #1073741824
 1163 004c 03F5F043 		add	r3, r3, #30720
 1164 0050 1B78     		ldrb	r3, [r3, #0]
 1165 0052 DAB2     		uxtb	r2, r3
 1166 0054 40F20003 		movw	r3, #:lower16:CyDmaTdFreeIndex
 1167 0058 C0F20003 		movt	r3, #:upper16:CyDmaTdFreeIndex
 1168 005c 1A70     		strb	r2, [r3, #0]
 1169 005e 02E0     		b	.L70
 1170              	.L69:
 732:./Generated_Source/PSoC5/CyDmac.c ****     }
 733:./Generated_Source/PSoC5/CyDmac.c ****     else
 734:./Generated_Source/PSoC5/CyDmac.c ****     {
 735:./Generated_Source/PSoC5/CyDmac.c ****         Element = DMA_INVALID_TD;
 1171              		.loc 1 735 0
 1172 0060 4FF0FF33 		mov	r3, #-1
 1173 0064 FB71     		strb	r3, [r7, #7]
 1174              	.L70:
 736:./Generated_Source/PSoC5/CyDmac.c ****     }
 737:./Generated_Source/PSoC5/CyDmac.c **** 
 738:./Generated_Source/PSoC5/CyDmac.c ****     /* Exit critical section! */
 739:./Generated_Source/PSoC5/CyDmac.c ****     CyExitCriticalSection(interruptState);
 1175              		.loc 1 739 0
 1176 0066 BB79     		ldrb	r3, [r7, #6]	@ zero_extendqisi2
 1177 0068 1846     		mov	r0, r3
 1178 006a FFF7FEFF 		bl	CyExitCriticalSection
 740:./Generated_Source/PSoC5/CyDmac.c **** 
 741:./Generated_Source/PSoC5/CyDmac.c ****     return Element;
 1179              		.loc 1 741 0
 1180 006e FB79     		ldrb	r3, [r7, #7]	@ zero_extendqisi2
 742:./Generated_Source/PSoC5/CyDmac.c **** }
 1181              		.loc 1 742 0
 1182 0070 1846     		mov	r0, r3
 1183 0072 07F10807 		add	r7, r7, #8
 1184 0076 BD46     		mov	sp, r7
 1185 0078 80BD     		pop	{r7, pc}
 1186              		.cfi_endproc
 1187              	.LFE16:
 1188              		.size	CyDmaTdAllocate, .-CyDmaTdAllocate
 1189 007a 00BF     		.section	.text.CyDmaTdFree,"ax",%progbits
 1190              		.align	2
 1191              		.global	CyDmaTdFree
 1192              		.thumb
ARM GAS  C:\DOCUME~1\akay\LOCALS~1\Temp\ccUz6l5r.s 			page 35


 1193              		.thumb_func
 1194              		.type	CyDmaTdFree, %function
 1195              	CyDmaTdFree:
 1196              	.LFB17:
 743:./Generated_Source/PSoC5/CyDmac.c **** 
 744:./Generated_Source/PSoC5/CyDmac.c **** 
 745:./Generated_Source/PSoC5/CyDmac.c **** /*******************************************************************************
 746:./Generated_Source/PSoC5/CyDmac.c **** * Function Name: CyDmaTdFree
 747:./Generated_Source/PSoC5/CyDmac.c **** ********************************************************************************
 748:./Generated_Source/PSoC5/CyDmac.c **** * Summary:
 749:./Generated_Source/PSoC5/CyDmac.c **** *   Returns a Transfer Descriptor back to the free list.
 750:./Generated_Source/PSoC5/CyDmac.c **** *
 751:./Generated_Source/PSoC5/CyDmac.c **** * Parameters:
 752:./Generated_Source/PSoC5/CyDmac.c **** * tdHandle:
 753:./Generated_Source/PSoC5/CyDmac.c **** *   Zero based index of the Transfer Descriptor to be freed.
 754:./Generated_Source/PSoC5/CyDmac.c **** *
 755:./Generated_Source/PSoC5/CyDmac.c **** *
 756:./Generated_Source/PSoC5/CyDmac.c **** * Return:
 757:./Generated_Source/PSoC5/CyDmac.c **** *   void.
 758:./Generated_Source/PSoC5/CyDmac.c **** *
 759:./Generated_Source/PSoC5/CyDmac.c **** *
 760:./Generated_Source/PSoC5/CyDmac.c **** *******************************************************************************/
 761:./Generated_Source/PSoC5/CyDmac.c **** void CyDmaTdFree(uint8 tdHandle) 
 762:./Generated_Source/PSoC5/CyDmac.c **** {
 1197              		.loc 1 762 0
 1198              		.cfi_startproc
 1199              		@ args = 0, pretend = 0, frame = 16
 1200              		@ frame_needed = 1, uses_anonymous_args = 0
 1201 0000 80B5     		push	{r7, lr}
 1202              	.LCFI49:
 1203              		.cfi_def_cfa_offset 8
 1204 0002 84B0     		sub	sp, sp, #16
 1205              	.LCFI50:
 1206              		.cfi_def_cfa_offset 24
 1207 0004 00AF     		add	r7, sp, #0
 1208              		.cfi_offset 14, -4
 1209              		.cfi_offset 7, -8
 1210              	.LCFI51:
 1211              		.cfi_def_cfa_register 7
 1212 0006 0346     		mov	r3, r0
 1213 0008 FB71     		strb	r3, [r7, #7]
 763:./Generated_Source/PSoC5/CyDmac.c ****     if(tdHandle < NUMBEROF_TDS)
 1214              		.loc 1 763 0
 1215 000a FB79     		ldrb	r3, [r7, #7]	@ zero_extendqisi2
 1216 000c 5BB2     		sxtb	r3, r3
 1217 000e 002B     		cmp	r3, #0
 1218 0010 27DB     		blt	.L74
 1219              	.LBB4:
 764:./Generated_Source/PSoC5/CyDmac.c ****     {
 765:./Generated_Source/PSoC5/CyDmac.c ****         /* Enter critical section! */
 766:./Generated_Source/PSoC5/CyDmac.c ****         uint8 interruptState = CyEnterCriticalSection();
 1220              		.loc 1 766 0
 1221 0012 FFF7FEFF 		bl	CyEnterCriticalSection
 1222 0016 0346     		mov	r3, r0
 1223 0018 FB73     		strb	r3, [r7, #15]
 767:./Generated_Source/PSoC5/CyDmac.c **** 
 768:./Generated_Source/PSoC5/CyDmac.c ****         /* Get pointer to the Next available. */
ARM GAS  C:\DOCUME~1\akay\LOCALS~1\Temp\ccUz6l5r.s 			page 36


 769:./Generated_Source/PSoC5/CyDmac.c ****         DMAC_TDMEM[tdHandle].TD0[0] = CyDmaTdFreeIndex;
 1224              		.loc 1 769 0
 1225 001a FB79     		ldrb	r3, [r7, #7]	@ zero_extendqisi2
 1226 001c 4FEAC303 		lsl	r3, r3, #3
 1227 0020 03F18043 		add	r3, r3, #1073741824
 1228 0024 03F5F043 		add	r3, r3, #30720
 1229 0028 40F20002 		movw	r2, #:lower16:CyDmaTdFreeIndex
 1230 002c C0F20002 		movt	r2, #:upper16:CyDmaTdFreeIndex
 1231 0030 1278     		ldrb	r2, [r2, #0]	@ zero_extendqisi2
 1232 0032 1A70     		strb	r2, [r3, #0]
 770:./Generated_Source/PSoC5/CyDmac.c **** 
 771:./Generated_Source/PSoC5/CyDmac.c ****         /* Set new Next Available. */
 772:./Generated_Source/PSoC5/CyDmac.c ****         CyDmaTdFreeIndex = tdHandle;
 1233              		.loc 1 772 0
 1234 0034 40F20003 		movw	r3, #:lower16:CyDmaTdFreeIndex
 1235 0038 C0F20003 		movt	r3, #:upper16:CyDmaTdFreeIndex
 1236 003c FA79     		ldrb	r2, [r7, #7]
 1237 003e 1A70     		strb	r2, [r3, #0]
 773:./Generated_Source/PSoC5/CyDmac.c **** 
 774:./Generated_Source/PSoC5/CyDmac.c ****         /* Keep track of how many left. */
 775:./Generated_Source/PSoC5/CyDmac.c ****         CyDmaTdCurrentNumber++;
 1238              		.loc 1 775 0
 1239 0040 40F20003 		movw	r3, #:lower16:CyDmaTdCurrentNumber
 1240 0044 C0F20003 		movt	r3, #:upper16:CyDmaTdCurrentNumber
 1241 0048 1B78     		ldrb	r3, [r3, #0]	@ zero_extendqisi2
 1242 004a 03F10103 		add	r3, r3, #1
 1243 004e DAB2     		uxtb	r2, r3
 1244 0050 40F20003 		movw	r3, #:lower16:CyDmaTdCurrentNumber
 1245 0054 C0F20003 		movt	r3, #:upper16:CyDmaTdCurrentNumber
 1246 0058 1A70     		strb	r2, [r3, #0]
 776:./Generated_Source/PSoC5/CyDmac.c **** 
 777:./Generated_Source/PSoC5/CyDmac.c ****         /* Exit critical section! */
 778:./Generated_Source/PSoC5/CyDmac.c ****         CyExitCriticalSection(interruptState);
 1247              		.loc 1 778 0
 1248 005a FB7B     		ldrb	r3, [r7, #15]	@ zero_extendqisi2
 1249 005c 1846     		mov	r0, r3
 1250 005e FFF7FEFF 		bl	CyExitCriticalSection
 1251              	.L74:
 1252              	.LBE4:
 779:./Generated_Source/PSoC5/CyDmac.c ****     }
 780:./Generated_Source/PSoC5/CyDmac.c **** }
 1253              		.loc 1 780 0
 1254 0062 07F11007 		add	r7, r7, #16
 1255 0066 BD46     		mov	sp, r7
 1256 0068 80BD     		pop	{r7, pc}
 1257              		.cfi_endproc
 1258              	.LFE17:
 1259              		.size	CyDmaTdFree, .-CyDmaTdFree
 1260 006a 00BF     		.section	.text.CyDmaTdFreeCount,"ax",%progbits
 1261              		.align	2
 1262              		.global	CyDmaTdFreeCount
 1263              		.thumb
 1264              		.thumb_func
 1265              		.type	CyDmaTdFreeCount, %function
 1266              	CyDmaTdFreeCount:
 1267              	.LFB18:
 781:./Generated_Source/PSoC5/CyDmac.c **** 
ARM GAS  C:\DOCUME~1\akay\LOCALS~1\Temp\ccUz6l5r.s 			page 37


 782:./Generated_Source/PSoC5/CyDmac.c **** 
 783:./Generated_Source/PSoC5/CyDmac.c **** /*******************************************************************************
 784:./Generated_Source/PSoC5/CyDmac.c **** * Function Name: CyDmaTdFreeCount
 785:./Generated_Source/PSoC5/CyDmac.c **** ********************************************************************************
 786:./Generated_Source/PSoC5/CyDmac.c **** * Summary:
 787:./Generated_Source/PSoC5/CyDmac.c **** *   Returns the number of free Transfer Descriptors available to be
 788:./Generated_Source/PSoC5/CyDmac.c **** *   allocated.
 789:./Generated_Source/PSoC5/CyDmac.c **** *
 790:./Generated_Source/PSoC5/CyDmac.c **** * Parameters:
 791:./Generated_Source/PSoC5/CyDmac.c **** *   void.
 792:./Generated_Source/PSoC5/CyDmac.c **** *
 793:./Generated_Source/PSoC5/CyDmac.c **** * Return:
 794:./Generated_Source/PSoC5/CyDmac.c **** *   The number of free Transfer Descriptors.
 795:./Generated_Source/PSoC5/CyDmac.c **** *
 796:./Generated_Source/PSoC5/CyDmac.c **** *
 797:./Generated_Source/PSoC5/CyDmac.c **** *******************************************************************************/
 798:./Generated_Source/PSoC5/CyDmac.c **** uint8 CyDmaTdFreeCount(void) 
 799:./Generated_Source/PSoC5/CyDmac.c **** {
 1268              		.loc 1 799 0
 1269              		.cfi_startproc
 1270              		@ args = 0, pretend = 0, frame = 8
 1271              		@ frame_needed = 1, uses_anonymous_args = 0
 1272              		@ link register save eliminated.
 1273 0000 80B4     		push	{r7}
 1274              	.LCFI52:
 1275              		.cfi_def_cfa_offset 4
 1276 0002 83B0     		sub	sp, sp, #12
 1277              	.LCFI53:
 1278              		.cfi_def_cfa_offset 16
 1279 0004 00AF     		add	r7, sp, #0
 1280              		.cfi_offset 7, -4
 1281              	.LCFI54:
 1282              		.cfi_def_cfa_register 7
 800:./Generated_Source/PSoC5/CyDmac.c ****     uint8 number;
 801:./Generated_Source/PSoC5/CyDmac.c **** 
 802:./Generated_Source/PSoC5/CyDmac.c **** 
 803:./Generated_Source/PSoC5/CyDmac.c ****     number = CyDmaTdCurrentNumber;
 1283              		.loc 1 803 0
 1284 0006 40F20003 		movw	r3, #:lower16:CyDmaTdCurrentNumber
 1285 000a C0F20003 		movt	r3, #:upper16:CyDmaTdCurrentNumber
 1286 000e 1B78     		ldrb	r3, [r3, #0]
 1287 0010 FB71     		strb	r3, [r7, #7]
 804:./Generated_Source/PSoC5/CyDmac.c **** 
 805:./Generated_Source/PSoC5/CyDmac.c **** 
 806:./Generated_Source/PSoC5/CyDmac.c ****     return number;
 1288              		.loc 1 806 0
 1289 0012 FB79     		ldrb	r3, [r7, #7]	@ zero_extendqisi2
 807:./Generated_Source/PSoC5/CyDmac.c **** }
 1290              		.loc 1 807 0
 1291 0014 1846     		mov	r0, r3
 1292 0016 07F10C07 		add	r7, r7, #12
 1293 001a BD46     		mov	sp, r7
 1294 001c 80BC     		pop	{r7}
 1295 001e 7047     		bx	lr
 1296              		.cfi_endproc
 1297              	.LFE18:
 1298              		.size	CyDmaTdFreeCount, .-CyDmaTdFreeCount
ARM GAS  C:\DOCUME~1\akay\LOCALS~1\Temp\ccUz6l5r.s 			page 38


 1299              		.section	.text.CyDmaTdSetConfiguration,"ax",%progbits
 1300              		.align	2
 1301              		.global	CyDmaTdSetConfiguration
 1302              		.thumb
 1303              		.thumb_func
 1304              		.type	CyDmaTdSetConfiguration, %function
 1305              	CyDmaTdSetConfiguration:
 1306              	.LFB19:
 808:./Generated_Source/PSoC5/CyDmac.c **** 
 809:./Generated_Source/PSoC5/CyDmac.c **** 
 810:./Generated_Source/PSoC5/CyDmac.c **** /*******************************************************************************
 811:./Generated_Source/PSoC5/CyDmac.c **** * Function Name: CyDmaTdSetConfiguration
 812:./Generated_Source/PSoC5/CyDmac.c **** ********************************************************************************
 813:./Generated_Source/PSoC5/CyDmac.c **** * Summary:
 814:./Generated_Source/PSoC5/CyDmac.c **** * Configures the TD.
 815:./Generated_Source/PSoC5/CyDmac.c **** *
 816:./Generated_Source/PSoC5/CyDmac.c **** * Parameters:
 817:./Generated_Source/PSoC5/CyDmac.c **** * tdHandle:
 818:./Generated_Source/PSoC5/CyDmac.c **** *   Handle to the TD.
 819:./Generated_Source/PSoC5/CyDmac.c **** *
 820:./Generated_Source/PSoC5/CyDmac.c **** * transferCount:
 821:./Generated_Source/PSoC5/CyDmac.c **** *   Size of the data transfer (in bytes) for this Transfer Descriptor.
 822:./Generated_Source/PSoC5/CyDmac.c **** *
 823:./Generated_Source/PSoC5/CyDmac.c **** * nextTd:
 824:./Generated_Source/PSoC5/CyDmac.c **** *   Zero based index of the next Transfer Descriptor in the TD chain.
 825:./Generated_Source/PSoC5/CyDmac.c **** *   Zero is a valid pointer to the next TD, 0xFF is end of chain.
 826:./Generated_Source/PSoC5/CyDmac.c **** *
 827:./Generated_Source/PSoC5/CyDmac.c **** * configuration:
 828:./Generated_Source/PSoC5/CyDmac.c **** *   Bit field with the following meaning.   
 829:./Generated_Source/PSoC5/CyDmac.c **** *   
 830:./Generated_Source/PSoC5/CyDmac.c **** *   bit 7 swap_en 0
 831:./Generated_Source/PSoC5/CyDmac.c **** *   bit 6 swap_size
 832:./Generated_Source/PSoC5/CyDmac.c **** *   bit 5 auto_exec_next
 833:./Generated_Source/PSoC5/CyDmac.c **** *   bit 4 termin_en
 834:./Generated_Source/PSoC5/CyDmac.c **** *   bit 3 termout1_en
 835:./Generated_Source/PSoC5/CyDmac.c **** *   bit 2 termout0_en
 836:./Generated_Source/PSoC5/CyDmac.c **** *   bit 1 inc_dst_adr
 837:./Generated_Source/PSoC5/CyDmac.c **** *   bit 0 inc_src_adr
 838:./Generated_Source/PSoC5/CyDmac.c **** *   
 839:./Generated_Source/PSoC5/CyDmac.c **** *   As defined in ??HeaderFile??
 840:./Generated_Source/PSoC5/CyDmac.c **** *   
 841:./Generated_Source/PSoC5/CyDmac.c **** *
 842:./Generated_Source/PSoC5/CyDmac.c **** * Return:
 843:./Generated_Source/PSoC5/CyDmac.c **** *   0 in successful or CYRET_BAD_PARAM.
 844:./Generated_Source/PSoC5/CyDmac.c **** *
 845:./Generated_Source/PSoC5/CyDmac.c **** *
 846:./Generated_Source/PSoC5/CyDmac.c **** *******************************************************************************/
 847:./Generated_Source/PSoC5/CyDmac.c **** cystatus CyDmaTdSetConfiguration(uint8 tdHandle, uint16 transferCount, uint8 nextTd, uint8 configur
 848:./Generated_Source/PSoC5/CyDmac.c **** {
 1307              		.loc 1 848 0
 1308              		.cfi_startproc
 1309              		@ args = 0, pretend = 0, frame = 16
 1310              		@ frame_needed = 1, uses_anonymous_args = 0
 1311              		@ link register save eliminated.
 1312 0000 80B4     		push	{r7}
 1313              	.LCFI55:
 1314              		.cfi_def_cfa_offset 4
ARM GAS  C:\DOCUME~1\akay\LOCALS~1\Temp\ccUz6l5r.s 			page 39


 1315 0002 85B0     		sub	sp, sp, #20
 1316              	.LCFI56:
 1317              		.cfi_def_cfa_offset 24
 1318 0004 00AF     		add	r7, sp, #0
 1319              		.cfi_offset 7, -4
 1320              	.LCFI57:
 1321              		.cfi_def_cfa_register 7
 1322 0006 F871     		strb	r0, [r7, #7]
 1323 0008 B980     		strh	r1, [r7, #4]	@ movhi
 1324 000a FA70     		strb	r2, [r7, #3]
 1325 000c BB70     		strb	r3, [r7, #2]
 849:./Generated_Source/PSoC5/CyDmac.c ****     cystatus status;
 850:./Generated_Source/PSoC5/CyDmac.c **** 
 851:./Generated_Source/PSoC5/CyDmac.c **** 
 852:./Generated_Source/PSoC5/CyDmac.c ****     if(tdHandle < NUMBEROF_TDS && !(0xF000u & transferCount))
 1326              		.loc 1 852 0
 1327 000e FB79     		ldrb	r3, [r7, #7]	@ zero_extendqisi2
 1328 0010 5BB2     		sxtb	r3, r3
 1329 0012 002B     		cmp	r3, #0
 1330 0014 25DB     		blt	.L78
 1331 0016 BB88     		ldrh	r3, [r7, #4]
 1332 0018 03F47043 		and	r3, r3, #61440
 1333 001c 002B     		cmp	r3, #0
 1334 001e 20D1     		bne	.L78
 1335              	.LBB5:
 853:./Generated_Source/PSoC5/CyDmac.c ****     {
 854:./Generated_Source/PSoC5/CyDmac.c ****         /* Set 12 bits transfer count. */
 855:./Generated_Source/PSoC5/CyDmac.c ****         CONVERT_WORD *convert = (CONVERT_WORD *)&DMAC_TDMEM[tdHandle].TD0[0];
 1336              		.loc 1 855 0
 1337 0020 FB79     		ldrb	r3, [r7, #7]	@ zero_extendqisi2
 1338 0022 4FEAC303 		lsl	r3, r3, #3
 1339 0026 03F18043 		add	r3, r3, #1073741824
 1340 002a 03F5F043 		add	r3, r3, #30720
 1341 002e FB60     		str	r3, [r7, #12]
 856:./Generated_Source/PSoC5/CyDmac.c ****         CY_SET_REG16(&convert->word, transferCount);
 1342              		.loc 1 856 0
 1343 0030 FB68     		ldr	r3, [r7, #12]
 1344 0032 BA88     		ldrh	r2, [r7, #4]	@ movhi
 1345 0034 1A80     		strh	r2, [r3, #0]	@ movhi
 857:./Generated_Source/PSoC5/CyDmac.c **** 
 858:./Generated_Source/PSoC5/CyDmac.c ****         /* Set Next TD pointer. */
 859:./Generated_Source/PSoC5/CyDmac.c ****         DMAC_TDMEM[tdHandle].TD0[2] = nextTd;
 1346              		.loc 1 859 0
 1347 0036 FB79     		ldrb	r3, [r7, #7]	@ zero_extendqisi2
 1348 0038 4FEAC303 		lsl	r3, r3, #3
 1349 003c 03F18043 		add	r3, r3, #1073741824
 1350 0040 03F5F043 		add	r3, r3, #30720
 1351 0044 FA78     		ldrb	r2, [r7, #3]
 1352 0046 9A70     		strb	r2, [r3, #2]
 860:./Generated_Source/PSoC5/CyDmac.c **** 
 861:./Generated_Source/PSoC5/CyDmac.c ****         /* Configure the TD */
 862:./Generated_Source/PSoC5/CyDmac.c ****         DMAC_TDMEM[tdHandle].TD0[3] = configuration;
 1353              		.loc 1 862 0
 1354 0048 FB79     		ldrb	r3, [r7, #7]	@ zero_extendqisi2
 1355 004a 4FEAC303 		lsl	r3, r3, #3
 1356 004e 03F18043 		add	r3, r3, #1073741824
 1357 0052 03F5F043 		add	r3, r3, #30720
ARM GAS  C:\DOCUME~1\akay\LOCALS~1\Temp\ccUz6l5r.s 			page 40


 1358 0056 BA78     		ldrb	r2, [r7, #2]
 1359 0058 DA70     		strb	r2, [r3, #3]
 863:./Generated_Source/PSoC5/CyDmac.c **** 
 864:./Generated_Source/PSoC5/CyDmac.c ****         status = CYRET_SUCCESS;
 1360              		.loc 1 864 0
 1361 005a 4FF00003 		mov	r3, #0
 1362 005e BB60     		str	r3, [r7, #8]
 1363              	.LBE5:
 1364              		.loc 1 852 0
 1365 0060 02E0     		b	.L79
 1366              	.L78:
 865:./Generated_Source/PSoC5/CyDmac.c ****     }
 866:./Generated_Source/PSoC5/CyDmac.c ****     else
 867:./Generated_Source/PSoC5/CyDmac.c ****     {
 868:./Generated_Source/PSoC5/CyDmac.c ****         status = CYRET_BAD_PARAM;
 1367              		.loc 1 868 0
 1368 0062 4FF00103 		mov	r3, #1
 1369 0066 BB60     		str	r3, [r7, #8]
 1370              	.L79:
 869:./Generated_Source/PSoC5/CyDmac.c ****     }
 870:./Generated_Source/PSoC5/CyDmac.c **** 
 871:./Generated_Source/PSoC5/CyDmac.c ****     return status;
 1371              		.loc 1 871 0
 1372 0068 BB68     		ldr	r3, [r7, #8]
 872:./Generated_Source/PSoC5/CyDmac.c **** }
 1373              		.loc 1 872 0
 1374 006a 1846     		mov	r0, r3
 1375 006c 07F11407 		add	r7, r7, #20
 1376 0070 BD46     		mov	sp, r7
 1377 0072 80BC     		pop	{r7}
 1378 0074 7047     		bx	lr
 1379              		.cfi_endproc
 1380              	.LFE19:
 1381              		.size	CyDmaTdSetConfiguration, .-CyDmaTdSetConfiguration
 1382 0076 00BF     		.section	.text.CyDmaTdGetConfiguration,"ax",%progbits
 1383              		.align	2
 1384              		.global	CyDmaTdGetConfiguration
 1385              		.thumb
 1386              		.thumb_func
 1387              		.type	CyDmaTdGetConfiguration, %function
 1388              	CyDmaTdGetConfiguration:
 1389              	.LFB20:
 873:./Generated_Source/PSoC5/CyDmac.c **** 
 874:./Generated_Source/PSoC5/CyDmac.c **** 
 875:./Generated_Source/PSoC5/CyDmac.c **** /*******************************************************************************
 876:./Generated_Source/PSoC5/CyDmac.c **** * Function Name: CyDmaTdGetConfiguration
 877:./Generated_Source/PSoC5/CyDmac.c **** ********************************************************************************
 878:./Generated_Source/PSoC5/CyDmac.c **** * Summary:
 879:./Generated_Source/PSoC5/CyDmac.c **** * Gets the configuration for the Configures.
 880:./Generated_Source/PSoC5/CyDmac.c **** *
 881:./Generated_Source/PSoC5/CyDmac.c **** *   if NULL is passed for a pointer parameter, that value will be
 882:./Generated_Source/PSoC5/CyDmac.c **** *   skipped. The user can requestion only the values they are
 883:./Generated_Source/PSoC5/CyDmac.c **** *   interested in.
 884:./Generated_Source/PSoC5/CyDmac.c **** *
 885:./Generated_Source/PSoC5/CyDmac.c **** * Parameters:
 886:./Generated_Source/PSoC5/CyDmac.c **** * tdHandle:
 887:./Generated_Source/PSoC5/CyDmac.c **** *   Handle to the TD.
ARM GAS  C:\DOCUME~1\akay\LOCALS~1\Temp\ccUz6l5r.s 			page 41


 888:./Generated_Source/PSoC5/CyDmac.c **** *
 889:./Generated_Source/PSoC5/CyDmac.c **** * transferCount:
 890:./Generated_Source/PSoC5/CyDmac.c **** *   Address to store the Size of the data transfer (in bytes) for
 891:./Generated_Source/PSoC5/CyDmac.c **** *   this Transfer Descriptor.
 892:./Generated_Source/PSoC5/CyDmac.c **** *
 893:./Generated_Source/PSoC5/CyDmac.c **** * nextTd:
 894:./Generated_Source/PSoC5/CyDmac.c **** *   Address to store the Zero based index of the next Transfer
 895:./Generated_Source/PSoC5/CyDmac.c **** *   Descriptor in the TD chain.
 896:./Generated_Source/PSoC5/CyDmac.c **** *
 897:./Generated_Source/PSoC5/CyDmac.c **** * configurattion:
 898:./Generated_Source/PSoC5/CyDmac.c **** *   Address to store the Bit field of configuration bits.
 899:./Generated_Source/PSoC5/CyDmac.c **** *   
 900:./Generated_Source/PSoC5/CyDmac.c **** *   bit 7 swap_en 0
 901:./Generated_Source/PSoC5/CyDmac.c **** *   bit 6 swap_size
 902:./Generated_Source/PSoC5/CyDmac.c **** *   bit 5 auto_exec_next
 903:./Generated_Source/PSoC5/CyDmac.c **** *   bit 4 termin_en
 904:./Generated_Source/PSoC5/CyDmac.c **** *   bit 3 termout1_en
 905:./Generated_Source/PSoC5/CyDmac.c **** *   bit 2 termout0_en
 906:./Generated_Source/PSoC5/CyDmac.c **** *   bit 1 inc_dst_adr
 907:./Generated_Source/PSoC5/CyDmac.c **** *   bit 0 inc_src_adr
 908:./Generated_Source/PSoC5/CyDmac.c **** *   
 909:./Generated_Source/PSoC5/CyDmac.c **** *   As defined in ??HeaderFile??
 910:./Generated_Source/PSoC5/CyDmac.c **** *   
 911:./Generated_Source/PSoC5/CyDmac.c **** *
 912:./Generated_Source/PSoC5/CyDmac.c **** * Return:
 913:./Generated_Source/PSoC5/CyDmac.c **** *   0 in successful or CYRET_BAD_PARAM.
 914:./Generated_Source/PSoC5/CyDmac.c **** *
 915:./Generated_Source/PSoC5/CyDmac.c **** *
 916:./Generated_Source/PSoC5/CyDmac.c **** *******************************************************************************/
 917:./Generated_Source/PSoC5/CyDmac.c **** cystatus CyDmaTdGetConfiguration(uint8 tdHandle, uint16 * transferCount, uint8 * nextTd, uint8 * co
 918:./Generated_Source/PSoC5/CyDmac.c **** {
 1390              		.loc 1 918 0
 1391              		.cfi_startproc
 1392              		@ args = 0, pretend = 0, frame = 24
 1393              		@ frame_needed = 1, uses_anonymous_args = 0
 1394              		@ link register save eliminated.
 1395 0000 80B4     		push	{r7}
 1396              	.LCFI58:
 1397              		.cfi_def_cfa_offset 4
 1398 0002 87B0     		sub	sp, sp, #28
 1399              	.LCFI59:
 1400              		.cfi_def_cfa_offset 32
 1401 0004 00AF     		add	r7, sp, #0
 1402              		.cfi_offset 7, -4
 1403              	.LCFI60:
 1404              		.cfi_def_cfa_register 7
 1405 0006 B960     		str	r1, [r7, #8]
 1406 0008 7A60     		str	r2, [r7, #4]
 1407 000a 3B60     		str	r3, [r7, #0]
 1408 000c 0346     		mov	r3, r0
 1409 000e FB73     		strb	r3, [r7, #15]
 919:./Generated_Source/PSoC5/CyDmac.c ****     cystatus status;
 920:./Generated_Source/PSoC5/CyDmac.c **** 
 921:./Generated_Source/PSoC5/CyDmac.c **** 
 922:./Generated_Source/PSoC5/CyDmac.c ****     if(tdHandle < NUMBEROF_TDS)
 1410              		.loc 1 922 0
 1411 0010 FB7B     		ldrb	r3, [r7, #15]	@ zero_extendqisi2
ARM GAS  C:\DOCUME~1\akay\LOCALS~1\Temp\ccUz6l5r.s 			page 42


 1412 0012 5BB2     		sxtb	r3, r3
 1413 0014 002B     		cmp	r3, #0
 1414 0016 33DB     		blt	.L82
 923:./Generated_Source/PSoC5/CyDmac.c ****     {
 924:./Generated_Source/PSoC5/CyDmac.c ****         /* If we have a pointer. */
 925:./Generated_Source/PSoC5/CyDmac.c ****         if(transferCount)
 1415              		.loc 1 925 0
 1416 0018 BB68     		ldr	r3, [r7, #8]
 1417 001a 002B     		cmp	r3, #0
 1418 001c 10D0     		beq	.L83
 1419              	.LBB6:
 926:./Generated_Source/PSoC5/CyDmac.c ****         {
 927:./Generated_Source/PSoC5/CyDmac.c ****             /* Get the 12 bitss of the transfer count. */
 928:./Generated_Source/PSoC5/CyDmac.c ****             CONVERT_WORD *convert = (CONVERT_WORD *)&DMAC_TDMEM[tdHandle].TD0[0];
 1420              		.loc 1 928 0
 1421 001e FB7B     		ldrb	r3, [r7, #15]	@ zero_extendqisi2
 1422 0020 4FEAC303 		lsl	r3, r3, #3
 1423 0024 03F18043 		add	r3, r3, #1073741824
 1424 0028 03F5F043 		add	r3, r3, #30720
 1425 002c 7B61     		str	r3, [r7, #20]
 929:./Generated_Source/PSoC5/CyDmac.c ****             *transferCount = 0x0FFFu & CY_GET_REG16(&convert->word);
 1426              		.loc 1 929 0
 1427 002e 7B69     		ldr	r3, [r7, #20]
 1428 0030 1B88     		ldrh	r3, [r3, #0]	@ movhi
 1429 0032 9BB2     		uxth	r3, r3
 1430 0034 4FEA0353 		lsl	r3, r3, #20
 1431 0038 4FEA1353 		lsr	r3, r3, #20
 1432 003c BA68     		ldr	r2, [r7, #8]
 1433 003e 1380     		strh	r3, [r2, #0]	@ movhi
 1434              	.L83:
 1435              	.LBE6:
 930:./Generated_Source/PSoC5/CyDmac.c ****         }
 931:./Generated_Source/PSoC5/CyDmac.c **** 
 932:./Generated_Source/PSoC5/CyDmac.c ****         /* If we have a pointer. */
 933:./Generated_Source/PSoC5/CyDmac.c ****         if(nextTd)
 1436              		.loc 1 933 0
 1437 0040 7B68     		ldr	r3, [r7, #4]
 1438 0042 002B     		cmp	r3, #0
 1439 0044 0AD0     		beq	.L84
 934:./Generated_Source/PSoC5/CyDmac.c ****         {
 935:./Generated_Source/PSoC5/CyDmac.c ****             /* Get the Next TD pointer. */
 936:./Generated_Source/PSoC5/CyDmac.c ****             *nextTd = DMAC_TDMEM[tdHandle].TD0[2];
 1440              		.loc 1 936 0
 1441 0046 FB7B     		ldrb	r3, [r7, #15]	@ zero_extendqisi2
 1442 0048 4FEAC303 		lsl	r3, r3, #3
 1443 004c 03F18043 		add	r3, r3, #1073741824
 1444 0050 03F5F043 		add	r3, r3, #30720
 1445 0054 9B78     		ldrb	r3, [r3, #2]
 1446 0056 DAB2     		uxtb	r2, r3
 1447 0058 7B68     		ldr	r3, [r7, #4]
 1448 005a 1A70     		strb	r2, [r3, #0]
 1449              	.L84:
 937:./Generated_Source/PSoC5/CyDmac.c ****         }
 938:./Generated_Source/PSoC5/CyDmac.c **** 
 939:./Generated_Source/PSoC5/CyDmac.c ****         /* If we have a pointer. */
 940:./Generated_Source/PSoC5/CyDmac.c ****         if(configuration)
 1450              		.loc 1 940 0
ARM GAS  C:\DOCUME~1\akay\LOCALS~1\Temp\ccUz6l5r.s 			page 43


 1451 005c 3B68     		ldr	r3, [r7, #0]
 1452 005e 002B     		cmp	r3, #0
 1453 0060 0AD0     		beq	.L85
 941:./Generated_Source/PSoC5/CyDmac.c ****         {
 942:./Generated_Source/PSoC5/CyDmac.c ****             /* Get the configuration the TD */
 943:./Generated_Source/PSoC5/CyDmac.c ****             *configuration = DMAC_TDMEM[tdHandle].TD0[3];
 1454              		.loc 1 943 0
 1455 0062 FB7B     		ldrb	r3, [r7, #15]	@ zero_extendqisi2
 1456 0064 4FEAC303 		lsl	r3, r3, #3
 1457 0068 03F18043 		add	r3, r3, #1073741824
 1458 006c 03F5F043 		add	r3, r3, #30720
 1459 0070 DB78     		ldrb	r3, [r3, #3]
 1460 0072 DAB2     		uxtb	r2, r3
 1461 0074 3B68     		ldr	r3, [r7, #0]
 1462 0076 1A70     		strb	r2, [r3, #0]
 1463              	.L85:
 944:./Generated_Source/PSoC5/CyDmac.c ****         }
 945:./Generated_Source/PSoC5/CyDmac.c **** 
 946:./Generated_Source/PSoC5/CyDmac.c ****         status = CYRET_SUCCESS;
 1464              		.loc 1 946 0
 1465 0078 4FF00003 		mov	r3, #0
 1466 007c 3B61     		str	r3, [r7, #16]
 1467 007e 02E0     		b	.L86
 1468              	.L82:
 947:./Generated_Source/PSoC5/CyDmac.c ****     }
 948:./Generated_Source/PSoC5/CyDmac.c ****     else
 949:./Generated_Source/PSoC5/CyDmac.c ****     {
 950:./Generated_Source/PSoC5/CyDmac.c ****         status = CYRET_BAD_PARAM;
 1469              		.loc 1 950 0
 1470 0080 4FF00103 		mov	r3, #1
 1471 0084 3B61     		str	r3, [r7, #16]
 1472              	.L86:
 951:./Generated_Source/PSoC5/CyDmac.c ****     }
 952:./Generated_Source/PSoC5/CyDmac.c **** 
 953:./Generated_Source/PSoC5/CyDmac.c ****     return status;
 1473              		.loc 1 953 0
 1474 0086 3B69     		ldr	r3, [r7, #16]
 954:./Generated_Source/PSoC5/CyDmac.c **** }
 1475              		.loc 1 954 0
 1476 0088 1846     		mov	r0, r3
 1477 008a 07F11C07 		add	r7, r7, #28
 1478 008e BD46     		mov	sp, r7
 1479 0090 80BC     		pop	{r7}
 1480 0092 7047     		bx	lr
 1481              		.cfi_endproc
 1482              	.LFE20:
 1483              		.size	CyDmaTdGetConfiguration, .-CyDmaTdGetConfiguration
 1484              		.section	.text.CyDmaTdSetAddress,"ax",%progbits
 1485              		.align	2
 1486              		.global	CyDmaTdSetAddress
 1487              		.thumb
 1488              		.thumb_func
 1489              		.type	CyDmaTdSetAddress, %function
 1490              	CyDmaTdSetAddress:
 1491              	.LFB21:
 955:./Generated_Source/PSoC5/CyDmac.c **** 
 956:./Generated_Source/PSoC5/CyDmac.c **** 
ARM GAS  C:\DOCUME~1\akay\LOCALS~1\Temp\ccUz6l5r.s 			page 44


 957:./Generated_Source/PSoC5/CyDmac.c **** /*******************************************************************************
 958:./Generated_Source/PSoC5/CyDmac.c **** * Function Name: CyDmaTdSetAddress
 959:./Generated_Source/PSoC5/CyDmac.c **** ********************************************************************************
 960:./Generated_Source/PSoC5/CyDmac.c **** * Summary:
 961:./Generated_Source/PSoC5/CyDmac.c **** *   Sets the lower 16 bits of the source and destination addresses
 962:./Generated_Source/PSoC5/CyDmac.c **** *   for this TD only.
 963:./Generated_Source/PSoC5/CyDmac.c **** *
 964:./Generated_Source/PSoC5/CyDmac.c **** * Parameters:
 965:./Generated_Source/PSoC5/CyDmac.c **** * tdHandle:
 966:./Generated_Source/PSoC5/CyDmac.c **** *   Handle to the TD.
 967:./Generated_Source/PSoC5/CyDmac.c **** *
 968:./Generated_Source/PSoC5/CyDmac.c **** * source:
 969:./Generated_Source/PSoC5/CyDmac.c **** *   lower 16 address bits of the Source of the data transfer.
 970:./Generated_Source/PSoC5/CyDmac.c **** *
 971:./Generated_Source/PSoC5/CyDmac.c **** * destination:
 972:./Generated_Source/PSoC5/CyDmac.c **** *   lower 16 address bits of the Destination of the data transfer.
 973:./Generated_Source/PSoC5/CyDmac.c **** *
 974:./Generated_Source/PSoC5/CyDmac.c **** *
 975:./Generated_Source/PSoC5/CyDmac.c **** * Return:
 976:./Generated_Source/PSoC5/CyDmac.c **** *   0 in successful or CYRET_BAD_PARAM.
 977:./Generated_Source/PSoC5/CyDmac.c **** *
 978:./Generated_Source/PSoC5/CyDmac.c **** *
 979:./Generated_Source/PSoC5/CyDmac.c **** *******************************************************************************/
 980:./Generated_Source/PSoC5/CyDmac.c **** cystatus CyDmaTdSetAddress(uint8 tdHandle, uint16 source, uint16 destination) 
 981:./Generated_Source/PSoC5/CyDmac.c **** {
 1492              		.loc 1 981 0
 1493              		.cfi_startproc
 1494              		@ args = 0, pretend = 0, frame = 16
 1495              		@ frame_needed = 1, uses_anonymous_args = 0
 1496              		@ link register save eliminated.
 1497 0000 80B4     		push	{r7}
 1498              	.LCFI61:
 1499              		.cfi_def_cfa_offset 4
 1500 0002 85B0     		sub	sp, sp, #20
 1501              	.LCFI62:
 1502              		.cfi_def_cfa_offset 24
 1503 0004 00AF     		add	r7, sp, #0
 1504              		.cfi_offset 7, -4
 1505              	.LCFI63:
 1506              		.cfi_def_cfa_register 7
 1507 0006 1346     		mov	r3, r2
 1508 0008 0246     		mov	r2, r0
 1509 000a FA71     		strb	r2, [r7, #7]
 1510 000c 0A46     		mov	r2, r1	@ movhi
 1511 000e BA80     		strh	r2, [r7, #4]	@ movhi
 1512 0010 7B80     		strh	r3, [r7, #2]	@ movhi
 982:./Generated_Source/PSoC5/CyDmac.c ****     cystatus status;
 983:./Generated_Source/PSoC5/CyDmac.c **** 
 984:./Generated_Source/PSoC5/CyDmac.c **** 
 985:./Generated_Source/PSoC5/CyDmac.c ****     if(tdHandle < NUMBEROF_TDS)
 1513              		.loc 1 985 0
 1514 0012 FB79     		ldrb	r3, [r7, #7]	@ zero_extendqisi2
 1515 0014 5BB2     		sxtb	r3, r3
 1516 0016 002B     		cmp	r3, #0
 1517 0018 1DDB     		blt	.L89
 1518              	.LBB7:
 986:./Generated_Source/PSoC5/CyDmac.c ****     {
ARM GAS  C:\DOCUME~1\akay\LOCALS~1\Temp\ccUz6l5r.s 			page 45


 987:./Generated_Source/PSoC5/CyDmac.c ****         /* Set Source address. */
 988:./Generated_Source/PSoC5/CyDmac.c ****         CONVERT_WORD *convert = (CONVERT_WORD *)&DMAC_TDMEM[tdHandle].TD1[0];
 1519              		.loc 1 988 0
 1520 001a FB79     		ldrb	r3, [r7, #7]	@ zero_extendqisi2
 1521 001c 4FEAC303 		lsl	r3, r3, #3
 1522 0020 03F18043 		add	r3, r3, #1073741824
 1523 0024 03F5F043 		add	r3, r3, #30720
 1524 0028 03F10403 		add	r3, r3, #4
 1525 002c FB60     		str	r3, [r7, #12]
 989:./Generated_Source/PSoC5/CyDmac.c ****         CY_SET_REG16(&convert->word, source);
 1526              		.loc 1 989 0
 1527 002e FB68     		ldr	r3, [r7, #12]
 1528 0030 BA88     		ldrh	r2, [r7, #4]	@ movhi
 1529 0032 1A80     		strh	r2, [r3, #0]	@ movhi
 990:./Generated_Source/PSoC5/CyDmac.c **** 
 991:./Generated_Source/PSoC5/CyDmac.c ****         /* Set Destination address. */
 992:./Generated_Source/PSoC5/CyDmac.c ****         CY_SET_REG16((reg16 *) &DMAC_TDMEM[tdHandle].TD1[2], destination);
 1530              		.loc 1 992 0
 1531 0034 FB79     		ldrb	r3, [r7, #7]	@ zero_extendqisi2
 1532 0036 4FEAC303 		lsl	r3, r3, #3
 1533 003a 03F18043 		add	r3, r3, #1073741824
 1534 003e 03F5F043 		add	r3, r3, #30720
 1535 0042 03F10403 		add	r3, r3, #4
 1536 0046 03F10203 		add	r3, r3, #2
 1537 004a 7A88     		ldrh	r2, [r7, #2]	@ movhi
 1538 004c 1A80     		strh	r2, [r3, #0]	@ movhi
 993:./Generated_Source/PSoC5/CyDmac.c **** 
 994:./Generated_Source/PSoC5/CyDmac.c ****         status = CYRET_SUCCESS;
 1539              		.loc 1 994 0
 1540 004e 4FF00003 		mov	r3, #0
 1541 0052 BB60     		str	r3, [r7, #8]
 1542 0054 02E0     		b	.L90
 1543              	.L89:
 1544              	.LBE7:
 995:./Generated_Source/PSoC5/CyDmac.c ****     }
 996:./Generated_Source/PSoC5/CyDmac.c ****     else
 997:./Generated_Source/PSoC5/CyDmac.c ****     {
 998:./Generated_Source/PSoC5/CyDmac.c ****         status = CYRET_BAD_PARAM;
 1545              		.loc 1 998 0
 1546 0056 4FF00103 		mov	r3, #1
 1547 005a BB60     		str	r3, [r7, #8]
 1548              	.L90:
 999:./Generated_Source/PSoC5/CyDmac.c ****     }
1000:./Generated_Source/PSoC5/CyDmac.c **** 
1001:./Generated_Source/PSoC5/CyDmac.c ****     return status;
 1549              		.loc 1 1001 0
 1550 005c BB68     		ldr	r3, [r7, #8]
1002:./Generated_Source/PSoC5/CyDmac.c **** }
 1551              		.loc 1 1002 0
 1552 005e 1846     		mov	r0, r3
 1553 0060 07F11407 		add	r7, r7, #20
 1554 0064 BD46     		mov	sp, r7
 1555 0066 80BC     		pop	{r7}
 1556 0068 7047     		bx	lr
 1557              		.cfi_endproc
 1558              	.LFE21:
 1559              		.size	CyDmaTdSetAddress, .-CyDmaTdSetAddress
ARM GAS  C:\DOCUME~1\akay\LOCALS~1\Temp\ccUz6l5r.s 			page 46


 1560 006a 00BF     		.section	.text.CyDmaTdGetAddress,"ax",%progbits
 1561              		.align	2
 1562              		.global	CyDmaTdGetAddress
 1563              		.thumb
 1564              		.thumb_func
 1565              		.type	CyDmaTdGetAddress, %function
 1566              	CyDmaTdGetAddress:
 1567              	.LFB22:
1003:./Generated_Source/PSoC5/CyDmac.c **** 
1004:./Generated_Source/PSoC5/CyDmac.c **** 
1005:./Generated_Source/PSoC5/CyDmac.c **** /*******************************************************************************
1006:./Generated_Source/PSoC5/CyDmac.c **** * Function Name: CyDmaTdGetAddress
1007:./Generated_Source/PSoC5/CyDmac.c **** ********************************************************************************
1008:./Generated_Source/PSoC5/CyDmac.c **** * Summary:
1009:./Generated_Source/PSoC5/CyDmac.c **** *   Gets the lower 16 bits of the source and/or destination addresses
1010:./Generated_Source/PSoC5/CyDmac.c **** *   for this TD only.
1011:./Generated_Source/PSoC5/CyDmac.c **** *
1012:./Generated_Source/PSoC5/CyDmac.c **** *   if NULL is passed for a pointer parameter, that value will be
1013:./Generated_Source/PSoC5/CyDmac.c **** *   skipped. The user can requestion only the values they are
1014:./Generated_Source/PSoC5/CyDmac.c **** *   interested in.
1015:./Generated_Source/PSoC5/CyDmac.c **** *
1016:./Generated_Source/PSoC5/CyDmac.c **** * Parameters:
1017:./Generated_Source/PSoC5/CyDmac.c **** * tdHandle:
1018:./Generated_Source/PSoC5/CyDmac.c **** *   Handle to the TD.
1019:./Generated_Source/PSoC5/CyDmac.c **** *
1020:./Generated_Source/PSoC5/CyDmac.c **** * source:
1021:./Generated_Source/PSoC5/CyDmac.c **** *   Address to store the lower 16 address bits of the Source of the
1022:./Generated_Source/PSoC5/CyDmac.c **** *   data transfer.
1023:./Generated_Source/PSoC5/CyDmac.c **** *
1024:./Generated_Source/PSoC5/CyDmac.c **** * destination:
1025:./Generated_Source/PSoC5/CyDmac.c **** *   Address to store the lower 16 address bits of the Destination of
1026:./Generated_Source/PSoC5/CyDmac.c **** *   the data transfer.
1027:./Generated_Source/PSoC5/CyDmac.c **** *
1028:./Generated_Source/PSoC5/CyDmac.c **** *
1029:./Generated_Source/PSoC5/CyDmac.c **** * Return:
1030:./Generated_Source/PSoC5/CyDmac.c **** *   0 in successful or CYRET_BAD_PARAM.
1031:./Generated_Source/PSoC5/CyDmac.c **** *
1032:./Generated_Source/PSoC5/CyDmac.c **** *
1033:./Generated_Source/PSoC5/CyDmac.c **** *******************************************************************************/
1034:./Generated_Source/PSoC5/CyDmac.c **** cystatus CyDmaTdGetAddress(uint8 tdHandle, uint16 * source, uint16 * destination) 
1035:./Generated_Source/PSoC5/CyDmac.c **** {
 1568              		.loc 1 1035 0
 1569              		.cfi_startproc
 1570              		@ args = 0, pretend = 0, frame = 24
 1571              		@ frame_needed = 1, uses_anonymous_args = 0
 1572              		@ link register save eliminated.
 1573 0000 80B4     		push	{r7}
 1574              	.LCFI64:
 1575              		.cfi_def_cfa_offset 4
 1576 0002 87B0     		sub	sp, sp, #28
 1577              	.LCFI65:
 1578              		.cfi_def_cfa_offset 32
 1579 0004 00AF     		add	r7, sp, #0
 1580              		.cfi_offset 7, -4
 1581              	.LCFI66:
 1582              		.cfi_def_cfa_register 7
 1583 0006 0346     		mov	r3, r0
ARM GAS  C:\DOCUME~1\akay\LOCALS~1\Temp\ccUz6l5r.s 			page 47


 1584 0008 B960     		str	r1, [r7, #8]
 1585 000a 7A60     		str	r2, [r7, #4]
 1586 000c FB73     		strb	r3, [r7, #15]
1036:./Generated_Source/PSoC5/CyDmac.c ****     cystatus status;
1037:./Generated_Source/PSoC5/CyDmac.c **** 
1038:./Generated_Source/PSoC5/CyDmac.c **** 
1039:./Generated_Source/PSoC5/CyDmac.c ****     if(tdHandle < NUMBEROF_TDS)
 1587              		.loc 1 1039 0
 1588 000e FB7B     		ldrb	r3, [r7, #15]	@ zero_extendqisi2
 1589 0010 5BB2     		sxtb	r3, r3
 1590 0012 002B     		cmp	r3, #0
 1591 0014 27DB     		blt	.L93
1040:./Generated_Source/PSoC5/CyDmac.c ****     {
1041:./Generated_Source/PSoC5/CyDmac.c ****         /* If we have a pointer. */
1042:./Generated_Source/PSoC5/CyDmac.c ****         if(source)
 1592              		.loc 1 1042 0
 1593 0016 BB68     		ldr	r3, [r7, #8]
 1594 0018 002B     		cmp	r3, #0
 1595 001a 0ED0     		beq	.L94
 1596              	.LBB8:
1043:./Generated_Source/PSoC5/CyDmac.c ****         {
1044:./Generated_Source/PSoC5/CyDmac.c ****             /* Get Source address. */
1045:./Generated_Source/PSoC5/CyDmac.c ****             CONVERT_WORD *convert = (CONVERT_WORD *)&DMAC_TDMEM[tdHandle].TD1[0];
 1597              		.loc 1 1045 0
 1598 001c FB7B     		ldrb	r3, [r7, #15]	@ zero_extendqisi2
 1599 001e 4FEAC303 		lsl	r3, r3, #3
 1600 0022 03F18043 		add	r3, r3, #1073741824
 1601 0026 03F5F043 		add	r3, r3, #30720
 1602 002a 03F10403 		add	r3, r3, #4
 1603 002e 7B61     		str	r3, [r7, #20]
1046:./Generated_Source/PSoC5/CyDmac.c ****             *source = CY_GET_REG16(&convert->word);
 1604              		.loc 1 1046 0
 1605 0030 7B69     		ldr	r3, [r7, #20]
 1606 0032 1B88     		ldrh	r3, [r3, #0]	@ movhi
 1607 0034 9AB2     		uxth	r2, r3
 1608 0036 BB68     		ldr	r3, [r7, #8]
 1609 0038 1A80     		strh	r2, [r3, #0]	@ movhi
 1610              	.L94:
 1611              	.LBE8:
1047:./Generated_Source/PSoC5/CyDmac.c ****         }
1048:./Generated_Source/PSoC5/CyDmac.c **** 
1049:./Generated_Source/PSoC5/CyDmac.c ****         /* If we have a pointer. */
1050:./Generated_Source/PSoC5/CyDmac.c ****         if(destination)
 1612              		.loc 1 1050 0
 1613 003a 7B68     		ldr	r3, [r7, #4]
 1614 003c 002B     		cmp	r3, #0
 1615 003e 0ED0     		beq	.L95
1051:./Generated_Source/PSoC5/CyDmac.c ****         {
1052:./Generated_Source/PSoC5/CyDmac.c ****             /* Get Destination address. */
1053:./Generated_Source/PSoC5/CyDmac.c ****             *destination = CY_GET_REG16((reg16 *) &DMAC_TDMEM[tdHandle].TD1[2]);
 1616              		.loc 1 1053 0
 1617 0040 FB7B     		ldrb	r3, [r7, #15]	@ zero_extendqisi2
 1618 0042 4FEAC303 		lsl	r3, r3, #3
 1619 0046 03F18043 		add	r3, r3, #1073741824
 1620 004a 03F5F043 		add	r3, r3, #30720
 1621 004e 03F10403 		add	r3, r3, #4
 1622 0052 03F10203 		add	r3, r3, #2
ARM GAS  C:\DOCUME~1\akay\LOCALS~1\Temp\ccUz6l5r.s 			page 48


 1623 0056 1B88     		ldrh	r3, [r3, #0]	@ movhi
 1624 0058 9AB2     		uxth	r2, r3
 1625 005a 7B68     		ldr	r3, [r7, #4]
 1626 005c 1A80     		strh	r2, [r3, #0]	@ movhi
 1627              	.L95:
1054:./Generated_Source/PSoC5/CyDmac.c ****         }
1055:./Generated_Source/PSoC5/CyDmac.c **** 
1056:./Generated_Source/PSoC5/CyDmac.c ****         status = CYRET_SUCCESS;
 1628              		.loc 1 1056 0
 1629 005e 4FF00003 		mov	r3, #0
 1630 0062 3B61     		str	r3, [r7, #16]
 1631 0064 02E0     		b	.L96
 1632              	.L93:
1057:./Generated_Source/PSoC5/CyDmac.c ****     }
1058:./Generated_Source/PSoC5/CyDmac.c ****     else
1059:./Generated_Source/PSoC5/CyDmac.c ****     {
1060:./Generated_Source/PSoC5/CyDmac.c ****         status = CYRET_BAD_PARAM;
 1633              		.loc 1 1060 0
 1634 0066 4FF00103 		mov	r3, #1
 1635 006a 3B61     		str	r3, [r7, #16]
 1636              	.L96:
1061:./Generated_Source/PSoC5/CyDmac.c ****     }
1062:./Generated_Source/PSoC5/CyDmac.c **** 
1063:./Generated_Source/PSoC5/CyDmac.c ****     return status;
 1637              		.loc 1 1063 0
 1638 006c 3B69     		ldr	r3, [r7, #16]
1064:./Generated_Source/PSoC5/CyDmac.c **** }
 1639              		.loc 1 1064 0
 1640 006e 1846     		mov	r0, r3
 1641 0070 07F11C07 		add	r7, r7, #28
 1642 0074 BD46     		mov	sp, r7
 1643 0076 80BC     		pop	{r7}
 1644 0078 7047     		bx	lr
 1645              		.cfi_endproc
 1646              	.LFE22:
 1647              		.size	CyDmaTdGetAddress, .-CyDmaTdGetAddress
 1648 007a 00BF     		.text
 1649              	.Letext0: