ARM GAS  C:\DOCUME~1\akay\LOCALS~1\Temp\ccRDlamb.s 			page 1


   1              		.syntax unified
   2              		.cpu cortex-m3
   3              		.fpu softvfp
   4              		.eabi_attribute 20, 1
   5              		.eabi_attribute 21, 1
   6              		.eabi_attribute 23, 3
   7              		.eabi_attribute 24, 1
   8              		.eabi_attribute 25, 1
   9              		.eabi_attribute 26, 1
  10              		.eabi_attribute 30, 6
  11              		.eabi_attribute 18, 4
  12              		.thumb
  13              		.file	"CyFlash.c"
  20 0000 49010000 		.text
  20      02004600 
  20      00000201 
  20      FB0E0D00 
  20      01010101 
  21              	.Ltext0:
  22              		.cfi_sections	.debug_frame
  23              		.comm	dieTemperature,2,4
  24              		.bss
  25              		.align	2
  26              	rowBuffer:
  27 0000 00000000 		.space	4
  28              		.section	.text.CyFlash_Start,"ax",%progbits
  29              		.align	2
  30              		.global	CyFlash_Start
  31              		.thumb
  32              		.thumb_func
  33              		.type	CyFlash_Start, %function
  34              	CyFlash_Start:
  35              	.LFB0:
  36              		.file 1 "./Generated_Source/PSoC5/CyFlash.c"
   1:./Generated_Source/PSoC5/CyFlash.c **** /*******************************************************************************
   2:./Generated_Source/PSoC5/CyFlash.c **** * File Name: CyFlash.c  
   3:./Generated_Source/PSoC5/CyFlash.c **** * Version 2.0
   4:./Generated_Source/PSoC5/CyFlash.c **** *
   5:./Generated_Source/PSoC5/CyFlash.c **** *  Description:
   6:./Generated_Source/PSoC5/CyFlash.c **** *   Provides an API for the FLASH/EEPROM.
   7:./Generated_Source/PSoC5/CyFlash.c **** *
   8:./Generated_Source/PSoC5/CyFlash.c **** *  Note:
   9:./Generated_Source/PSoC5/CyFlash.c **** *   This code is endian agnostic.
  10:./Generated_Source/PSoC5/CyFlash.c **** *
  11:./Generated_Source/PSoC5/CyFlash.c **** *  Note: 
  12:./Generated_Source/PSoC5/CyFlash.c **** *   Documentation of the API's in this file is located in the
  13:./Generated_Source/PSoC5/CyFlash.c **** *   System Reference Guide provided with PSoC Creator.
  14:./Generated_Source/PSoC5/CyFlash.c **** *
  15:./Generated_Source/PSoC5/CyFlash.c **** *******************************************************************************
  16:./Generated_Source/PSoC5/CyFlash.c **** * Copyright 2008-2010, Cypress Semiconductor Corporation.  All rights reserved.
  17:./Generated_Source/PSoC5/CyFlash.c **** * You may use this file only in accordance with the license, terms, conditions, 
ARM GAS  C:\DOCUME~1\akay\LOCALS~1\Temp\ccRDlamb.s 			page 2


  18:./Generated_Source/PSoC5/CyFlash.c **** * disclaimers, and limitations in the end user license agreement accompanying 
  19:./Generated_Source/PSoC5/CyFlash.c **** * the software package with which this file was provided.
  20:./Generated_Source/PSoC5/CyFlash.c **** ********************************************************************************/
  21:./Generated_Source/PSoC5/CyFlash.c **** 
  22:./Generated_Source/PSoC5/CyFlash.c **** #include <Cydevice_trm.h>
  23:./Generated_Source/PSoC5/CyFlash.c **** #include "CYFLASH.H"
  24:./Generated_Source/PSoC5/CyFlash.c **** 
  25:./Generated_Source/PSoC5/CyFlash.c **** uint8 dieTemperature[2];
  26:./Generated_Source/PSoC5/CyFlash.c **** 
  27:./Generated_Source/PSoC5/CyFlash.c **** #if (CYDEV_ECC_ENABLE == 0)
  28:./Generated_Source/PSoC5/CyFlash.c ****     static uint8 * rowBuffer = 0;
  29:./Generated_Source/PSoC5/CyFlash.c **** #endif
  30:./Generated_Source/PSoC5/CyFlash.c **** 
  31:./Generated_Source/PSoC5/CyFlash.c **** 
  32:./Generated_Source/PSoC5/CyFlash.c **** /*******************************************************************************
  33:./Generated_Source/PSoC5/CyFlash.c **** * Function Name: CyFlash_Start
  34:./Generated_Source/PSoC5/CyFlash.c **** ********************************************************************************
  35:./Generated_Source/PSoC5/CyFlash.c **** *
  36:./Generated_Source/PSoC5/CyFlash.c **** * Summary:
  37:./Generated_Source/PSoC5/CyFlash.c **** *  Enable the EEPROM/Flash. In PSOC3_ES2/PSOC5_ES1, this will enable both
  38:./Generated_Source/PSoC5/CyFlash.c **** *  Flash and EEPROM. In PSOC3_ES3/PSOC5_ES2, this will enable only Flash.
  39:./Generated_Source/PSoC5/CyFlash.c **** *   
  40:./Generated_Source/PSoC5/CyFlash.c **** * Parameters:
  41:./Generated_Source/PSoC5/CyFlash.c **** *  void
  42:./Generated_Source/PSoC5/CyFlash.c **** * 
  43:./Generated_Source/PSoC5/CyFlash.c **** * Return:
  44:./Generated_Source/PSoC5/CyFlash.c **** *  void  
  45:./Generated_Source/PSoC5/CyFlash.c **** * 
  46:./Generated_Source/PSoC5/CyFlash.c **** * Reentrant
  47:./Generated_Source/PSoC5/CyFlash.c **** *  No
  48:./Generated_Source/PSoC5/CyFlash.c **** *
  49:./Generated_Source/PSoC5/CyFlash.c **** *******************************************************************************/
  50:./Generated_Source/PSoC5/CyFlash.c **** void CyFlash_Start(void) 
  51:./Generated_Source/PSoC5/CyFlash.c **** {
  37              		.loc 1 51 0
  38              		.cfi_startproc
  39              		@ args = 0, pretend = 0, frame = 0
  40              		@ frame_needed = 1, uses_anonymous_args = 0
  41              		@ link register save eliminated.
  42 0000 80B4     		push	{r7}
  43              	.LCFI0:
  44              		.cfi_def_cfa_offset 4
  45 0002 00AF     		add	r7, sp, #0
  46              		.cfi_offset 7, -4
  47              	.LCFI1:
  48              		.cfi_def_cfa_register 7
  52:./Generated_Source/PSoC5/CyFlash.c ****     #if (PSOC3_ES2 || PSOC5_ES1)
  53:./Generated_Source/PSoC5/CyFlash.c ****         /* Active Power Mode */
  54:./Generated_Source/PSoC5/CyFlash.c ****         *PM_ACT_EEFLASH |= PM_FLASH_EE_MASK;
  49              		.loc 1 54 0
  50 0004 44F2A033 		movw	r3, #:lower16:1073759136
  51 0008 C4F20003 		movt	r3, #:upper16:1073759136
  52 000c 44F2A032 		movw	r2, #:lower16:1073759136
  53 0010 C4F20002 		movt	r2, #:upper16:1073759136
  54 0014 1278     		ldrb	r2, [r2, #0]
  55 0016 D2B2     		uxtb	r2, r2
  56 0018 6FEA4262 		mvn	r2, r2, lsl #25
ARM GAS  C:\DOCUME~1\akay\LOCALS~1\Temp\ccRDlamb.s 			page 3


  57 001c 6FEA5262 		mvn	r2, r2, lsr #25
  58 0020 D2B2     		uxtb	r2, r2
  59 0022 1A70     		strb	r2, [r3, #0]
  55:./Generated_Source/PSoC5/CyFlash.c ****         /* Standby Power Mode */
  56:./Generated_Source/PSoC5/CyFlash.c ****         *PM_STBY_EEFLASH |= PM_FLASH_EE_MASK;
  60              		.loc 1 56 0
  61 0024 44F2B033 		movw	r3, #:lower16:1073759152
  62 0028 C4F20003 		movt	r3, #:upper16:1073759152
  63 002c 44F2B032 		movw	r2, #:lower16:1073759152
  64 0030 C4F20002 		movt	r2, #:upper16:1073759152
  65 0034 1278     		ldrb	r2, [r2, #0]
  66 0036 D2B2     		uxtb	r2, r2
  67 0038 6FEA4262 		mvn	r2, r2, lsl #25
  68 003c 6FEA5262 		mvn	r2, r2, lsr #25
  69 0040 D2B2     		uxtb	r2, r2
  70 0042 1A70     		strb	r2, [r3, #0]
  57:./Generated_Source/PSoC5/CyFlash.c ****     #endif
  58:./Generated_Source/PSoC5/CyFlash.c ****     
  59:./Generated_Source/PSoC5/CyFlash.c ****     #if (PSOC3_ES3 || PSOC5_ES2)
  60:./Generated_Source/PSoC5/CyFlash.c ****         /* Active Power Mode */
  61:./Generated_Source/PSoC5/CyFlash.c ****         *PM_ACT_FLASH_PTR |= PM_FLASH_MASK;
  62:./Generated_Source/PSoC5/CyFlash.c ****         /* Standby Power Mode */
  63:./Generated_Source/PSoC5/CyFlash.c ****         *PM_STBY_FLASH_PTR |= PM_FLASH_MASK;
  64:./Generated_Source/PSoC5/CyFlash.c ****     #endif
  65:./Generated_Source/PSoC5/CyFlash.c **** }
  71              		.loc 1 65 0
  72 0044 BD46     		mov	sp, r7
  73 0046 80BC     		pop	{r7}
  74 0048 7047     		bx	lr
  75              		.cfi_endproc
  76              	.LFE0:
  77              		.size	CyFlash_Start, .-CyFlash_Start
  78 004a 00BF     		.section	.text.CyFlash_Stop,"ax",%progbits
  79              		.align	2
  80              		.global	CyFlash_Stop
  81              		.thumb
  82              		.thumb_func
  83              		.type	CyFlash_Stop, %function
  84              	CyFlash_Stop:
  85              	.LFB1:
  66:./Generated_Source/PSoC5/CyFlash.c **** 
  67:./Generated_Source/PSoC5/CyFlash.c **** 
  68:./Generated_Source/PSoC5/CyFlash.c **** /*******************************************************************************
  69:./Generated_Source/PSoC5/CyFlash.c **** * Function Name: CyFlash_Stop
  70:./Generated_Source/PSoC5/CyFlash.c **** ********************************************************************************
  71:./Generated_Source/PSoC5/CyFlash.c **** *
  72:./Generated_Source/PSoC5/CyFlash.c **** * Summary:
  73:./Generated_Source/PSoC5/CyFlash.c **** *  Disable the EEPROM/Flash. In PSOC3_ES2/PSOC5_ES1, this will disable both
  74:./Generated_Source/PSoC5/CyFlash.c **** *  Flash and EEPROM. In PSOC3_ES3/PSOC5_ES2, this will disable only Flash.
  75:./Generated_Source/PSoC5/CyFlash.c **** *
  76:./Generated_Source/PSoC5/CyFlash.c **** * Parameters:
  77:./Generated_Source/PSoC5/CyFlash.c **** *  void
  78:./Generated_Source/PSoC5/CyFlash.c **** *
  79:./Generated_Source/PSoC5/CyFlash.c **** * Return:
  80:./Generated_Source/PSoC5/CyFlash.c **** *  void  
  81:./Generated_Source/PSoC5/CyFlash.c **** * 
  82:./Generated_Source/PSoC5/CyFlash.c **** * Side Effects:
ARM GAS  C:\DOCUME~1\akay\LOCALS~1\Temp\ccRDlamb.s 			page 4


  83:./Generated_Source/PSoC5/CyFlash.c **** *  This setting is ignored as long as the CPU is currently running.  This will 
  84:./Generated_Source/PSoC5/CyFlash.c **** *  only take effect when the CPU is later disabled.
  85:./Generated_Source/PSoC5/CyFlash.c **** *
  86:./Generated_Source/PSoC5/CyFlash.c **** * Reentrant
  87:./Generated_Source/PSoC5/CyFlash.c **** *  Yes
  88:./Generated_Source/PSoC5/CyFlash.c **** *
  89:./Generated_Source/PSoC5/CyFlash.c **** *******************************************************************************/
  90:./Generated_Source/PSoC5/CyFlash.c **** void CyFlash_Stop (void) 
  91:./Generated_Source/PSoC5/CyFlash.c **** {
  86              		.loc 1 91 0
  87              		.cfi_startproc
  88              		@ args = 0, pretend = 0, frame = 0
  89              		@ frame_needed = 1, uses_anonymous_args = 0
  90              		@ link register save eliminated.
  91 0000 80B4     		push	{r7}
  92              	.LCFI2:
  93              		.cfi_def_cfa_offset 4
  94 0002 00AF     		add	r7, sp, #0
  95              		.cfi_offset 7, -4
  96              	.LCFI3:
  97              		.cfi_def_cfa_register 7
  92:./Generated_Source/PSoC5/CyFlash.c ****     #if (PSOC3_ES2 || PSOC5_ES1)
  93:./Generated_Source/PSoC5/CyFlash.c ****         /* Active Power Mode */
  94:./Generated_Source/PSoC5/CyFlash.c ****         *PM_ACT_EEFLASH &= ~PM_FLASH_EE_MASK;
  98              		.loc 1 94 0
  99 0004 44F2A033 		movw	r3, #:lower16:1073759136
 100 0008 C4F20003 		movt	r3, #:upper16:1073759136
 101 000c 44F2A032 		movw	r2, #:lower16:1073759136
 102 0010 C4F20002 		movt	r2, #:upper16:1073759136
 103 0014 1278     		ldrb	r2, [r2, #0]
 104 0016 D2B2     		uxtb	r2, r2
 105 0018 02F07F02 		and	r2, r2, #127
 106 001c 1A70     		strb	r2, [r3, #0]
  95:./Generated_Source/PSoC5/CyFlash.c ****         /* Standby Power Mode */
  96:./Generated_Source/PSoC5/CyFlash.c ****         *PM_STBY_EEFLASH &= ~PM_FLASH_EE_MASK;
 107              		.loc 1 96 0
 108 001e 44F2B033 		movw	r3, #:lower16:1073759152
 109 0022 C4F20003 		movt	r3, #:upper16:1073759152
 110 0026 44F2B032 		movw	r2, #:lower16:1073759152
 111 002a C4F20002 		movt	r2, #:upper16:1073759152
 112 002e 1278     		ldrb	r2, [r2, #0]
 113 0030 D2B2     		uxtb	r2, r2
 114 0032 02F07F02 		and	r2, r2, #127
 115 0036 1A70     		strb	r2, [r3, #0]
  97:./Generated_Source/PSoC5/CyFlash.c ****     #endif
  98:./Generated_Source/PSoC5/CyFlash.c ****     
  99:./Generated_Source/PSoC5/CyFlash.c ****     #if (PSOC3_ES3 || PSOC5_ES2)
 100:./Generated_Source/PSoC5/CyFlash.c ****         /* Active Power Mode */
 101:./Generated_Source/PSoC5/CyFlash.c ****         *PM_ACT_FLASH_PTR &= ~PM_FLASH_MASK;
 102:./Generated_Source/PSoC5/CyFlash.c ****         /* Standby Power Mode */
 103:./Generated_Source/PSoC5/CyFlash.c ****         *PM_STBY_FLASH_PTR &= ~PM_FLASH_MASK;
 104:./Generated_Source/PSoC5/CyFlash.c ****     #endif
 105:./Generated_Source/PSoC5/CyFlash.c **** }
 116              		.loc 1 105 0
 117 0038 BD46     		mov	sp, r7
 118 003a 80BC     		pop	{r7}
 119 003c 7047     		bx	lr
ARM GAS  C:\DOCUME~1\akay\LOCALS~1\Temp\ccRDlamb.s 			page 5


 120              		.cfi_endproc
 121              	.LFE1:
 122              		.size	CyFlash_Stop, .-CyFlash_Stop
 123 003e 00BF     		.section	.text.CySetTemp,"ax",%progbits
 124              		.align	2
 125              		.global	CySetTemp
 126              		.thumb
 127              		.thumb_func
 128              		.type	CySetTemp, %function
 129              	CySetTemp:
 130              	.LFB2:
 106:./Generated_Source/PSoC5/CyFlash.c **** 
 107:./Generated_Source/PSoC5/CyFlash.c **** 
 108:./Generated_Source/PSoC5/CyFlash.c **** /*******************************************************************************
 109:./Generated_Source/PSoC5/CyFlash.c **** * Function Name: CySetTemp
 110:./Generated_Source/PSoC5/CyFlash.c **** ********************************************************************************
 111:./Generated_Source/PSoC5/CyFlash.c **** *
 112:./Generated_Source/PSoC5/CyFlash.c **** * Summary:
 113:./Generated_Source/PSoC5/CyFlash.c **** *  Sends a command to the SPC to read the die temperature. Sets a global value
 114:./Generated_Source/PSoC5/CyFlash.c **** *  used by the Write functions. This function must be called once before executing
 115:./Generated_Source/PSoC5/CyFlash.c **** *  a series of Flash writing functions.
 116:./Generated_Source/PSoC5/CyFlash.c **** 
 117:./Generated_Source/PSoC5/CyFlash.c **** *
 118:./Generated_Source/PSoC5/CyFlash.c **** * Parameters:
 119:./Generated_Source/PSoC5/CyFlash.c **** *  void
 120:./Generated_Source/PSoC5/CyFlash.c **** *
 121:./Generated_Source/PSoC5/CyFlash.c **** * Return:
 122:./Generated_Source/PSoC5/CyFlash.c **** *  status:
 123:./Generated_Source/PSoC5/CyFlash.c **** *   CYRET_SUCCESS if successful. The first byte is the sign of the temperature 
 124:./Generated_Source/PSoC5/CyFlash.c **** *   (0 = negative, 1 = positive).
 125:./Generated_Source/PSoC5/CyFlash.c **** *   The second byte is the magnitude.
 126:./Generated_Source/PSoC5/CyFlash.c **** *   CYRET_LOCKED if Flash writing already in use
 127:./Generated_Source/PSoC5/CyFlash.c **** *   CYRET_UNKNOWN if there was an SPC error.
 128:./Generated_Source/PSoC5/CyFlash.c **** *  
 129:./Generated_Source/PSoC5/CyFlash.c **** * Side Effects:
 130:./Generated_Source/PSoC5/CyFlash.c **** *  Execution of this function takes an extended period of time.
 131:./Generated_Source/PSoC5/CyFlash.c **** *
 132:./Generated_Source/PSoC5/CyFlash.c **** * Reentrant
 133:./Generated_Source/PSoC5/CyFlash.c **** *  Yes
 134:./Generated_Source/PSoC5/CyFlash.c **** *
 135:./Generated_Source/PSoC5/CyFlash.c **** *******************************************************************************/
 136:./Generated_Source/PSoC5/CyFlash.c **** cystatus CySetTemp(void) 
 137:./Generated_Source/PSoC5/CyFlash.c **** {
 131              		.loc 1 137 0
 132              		.cfi_startproc
 133              		@ args = 0, pretend = 0, frame = 8
 134              		@ frame_needed = 1, uses_anonymous_args = 0
 135 0000 80B5     		push	{r7, lr}
 136              	.LCFI4:
 137              		.cfi_def_cfa_offset 8
 138 0002 82B0     		sub	sp, sp, #8
 139              	.LCFI5:
 140              		.cfi_def_cfa_offset 16
 141 0004 00AF     		add	r7, sp, #0
 142              		.cfi_offset 14, -4
 143              		.cfi_offset 7, -8
 144              	.LCFI6:
ARM GAS  C:\DOCUME~1\akay\LOCALS~1\Temp\ccRDlamb.s 			page 6


 145              		.cfi_def_cfa_register 7
 138:./Generated_Source/PSoC5/CyFlash.c ****     uint8 ticks;
 139:./Generated_Source/PSoC5/CyFlash.c ****     cystatus status;
 140:./Generated_Source/PSoC5/CyFlash.c **** 
 141:./Generated_Source/PSoC5/CyFlash.c ****     /* Make sure SPC is powered. */
 142:./Generated_Source/PSoC5/CyFlash.c ****     CySpcActivePower(1);
 146              		.loc 1 142 0
 147 0006 4FF00100 		mov	r0, #1
 148 000a FFF7FEFF 		bl	CySpcActivePower
 143:./Generated_Source/PSoC5/CyFlash.c **** 
 144:./Generated_Source/PSoC5/CyFlash.c ****     /* Plan for failure. */
 145:./Generated_Source/PSoC5/CyFlash.c ****     status = CYRET_UNKNOWN;
 149              		.loc 1 145 0
 150 000e 4FF0FF33 		mov	r3, #-1
 151 0012 7B60     		str	r3, [r7, #4]
 146:./Generated_Source/PSoC5/CyFlash.c **** 
 147:./Generated_Source/PSoC5/CyFlash.c ****     /* See if we can get the SPC. */
 148:./Generated_Source/PSoC5/CyFlash.c ****     if(CySpcLock() == CYRET_SUCCESS)
 152              		.loc 1 148 0
 153 0014 FFF7FEFF 		bl	CySpcLock
 154 0018 0346     		mov	r3, r0
 155 001a 002B     		cmp	r3, #0
 156 001c 3DD1     		bne	.L6
 149:./Generated_Source/PSoC5/CyFlash.c ****     {
 150:./Generated_Source/PSoC5/CyFlash.c ****         /* Create the command. */
 151:./Generated_Source/PSoC5/CyFlash.c ****         if(CySpcCreateCmdGetTemp(TEMP_NUMBER_OF_SAMPLES, TEMP_TIMER_PERIOD, TEMP_CLK_DIV_SELECT) ==
 157              		.loc 1 151 0
 158 001e 4FF00100 		mov	r0, #1
 159 0022 40F6FF71 		movw	r1, #4095
 160 0026 4FF00402 		mov	r2, #4
 161 002a FFF7FEFF 		bl	CySpcCreateCmdGetTemp
 162 002e 0346     		mov	r3, r0
 163 0030 002B     		cmp	r3, #0
 164 0032 2FD1     		bne	.L7
 152:./Generated_Source/PSoC5/CyFlash.c ****         {
 153:./Generated_Source/PSoC5/CyFlash.c ****             /* Write the command. */
 154:./Generated_Source/PSoC5/CyFlash.c ****             if(CySpcWriteCommand(0, 0) == CYRET_STARTED)
 165              		.loc 1 154 0
 166 0034 4FF00000 		mov	r0, #0
 167 0038 4FF00001 		mov	r1, #0
 168 003c FFF7FEFF 		bl	CySpcWriteCommand
 169 0040 0346     		mov	r3, r0
 170 0042 072B     		cmp	r3, #7
 171 0044 26D1     		bne	.L7
 155:./Generated_Source/PSoC5/CyFlash.c ****             {
 156:./Generated_Source/PSoC5/CyFlash.c ****                 ticks = (uint8) TEMP_MAX_WAIT;
 172              		.loc 1 156 0
 173 0046 4FF06D03 		mov	r3, #109
 174 004a FB70     		strb	r3, [r7, #3]
 175              	.L9:
 157:./Generated_Source/PSoC5/CyFlash.c **** 
 158:./Generated_Source/PSoC5/CyFlash.c ****                 do
 159:./Generated_Source/PSoC5/CyFlash.c ****                 {
 160:./Generated_Source/PSoC5/CyFlash.c ****                     if(CySpcReadData(dieTemperature, 2) == 2)
 176              		.loc 1 160 0
 177 004c 40F20000 		movw	r0, #:lower16:dieTemperature
 178 0050 C0F20000 		movt	r0, #:upper16:dieTemperature
ARM GAS  C:\DOCUME~1\akay\LOCALS~1\Temp\ccRDlamb.s 			page 7


 179 0054 4FF00201 		mov	r1, #2
 180 0058 FFF7FEFF 		bl	CySpcReadData
 181 005c 0346     		mov	r3, r0
 182 005e 022B     		cmp	r3, #2
 183 0060 03D1     		bne	.L8
 161:./Generated_Source/PSoC5/CyFlash.c ****                     {
 162:./Generated_Source/PSoC5/CyFlash.c ****                         status = CYRET_SUCCESS;
 184              		.loc 1 162 0
 185 0062 4FF00003 		mov	r3, #0
 186 0066 7B60     		str	r3, [r7, #4]
 163:./Generated_Source/PSoC5/CyFlash.c ****                         break;
 187              		.loc 1 163 0
 188 0068 14E0     		b	.L7
 189              	.L8:
 164:./Generated_Source/PSoC5/CyFlash.c ****                     }
 165:./Generated_Source/PSoC5/CyFlash.c ****                     
 166:./Generated_Source/PSoC5/CyFlash.c ****                     /* Wait for the reading to come in. */
 167:./Generated_Source/PSoC5/CyFlash.c ****                     CyDelay(1);
 190              		.loc 1 167 0
 191 006a 4FF00100 		mov	r0, #1
 192 006e FFF7FEFF 		bl	CyDelay
 168:./Generated_Source/PSoC5/CyFlash.c ****                     ticks--;
 193              		.loc 1 168 0
 194 0072 FB78     		ldrb	r3, [r7, #3]
 195 0074 03F1FF33 		add	r3, r3, #-1
 196 0078 FB70     		strb	r3, [r7, #3]
 169:./Generated_Source/PSoC5/CyFlash.c **** 
 170:./Generated_Source/PSoC5/CyFlash.c ****                 } while(ticks && !(*SPC_STATUS & SPC_SPC_IDLE));
 197              		.loc 1 170 0
 198 007a FB78     		ldrb	r3, [r7, #3]	@ zero_extendqisi2
 199 007c 002B     		cmp	r3, #0
 200 007e 09D0     		beq	.L7
 201 0080 44F22273 		movw	r3, #:lower16:1073760034
 202 0084 C4F20003 		movt	r3, #:upper16:1073760034
 203 0088 1B78     		ldrb	r3, [r3, #0]
 204 008a DBB2     		uxtb	r3, r3
 205 008c 03F00203 		and	r3, r3, #2
 206 0090 002B     		cmp	r3, #0
 207 0092 DBD0     		beq	.L9
 208              	.L7:
 171:./Generated_Source/PSoC5/CyFlash.c ****             }
 172:./Generated_Source/PSoC5/CyFlash.c ****         }
 173:./Generated_Source/PSoC5/CyFlash.c **** 
 174:./Generated_Source/PSoC5/CyFlash.c ****         /* Unlock the SPC so someone else can use it. */
 175:./Generated_Source/PSoC5/CyFlash.c ****         CySpcUnlock();
 209              		.loc 1 175 0
 210 0094 FFF7FEFF 		bl	CySpcUnlock
 211 0098 02E0     		b	.L10
 212              	.L6:
 176:./Generated_Source/PSoC5/CyFlash.c ****     }
 177:./Generated_Source/PSoC5/CyFlash.c ****     else
 178:./Generated_Source/PSoC5/CyFlash.c ****     {
 179:./Generated_Source/PSoC5/CyFlash.c ****         status = CYRET_LOCKED;
 213              		.loc 1 179 0
 214 009a 4FF00403 		mov	r3, #4
 215 009e 7B60     		str	r3, [r7, #4]
 216              	.L10:
ARM GAS  C:\DOCUME~1\akay\LOCALS~1\Temp\ccRDlamb.s 			page 8


 180:./Generated_Source/PSoC5/CyFlash.c ****     }
 181:./Generated_Source/PSoC5/CyFlash.c **** 
 182:./Generated_Source/PSoC5/CyFlash.c ****     return status;
 217              		.loc 1 182 0
 218 00a0 7B68     		ldr	r3, [r7, #4]
 183:./Generated_Source/PSoC5/CyFlash.c **** }
 219              		.loc 1 183 0
 220 00a2 1846     		mov	r0, r3
 221 00a4 07F10807 		add	r7, r7, #8
 222 00a8 BD46     		mov	sp, r7
 223 00aa 80BD     		pop	{r7, pc}
 224              		.cfi_endproc
 225              	.LFE2:
 226              		.size	CySetTemp, .-CySetTemp
 227              		.section	.text.CySetFlashEEBuffer,"ax",%progbits
 228              		.align	2
 229              		.global	CySetFlashEEBuffer
 230              		.thumb
 231              		.thumb_func
 232              		.type	CySetFlashEEBuffer, %function
 233              	CySetFlashEEBuffer:
 234              	.LFB3:
 184:./Generated_Source/PSoC5/CyFlash.c **** 
 185:./Generated_Source/PSoC5/CyFlash.c **** 
 186:./Generated_Source/PSoC5/CyFlash.c **** /*******************************************************************************
 187:./Generated_Source/PSoC5/CyFlash.c **** * Function Name: CySetFlashEEBuffer
 188:./Generated_Source/PSoC5/CyFlash.c **** ********************************************************************************
 189:./Generated_Source/PSoC5/CyFlash.c **** *
 190:./Generated_Source/PSoC5/CyFlash.c **** * Summary:
 191:./Generated_Source/PSoC5/CyFlash.c **** *  Sets the user supplied temporary buffer to store SPC data while performing
 192:./Generated_Source/PSoC5/CyFlash.c **** *  flash and EEPROM commands. This buffer is only necessary when Flash ECC is 
 193:./Generated_Source/PSoC5/CyFlash.c **** *  disabled.
 194:./Generated_Source/PSoC5/CyFlash.c **** *
 195:./Generated_Source/PSoC5/CyFlash.c **** *
 196:./Generated_Source/PSoC5/CyFlash.c **** * Parameters:
 197:./Generated_Source/PSoC5/CyFlash.c **** *  buffer:
 198:./Generated_Source/PSoC5/CyFlash.c **** *       Address of block of memory to store temporary memory. The size of the
 199:./Generated_Source/PSoC5/CyFlash.c **** *       block of memory is SIZEOF_FLASH_ROW + SIZEOF_ECC_ROW.
 200:./Generated_Source/PSoC5/CyFlash.c **** *   
 201:./Generated_Source/PSoC5/CyFlash.c **** * Return:
 202:./Generated_Source/PSoC5/CyFlash.c **** *  status:
 203:./Generated_Source/PSoC5/CyFlash.c **** *   CYRET_SUCCESS if successful.
 204:./Generated_Source/PSoC5/CyFlash.c **** *   CYRET_LOCKED if the SPC is already in use.
 205:./Generated_Source/PSoC5/CyFlash.c **** *
 206:./Generated_Source/PSoC5/CyFlash.c **** * Reentrant
 207:./Generated_Source/PSoC5/CyFlash.c **** *  Yes
 208:./Generated_Source/PSoC5/CyFlash.c **** *
 209:./Generated_Source/PSoC5/CyFlash.c **** *******************************************************************************/
 210:./Generated_Source/PSoC5/CyFlash.c **** cystatus CySetFlashEEBuffer(uint8 * buffer) 
 211:./Generated_Source/PSoC5/CyFlash.c **** {
 235              		.loc 1 211 0
 236              		.cfi_startproc
 237              		@ args = 0, pretend = 0, frame = 16
 238              		@ frame_needed = 1, uses_anonymous_args = 0
 239 0000 80B5     		push	{r7, lr}
 240              	.LCFI7:
 241              		.cfi_def_cfa_offset 8
ARM GAS  C:\DOCUME~1\akay\LOCALS~1\Temp\ccRDlamb.s 			page 9


 242 0002 84B0     		sub	sp, sp, #16
 243              	.LCFI8:
 244              		.cfi_def_cfa_offset 24
 245 0004 00AF     		add	r7, sp, #0
 246              		.cfi_offset 14, -4
 247              		.cfi_offset 7, -8
 248              	.LCFI9:
 249              		.cfi_def_cfa_register 7
 250 0006 7860     		str	r0, [r7, #4]
 212:./Generated_Source/PSoC5/CyFlash.c ****     cystatus status;
 213:./Generated_Source/PSoC5/CyFlash.c **** 
 214:./Generated_Source/PSoC5/CyFlash.c ****     /* Make sure SPC is powerd. */
 215:./Generated_Source/PSoC5/CyFlash.c ****     CySpcActivePower(1);
 251              		.loc 1 215 0
 252 0008 4FF00100 		mov	r0, #1
 253 000c FFF7FEFF 		bl	CySpcActivePower
 216:./Generated_Source/PSoC5/CyFlash.c **** 
 217:./Generated_Source/PSoC5/CyFlash.c ****     if(!buffer)
 254              		.loc 1 217 0
 255 0010 7B68     		ldr	r3, [r7, #4]
 256 0012 002B     		cmp	r3, #0
 257 0014 03D1     		bne	.L13
 218:./Generated_Source/PSoC5/CyFlash.c ****     {
 219:./Generated_Source/PSoC5/CyFlash.c ****         status = CYRET_BAD_PARAM;
 258              		.loc 1 219 0
 259 0016 4FF00103 		mov	r3, #1
 260 001a FB60     		str	r3, [r7, #12]
 261 001c 13E0     		b	.L14
 262              	.L13:
 220:./Generated_Source/PSoC5/CyFlash.c ****     }
 221:./Generated_Source/PSoC5/CyFlash.c ****     /* See if we can get the SPC. */
 222:./Generated_Source/PSoC5/CyFlash.c ****     else if(CySpcLock() != CYRET_SUCCESS)
 263              		.loc 1 222 0
 264 001e FFF7FEFF 		bl	CySpcLock
 265 0022 0346     		mov	r3, r0
 266 0024 002B     		cmp	r3, #0
 267 0026 03D0     		beq	.L15
 223:./Generated_Source/PSoC5/CyFlash.c ****     {
 224:./Generated_Source/PSoC5/CyFlash.c ****         status = CYRET_LOCKED;
 268              		.loc 1 224 0
 269 0028 4FF00403 		mov	r3, #4
 270 002c FB60     		str	r3, [r7, #12]
 271 002e 0AE0     		b	.L14
 272              	.L15:
 225:./Generated_Source/PSoC5/CyFlash.c ****     }
 226:./Generated_Source/PSoC5/CyFlash.c ****     else
 227:./Generated_Source/PSoC5/CyFlash.c ****     {
 228:./Generated_Source/PSoC5/CyFlash.c ****         #if (CYDEV_ECC_ENABLE == 0)
 229:./Generated_Source/PSoC5/CyFlash.c ****             rowBuffer = buffer;
 273              		.loc 1 229 0
 274 0030 40F20003 		movw	r3, #:lower16:rowBuffer
 275 0034 C0F20003 		movt	r3, #:upper16:rowBuffer
 276 0038 7A68     		ldr	r2, [r7, #4]
 277 003a 1A60     		str	r2, [r3, #0]
 230:./Generated_Source/PSoC5/CyFlash.c ****         #endif
 231:./Generated_Source/PSoC5/CyFlash.c ****         status = CYRET_SUCCESS;
 278              		.loc 1 231 0
ARM GAS  C:\DOCUME~1\akay\LOCALS~1\Temp\ccRDlamb.s 			page 10


 279 003c 4FF00003 		mov	r3, #0
 280 0040 FB60     		str	r3, [r7, #12]
 232:./Generated_Source/PSoC5/CyFlash.c **** 
 233:./Generated_Source/PSoC5/CyFlash.c ****         /* Unlock the SPC so someone else can use it. */
 234:./Generated_Source/PSoC5/CyFlash.c ****         CySpcUnlock();
 281              		.loc 1 234 0
 282 0042 FFF7FEFF 		bl	CySpcUnlock
 283              	.L14:
 235:./Generated_Source/PSoC5/CyFlash.c ****     }
 236:./Generated_Source/PSoC5/CyFlash.c **** 
 237:./Generated_Source/PSoC5/CyFlash.c ****     return status;
 284              		.loc 1 237 0
 285 0046 FB68     		ldr	r3, [r7, #12]
 238:./Generated_Source/PSoC5/CyFlash.c **** }
 286              		.loc 1 238 0
 287 0048 1846     		mov	r0, r3
 288 004a 07F11007 		add	r7, r7, #16
 289 004e BD46     		mov	sp, r7
 290 0050 80BD     		pop	{r7, pc}
 291              		.cfi_endproc
 292              	.LFE3:
 293              		.size	CySetFlashEEBuffer, .-CySetFlashEEBuffer
 294 0052 00BF     		.section	.text.CyWriteRowData,"ax",%progbits
 295              		.align	2
 296              		.global	CyWriteRowData
 297              		.thumb
 298              		.thumb_func
 299              		.type	CyWriteRowData, %function
 300              	CyWriteRowData:
 301              	.LFB4:
 239:./Generated_Source/PSoC5/CyFlash.c **** 
 240:./Generated_Source/PSoC5/CyFlash.c ****                       
 241:./Generated_Source/PSoC5/CyFlash.c **** #if (CYDEV_ECC_ENABLE == 1)
 242:./Generated_Source/PSoC5/CyFlash.c **** 
 243:./Generated_Source/PSoC5/CyFlash.c **** /*******************************************************************************
 244:./Generated_Source/PSoC5/CyFlash.c **** * Function Name: CyWriteRowData
 245:./Generated_Source/PSoC5/CyFlash.c **** ********************************************************************************
 246:./Generated_Source/PSoC5/CyFlash.c **** *
 247:./Generated_Source/PSoC5/CyFlash.c **** * Summary:
 248:./Generated_Source/PSoC5/CyFlash.c **** *   Sends a command to the SPC to load and program a row of data in flash.
 249:./Generated_Source/PSoC5/CyFlash.c **** *
 250:./Generated_Source/PSoC5/CyFlash.c **** *
 251:./Generated_Source/PSoC5/CyFlash.c **** * Parameters:
 252:./Generated_Source/PSoC5/CyFlash.c **** *  arrayID: 
 253:./Generated_Source/PSoC5/CyFlash.c **** *   ID of the array to write.
 254:./Generated_Source/PSoC5/CyFlash.c **** *  rowAddress:
 255:./Generated_Source/PSoC5/CyFlash.c **** *   rowAddress of flash row to program.
 256:./Generated_Source/PSoC5/CyFlash.c **** *  rowData:
 257:./Generated_Source/PSoC5/CyFlash.c **** *   Array of bytes to write.
 258:./Generated_Source/PSoC5/CyFlash.c **** * 
 259:./Generated_Source/PSoC5/CyFlash.c **** * Return:
 260:./Generated_Source/PSoC5/CyFlash.c **** *  status:
 261:./Generated_Source/PSoC5/CyFlash.c **** *   CYRET_SUCCESS if successful.
 262:./Generated_Source/PSoC5/CyFlash.c **** *   CYRET_LOCKED if the SPC is already in use.
 263:./Generated_Source/PSoC5/CyFlash.c **** *   CYRET_CANCELED if command not accepted
 264:./Generated_Source/PSoC5/CyFlash.c **** *   CYRET_UNKNOWN if there was an SPC error.
 265:./Generated_Source/PSoC5/CyFlash.c **** *
ARM GAS  C:\DOCUME~1\akay\LOCALS~1\Temp\ccRDlamb.s 			page 11


 266:./Generated_Source/PSoC5/CyFlash.c **** * Reentrant
 267:./Generated_Source/PSoC5/CyFlash.c **** *  Yes
 268:./Generated_Source/PSoC5/CyFlash.c **** *
 269:./Generated_Source/PSoC5/CyFlash.c **** *******************************************************************************/
 270:./Generated_Source/PSoC5/CyFlash.c **** cystatus CyWriteRowData(uint8 arrayId, uint16 rowAddress, uint8 * rowData) 
 271:./Generated_Source/PSoC5/CyFlash.c **** {
 272:./Generated_Source/PSoC5/CyFlash.c ****     uint16 rowSize;
 273:./Generated_Source/PSoC5/CyFlash.c ****     cystatus status;
 274:./Generated_Source/PSoC5/CyFlash.c **** 
 275:./Generated_Source/PSoC5/CyFlash.c ****     rowSize = (arrayId > LAST_FLASH_ARRAYID) ? SIZEOF_EEPROM_ROW : SIZEOF_FLASH_ROW;
 276:./Generated_Source/PSoC5/CyFlash.c **** 
 277:./Generated_Source/PSoC5/CyFlash.c ****     status = CyWriteRowFull(arrayId, rowAddress, rowData, rowSize);
 278:./Generated_Source/PSoC5/CyFlash.c ****     return status;
 279:./Generated_Source/PSoC5/CyFlash.c **** }
 280:./Generated_Source/PSoC5/CyFlash.c **** 
 281:./Generated_Source/PSoC5/CyFlash.c **** #else /* CYDEV_ECC_ENABLE == 0 */
 282:./Generated_Source/PSoC5/CyFlash.c **** 
 283:./Generated_Source/PSoC5/CyFlash.c **** /*******************************************************************************
 284:./Generated_Source/PSoC5/CyFlash.c **** * Function Name: CyWriteRowData
 285:./Generated_Source/PSoC5/CyFlash.c **** ********************************************************************************
 286:./Generated_Source/PSoC5/CyFlash.c **** *
 287:./Generated_Source/PSoC5/CyFlash.c **** * Summary:
 288:./Generated_Source/PSoC5/CyFlash.c **** *   Sends a command to the SPC to load and program a row of data in flash.
 289:./Generated_Source/PSoC5/CyFlash.c **** *
 290:./Generated_Source/PSoC5/CyFlash.c **** *
 291:./Generated_Source/PSoC5/CyFlash.c **** * Parameters:
 292:./Generated_Source/PSoC5/CyFlash.c **** *  arrayID: 
 293:./Generated_Source/PSoC5/CyFlash.c **** *   ID of the array to write.
 294:./Generated_Source/PSoC5/CyFlash.c **** *  rowAddress:
 295:./Generated_Source/PSoC5/CyFlash.c **** *   rowAddress of flash row to program.
 296:./Generated_Source/PSoC5/CyFlash.c **** *  rowData:
 297:./Generated_Source/PSoC5/CyFlash.c **** *   Array of bytes to write.
 298:./Generated_Source/PSoC5/CyFlash.c **** * 
 299:./Generated_Source/PSoC5/CyFlash.c **** * Return:
 300:./Generated_Source/PSoC5/CyFlash.c **** *  status:
 301:./Generated_Source/PSoC5/CyFlash.c **** *   CYRET_SUCCESS if successful.
 302:./Generated_Source/PSoC5/CyFlash.c **** *   CYRET_LOCKED if the SPC is already in use.
 303:./Generated_Source/PSoC5/CyFlash.c **** *   CYRET_CANCELED if command not accepted
 304:./Generated_Source/PSoC5/CyFlash.c **** *   CYRET_UNKNOWN if there was an SPC error.
 305:./Generated_Source/PSoC5/CyFlash.c **** *
 306:./Generated_Source/PSoC5/CyFlash.c **** * Reentrant
 307:./Generated_Source/PSoC5/CyFlash.c **** *  Yes
 308:./Generated_Source/PSoC5/CyFlash.c **** *
 309:./Generated_Source/PSoC5/CyFlash.c **** *******************************************************************************/
 310:./Generated_Source/PSoC5/CyFlash.c **** cystatus CyWriteRowData(uint8 arrayId, uint16 rowAddress, uint8 * rowData) 
 311:./Generated_Source/PSoC5/CyFlash.c **** {
 302              		.loc 1 311 0
 303              		.cfi_startproc
 304              		@ args = 0, pretend = 0, frame = 24
 305              		@ frame_needed = 1, uses_anonymous_args = 0
 306 0000 80B5     		push	{r7, lr}
 307              	.LCFI10:
 308              		.cfi_def_cfa_offset 8
 309 0002 86B0     		sub	sp, sp, #24
 310              	.LCFI11:
 311              		.cfi_def_cfa_offset 32
 312 0004 00AF     		add	r7, sp, #0
ARM GAS  C:\DOCUME~1\akay\LOCALS~1\Temp\ccRDlamb.s 			page 12


 313              		.cfi_offset 14, -4
 314              		.cfi_offset 7, -8
 315              	.LCFI12:
 316              		.cfi_def_cfa_register 7
 317 0006 0B46     		mov	r3, r1
 318 0008 3A60     		str	r2, [r7, #0]
 319 000a 0246     		mov	r2, r0
 320 000c FA71     		strb	r2, [r7, #7]
 321 000e BB80     		strh	r3, [r7, #4]	@ movhi
 312:./Generated_Source/PSoC5/CyFlash.c ****     uint8 index;
 313:./Generated_Source/PSoC5/CyFlash.c ****     uint32 offset;
 314:./Generated_Source/PSoC5/CyFlash.c ****     uint16 rowSize;
 315:./Generated_Source/PSoC5/CyFlash.c ****     cystatus status;
 316:./Generated_Source/PSoC5/CyFlash.c **** 
 317:./Generated_Source/PSoC5/CyFlash.c ****     rowSize = (arrayId > LAST_FLASH_ARRAYID) ? SIZEOF_EEPROM_ROW : (SIZEOF_FLASH_ROW + SIZEOF_ECC_R
 322              		.loc 1 317 0
 323 0010 FB79     		ldrb	r3, [r7, #7]	@ zero_extendqisi2
 324 0012 3F2B     		cmp	r3, #63
 325 0014 02D9     		bls	.L18
 326 0016 4FF01003 		mov	r3, #16
 327 001a 01E0     		b	.L19
 328              	.L18:
 329 001c 4FF49073 		mov	r3, #288
 330              	.L19:
 331 0020 7B82     		strh	r3, [r7, #18]	@ movhi
 318:./Generated_Source/PSoC5/CyFlash.c **** 
 319:./Generated_Source/PSoC5/CyFlash.c ****     if (rowSize != SIZEOF_EEPROM_ROW)
 332              		.loc 1 319 0
 333 0022 7B8A     		ldrh	r3, [r7, #18]
 334 0024 102B     		cmp	r3, #16
 335 0026 1FD0     		beq	.L20
 320:./Generated_Source/PSoC5/CyFlash.c ****     {
 321:./Generated_Source/PSoC5/CyFlash.c ****         /* Save the ECC area. */
 322:./Generated_Source/PSoC5/CyFlash.c ****         offset = CYDEV_ECC_BASE + ((uint32) rowAddress * SIZEOF_ECC_ROW);
 336              		.loc 1 322 0
 337 0028 BB88     		ldrh	r3, [r7, #4]
 338 002a 03F11073 		add	r3, r3, #37748736
 339 002e 4FEA4313 		lsl	r3, r3, #5
 340 0032 FB60     		str	r3, [r7, #12]
 323:./Generated_Source/PSoC5/CyFlash.c ****         for (index = 0; index < SIZEOF_ECC_ROW; index++)
 341              		.loc 1 323 0
 342 0034 4FF00003 		mov	r3, #0
 343 0038 FB72     		strb	r3, [r7, #11]
 344 003a 12E0     		b	.L21
 345              	.L22:
 324:./Generated_Source/PSoC5/CyFlash.c ****         {
 325:./Generated_Source/PSoC5/CyFlash.c ****             rowBuffer[SIZEOF_FLASH_ROW + index] = CY_GET_XTND_REG8((void CYFAR *)(offset + index));
 346              		.loc 1 325 0
 347 003c 40F20003 		movw	r3, #:lower16:rowBuffer
 348 0040 C0F20003 		movt	r3, #:upper16:rowBuffer
 349 0044 1A68     		ldr	r2, [r3, #0]
 350 0046 FB7A     		ldrb	r3, [r7, #11]	@ zero_extendqisi2
 351 0048 03F58073 		add	r3, r3, #256
 352 004c 1344     		add	r3, r2, r3
 353 004e F97A     		ldrb	r1, [r7, #11]	@ zero_extendqisi2
 354 0050 FA68     		ldr	r2, [r7, #12]
 355 0052 0A44     		add	r2, r1, r2
ARM GAS  C:\DOCUME~1\akay\LOCALS~1\Temp\ccRDlamb.s 			page 13


 356 0054 1278     		ldrb	r2, [r2, #0]
 357 0056 D2B2     		uxtb	r2, r2
 358 0058 1A70     		strb	r2, [r3, #0]
 359              		.loc 1 323 0
 360 005a FB7A     		ldrb	r3, [r7, #11]
 361 005c 03F10103 		add	r3, r3, #1
 362 0060 FB72     		strb	r3, [r7, #11]
 363              	.L21:
 364 0062 FB7A     		ldrb	r3, [r7, #11]	@ zero_extendqisi2
 365 0064 1F2B     		cmp	r3, #31
 366 0066 E9D9     		bls	.L22
 367              	.L20:
 326:./Generated_Source/PSoC5/CyFlash.c ****         }
 327:./Generated_Source/PSoC5/CyFlash.c ****     }
 328:./Generated_Source/PSoC5/CyFlash.c **** 
 329:./Generated_Source/PSoC5/CyFlash.c ****     /* Copy the rowdata to the temporary buffer. */
 330:./Generated_Source/PSoC5/CyFlash.c ****     cymemcpy(rowBuffer, rowData, SIZEOF_FLASH_ROW);
 368              		.loc 1 330 0
 369 0068 40F20003 		movw	r3, #:lower16:rowBuffer
 370 006c C0F20003 		movt	r3, #:upper16:rowBuffer
 371 0070 1B68     		ldr	r3, [r3, #0]
 372 0072 1846     		mov	r0, r3
 373 0074 3968     		ldr	r1, [r7, #0]
 374 0076 4FF48072 		mov	r2, #256
 375 007a FFF7FEFF 		bl	memcpy
 331:./Generated_Source/PSoC5/CyFlash.c **** 
 332:./Generated_Source/PSoC5/CyFlash.c ****     status = CyWriteRowFull(arrayId, rowAddress, rowBuffer, rowSize);
 376              		.loc 1 332 0
 377 007e 40F20003 		movw	r3, #:lower16:rowBuffer
 378 0082 C0F20003 		movt	r3, #:upper16:rowBuffer
 379 0086 1A68     		ldr	r2, [r3, #0]
 380 0088 F879     		ldrb	r0, [r7, #7]	@ zero_extendqisi2
 381 008a B988     		ldrh	r1, [r7, #4]
 382 008c 7B8A     		ldrh	r3, [r7, #18]
 383 008e FFF7FEFF 		bl	CyWriteRowFull
 384 0092 0346     		mov	r3, r0
 385 0094 7B61     		str	r3, [r7, #20]
 333:./Generated_Source/PSoC5/CyFlash.c ****     return status;
 386              		.loc 1 333 0
 387 0096 7B69     		ldr	r3, [r7, #20]
 334:./Generated_Source/PSoC5/CyFlash.c **** }
 388              		.loc 1 334 0
 389 0098 1846     		mov	r0, r3
 390 009a 07F11807 		add	r7, r7, #24
 391 009e BD46     		mov	sp, r7
 392 00a0 80BD     		pop	{r7, pc}
 393              		.cfi_endproc
 394              	.LFE4:
 395              		.size	CyWriteRowData, .-CyWriteRowData
 396 00a2 00BF     		.section	.text.CyWriteRowConfig,"ax",%progbits
 397              		.align	2
 398              		.global	CyWriteRowConfig
 399              		.thumb
 400              		.thumb_func
 401              		.type	CyWriteRowConfig, %function
 402              	CyWriteRowConfig:
 403              	.LFB5:
ARM GAS  C:\DOCUME~1\akay\LOCALS~1\Temp\ccRDlamb.s 			page 14


 335:./Generated_Source/PSoC5/CyFlash.c **** 
 336:./Generated_Source/PSoC5/CyFlash.c **** #endif /* CYDEV_ECC_ENABLE == 0 */
 337:./Generated_Source/PSoC5/CyFlash.c **** 
 338:./Generated_Source/PSoC5/CyFlash.c **** #if (CYDEV_ECC_ENABLE == 0 && CYDEV_CONFIGURATION_ECC == 0)
 339:./Generated_Source/PSoC5/CyFlash.c **** 
 340:./Generated_Source/PSoC5/CyFlash.c **** /*******************************************************************************
 341:./Generated_Source/PSoC5/CyFlash.c **** * Function Name: CyWriteRowConfig
 342:./Generated_Source/PSoC5/CyFlash.c **** ********************************************************************************
 343:./Generated_Source/PSoC5/CyFlash.c **** *
 344:./Generated_Source/PSoC5/CyFlash.c **** * Summary:
 345:./Generated_Source/PSoC5/CyFlash.c **** *  Sends a command to the SPC to load and program a row of config data in flash.
 346:./Generated_Source/PSoC5/CyFlash.c **** *  This function is only valid for Flash array IDs (not for EEPROM).
 347:./Generated_Source/PSoC5/CyFlash.c **** *
 348:./Generated_Source/PSoC5/CyFlash.c **** *
 349:./Generated_Source/PSoC5/CyFlash.c **** * Parameters:
 350:./Generated_Source/PSoC5/CyFlash.c **** *  arrayId:
 351:./Generated_Source/PSoC5/CyFlash.c **** *   ID of the array to write
 352:./Generated_Source/PSoC5/CyFlash.c **** *  rowAddress:
 353:./Generated_Source/PSoC5/CyFlash.c **** *   Address of the sector to erase.
 354:./Generated_Source/PSoC5/CyFlash.c **** *  rowData:  
 355:./Generated_Source/PSoC5/CyFlash.c **** *   Array of bytes to write.
 356:./Generated_Source/PSoC5/CyFlash.c **** *   
 357:./Generated_Source/PSoC5/CyFlash.c **** * Return:
 358:./Generated_Source/PSoC5/CyFlash.c **** *  status:
 359:./Generated_Source/PSoC5/CyFlash.c **** *   CYRET_SUCCESS if successful.
 360:./Generated_Source/PSoC5/CyFlash.c **** *   CYRET_LOCKED if the SPC is already in use.
 361:./Generated_Source/PSoC5/CyFlash.c **** *   CYRET_CANCELED if command not accepted
 362:./Generated_Source/PSoC5/CyFlash.c **** *   CYRET_UNKNOWN if there was an SPC error.
 363:./Generated_Source/PSoC5/CyFlash.c **** *
 364:./Generated_Source/PSoC5/CyFlash.c **** * Reentrant
 365:./Generated_Source/PSoC5/CyFlash.c **** *  Yes
 366:./Generated_Source/PSoC5/CyFlash.c **** *
 367:./Generated_Source/PSoC5/CyFlash.c **** *******************************************************************************/
 368:./Generated_Source/PSoC5/CyFlash.c **** cystatus CyWriteRowConfig(uint8 arrayId, uint16 rowAddress, uint8 * rowData) 
 369:./Generated_Source/PSoC5/CyFlash.c **** {
 404              		.loc 1 369 0
 405              		.cfi_startproc
 406              		@ args = 0, pretend = 0, frame = 24
 407              		@ frame_needed = 1, uses_anonymous_args = 0
 408 0000 80B5     		push	{r7, lr}
 409              	.LCFI13:
 410              		.cfi_def_cfa_offset 8
 411 0002 86B0     		sub	sp, sp, #24
 412              	.LCFI14:
 413              		.cfi_def_cfa_offset 32
 414 0004 00AF     		add	r7, sp, #0
 415              		.cfi_offset 14, -4
 416              		.cfi_offset 7, -8
 417              	.LCFI15:
 418              		.cfi_def_cfa_register 7
 419 0006 0B46     		mov	r3, r1
 420 0008 3A60     		str	r2, [r7, #0]
 421 000a 0246     		mov	r2, r0
 422 000c FA71     		strb	r2, [r7, #7]
 423 000e BB80     		strh	r3, [r7, #4]	@ movhi
 370:./Generated_Source/PSoC5/CyFlash.c ****     uint32 offset;
 371:./Generated_Source/PSoC5/CyFlash.c ****     uint16 index;
ARM GAS  C:\DOCUME~1\akay\LOCALS~1\Temp\ccRDlamb.s 			page 15


 372:./Generated_Source/PSoC5/CyFlash.c ****     cystatus status;
 373:./Generated_Source/PSoC5/CyFlash.c **** 
 374:./Generated_Source/PSoC5/CyFlash.c ****     /* Read the existing flash data. */
 375:./Generated_Source/PSoC5/CyFlash.c ****     offset = CYDEV_FLS_BASE + ((uint32) rowAddress * SIZEOF_FLASH_ROW);
 424              		.loc 1 375 0
 425 0010 BB88     		ldrh	r3, [r7, #4]
 426 0012 4FEA0323 		lsl	r3, r3, #8
 427 0016 FB60     		str	r3, [r7, #12]
 376:./Generated_Source/PSoC5/CyFlash.c ****     for (index = 0; index < SIZEOF_FLASH_ROW; index++)
 428              		.loc 1 376 0
 429 0018 4FF00003 		mov	r3, #0
 430 001c 7B82     		strh	r3, [r7, #18]	@ movhi
 431 001e 10E0     		b	.L25
 432              	.L26:
 377:./Generated_Source/PSoC5/CyFlash.c ****     {
 378:./Generated_Source/PSoC5/CyFlash.c ****         rowBuffer[index] = CY_GET_XTND_REG8((void CYFAR *)(offset + index));
 433              		.loc 1 378 0
 434 0020 40F20003 		movw	r3, #:lower16:rowBuffer
 435 0024 C0F20003 		movt	r3, #:upper16:rowBuffer
 436 0028 1A68     		ldr	r2, [r3, #0]
 437 002a 7B8A     		ldrh	r3, [r7, #18]
 438 002c 1344     		add	r3, r2, r3
 439 002e 798A     		ldrh	r1, [r7, #18]
 440 0030 FA68     		ldr	r2, [r7, #12]
 441 0032 0A44     		add	r2, r1, r2
 442 0034 1278     		ldrb	r2, [r2, #0]
 443 0036 D2B2     		uxtb	r2, r2
 444 0038 1A70     		strb	r2, [r3, #0]
 445              		.loc 1 376 0
 446 003a 7B8A     		ldrh	r3, [r7, #18]	@ movhi
 447 003c 03F10103 		add	r3, r3, #1
 448 0040 7B82     		strh	r3, [r7, #18]	@ movhi
 449              	.L25:
 450 0042 7B8A     		ldrh	r3, [r7, #18]
 451 0044 FF2B     		cmp	r3, #255
 452 0046 EBD9     		bls	.L26
 379:./Generated_Source/PSoC5/CyFlash.c ****     }
 380:./Generated_Source/PSoC5/CyFlash.c **** 
 381:./Generated_Source/PSoC5/CyFlash.c ****     /* Copy the rowData to the temporary buffer. */
 382:./Generated_Source/PSoC5/CyFlash.c ****     cymemcpy(&rowBuffer[SIZEOF_FLASH_ROW], rowData, SIZEOF_ECC_ROW);
 453              		.loc 1 382 0
 454 0048 40F20003 		movw	r3, #:lower16:rowBuffer
 455 004c C0F20003 		movt	r3, #:upper16:rowBuffer
 456 0050 1B68     		ldr	r3, [r3, #0]
 457 0052 03F58073 		add	r3, r3, #256
 458 0056 1846     		mov	r0, r3
 459 0058 3968     		ldr	r1, [r7, #0]
 460 005a 4FF02002 		mov	r2, #32
 461 005e FFF7FEFF 		bl	memcpy
 383:./Generated_Source/PSoC5/CyFlash.c **** 
 384:./Generated_Source/PSoC5/CyFlash.c ****     status = CyWriteRowFull(arrayId, rowAddress, rowBuffer, SIZEOF_FLASH_ROW + SIZEOF_ECC_ROW);
 462              		.loc 1 384 0
 463 0062 40F20003 		movw	r3, #:lower16:rowBuffer
 464 0066 C0F20003 		movt	r3, #:upper16:rowBuffer
 465 006a 1B68     		ldr	r3, [r3, #0]
 466 006c F979     		ldrb	r1, [r7, #7]	@ zero_extendqisi2
 467 006e BA88     		ldrh	r2, [r7, #4]
ARM GAS  C:\DOCUME~1\akay\LOCALS~1\Temp\ccRDlamb.s 			page 16


 468 0070 0846     		mov	r0, r1
 469 0072 1146     		mov	r1, r2
 470 0074 1A46     		mov	r2, r3
 471 0076 4FF49073 		mov	r3, #288
 472 007a FFF7FEFF 		bl	CyWriteRowFull
 473 007e 0346     		mov	r3, r0
 474 0080 7B61     		str	r3, [r7, #20]
 385:./Generated_Source/PSoC5/CyFlash.c ****     return status;
 475              		.loc 1 385 0
 476 0082 7B69     		ldr	r3, [r7, #20]
 386:./Generated_Source/PSoC5/CyFlash.c **** }
 477              		.loc 1 386 0
 478 0084 1846     		mov	r0, r3
 479 0086 07F11807 		add	r7, r7, #24
 480 008a BD46     		mov	sp, r7
 481 008c 80BD     		pop	{r7, pc}
 482              		.cfi_endproc
 483              	.LFE5:
 484              		.size	CyWriteRowConfig, .-CyWriteRowConfig
 485 008e 00BF     		.section	.text.CyWriteRowFull,"ax",%progbits
 486              		.align	2
 487              		.global	CyWriteRowFull
 488              		.thumb
 489              		.thumb_func
 490              		.type	CyWriteRowFull, %function
 491              	CyWriteRowFull:
 492              	.LFB6:
 387:./Generated_Source/PSoC5/CyFlash.c **** 
 388:./Generated_Source/PSoC5/CyFlash.c **** #endif  /* (CYDEV_ECC_ENABLE == 1 && CYDEV_CONFIGURATION_ECC == 0) */
 389:./Generated_Source/PSoC5/CyFlash.c **** 
 390:./Generated_Source/PSoC5/CyFlash.c **** 
 391:./Generated_Source/PSoC5/CyFlash.c **** /*******************************************************************************
 392:./Generated_Source/PSoC5/CyFlash.c **** * Function Name: CyWriteRowFull
 393:./Generated_Source/PSoC5/CyFlash.c **** ********************************************************************************
 394:./Generated_Source/PSoC5/CyFlash.c **** * Summary:
 395:./Generated_Source/PSoC5/CyFlash.c **** *   Sends a command to the SPC to load and program a row of data in flash. 
 396:./Generated_Source/PSoC5/CyFlash.c **** *   rowData array is expected to contain Flash and ECC data if needed.
 397:./Generated_Source/PSoC5/CyFlash.c **** *
 398:./Generated_Source/PSoC5/CyFlash.c **** *
 399:./Generated_Source/PSoC5/CyFlash.c **** * Parameters:
 400:./Generated_Source/PSoC5/CyFlash.c **** *
 401:./Generated_Source/PSoC5/CyFlash.c **** *       arrayId: FLASH or EEPROM array id.
 402:./Generated_Source/PSoC5/CyFlash.c **** *       rowData: pointer to a row of data to write.
 403:./Generated_Source/PSoC5/CyFlash.c **** *       rowNumber: Zero based number of the row.
 404:./Generated_Source/PSoC5/CyFlash.c **** *       rowSize: Size of the row.
 405:./Generated_Source/PSoC5/CyFlash.c **** *   
 406:./Generated_Source/PSoC5/CyFlash.c **** * Return:
 407:./Generated_Source/PSoC5/CyFlash.c **** *   CYRET_SUCCESS if successful.
 408:./Generated_Source/PSoC5/CyFlash.c **** *   CYRET_LOCKED if the SPC is already in use.
 409:./Generated_Source/PSoC5/CyFlash.c **** *   CYRET_CANCELED if command not accepted
 410:./Generated_Source/PSoC5/CyFlash.c **** *   CYRET_UNKNOWN if there was an SPC error.
 411:./Generated_Source/PSoC5/CyFlash.c **** *
 412:./Generated_Source/PSoC5/CyFlash.c **** *
 413:./Generated_Source/PSoC5/CyFlash.c **** *******************************************************************************/
 414:./Generated_Source/PSoC5/CyFlash.c **** cystatus CyWriteRowFull(uint8 arrayId, uint16 rowNumber, uint8* rowData, uint16 rowSize) 
 415:./Generated_Source/PSoC5/CyFlash.c **** {
 493              		.loc 1 415 0
ARM GAS  C:\DOCUME~1\akay\LOCALS~1\Temp\ccRDlamb.s 			page 17


 494              		.cfi_startproc
 495              		@ args = 0, pretend = 0, frame = 24
 496              		@ frame_needed = 1, uses_anonymous_args = 0
 497 0000 80B5     		push	{r7, lr}
 498              	.LCFI16:
 499              		.cfi_def_cfa_offset 8
 500 0002 86B0     		sub	sp, sp, #24
 501              	.LCFI17:
 502              		.cfi_def_cfa_offset 32
 503 0004 00AF     		add	r7, sp, #0
 504              		.cfi_offset 14, -4
 505              		.cfi_offset 7, -8
 506              	.LCFI18:
 507              		.cfi_def_cfa_register 7
 508 0006 BA60     		str	r2, [r7, #8]
 509 0008 0246     		mov	r2, r0
 510 000a FA73     		strb	r2, [r7, #15]
 511 000c 0A46     		mov	r2, r1	@ movhi
 512 000e BA81     		strh	r2, [r7, #12]	@ movhi
 513 0010 FB80     		strh	r3, [r7, #6]	@ movhi
 416:./Generated_Source/PSoC5/CyFlash.c ****     cystatus status;
 417:./Generated_Source/PSoC5/CyFlash.c **** 
 418:./Generated_Source/PSoC5/CyFlash.c ****     /* See if we can get the SPC. */
 419:./Generated_Source/PSoC5/CyFlash.c ****     if (CySpcLock() == CYRET_SUCCESS)
 514              		.loc 1 419 0
 515 0012 FFF7FEFF 		bl	CySpcLock
 516 0016 0346     		mov	r3, r0
 517 0018 002B     		cmp	r3, #0
 518 001a 6CD1     		bne	.L29
 420:./Generated_Source/PSoC5/CyFlash.c ****     {
 421:./Generated_Source/PSoC5/CyFlash.c ****         /* Create the command. */
 422:./Generated_Source/PSoC5/CyFlash.c ****         status = CySpcCreateCmdLoadRow(arrayId);
 519              		.loc 1 422 0
 520 001c FB7B     		ldrb	r3, [r7, #15]	@ zero_extendqisi2
 521 001e 1846     		mov	r0, r3
 522 0020 FFF7FEFF 		bl	CySpcCreateCmdLoadRow
 523 0024 0346     		mov	r3, r0
 524 0026 7B61     		str	r3, [r7, #20]
 423:./Generated_Source/PSoC5/CyFlash.c ****         if (status == CYRET_SUCCESS)
 525              		.loc 1 423 0
 526 0028 7B69     		ldr	r3, [r7, #20]
 527 002a 002B     		cmp	r3, #0
 528 002c 24D1     		bne	.L30
 424:./Generated_Source/PSoC5/CyFlash.c ****         {
 425:./Generated_Source/PSoC5/CyFlash.c ****             /* Write the command. */
 426:./Generated_Source/PSoC5/CyFlash.c ****             status = CySpcWriteCommand(rowData, rowSize);
 529              		.loc 1 426 0
 530 002e FB88     		ldrh	r3, [r7, #6]
 531 0030 B868     		ldr	r0, [r7, #8]
 532 0032 1946     		mov	r1, r3
 533 0034 FFF7FEFF 		bl	CySpcWriteCommand
 534 0038 0346     		mov	r3, r0
 535 003a 7B61     		str	r3, [r7, #20]
 427:./Generated_Source/PSoC5/CyFlash.c ****             if (status == CYRET_STARTED)
 536              		.loc 1 427 0
 537 003c 7B69     		ldr	r3, [r7, #20]
 538 003e 072B     		cmp	r3, #7
ARM GAS  C:\DOCUME~1\akay\LOCALS~1\Temp\ccRDlamb.s 			page 18


 539 0040 1AD1     		bne	.L30
 540              	.L31:
 428:./Generated_Source/PSoC5/CyFlash.c ****             {
 429:./Generated_Source/PSoC5/CyFlash.c ****                 /* Spin until completion. */
 430:./Generated_Source/PSoC5/CyFlash.c ****                 while(!(*SPC_STATUS & SPC_SPC_IDLE));
 541              		.loc 1 430 0
 542 0042 44F22273 		movw	r3, #:lower16:1073760034
 543 0046 C4F20003 		movt	r3, #:upper16:1073760034
 544 004a 1B78     		ldrb	r3, [r3, #0]
 545 004c DBB2     		uxtb	r3, r3
 546 004e 03F00203 		and	r3, r3, #2
 547 0052 002B     		cmp	r3, #0
 548 0054 F5D0     		beq	.L31
 431:./Generated_Source/PSoC5/CyFlash.c **** 
 432:./Generated_Source/PSoC5/CyFlash.c ****                 status = CySpcReadStatus;
 549              		.loc 1 432 0
 550 0056 44F22273 		movw	r3, #:lower16:1073760034
 551 005a C4F20003 		movt	r3, #:upper16:1073760034
 552 005e 1B78     		ldrb	r3, [r3, #0]
 553 0060 DBB2     		uxtb	r3, r3
 554 0062 4FEA9303 		lsr	r3, r3, #2
 555 0066 DBB2     		uxtb	r3, r3
 556 0068 7B61     		str	r3, [r7, #20]
 433:./Generated_Source/PSoC5/CyFlash.c ****                 /* See if we were successful. */
 434:./Generated_Source/PSoC5/CyFlash.c ****                 if(status != SPC_SUCCESS)
 557              		.loc 1 434 0
 558 006a 7B69     		ldr	r3, [r7, #20]
 559 006c 002B     		cmp	r3, #0
 560 006e 03D0     		beq	.L30
 435:./Generated_Source/PSoC5/CyFlash.c ****                     status |= CYRET_SPC_ERROR_MASK;
 561              		.loc 1 435 0
 562 0070 7B69     		ldr	r3, [r7, #20]
 563 0072 43F08003 		orr	r3, r3, #128
 564 0076 7B61     		str	r3, [r7, #20]
 565              	.L30:
 436:./Generated_Source/PSoC5/CyFlash.c ****             }
 437:./Generated_Source/PSoC5/CyFlash.c ****         }
 438:./Generated_Source/PSoC5/CyFlash.c **** 
 439:./Generated_Source/PSoC5/CyFlash.c ****         /* Create the command. */
 440:./Generated_Source/PSoC5/CyFlash.c ****         if (status == SPC_SUCCESS)
 566              		.loc 1 440 0
 567 0078 7B69     		ldr	r3, [r7, #20]
 568 007a 002B     		cmp	r3, #0
 569 007c 38D1     		bne	.L32
 441:./Generated_Source/PSoC5/CyFlash.c ****         {
 442:./Generated_Source/PSoC5/CyFlash.c ****             status = CySpcCreateCmdWriteRow(arrayId, rowNumber, dieTemperature[0], dieTemperature[1
 570              		.loc 1 442 0
 571 007e 40F20003 		movw	r3, #:lower16:dieTemperature
 572 0082 C0F20003 		movt	r3, #:upper16:dieTemperature
 573 0086 1A78     		ldrb	r2, [r3, #0]	@ zero_extendqisi2
 574 0088 40F20003 		movw	r3, #:lower16:dieTemperature
 575 008c C0F20003 		movt	r3, #:upper16:dieTemperature
 576 0090 5B78     		ldrb	r3, [r3, #1]	@ zero_extendqisi2
 577 0092 F87B     		ldrb	r0, [r7, #15]	@ zero_extendqisi2
 578 0094 B989     		ldrh	r1, [r7, #12]
 579 0096 FFF7FEFF 		bl	CySpcCreateCmdWriteRow
 580 009a 0346     		mov	r3, r0
ARM GAS  C:\DOCUME~1\akay\LOCALS~1\Temp\ccRDlamb.s 			page 19


 581 009c 7B61     		str	r3, [r7, #20]
 443:./Generated_Source/PSoC5/CyFlash.c ****             if (status == CYRET_SUCCESS)
 582              		.loc 1 443 0
 583 009e 7B69     		ldr	r3, [r7, #20]
 584 00a0 002B     		cmp	r3, #0
 585 00a2 25D1     		bne	.L32
 444:./Generated_Source/PSoC5/CyFlash.c ****             {
 445:./Generated_Source/PSoC5/CyFlash.c ****                 /* Write the command. */
 446:./Generated_Source/PSoC5/CyFlash.c ****                 status = CySpcWriteCommand(0, 0);
 586              		.loc 1 446 0
 587 00a4 4FF00000 		mov	r0, #0
 588 00a8 4FF00001 		mov	r1, #0
 589 00ac FFF7FEFF 		bl	CySpcWriteCommand
 590 00b0 0346     		mov	r3, r0
 591 00b2 7B61     		str	r3, [r7, #20]
 447:./Generated_Source/PSoC5/CyFlash.c ****                 if (status == CYRET_STARTED)
 592              		.loc 1 447 0
 593 00b4 7B69     		ldr	r3, [r7, #20]
 594 00b6 072B     		cmp	r3, #7
 595 00b8 1AD1     		bne	.L32
 596              	.L33:
 448:./Generated_Source/PSoC5/CyFlash.c ****                 {
 449:./Generated_Source/PSoC5/CyFlash.c ****                     /* Spin until completion. */
 450:./Generated_Source/PSoC5/CyFlash.c ****                     while(!(*SPC_STATUS & SPC_SPC_IDLE));
 597              		.loc 1 450 0
 598 00ba 44F22273 		movw	r3, #:lower16:1073760034
 599 00be C4F20003 		movt	r3, #:upper16:1073760034
 600 00c2 1B78     		ldrb	r3, [r3, #0]
 601 00c4 DBB2     		uxtb	r3, r3
 602 00c6 03F00203 		and	r3, r3, #2
 603 00ca 002B     		cmp	r3, #0
 604 00cc F5D0     		beq	.L33
 451:./Generated_Source/PSoC5/CyFlash.c **** 
 452:./Generated_Source/PSoC5/CyFlash.c ****                     status = CySpcReadStatus;
 605              		.loc 1 452 0
 606 00ce 44F22273 		movw	r3, #:lower16:1073760034
 607 00d2 C4F20003 		movt	r3, #:upper16:1073760034
 608 00d6 1B78     		ldrb	r3, [r3, #0]
 609 00d8 DBB2     		uxtb	r3, r3
 610 00da 4FEA9303 		lsr	r3, r3, #2
 611 00de DBB2     		uxtb	r3, r3
 612 00e0 7B61     		str	r3, [r7, #20]
 453:./Generated_Source/PSoC5/CyFlash.c ****                     /* See if we were successful. */
 454:./Generated_Source/PSoC5/CyFlash.c ****                     if(status != SPC_SUCCESS)
 613              		.loc 1 454 0
 614 00e2 7B69     		ldr	r3, [r7, #20]
 615 00e4 002B     		cmp	r3, #0
 616 00e6 03D0     		beq	.L32
 455:./Generated_Source/PSoC5/CyFlash.c ****                         status |= CYRET_SPC_ERROR_MASK;
 617              		.loc 1 455 0
 618 00e8 7B69     		ldr	r3, [r7, #20]
 619 00ea 43F08003 		orr	r3, r3, #128
 620 00ee 7B61     		str	r3, [r7, #20]
 621              	.L32:
 456:./Generated_Source/PSoC5/CyFlash.c ****                 }
 457:./Generated_Source/PSoC5/CyFlash.c ****             }
 458:./Generated_Source/PSoC5/CyFlash.c ****         }
ARM GAS  C:\DOCUME~1\akay\LOCALS~1\Temp\ccRDlamb.s 			page 20


 459:./Generated_Source/PSoC5/CyFlash.c **** 
 460:./Generated_Source/PSoC5/CyFlash.c ****         /* Unlock the SPC so someone else can use it. */
 461:./Generated_Source/PSoC5/CyFlash.c ****         CySpcUnlock();
 622              		.loc 1 461 0
 623 00f0 FFF7FEFF 		bl	CySpcUnlock
 624 00f4 02E0     		b	.L34
 625              	.L29:
 462:./Generated_Source/PSoC5/CyFlash.c ****     }
 463:./Generated_Source/PSoC5/CyFlash.c ****     else
 464:./Generated_Source/PSoC5/CyFlash.c ****     {
 465:./Generated_Source/PSoC5/CyFlash.c ****         status = CYRET_LOCKED;
 626              		.loc 1 465 0
 627 00f6 4FF00403 		mov	r3, #4
 628 00fa 7B61     		str	r3, [r7, #20]
 629              	.L34:
 466:./Generated_Source/PSoC5/CyFlash.c ****     }
 467:./Generated_Source/PSoC5/CyFlash.c **** 
 468:./Generated_Source/PSoC5/CyFlash.c ****     return status;
 630              		.loc 1 468 0
 631 00fc 7B69     		ldr	r3, [r7, #20]
 469:./Generated_Source/PSoC5/CyFlash.c **** }
 632              		.loc 1 469 0
 633 00fe 1846     		mov	r0, r3
 634 0100 07F11807 		add	r7, r7, #24
 635 0104 BD46     		mov	sp, r7
 636 0106 80BD     		pop	{r7, pc}
 637              		.cfi_endproc
 638              	.LFE6:
 639              		.size	CyWriteRowFull, .-CyWriteRowFull
 640              		.section	.text.CyFlash_SetWaitCycles,"ax",%progbits
 641              		.align	2
 642              		.global	CyFlash_SetWaitCycles
 643              		.thumb
 644              		.thumb_func
 645              		.type	CyFlash_SetWaitCycles, %function
 646              	CyFlash_SetWaitCycles:
 647              	.LFB7:
 470:./Generated_Source/PSoC5/CyFlash.c **** 
 471:./Generated_Source/PSoC5/CyFlash.c **** 
 472:./Generated_Source/PSoC5/CyFlash.c **** /*******************************************************************************
 473:./Generated_Source/PSoC5/CyFlash.c **** * Function Name: CyFlash_SetWaitCycles
 474:./Generated_Source/PSoC5/CyFlash.c **** ********************************************************************************
 475:./Generated_Source/PSoC5/CyFlash.c **** *
 476:./Generated_Source/PSoC5/CyFlash.c **** * Summary:
 477:./Generated_Source/PSoC5/CyFlash.c **** *  Sets the correct number of wait cycles for the flash based on the frequency 
 478:./Generated_Source/PSoC5/CyFlash.c **** *  of operation of the devices. This function should be called before increasing 
 479:./Generated_Source/PSoC5/CyFlash.c **** *  the clock frequency.  It can optionally be called after lowering the clock 
 480:./Generated_Source/PSoC5/CyFlash.c **** *  frequency in order to improve CPU performance.
 481:./Generated_Source/PSoC5/CyFlash.c **** *   
 482:./Generated_Source/PSoC5/CyFlash.c **** * Parameters:
 483:./Generated_Source/PSoC5/CyFlash.c **** *  freq:
 484:./Generated_Source/PSoC5/CyFlash.c **** *   Frequency of operation in Megahertz.
 485:./Generated_Source/PSoC5/CyFlash.c **** * 
 486:./Generated_Source/PSoC5/CyFlash.c **** * Return:
 487:./Generated_Source/PSoC5/CyFlash.c **** *  void  
 488:./Generated_Source/PSoC5/CyFlash.c **** * 
 489:./Generated_Source/PSoC5/CyFlash.c **** * Reentrant
ARM GAS  C:\DOCUME~1\akay\LOCALS~1\Temp\ccRDlamb.s 			page 21


 490:./Generated_Source/PSoC5/CyFlash.c **** *  Yes
 491:./Generated_Source/PSoC5/CyFlash.c **** *
 492:./Generated_Source/PSoC5/CyFlash.c **** *******************************************************************************/
 493:./Generated_Source/PSoC5/CyFlash.c **** void CyFlash_SetWaitCycles(uint8 freq) 
 494:./Generated_Source/PSoC5/CyFlash.c **** {
 648              		.loc 1 494 0
 649              		.cfi_startproc
 650              		@ args = 0, pretend = 0, frame = 8
 651              		@ frame_needed = 1, uses_anonymous_args = 0
 652              		@ link register save eliminated.
 653 0000 80B4     		push	{r7}
 654              	.LCFI19:
 655              		.cfi_def_cfa_offset 4
 656 0002 83B0     		sub	sp, sp, #12
 657              	.LCFI20:
 658              		.cfi_def_cfa_offset 16
 659 0004 00AF     		add	r7, sp, #0
 660              		.cfi_offset 7, -4
 661              	.LCFI21:
 662              		.cfi_def_cfa_register 7
 663 0006 0346     		mov	r3, r0
 664 0008 FB71     		strb	r3, [r7, #7]
 495:./Generated_Source/PSoC5/CyFlash.c ****     /* Clear the Flash Cycles bit fields */
 496:./Generated_Source/PSoC5/CyFlash.c ****     *FLASH_CYCLES_PTR &= ~FLASH_CYCLES_MASK;
 665              		.loc 1 496 0
 666 000a 44F60003 		movw	r3, #:lower16:1073760256
 667 000e C4F20003 		movt	r3, #:upper16:1073760256
 668 0012 44F60002 		movw	r2, #:lower16:1073760256
 669 0016 C4F20002 		movt	r2, #:upper16:1073760256
 670 001a 1278     		ldrb	r2, [r2, #0]
 671 001c D2B2     		uxtb	r2, r2
 672 001e 02F03F02 		and	r2, r2, #63
 673 0022 1A70     		strb	r2, [r3, #0]
 497:./Generated_Source/PSoC5/CyFlash.c ****     
 498:./Generated_Source/PSoC5/CyFlash.c ****     /* Set Flash Cycles bit fields with frequency value*/
 499:./Generated_Source/PSoC5/CyFlash.c ****     #if (PSOC3_ES2)
 500:./Generated_Source/PSoC5/CyFlash.c ****         if (freq <= 24u)            
 501:./Generated_Source/PSoC5/CyFlash.c ****             *FLASH_CYCLES_PTR |= (LESSER_OR_EQUAL_24MHz << FLASH_CYCLES_MASK_SHIFT);
 502:./Generated_Source/PSoC5/CyFlash.c ****         else if (freq <= 48u)
 503:./Generated_Source/PSoC5/CyFlash.c ****             *FLASH_CYCLES_PTR |= (LESSER_OR_EQUAL_48MHz << FLASH_CYCLES_MASK_SHIFT);
 504:./Generated_Source/PSoC5/CyFlash.c ****         else
 505:./Generated_Source/PSoC5/CyFlash.c ****             *FLASH_CYCLES_PTR |= (GREATER_48MHz << FLASH_CYCLES_MASK_SHIFT);
 506:./Generated_Source/PSoC5/CyFlash.c ****     #endif
 507:./Generated_Source/PSoC5/CyFlash.c ****     
 508:./Generated_Source/PSoC5/CyFlash.c ****     #if (PSOC3_ES3)
 509:./Generated_Source/PSoC5/CyFlash.c ****         if (freq <= 22u)            
 510:./Generated_Source/PSoC5/CyFlash.c ****             *FLASH_CYCLES_PTR |= (LESSER_OR_EQUAL_22MHz << FLASH_CYCLES_MASK_SHIFT);
 511:./Generated_Source/PSoC5/CyFlash.c ****         else if (freq <= 44u)
 512:./Generated_Source/PSoC5/CyFlash.c ****             *FLASH_CYCLES_PTR |= (LESSER_OR_EQUAL_44MHz << FLASH_CYCLES_MASK_SHIFT);
 513:./Generated_Source/PSoC5/CyFlash.c ****         else
 514:./Generated_Source/PSoC5/CyFlash.c ****             *FLASH_CYCLES_PTR |= (GREATER_44MHz << FLASH_CYCLES_MASK_SHIFT);
 515:./Generated_Source/PSoC5/CyFlash.c ****     #endif
 516:./Generated_Source/PSoC5/CyFlash.c ****     
 517:./Generated_Source/PSoC5/CyFlash.c ****     #if (PSOC5_ES1)
 518:./Generated_Source/PSoC5/CyFlash.c ****         if (freq <= 16u)            
 674              		.loc 1 518 0
 675 0024 FB79     		ldrb	r3, [r7, #7]	@ zero_extendqisi2
ARM GAS  C:\DOCUME~1\akay\LOCALS~1\Temp\ccRDlamb.s 			page 22


 676 0026 102B     		cmp	r3, #16
 677 0028 0ED8     		bhi	.L37
 519:./Generated_Source/PSoC5/CyFlash.c ****             *FLASH_CYCLES_PTR |= (LESSER_OR_EQUAL_16MHz << FLASH_CYCLES_MASK_SHIFT);
 678              		.loc 1 519 0
 679 002a 44F60003 		movw	r3, #:lower16:1073760256
 680 002e C4F20003 		movt	r3, #:upper16:1073760256
 681 0032 44F60002 		movw	r2, #:lower16:1073760256
 682 0036 C4F20002 		movt	r2, #:upper16:1073760256
 683 003a 1278     		ldrb	r2, [r2, #0]
 684 003c D2B2     		uxtb	r2, r2
 685 003e 42F04002 		orr	r2, r2, #64
 686 0042 D2B2     		uxtb	r2, r2
 687 0044 1A70     		strb	r2, [r3, #0]
 688 0046 32E0     		b	.L41
 689              	.L37:
 520:./Generated_Source/PSoC5/CyFlash.c ****         else if (freq <= 33u)
 690              		.loc 1 520 0
 691 0048 FB79     		ldrb	r3, [r7, #7]	@ zero_extendqisi2
 692 004a 212B     		cmp	r3, #33
 693 004c 10D8     		bhi	.L39
 521:./Generated_Source/PSoC5/CyFlash.c ****             *FLASH_CYCLES_PTR |= (LESSER_OR_EQUAL_33MHz << FLASH_CYCLES_MASK_SHIFT);
 694              		.loc 1 521 0
 695 004e 44F60003 		movw	r3, #:lower16:1073760256
 696 0052 C4F20003 		movt	r3, #:upper16:1073760256
 697 0056 44F60002 		movw	r2, #:lower16:1073760256
 698 005a C4F20002 		movt	r2, #:upper16:1073760256
 699 005e 1278     		ldrb	r2, [r2, #0]
 700 0060 D2B2     		uxtb	r2, r2
 701 0062 6FEA4262 		mvn	r2, r2, lsl #25
 702 0066 6FEA5262 		mvn	r2, r2, lsr #25
 703 006a D2B2     		uxtb	r2, r2
 704 006c 1A70     		strb	r2, [r3, #0]
 705 006e 1EE0     		b	.L41
 706              	.L39:
 522:./Generated_Source/PSoC5/CyFlash.c ****         else if (freq <= 50u)
 707              		.loc 1 522 0
 708 0070 FB79     		ldrb	r3, [r7, #7]	@ zero_extendqisi2
 709 0072 322B     		cmp	r3, #50
 710 0074 10D8     		bhi	.L40
 523:./Generated_Source/PSoC5/CyFlash.c ****             *FLASH_CYCLES_PTR |= (LESSER_OR_EQUAL_50MHz << FLASH_CYCLES_MASK_SHIFT);
 711              		.loc 1 523 0
 712 0076 44F60003 		movw	r3, #:lower16:1073760256
 713 007a C4F20003 		movt	r3, #:upper16:1073760256
 714 007e 44F60002 		movw	r2, #:lower16:1073760256
 715 0082 C4F20002 		movt	r2, #:upper16:1073760256
 716 0086 1278     		ldrb	r2, [r2, #0]
 717 0088 D2B2     		uxtb	r2, r2
 718 008a 6FEA8262 		mvn	r2, r2, lsl #26
 719 008e 6FEA9262 		mvn	r2, r2, lsr #26
 720 0092 D2B2     		uxtb	r2, r2
 721 0094 1A70     		strb	r2, [r3, #0]
 722 0096 0AE0     		b	.L41
 723              	.L40:
 524:./Generated_Source/PSoC5/CyFlash.c ****         else
 525:./Generated_Source/PSoC5/CyFlash.c ****             *FLASH_CYCLES_PTR |= (GREATER_51MHz << FLASH_CYCLES_MASK_SHIFT);
 724              		.loc 1 525 0
 725 0098 44F60003 		movw	r3, #:lower16:1073760256
ARM GAS  C:\DOCUME~1\akay\LOCALS~1\Temp\ccRDlamb.s 			page 23


 726 009c C4F20003 		movt	r3, #:upper16:1073760256
 727 00a0 44F60002 		movw	r2, #:lower16:1073760256
 728 00a4 C4F20002 		movt	r2, #:upper16:1073760256
 729 00a8 1278     		ldrb	r2, [r2, #0]
 730 00aa D2B2     		uxtb	r2, r2
 731 00ac 1A70     		strb	r2, [r3, #0]
 732              	.L41:
 526:./Generated_Source/PSoC5/CyFlash.c ****     #endif
 527:./Generated_Source/PSoC5/CyFlash.c **** }
 733              		.loc 1 527 0
 734 00ae 07F10C07 		add	r7, r7, #12
 735 00b2 BD46     		mov	sp, r7
 736 00b4 80BC     		pop	{r7}
 737 00b6 7047     		bx	lr
 738              		.cfi_endproc
 739              	.LFE7:
 740              		.size	CyFlash_SetWaitCycles, .-CyFlash_SetWaitCycles
 741              		.section	.text.CyEEPROM_ReadReserve,"ax",%progbits
 742              		.align	2
 743              		.global	CyEEPROM_ReadReserve
 744              		.thumb
 745              		.thumb_func
 746              		.type	CyEEPROM_ReadReserve, %function
 747              	CyEEPROM_ReadReserve:
 748              	.LFB8:
 528:./Generated_Source/PSoC5/CyFlash.c **** 
 529:./Generated_Source/PSoC5/CyFlash.c **** 
 530:./Generated_Source/PSoC5/CyFlash.c **** #if (PSOC3_ES3 || PSOC5_ES2)
 531:./Generated_Source/PSoC5/CyFlash.c **** 
 532:./Generated_Source/PSoC5/CyFlash.c **** /*******************************************************************************
 533:./Generated_Source/PSoC5/CyFlash.c **** * Function Name: CyEEPROM_Start
 534:./Generated_Source/PSoC5/CyFlash.c **** ********************************************************************************
 535:./Generated_Source/PSoC5/CyFlash.c **** *
 536:./Generated_Source/PSoC5/CyFlash.c **** * Summary:
 537:./Generated_Source/PSoC5/CyFlash.c **** *  Enable the EEPROM.
 538:./Generated_Source/PSoC5/CyFlash.c **** *   
 539:./Generated_Source/PSoC5/CyFlash.c **** * Parameters:
 540:./Generated_Source/PSoC5/CyFlash.c **** *  void
 541:./Generated_Source/PSoC5/CyFlash.c **** * 
 542:./Generated_Source/PSoC5/CyFlash.c **** * Return:
 543:./Generated_Source/PSoC5/CyFlash.c **** *  void  
 544:./Generated_Source/PSoC5/CyFlash.c **** * 
 545:./Generated_Source/PSoC5/CyFlash.c **** * Reentrant
 546:./Generated_Source/PSoC5/CyFlash.c **** *  Yes
 547:./Generated_Source/PSoC5/CyFlash.c **** *
 548:./Generated_Source/PSoC5/CyFlash.c **** *******************************************************************************/
 549:./Generated_Source/PSoC5/CyFlash.c **** void CyEEPROM_Start(void) 
 550:./Generated_Source/PSoC5/CyFlash.c **** {    
 551:./Generated_Source/PSoC5/CyFlash.c ****     /* Active Power Mode */
 552:./Generated_Source/PSoC5/CyFlash.c ****     *PM_ACT_EE_PTR |= PM_EE_MASK;
 553:./Generated_Source/PSoC5/CyFlash.c ****     /* Standby Power Mode */
 554:./Generated_Source/PSoC5/CyFlash.c ****     *PM_STBY_EE_PTR |= PM_EE_MASK;    
 555:./Generated_Source/PSoC5/CyFlash.c **** }
 556:./Generated_Source/PSoC5/CyFlash.c **** 
 557:./Generated_Source/PSoC5/CyFlash.c **** 
 558:./Generated_Source/PSoC5/CyFlash.c **** /*******************************************************************************
 559:./Generated_Source/PSoC5/CyFlash.c **** * Function Name: CyEEPROM_Stop
ARM GAS  C:\DOCUME~1\akay\LOCALS~1\Temp\ccRDlamb.s 			page 24


 560:./Generated_Source/PSoC5/CyFlash.c **** ********************************************************************************
 561:./Generated_Source/PSoC5/CyFlash.c **** *
 562:./Generated_Source/PSoC5/CyFlash.c **** * Summary:
 563:./Generated_Source/PSoC5/CyFlash.c **** *  Disable the EEPROM.
 564:./Generated_Source/PSoC5/CyFlash.c **** *   
 565:./Generated_Source/PSoC5/CyFlash.c **** * Parameters:
 566:./Generated_Source/PSoC5/CyFlash.c **** *  void
 567:./Generated_Source/PSoC5/CyFlash.c **** * 
 568:./Generated_Source/PSoC5/CyFlash.c **** * Return:
 569:./Generated_Source/PSoC5/CyFlash.c **** *  void  
 570:./Generated_Source/PSoC5/CyFlash.c **** * 
 571:./Generated_Source/PSoC5/CyFlash.c **** * Reentrant
 572:./Generated_Source/PSoC5/CyFlash.c **** *  Yes
 573:./Generated_Source/PSoC5/CyFlash.c **** *
 574:./Generated_Source/PSoC5/CyFlash.c **** *******************************************************************************/
 575:./Generated_Source/PSoC5/CyFlash.c **** void CyEEPROM_Stop (void) 
 576:./Generated_Source/PSoC5/CyFlash.c **** {
 577:./Generated_Source/PSoC5/CyFlash.c ****     /* Active Power Mode */
 578:./Generated_Source/PSoC5/CyFlash.c ****     *PM_ACT_EE_PTR &= ~PM_EE_MASK;
 579:./Generated_Source/PSoC5/CyFlash.c ****     /* Standby Power Mode */
 580:./Generated_Source/PSoC5/CyFlash.c ****     *PM_STBY_EE_PTR &= ~PM_EE_MASK;
 581:./Generated_Source/PSoC5/CyFlash.c **** }
 582:./Generated_Source/PSoC5/CyFlash.c **** 
 583:./Generated_Source/PSoC5/CyFlash.c **** #endif /* (PSOC3_ES3 || PSOC5_ES2) */
 584:./Generated_Source/PSoC5/CyFlash.c **** 
 585:./Generated_Source/PSoC5/CyFlash.c **** 
 586:./Generated_Source/PSoC5/CyFlash.c **** /*******************************************************************************
 587:./Generated_Source/PSoC5/CyFlash.c **** * Function Name: CyEEPROM_ReadReserve
 588:./Generated_Source/PSoC5/CyFlash.c **** ********************************************************************************
 589:./Generated_Source/PSoC5/CyFlash.c **** *
 590:./Generated_Source/PSoC5/CyFlash.c **** * Summary:
 591:./Generated_Source/PSoC5/CyFlash.c **** *  Request access to the EEPROM for reading and wait until access is available.
 592:./Generated_Source/PSoC5/CyFlash.c **** *   
 593:./Generated_Source/PSoC5/CyFlash.c **** * Parameters:
 594:./Generated_Source/PSoC5/CyFlash.c **** *  void
 595:./Generated_Source/PSoC5/CyFlash.c **** * 
 596:./Generated_Source/PSoC5/CyFlash.c **** * Return:
 597:./Generated_Source/PSoC5/CyFlash.c **** *  void  
 598:./Generated_Source/PSoC5/CyFlash.c **** *   
 599:./Generated_Source/PSoC5/CyFlash.c **** * Reentrant
 600:./Generated_Source/PSoC5/CyFlash.c **** *  Yes
 601:./Generated_Source/PSoC5/CyFlash.c **** *
 602:./Generated_Source/PSoC5/CyFlash.c **** *******************************************************************************/
 603:./Generated_Source/PSoC5/CyFlash.c **** void CyEEPROM_ReadReserve(void) 
 604:./Generated_Source/PSoC5/CyFlash.c **** {
 749              		.loc 1 604 0
 750              		.cfi_startproc
 751              		@ args = 0, pretend = 0, frame = 0
 752              		@ frame_needed = 1, uses_anonymous_args = 0
 753              		@ link register save eliminated.
 754 0000 80B4     		push	{r7}
 755              	.LCFI22:
 756              		.cfi_def_cfa_offset 4
 757 0002 00AF     		add	r7, sp, #0
 758              		.cfi_offset 7, -4
 759              	.LCFI23:
 760              		.cfi_def_cfa_register 7
ARM GAS  C:\DOCUME~1\akay\LOCALS~1\Temp\ccRDlamb.s 			page 25


 605:./Generated_Source/PSoC5/CyFlash.c ****     /* Make a request for PHUB to have access */
 606:./Generated_Source/PSoC5/CyFlash.c ****     *AHUB_EE_REQ_ACK_PTR |= 0x01u;    
 761              		.loc 1 606 0
 762 0004 44F20273 		movw	r3, #:lower16:1073760002
 763 0008 C4F20003 		movt	r3, #:upper16:1073760002
 764 000c 44F20272 		movw	r2, #:lower16:1073760002
 765 0010 C4F20002 		movt	r2, #:upper16:1073760002
 766 0014 1278     		ldrb	r2, [r2, #0]
 767 0016 D2B2     		uxtb	r2, r2
 768 0018 42F00102 		orr	r2, r2, #1
 769 001c D2B2     		uxtb	r2, r2
 770 001e 1A70     		strb	r2, [r3, #0]
 771              	.L43:
 607:./Generated_Source/PSoC5/CyFlash.c ****     /* Wait for acknowledgement from PHUB */
 608:./Generated_Source/PSoC5/CyFlash.c ****     while (!(*AHUB_EE_REQ_ACK_PTR & 0x02u));    
 772              		.loc 1 608 0
 773 0020 44F20273 		movw	r3, #:lower16:1073760002
 774 0024 C4F20003 		movt	r3, #:upper16:1073760002
 775 0028 1B78     		ldrb	r3, [r3, #0]
 776 002a DBB2     		uxtb	r3, r3
 777 002c 03F00203 		and	r3, r3, #2
 778 0030 002B     		cmp	r3, #0
 779 0032 F5D0     		beq	.L43
 609:./Generated_Source/PSoC5/CyFlash.c **** }
 780              		.loc 1 609 0
 781 0034 BD46     		mov	sp, r7
 782 0036 80BC     		pop	{r7}
 783 0038 7047     		bx	lr
 784              		.cfi_endproc
 785              	.LFE8:
 786              		.size	CyEEPROM_ReadReserve, .-CyEEPROM_ReadReserve
 787 003a 00BF     		.section	.text.CyEEPROM_ReadRelease,"ax",%progbits
 788              		.align	2
 789              		.global	CyEEPROM_ReadRelease
 790              		.thumb
 791              		.thumb_func
 792              		.type	CyEEPROM_ReadRelease, %function
 793              	CyEEPROM_ReadRelease:
 794              	.LFB9:
 610:./Generated_Source/PSoC5/CyFlash.c **** 
 611:./Generated_Source/PSoC5/CyFlash.c **** 
 612:./Generated_Source/PSoC5/CyFlash.c **** /*******************************************************************************
 613:./Generated_Source/PSoC5/CyFlash.c **** * Function Name: CyEEPROM_ReadRelease
 614:./Generated_Source/PSoC5/CyFlash.c **** ********************************************************************************
 615:./Generated_Source/PSoC5/CyFlash.c **** *
 616:./Generated_Source/PSoC5/CyFlash.c **** * Summary:
 617:./Generated_Source/PSoC5/CyFlash.c **** *  Release the read reservation of the EEPROM.
 618:./Generated_Source/PSoC5/CyFlash.c **** *   
 619:./Generated_Source/PSoC5/CyFlash.c **** * Parameters:
 620:./Generated_Source/PSoC5/CyFlash.c **** *  void
 621:./Generated_Source/PSoC5/CyFlash.c **** * 
 622:./Generated_Source/PSoC5/CyFlash.c **** * Return:
 623:./Generated_Source/PSoC5/CyFlash.c **** *  void  
 624:./Generated_Source/PSoC5/CyFlash.c **** * 
 625:./Generated_Source/PSoC5/CyFlash.c **** * Reentrant
 626:./Generated_Source/PSoC5/CyFlash.c **** *  Yes
 627:./Generated_Source/PSoC5/CyFlash.c **** *
ARM GAS  C:\DOCUME~1\akay\LOCALS~1\Temp\ccRDlamb.s 			page 26


 628:./Generated_Source/PSoC5/CyFlash.c **** *******************************************************************************/
 629:./Generated_Source/PSoC5/CyFlash.c **** void CyEEPROM_ReadRelease(void) 
 630:./Generated_Source/PSoC5/CyFlash.c **** {
 795              		.loc 1 630 0
 796              		.cfi_startproc
 797              		@ args = 0, pretend = 0, frame = 0
 798              		@ frame_needed = 1, uses_anonymous_args = 0
 799              		@ link register save eliminated.
 800 0000 80B4     		push	{r7}
 801              	.LCFI24:
 802              		.cfi_def_cfa_offset 4
 803 0002 00AF     		add	r7, sp, #0
 804              		.cfi_offset 7, -4
 805              	.LCFI25:
 806              		.cfi_def_cfa_register 7
 631:./Generated_Source/PSoC5/CyFlash.c ****     *AHUB_EE_REQ_ACK_PTR |= 0x00u;   
 807              		.loc 1 631 0
 808 0004 44F20273 		movw	r3, #:lower16:1073760002
 809 0008 C4F20003 		movt	r3, #:upper16:1073760002
 810 000c 44F20272 		movw	r2, #:lower16:1073760002
 811 0010 C4F20002 		movt	r2, #:upper16:1073760002
 812 0014 1278     		ldrb	r2, [r2, #0]
 813 0016 D2B2     		uxtb	r2, r2
 814 0018 1A70     		strb	r2, [r3, #0]
 632:./Generated_Source/PSoC5/CyFlash.c **** }
 815              		.loc 1 632 0
 816 001a BD46     		mov	sp, r7
 817 001c 80BC     		pop	{r7}
 818 001e 7047     		bx	lr
 819              		.cfi_endproc
 820              	.LFE9:
 821              		.size	CyEEPROM_ReadRelease, .-CyEEPROM_ReadRelease
 822              		.text
 823              	.Letext0: