ARM GAS  C:\DOCUME~1\akay\LOCALS~1\Temp\ccsadWJD.s 			page 1


   1              		.syntax unified
   2              		.cpu cortex-m3
   3              		.fpu softvfp
   4              		.eabi_attribute 20, 1
   5              		.eabi_attribute 21, 1
   6              		.eabi_attribute 23, 3
   7              		.eabi_attribute 24, 1
   8              		.eabi_attribute 25, 1
   9              		.eabi_attribute 26, 1
  10              		.eabi_attribute 30, 6
  11              		.eabi_attribute 18, 4
  12              		.thumb
  13              		.file	"cyPm.c"
  14              		.section	.debug_abbrev,"",%progbits
  15              	.Ldebug_abbrev0:
  16              		.section	.debug_info,"",%progbits
  17              	.Ldebug_info0:
  18              		.section	.debug_line,"",%progbits
  19              	.Ldebug_line0:
  20 0000 37020000 		.text
  20      02004D00 
  20      00000201 
  20      FB0E0D00 
  20      01010101 
  21              	.Ltext0:
  22              		.cfi_sections	.debug_frame
  23              		.bss
  24              		.align	2
  25              	cyPmBackup:
  26 0000 00000000 		.space	24
  26      00000000 
  26      00000000 
  26      00000000 
  26      00000000 
  27              		.global	cyPmImoFreqMhz2Reg
  28              		.section	.rodata
  29              		.align	2
  30              		.type	cyPmImoFreqMhz2Reg, %object
  31              		.size	cyPmImoFreqMhz2Reg, 7
  32              	cyPmImoFreqMhz2Reg:
  33 0000 02       		.byte	2
  34 0001 01       		.byte	1
  35 0002 03       		.byte	3
  36 0003 00       		.byte	0
  37 0004 04       		.byte	4
  38 0005 05       		.byte	5
  39 0006 06       		.byte	6
  40              		.global	cyPmImoFreqReg2Mhz
  41 0007 00       		.align	2
  42              		.type	cyPmImoFreqReg2Mhz, %object
  43              		.size	cyPmImoFreqReg2Mhz, 7
  44              	cyPmImoFreqReg2Mhz:
  45 0008 0C       		.byte	12
  46 0009 06       		.byte	6
  47 000a 18       		.byte	24
  48 000b 03       		.byte	3
  49 000c 30       		.byte	48
ARM GAS  C:\DOCUME~1\akay\LOCALS~1\Temp\ccsadWJD.s 			page 2


  50 000d 3E       		.byte	62
  51 000e 4A       		.byte	74
  52 000f 00       		.section	.text.CyPmSaveClocks,"ax",%progbits
  53              		.align	2
  54              		.global	CyPmSaveClocks
  55              		.thumb
  56              		.thumb_func
  57              		.type	CyPmSaveClocks, %function
  58              	CyPmSaveClocks:
  59              	.LFB0:
  60              		.file 1 "./Generated_Source/PSoC5/cyPm.c"
   1:./Generated_Source/PSoC5/cyPm.c **** /*******************************************************************************
   2:./Generated_Source/PSoC5/cyPm.c **** * File Name: cyPm.c
   3:./Generated_Source/PSoC5/cyPm.c **** * Version 2.0
   4:./Generated_Source/PSoC5/cyPm.c **** *
   5:./Generated_Source/PSoC5/cyPm.c **** *  Description:
   6:./Generated_Source/PSoC5/cyPm.c **** *   Provides an API for the power management.
   7:./Generated_Source/PSoC5/cyPm.c **** *
   8:./Generated_Source/PSoC5/cyPm.c **** *  Note:
   9:./Generated_Source/PSoC5/cyPm.c **** *   Documentation of the API's in this file is located in the
  10:./Generated_Source/PSoC5/cyPm.c **** *   System Reference Guide provided with PSoC Creator.
  11:./Generated_Source/PSoC5/cyPm.c **** *
  12:./Generated_Source/PSoC5/cyPm.c **** *******************************************************************************
  13:./Generated_Source/PSoC5/cyPm.c **** * Copyright 2008-2010, Cypress Semiconductor Corporation.  All rights reserved.
  14:./Generated_Source/PSoC5/cyPm.c **** * You may use this file only in accordance with the license, terms, conditions,
  15:./Generated_Source/PSoC5/cyPm.c **** * disclaimers, and limitations in the end user license agreement accompanying
  16:./Generated_Source/PSoC5/cyPm.c **** * the software package with which this file was provided.
  17:./Generated_Source/PSoC5/cyPm.c **** ********************************************************************************/
  18:./Generated_Source/PSoC5/cyPm.c **** 
  19:./Generated_Source/PSoC5/cyPm.c **** #include "cyPm.h"
  20:./Generated_Source/PSoC5/cyPm.c **** 
  21:./Generated_Source/PSoC5/cyPm.c **** static CY_PM_BACKUP_STRUCT  cyPmBackup;
  22:./Generated_Source/PSoC5/cyPm.c **** 
  23:./Generated_Source/PSoC5/cyPm.c **** /* Convertion table between CyIMO_SetFreq() parameters and register's value */
  24:./Generated_Source/PSoC5/cyPm.c **** const uint8 CYCODE cyPmImoFreqMhz2Reg[7u] = {
  25:./Generated_Source/PSoC5/cyPm.c ****     CY_IMO_FREQ_12MHZ, CY_IMO_FREQ_6MHZ,  CY_IMO_FREQ_24MHZ, CY_IMO_FREQ_3MHZ,
  26:./Generated_Source/PSoC5/cyPm.c ****     CY_IMO_FREQ_48MHZ, CY_IMO_FREQ_62MHZ, CY_IMO_FREQ_74MHZ};
  27:./Generated_Source/PSoC5/cyPm.c **** 
  28:./Generated_Source/PSoC5/cyPm.c **** /* Convertion table between register's values and frequency in MHz  */
  29:./Generated_Source/PSoC5/cyPm.c **** const uint8 CYCODE cyPmImoFreqReg2Mhz[7u] = {12u, 6u, 24u, 3u, 48u, 62u, 74u};
  30:./Generated_Source/PSoC5/cyPm.c **** 
  31:./Generated_Source/PSoC5/cyPm.c **** /* Function Prototypes */
  32:./Generated_Source/PSoC5/cyPm.c **** void CyPmCtwSaveSet(uint8 ctwInterval);
  33:./Generated_Source/PSoC5/cyPm.c **** void CyPmFtwSaveSet(uint8 ftwInterval);
  34:./Generated_Source/PSoC5/cyPm.c **** void CyPmOppsSaveSet(void);
  35:./Generated_Source/PSoC5/cyPm.c **** 
  36:./Generated_Source/PSoC5/cyPm.c **** void CyPmHibSaveSet(void);
  37:./Generated_Source/PSoC5/cyPm.c **** void CyPmHibRestore(void) ;
  38:./Generated_Source/PSoC5/cyPm.c **** 
  39:./Generated_Source/PSoC5/cyPm.c **** void CyPmHibSlpSaveSet(uint8 powerMode);
  40:./Generated_Source/PSoC5/cyPm.c **** void CyPmHibSlpRestore(void);
  41:./Generated_Source/PSoC5/cyPm.c **** 
  42:./Generated_Source/PSoC5/cyPm.c **** 
  43:./Generated_Source/PSoC5/cyPm.c **** /*******************************************************************************
  44:./Generated_Source/PSoC5/cyPm.c **** * Function Name: CyPmSaveClocks
  45:./Generated_Source/PSoC5/cyPm.c **** ********************************************************************************
  46:./Generated_Source/PSoC5/cyPm.c **** *
ARM GAS  C:\DOCUME~1\akay\LOCALS~1\Temp\ccsadWJD.s 			page 3


  47:./Generated_Source/PSoC5/cyPm.c **** * Summary:
  48:./Generated_Source/PSoC5/cyPm.c **** *  This function is called in preparation for entering sleep or hibernate low
  49:./Generated_Source/PSoC5/cyPm.c **** *  power modes. Saves all state of the clocking system that doesn?t persist
  50:./Generated_Source/PSoC5/cyPm.c **** *  during sleep/hibernate or that needs to be altered in preparation for
  51:./Generated_Source/PSoC5/cyPm.c **** *  sleep/hibernate. Shutdowns all the digital and analog clock dividers.
  52:./Generated_Source/PSoC5/cyPm.c **** *
  53:./Generated_Source/PSoC5/cyPm.c **** *  Switches the master clock over to the IMO and shuts down the PLL and MHz
  54:./Generated_Source/PSoC5/cyPm.c **** *  Crystal. If the IMO is not currently running it is enabled at 3 MHz before
  55:./Generated_Source/PSoC5/cyPm.c **** *  the switch over. The ILO and 32 KHz oscillators are not impacted. The current
  56:./Generated_Source/PSoC5/cyPm.c **** *  Flash wait state setting is saved and the Flash wait state setting is
  57:./Generated_Source/PSoC5/cyPm.c **** *  set for the current IMO speed.
  58:./Generated_Source/PSoC5/cyPm.c **** *
  59:./Generated_Source/PSoC5/cyPm.c **** * Parameters:
  60:./Generated_Source/PSoC5/cyPm.c **** *  None.
  61:./Generated_Source/PSoC5/cyPm.c **** *
  62:./Generated_Source/PSoC5/cyPm.c **** * Return:
  63:./Generated_Source/PSoC5/cyPm.c **** *  None.
  64:./Generated_Source/PSoC5/cyPm.c **** *
  65:./Generated_Source/PSoC5/cyPm.c **** * Reentrant:
  66:./Generated_Source/PSoC5/cyPm.c **** *  No.
  67:./Generated_Source/PSoC5/cyPm.c **** *
  68:./Generated_Source/PSoC5/cyPm.c **** * Side Effects:
  69:./Generated_Source/PSoC5/cyPm.c **** *  All peripheral clocks are going to be off after this API method call.
  70:./Generated_Source/PSoC5/cyPm.c **** *
  71:./Generated_Source/PSoC5/cyPm.c **** *******************************************************************************/
  72:./Generated_Source/PSoC5/cyPm.c **** void CyPmSaveClocks(void)
  73:./Generated_Source/PSoC5/cyPm.c **** {
  61              		.loc 1 73 0
  62              		.cfi_startproc
  63              		@ args = 0, pretend = 0, frame = 0
  64              		@ frame_needed = 1, uses_anonymous_args = 0
  65 0000 80B5     		push	{r7, lr}
  66              	.LCFI0:
  67              		.cfi_def_cfa_offset 8
  68 0002 00AF     		add	r7, sp, #0
  69              		.cfi_offset 14, -4
  70              		.cfi_offset 7, -8
  71              	.LCFI1:
  72              		.cfi_def_cfa_register 7
  74:./Generated_Source/PSoC5/cyPm.c ****     /* Digital and analog clocks - save enable state and disable them all */
  75:./Generated_Source/PSoC5/cyPm.c ****     cyPmBackup.enClkA = CY_PM_ACT_CFG1_REG & CY_PM_ACT_EN_CLK_A_MASK;
  73              		.loc 1 75 0
  74 0004 44F2A133 		movw	r3, #:lower16:1073759137
  75 0008 C4F20003 		movt	r3, #:upper16:1073759137
  76 000c 1B78     		ldrb	r3, [r3, #0]
  77 000e DBB2     		uxtb	r3, r3
  78 0010 1A46     		mov	r2, r3
  79 0012 02F00F02 		and	r2, r2, #15
  80 0016 40F20003 		movw	r3, #:lower16:cyPmBackup
  81 001a C0F20003 		movt	r3, #:upper16:cyPmBackup
  82 001e 5A74     		strb	r2, [r3, #17]
  76:./Generated_Source/PSoC5/cyPm.c ****     cyPmBackup.enClkD = CY_PM_ACT_CFG2_REG;
  83              		.loc 1 76 0
  84 0020 44F2A233 		movw	r3, #:lower16:1073759138
  85 0024 C4F20003 		movt	r3, #:upper16:1073759138
  86 0028 1B78     		ldrb	r3, [r3, #0]
  87 002a DAB2     		uxtb	r2, r3
ARM GAS  C:\DOCUME~1\akay\LOCALS~1\Temp\ccsadWJD.s 			page 4


  88 002c 40F20003 		movw	r3, #:lower16:cyPmBackup
  89 0030 C0F20003 		movt	r3, #:upper16:cyPmBackup
  90 0034 9A74     		strb	r2, [r3, #18]
  77:./Generated_Source/PSoC5/cyPm.c ****     CY_PM_ACT_CFG1_REG &= ~CY_PM_ACT_EN_CLK_A_MASK;
  91              		.loc 1 77 0
  92 0036 44F2A133 		movw	r3, #:lower16:1073759137
  93 003a C4F20003 		movt	r3, #:upper16:1073759137
  94 003e 44F2A132 		movw	r2, #:lower16:1073759137
  95 0042 C4F20002 		movt	r2, #:upper16:1073759137
  96 0046 1278     		ldrb	r2, [r2, #0]
  97 0048 D2B2     		uxtb	r2, r2
  98 004a 02F0F002 		and	r2, r2, #240
  99 004e 1A70     		strb	r2, [r3, #0]
  78:./Generated_Source/PSoC5/cyPm.c ****     CY_PM_ACT_CFG2_REG &= ~CY_PM_ACT_EN_CLK_D_MASK;
 100              		.loc 1 78 0
 101 0050 44F2A233 		movw	r3, #:lower16:1073759138
 102 0054 C4F20003 		movt	r3, #:upper16:1073759138
 103 0058 1B78     		ldrb	r3, [r3, #0]
 104 005a 44F2A233 		movw	r3, #:lower16:1073759138
 105 005e C4F20003 		movt	r3, #:upper16:1073759138
 106 0062 4FF00002 		mov	r2, #0
 107 0066 1A70     		strb	r2, [r3, #0]
  79:./Generated_Source/PSoC5/cyPm.c **** 
  80:./Generated_Source/PSoC5/cyPm.c ****     /* Master clock - save current source */
  81:./Generated_Source/PSoC5/cyPm.c ****     cyPmBackup.masterClkSrc = CY_PM_CLKDIST_MSTR1_REG & CY_PM_MASTER_CLK_SRC_MASK;
 108              		.loc 1 81 0
 109 0068 44F20503 		movw	r3, #:lower16:1073758213
 110 006c C4F20003 		movt	r3, #:upper16:1073758213
 111 0070 1B78     		ldrb	r3, [r3, #0]
 112 0072 DBB2     		uxtb	r3, r3
 113 0074 1A46     		mov	r2, r3
 114 0076 02F00302 		and	r2, r2, #3
 115 007a 40F20003 		movw	r3, #:lower16:cyPmBackup
 116 007e C0F20003 		movt	r3, #:upper16:cyPmBackup
 117 0082 DA70     		strb	r2, [r3, #3]
  82:./Generated_Source/PSoC5/cyPm.c **** 
  83:./Generated_Source/PSoC5/cyPm.c ****     /* IMO - save current IMO MHZ OSC */
  84:./Generated_Source/PSoC5/cyPm.c ****     cyPmBackup.imoFreqMhz = cyPmImoFreqReg2Mhz[(CY_PM_FASTCLK_IMO_CR_REG & CY_PM_FASTCLK_IMO_CR_FRE
 118              		.loc 1 84 0
 119 0084 44F20023 		movw	r3, #:lower16:1073758720
 120 0088 C4F20003 		movt	r3, #:upper16:1073758720
 121 008c 1B78     		ldrb	r3, [r3, #0]
 122 008e DBB2     		uxtb	r3, r3
 123 0090 03F00702 		and	r2, r3, #7
 124 0094 40F20003 		movw	r3, #:lower16:cyPmImoFreqReg2Mhz
 125 0098 C0F20003 		movt	r3, #:upper16:cyPmImoFreqReg2Mhz
 126 009c 9A5C     		ldrb	r2, [r3, r2]	@ zero_extendqisi2
 127 009e 40F20003 		movw	r3, #:lower16:cyPmBackup
 128 00a2 C0F20003 		movt	r3, #:upper16:cyPmBackup
 129 00a6 9A71     		strb	r2, [r3, #6]
  85:./Generated_Source/PSoC5/cyPm.c **** 
  86:./Generated_Source/PSoC5/cyPm.c ****     /* Save current flash wait cycles and set the maximum new one */
  87:./Generated_Source/PSoC5/cyPm.c ****     cyPmBackup.flashWaitCycles = (CY_PM_CACHE_CR_CYCLES_MASK & CY_PM_CACHE_CR_REG);
 130              		.loc 1 87 0
 131 00a8 44F60003 		movw	r3, #:lower16:1073760256
 132 00ac C4F20003 		movt	r3, #:upper16:1073760256
 133 00b0 1B78     		ldrb	r3, [r3, #0]
ARM GAS  C:\DOCUME~1\akay\LOCALS~1\Temp\ccsadWJD.s 			page 5


 134 00b2 DBB2     		uxtb	r3, r3
 135 00b4 1A46     		mov	r2, r3
 136 00b6 02F0C002 		and	r2, r2, #192
 137 00ba 40F20003 		movw	r3, #:lower16:cyPmBackup
 138 00be C0F20003 		movt	r3, #:upper16:cyPmBackup
 139 00c2 5A73     		strb	r2, [r3, #13]
  88:./Generated_Source/PSoC5/cyPm.c **** 
  89:./Generated_Source/PSoC5/cyPm.c ****     #if(CY_PM_PSOC3_ES3)
  90:./Generated_Source/PSoC5/cyPm.c **** 
  91:./Generated_Source/PSoC5/cyPm.c ****         CyFlash_SetWaitCycles(45u);
  92:./Generated_Source/PSoC5/cyPm.c ****                     
  93:./Generated_Source/PSoC5/cyPm.c ****     #endif  /* End of (CY_PM_PSOC3_ES3) */
  94:./Generated_Source/PSoC5/cyPm.c **** 
  95:./Generated_Source/PSoC5/cyPm.c ****     #if(CY_PM_PSOC3_ES2)
  96:./Generated_Source/PSoC5/cyPm.c ****         
  97:./Generated_Source/PSoC5/cyPm.c ****         CyFlash_SetWaitCycles(49u);
  98:./Generated_Source/PSoC5/cyPm.c ****         
  99:./Generated_Source/PSoC5/cyPm.c ****     #endif  /* End of (CY_PM_PSOC3_ES2) */
 100:./Generated_Source/PSoC5/cyPm.c ****     
 101:./Generated_Source/PSoC5/cyPm.c ****     #if(CY_PM_PSOC5_ES1 || CY_PM_PSOC5_ES2)
 102:./Generated_Source/PSoC5/cyPm.c **** 
 103:./Generated_Source/PSoC5/cyPm.c ****         CyFlash_SetWaitCycles(73u);
 140              		.loc 1 103 0
 141 00c4 4FF04900 		mov	r0, #73
 142 00c8 FFF7FEFF 		bl	CyFlash_SetWaitCycles
 104:./Generated_Source/PSoC5/cyPm.c **** 
 105:./Generated_Source/PSoC5/cyPm.c ****     #endif  /* End of (CY_PM_PSOC5_ES1 || CY_PM_PSOC5_ES2) */
 106:./Generated_Source/PSoC5/cyPm.c **** 
 107:./Generated_Source/PSoC5/cyPm.c ****     /* IMO - save enable state and enable with wait to settle */
 108:./Generated_Source/PSoC5/cyPm.c ****     if(0u != (CY_PM_ACT_CFG0_IMO & CY_PM_ACT_CFG0_REG))
 143              		.loc 1 108 0
 144 00cc 44F2A033 		movw	r3, #:lower16:1073759136
 145 00d0 C4F20003 		movt	r3, #:upper16:1073759136
 146 00d4 1B78     		ldrb	r3, [r3, #0]
 147 00d6 DBB2     		uxtb	r3, r3
 148 00d8 03F01003 		and	r3, r3, #16
 149 00dc 002B     		cmp	r3, #0
 150 00de 15D0     		beq	.L2
 109:./Generated_Source/PSoC5/cyPm.c ****     {
 110:./Generated_Source/PSoC5/cyPm.c ****         /* IMO - save enabled state */
 111:./Generated_Source/PSoC5/cyPm.c ****         cyPmBackup.imoEnable = CY_PM_ENABLED;
 151              		.loc 1 111 0
 152 00e0 40F20003 		movw	r3, #:lower16:cyPmBackup
 153 00e4 C0F20003 		movt	r3, #:upper16:cyPmBackup
 154 00e8 4FF00102 		mov	r2, #1
 155 00ec 1A72     		strb	r2, [r3, #8]
 112:./Generated_Source/PSoC5/cyPm.c ****         
 113:./Generated_Source/PSoC5/cyPm.c ****         /* IMO - set it below 48 MHz */
 114:./Generated_Source/PSoC5/cyPm.c ****         if((CY_PM_FASTCLK_IMO_CR_REG & CY_PM_FASTCLK_IMO_CR_FREQ_MASK) > CY_IMO_FREQ_48MHZ)
 156              		.loc 1 114 0
 157 00ee 44F20023 		movw	r3, #:lower16:1073758720
 158 00f2 C4F20003 		movt	r3, #:upper16:1073758720
 159 00f6 1B78     		ldrb	r3, [r3, #0]
 160 00f8 DBB2     		uxtb	r3, r3
 161 00fa 03F00703 		and	r3, r3, #7
 162 00fe 042B     		cmp	r3, #4
 163 0100 23D9     		bls	.L21
ARM GAS  C:\DOCUME~1\akay\LOCALS~1\Temp\ccsadWJD.s 			page 6


 115:./Generated_Source/PSoC5/cyPm.c ****         {
 116:./Generated_Source/PSoC5/cyPm.c ****             /* IMO - set 48 MHz frequency */
 117:./Generated_Source/PSoC5/cyPm.c ****             CyIMO_SetFreq(CY_IMO_FREQ_48MHZ);
 164              		.loc 1 117 0
 165 0102 4FF00400 		mov	r0, #4
 166 0106 FFF7FEFF 		bl	CyIMO_SetFreq
 167 010a 1FE0     		b	.L4
 168              	.L2:
 118:./Generated_Source/PSoC5/cyPm.c ****         }
 119:./Generated_Source/PSoC5/cyPm.c ****     }
 120:./Generated_Source/PSoC5/cyPm.c ****     else
 121:./Generated_Source/PSoC5/cyPm.c ****     {
 122:./Generated_Source/PSoC5/cyPm.c ****         /* IMO - save disabled state */
 123:./Generated_Source/PSoC5/cyPm.c ****         cyPmBackup.imoEnable = CY_PM_DISABLED;
 169              		.loc 1 123 0
 170 010c 40F20003 		movw	r3, #:lower16:cyPmBackup
 171 0110 C0F20003 		movt	r3, #:upper16:cyPmBackup
 172 0114 4FF00002 		mov	r2, #0
 173 0118 1A72     		strb	r2, [r3, #8]
 124:./Generated_Source/PSoC5/cyPm.c ****         
 125:./Generated_Source/PSoC5/cyPm.c ****         /* IMO - set 3 MHz frequency if not yet */
 126:./Generated_Source/PSoC5/cyPm.c ****         if(cyPmImoFreqReg2Mhz[(CY_PM_FASTCLK_IMO_CR_REG & CY_PM_FASTCLK_IMO_CR_FREQ_MASK)] != CY_IM
 174              		.loc 1 126 0
 175 011a 44F20023 		movw	r3, #:lower16:1073758720
 176 011e C4F20003 		movt	r3, #:upper16:1073758720
 177 0122 1B78     		ldrb	r3, [r3, #0]
 178 0124 DBB2     		uxtb	r3, r3
 179 0126 03F00702 		and	r2, r3, #7
 180 012a 40F20003 		movw	r3, #:lower16:cyPmImoFreqReg2Mhz
 181 012e C0F20003 		movt	r3, #:upper16:cyPmImoFreqReg2Mhz
 182 0132 9B5C     		ldrb	r3, [r3, r2]	@ zero_extendqisi2
 183 0134 002B     		cmp	r3, #0
 184 0136 03D0     		beq	.L5
 127:./Generated_Source/PSoC5/cyPm.c ****         {
 128:./Generated_Source/PSoC5/cyPm.c ****             CyIMO_SetFreq(CY_IMO_FREQ_3MHZ);
 185              		.loc 1 128 0
 186 0138 4FF00000 		mov	r0, #0
 187 013c FFF7FEFF 		bl	CyIMO_SetFreq
 188              	.L5:
 129:./Generated_Source/PSoC5/cyPm.c ****         }   /* Do nothing if IMO MHZ OSC is already set */
 130:./Generated_Source/PSoC5/cyPm.c ****         
 131:./Generated_Source/PSoC5/cyPm.c ****         /* IMO - enable */
 132:./Generated_Source/PSoC5/cyPm.c ****         CyIMO_Start(CY_PM_WAIT_IMO);
 189              		.loc 1 132 0
 190 0140 4FF00000 		mov	r0, #0
 191 0144 FFF7FEFF 		bl	CyIMO_Start
 192 0148 00E0     		b	.L4
 193              	.L21:
 194              		.loc 1 117 0
 195 014a 00BF     		nop
 196              	.L4:
 133:./Generated_Source/PSoC5/cyPm.c ****     }
 134:./Generated_Source/PSoC5/cyPm.c **** 
 135:./Generated_Source/PSoC5/cyPm.c ****     /* IMO - save the current IMOCLK source and set to IMO if not yet */
 136:./Generated_Source/PSoC5/cyPm.c ****     if(0u != (CY_PM_FASTCLK_IMO_CR_REG & CY_PM_FASTCLK_IMO_CR_XCLKEN))
 197              		.loc 1 136 0
 198 014c 44F20023 		movw	r3, #:lower16:1073758720
ARM GAS  C:\DOCUME~1\akay\LOCALS~1\Temp\ccsadWJD.s 			page 7


 199 0150 C4F20003 		movt	r3, #:upper16:1073758720
 200 0154 1B78     		ldrb	r3, [r3, #0]
 201 0156 DBB2     		uxtb	r3, r3
 202 0158 03F02003 		and	r3, r3, #32
 203 015c 002B     		cmp	r3, #0
 204 015e 18D0     		beq	.L6
 137:./Generated_Source/PSoC5/cyPm.c ****     {
 138:./Generated_Source/PSoC5/cyPm.c ****         /* DSI or XTAL CLK */
 139:./Generated_Source/PSoC5/cyPm.c ****         cyPmBackup.imoClkSrc =
 140:./Generated_Source/PSoC5/cyPm.c ****             (CY_PM_CLKDIST_CR_REG & CY_PM_CLKDIST_IMO2X_SRC) ? CY_IMO_SOURCE_XTAL : CY_IMO_SOURCE_D
 205              		.loc 1 140 0
 206 0160 44F20003 		movw	r3, #:lower16:1073758208
 207 0164 C4F20003 		movt	r3, #:upper16:1073758208
 208 0168 1B78     		ldrb	r3, [r3, #0]
 209 016a DBB2     		uxtb	r3, r3
 210 016c 03F04003 		and	r3, r3, #64
 211              		.loc 1 139 0
 212 0170 002B     		cmp	r3, #0
 213 0172 02D0     		beq	.L7
 214 0174 4FF00102 		mov	r2, #1
 215 0178 01E0     		b	.L8
 216              	.L7:
 217 017a 4FF00202 		mov	r2, #2
 218              	.L8:
 219 017e 40F20003 		movw	r3, #:lower16:cyPmBackup
 220 0182 C0F20003 		movt	r3, #:upper16:cyPmBackup
 221 0186 1A71     		strb	r2, [r3, #4]
 141:./Generated_Source/PSoC5/cyPm.c **** 
 142:./Generated_Source/PSoC5/cyPm.c ****         /* IMO -  set IMOCLK source to MHz OSC */
 143:./Generated_Source/PSoC5/cyPm.c ****         CyIMO_SetSource(CY_IMO_SOURCE_IMO);
 222              		.loc 1 143 0
 223 0188 4FF00000 		mov	r0, #0
 224 018c FFF7FEFF 		bl	CyIMO_SetSource
 225 0190 06E0     		b	.L9
 226              	.L6:
 144:./Generated_Source/PSoC5/cyPm.c ****     }
 145:./Generated_Source/PSoC5/cyPm.c ****     else
 146:./Generated_Source/PSoC5/cyPm.c ****     {
 147:./Generated_Source/PSoC5/cyPm.c ****         /* IMO */
 148:./Generated_Source/PSoC5/cyPm.c ****         cyPmBackup.imoClkSrc = CY_IMO_SOURCE_IMO;
 227              		.loc 1 148 0
 228 0192 40F20003 		movw	r3, #:lower16:cyPmBackup
 229 0196 C0F20003 		movt	r3, #:upper16:cyPmBackup
 230 019a 4FF00002 		mov	r2, #0
 231 019e 1A71     		strb	r2, [r3, #4]
 232              	.L9:
 149:./Generated_Source/PSoC5/cyPm.c ****     }
 150:./Generated_Source/PSoC5/cyPm.c **** 
 151:./Generated_Source/PSoC5/cyPm.c ****     /* Save clk_imo source */
 152:./Generated_Source/PSoC5/cyPm.c ****     cyPmBackup.clkImoSrc = (CY_PM_CLKDIST_CR_REG & CY_PM_CLKDIST_IMO_OUT_MASK);
 233              		.loc 1 152 0
 234 01a0 44F20003 		movw	r3, #:lower16:1073758208
 235 01a4 C4F20003 		movt	r3, #:upper16:1073758208
 236 01a8 1B78     		ldrb	r3, [r3, #0]
 237 01aa DBB2     		uxtb	r3, r3
 238 01ac 1A46     		mov	r2, r3
 239 01ae 02F03002 		and	r2, r2, #48
ARM GAS  C:\DOCUME~1\akay\LOCALS~1\Temp\ccsadWJD.s 			page 8


 240 01b2 40F20003 		movw	r3, #:lower16:cyPmBackup
 241 01b6 C0F20003 		movt	r3, #:upper16:cyPmBackup
 242 01ba 5A71     		strb	r2, [r3, #5]
 153:./Generated_Source/PSoC5/cyPm.c **** 
 154:./Generated_Source/PSoC5/cyPm.c ****     if(CY_PM_CLKDIST_IMO_OUT_IMO != cyPmBackup.clkImoSrc)
 243              		.loc 1 154 0
 244 01bc 40F20003 		movw	r3, #:lower16:cyPmBackup
 245 01c0 C0F20003 		movt	r3, #:upper16:cyPmBackup
 246 01c4 5B79     		ldrb	r3, [r3, #5]	@ zero_extendqisi2
 247 01c6 002B     		cmp	r3, #0
 248 01c8 0CD0     		beq	.L10
 155:./Generated_Source/PSoC5/cyPm.c ****     {
 156:./Generated_Source/PSoC5/cyPm.c ****         /* IMOCLK2X or SPC OSC is source for clk_imo */
 157:./Generated_Source/PSoC5/cyPm.c **** 
 158:./Generated_Source/PSoC5/cyPm.c ****         /* Set IMOCLK to source for clk_imo */
 159:./Generated_Source/PSoC5/cyPm.c ****         CY_PM_CLKDIST_CR_REG = (CY_PM_CLKDIST_CR_REG & ~CY_PM_CLKDIST_IMO_OUT_MASK) |
 249              		.loc 1 159 0
 250 01ca 44F20003 		movw	r3, #:lower16:1073758208
 251 01ce C4F20003 		movt	r3, #:upper16:1073758208
 252 01d2 44F20002 		movw	r2, #:lower16:1073758208
 253 01d6 C4F20002 		movt	r2, #:upper16:1073758208
 254 01da 1278     		ldrb	r2, [r2, #0]
 255 01dc D2B2     		uxtb	r2, r2
 256 01de 02F0CF02 		and	r2, r2, #207
 257 01e2 1A70     		strb	r2, [r3, #0]
 258              	.L10:
 160:./Generated_Source/PSoC5/cyPm.c ****                             CY_PM_CLKDIST_IMO_OUT_IMO;
 161:./Generated_Source/PSoC5/cyPm.c ****     }    /* Need to change nothing if IMOCLK is source clk_imo */
 162:./Generated_Source/PSoC5/cyPm.c **** 
 163:./Generated_Source/PSoC5/cyPm.c ****     /* IMO doubler - save enable state and disable */
 164:./Generated_Source/PSoC5/cyPm.c ****     if(0u != (CY_PM_FASTCLK_IMO_CR_REG & CY_PM_FASTCLK_IMO_CR_F2XON))
 259              		.loc 1 164 0
 260 01e4 44F20023 		movw	r3, #:lower16:1073758720
 261 01e8 C4F20003 		movt	r3, #:upper16:1073758720
 262 01ec 1B78     		ldrb	r3, [r3, #0]
 263 01ee DBB2     		uxtb	r3, r3
 264 01f0 03F01003 		and	r3, r3, #16
 265 01f4 002B     		cmp	r3, #0
 266 01f6 09D0     		beq	.L11
 165:./Generated_Source/PSoC5/cyPm.c ****     {
 166:./Generated_Source/PSoC5/cyPm.c ****         /* IMO doubler enabled - save and disable */
 167:./Generated_Source/PSoC5/cyPm.c ****         cyPmBackup.imo2x = CY_PM_ENABLED;
 267              		.loc 1 167 0
 268 01f8 40F20003 		movw	r3, #:lower16:cyPmBackup
 269 01fc C0F20003 		movt	r3, #:upper16:cyPmBackup
 270 0200 4FF00102 		mov	r2, #1
 271 0204 DA71     		strb	r2, [r3, #7]
 168:./Generated_Source/PSoC5/cyPm.c ****         CyIMO_DisableDoubler();
 272              		.loc 1 168 0
 273 0206 FFF7FEFF 		bl	CyIMO_DisableDoubler
 274 020a 06E0     		b	.L12
 275              	.L11:
 169:./Generated_Source/PSoC5/cyPm.c ****     }
 170:./Generated_Source/PSoC5/cyPm.c ****     else
 171:./Generated_Source/PSoC5/cyPm.c ****     {
 172:./Generated_Source/PSoC5/cyPm.c ****         /* IMO doubler disabled */
 173:./Generated_Source/PSoC5/cyPm.c ****         cyPmBackup.imo2x = CY_PM_DISABLED;
ARM GAS  C:\DOCUME~1\akay\LOCALS~1\Temp\ccsadWJD.s 			page 9


 276              		.loc 1 173 0
 277 020c 40F20003 		movw	r3, #:lower16:cyPmBackup
 278 0210 C0F20003 		movt	r3, #:upper16:cyPmBackup
 279 0214 4FF00002 		mov	r2, #0
 280 0218 DA71     		strb	r2, [r3, #7]
 281              	.L12:
 174:./Generated_Source/PSoC5/cyPm.c ****     }
 175:./Generated_Source/PSoC5/cyPm.c **** 
 176:./Generated_Source/PSoC5/cyPm.c ****     /* Master clock - save divider and set it to divide-by-one (if no yet) */
 177:./Generated_Source/PSoC5/cyPm.c ****     cyPmBackup.clkSyncDiv = CY_PM_CLKDIST_MSTR0_REG;
 282              		.loc 1 177 0
 283 021a 44F20403 		movw	r3, #:lower16:1073758212
 284 021e C4F20003 		movt	r3, #:upper16:1073758212
 285 0222 1B78     		ldrb	r3, [r3, #0]
 286 0224 DAB2     		uxtb	r2, r3
 287 0226 40F20003 		movw	r3, #:lower16:cyPmBackup
 288 022a C0F20003 		movt	r3, #:upper16:cyPmBackup
 289 022e 1A73     		strb	r2, [r3, #12]
 178:./Generated_Source/PSoC5/cyPm.c ****     if(CY_PM_DIV_BY_ONE != cyPmBackup.clkSyncDiv)
 290              		.loc 1 178 0
 291 0230 40F20003 		movw	r3, #:lower16:cyPmBackup
 292 0234 C0F20003 		movt	r3, #:upper16:cyPmBackup
 293 0238 1B7B     		ldrb	r3, [r3, #12]	@ zero_extendqisi2
 294 023a 002B     		cmp	r3, #0
 295 023c 03D0     		beq	.L13
 179:./Generated_Source/PSoC5/cyPm.c ****     {
 180:./Generated_Source/PSoC5/cyPm.c ****         /* Divider is > 1 */
 181:./Generated_Source/PSoC5/cyPm.c ****         CyMasterClk_SetDivider(CY_PM_DIV_BY_ONE);
 296              		.loc 1 181 0
 297 023e 4FF00000 		mov	r0, #0
 298 0242 FFF7FEFF 		bl	CyMasterClk_SetDivider
 299              	.L13:
 182:./Generated_Source/PSoC5/cyPm.c ****     }    /* Need to change nothing if master clock divider is 1 */
 183:./Generated_Source/PSoC5/cyPm.c **** 
 184:./Generated_Source/PSoC5/cyPm.c ****     /* Master clock source - set it to IMO if not yet. Saved above. */
 185:./Generated_Source/PSoC5/cyPm.c ****     if(CY_MASTER_SOURCE_IMO != cyPmBackup.masterClkSrc)
 300              		.loc 1 185 0
 301 0246 40F20003 		movw	r3, #:lower16:cyPmBackup
 302 024a C0F20003 		movt	r3, #:upper16:cyPmBackup
 303 024e DB78     		ldrb	r3, [r3, #3]	@ zero_extendqisi2
 304 0250 002B     		cmp	r3, #0
 305 0252 03D0     		beq	.L14
 186:./Generated_Source/PSoC5/cyPm.c ****     {
 187:./Generated_Source/PSoC5/cyPm.c ****         CyMasterClk_SetSource(CY_MASTER_SOURCE_IMO);
 306              		.loc 1 187 0
 307 0254 4FF00000 		mov	r0, #0
 308 0258 FFF7FEFF 		bl	CyMasterClk_SetSource
 309              	.L14:
 188:./Generated_Source/PSoC5/cyPm.c ****     }    /* Need to change nothing if master clock source is IMO */
 189:./Generated_Source/PSoC5/cyPm.c **** 
 190:./Generated_Source/PSoC5/cyPm.c ****     /* Bus clock - save divider and set it, if needed, to divide-by-one */
 191:./Generated_Source/PSoC5/cyPm.c ****     cyPmBackup.clkBusDiv = ((uint16) CY_PM_CLK_BUS_MSB_DIV_REG << 8u) | CY_PM_CLK_BUS_LSB_DIV_REG;
 310              		.loc 1 191 0
 311 025c 44F20703 		movw	r3, #:lower16:1073758215
 312 0260 C4F20003 		movt	r3, #:upper16:1073758215
 313 0264 1B78     		ldrb	r3, [r3, #0]
 314 0266 DBB2     		uxtb	r3, r3
ARM GAS  C:\DOCUME~1\akay\LOCALS~1\Temp\ccsadWJD.s 			page 10


 315 0268 4FEA0323 		lsl	r3, r3, #8
 316 026c 9AB2     		uxth	r2, r3
 317 026e 44F20603 		movw	r3, #:lower16:1073758214
 318 0272 C4F20003 		movt	r3, #:upper16:1073758214
 319 0276 1B78     		ldrb	r3, [r3, #0]
 320 0278 DBB2     		uxtb	r3, r3
 321 027a 42EA0303 		orr	r3, r2, r3
 322 027e 9BB2     		uxth	r3, r3
 323 0280 9AB2     		uxth	r2, r3
 324 0282 40F20003 		movw	r3, #:lower16:cyPmBackup
 325 0286 C0F20003 		movt	r3, #:upper16:cyPmBackup
 326 028a 5A81     		strh	r2, [r3, #10]	@ movhi
 192:./Generated_Source/PSoC5/cyPm.c ****     if(CY_PM_BUS_CLK_DIV_BY_ONE != cyPmBackup.clkBusDiv)
 327              		.loc 1 192 0
 328 028c 40F20003 		movw	r3, #:lower16:cyPmBackup
 329 0290 C0F20003 		movt	r3, #:upper16:cyPmBackup
 330 0294 5B89     		ldrh	r3, [r3, #10]
 331 0296 002B     		cmp	r3, #0
 332 0298 03D0     		beq	.L15
 193:./Generated_Source/PSoC5/cyPm.c ****     {
 194:./Generated_Source/PSoC5/cyPm.c ****         CyBusClk_SetDivider(CY_PM_BUS_CLK_DIV_BY_ONE);
 333              		.loc 1 194 0
 334 029a 4FF00000 		mov	r0, #0
 335 029e FFF7FEFF 		bl	CyBusClk_SetDivider
 336              	.L15:
 195:./Generated_Source/PSoC5/cyPm.c ****     }    /* Do nothing if saved and actual values are equal */
 196:./Generated_Source/PSoC5/cyPm.c **** 
 197:./Generated_Source/PSoC5/cyPm.c **** 
 198:./Generated_Source/PSoC5/cyPm.c ****     /* Get CPU frequency in MHz */
 199:./Generated_Source/PSoC5/cyPm.c ****     #if(CY_PM_PSOC3_ES3)
 200:./Generated_Source/PSoC5/cyPm.c **** 
 201:./Generated_Source/PSoC5/cyPm.c ****         cyPmBackup.cpuFreqMhz = (cyPmImoFreqReg2Mhz[CY_PM_FASTCLK_IMO_CR_REG & CY_PM_FASTCLK_IMO_CR
 202:./Generated_Source/PSoC5/cyPm.c ****                     (((CY_PM_CLKDIST_MSTR1_REG & CY_PM_CLKDIST_CPU_DIV_MASK) >> 4u) + 1u));
 203:./Generated_Source/PSoC5/cyPm.c **** 
 204:./Generated_Source/PSoC5/cyPm.c ****     #endif  /* End of (CY_PM_PSOC3_ES3) */
 205:./Generated_Source/PSoC5/cyPm.c **** 
 206:./Generated_Source/PSoC5/cyPm.c ****     #if(CY_PM_PSOC3_ES2)
 207:./Generated_Source/PSoC5/cyPm.c **** 
 208:./Generated_Source/PSoC5/cyPm.c ****         cyPmBackup.cpuFreqMhz = (cyPmImoFreqReg2Mhz[CY_PM_FASTCLK_IMO_CR_REG & CY_PM_FASTCLK_IMO_CR
 209:./Generated_Source/PSoC5/cyPm.c ****                     ((CY_GET_XTND_REG8(CYREG_SFR_USER_CPUCLK_DIV) & CY_PM_SFR_USER_CPUCLK_MASK) + 1
 210:./Generated_Source/PSoC5/cyPm.c **** 
 211:./Generated_Source/PSoC5/cyPm.c ****     #endif  /* End of (CY_PM_PSOC3_ES2) */
 212:./Generated_Source/PSoC5/cyPm.c ****     
 213:./Generated_Source/PSoC5/cyPm.c ****     #if(CY_PM_PSOC5_ES1 || CY_PM_PSOC5_ES2)
 214:./Generated_Source/PSoC5/cyPm.c **** 
 215:./Generated_Source/PSoC5/cyPm.c ****         /* The CPU clock is directly derived from bus clock */
 216:./Generated_Source/PSoC5/cyPm.c **** 
 217:./Generated_Source/PSoC5/cyPm.c ****         cyPmBackup.cpuFreqMhz = (cyPmImoFreqReg2Mhz[CY_PM_FASTCLK_IMO_CR_REG & CY_PM_FASTCLK_IMO_CR
 337              		.loc 1 217 0
 338 02a2 44F20023 		movw	r3, #:lower16:1073758720
 339 02a6 C4F20003 		movt	r3, #:upper16:1073758720
 340 02aa 1B78     		ldrb	r3, [r3, #0]
 341 02ac DBB2     		uxtb	r3, r3
 342 02ae 03F00702 		and	r2, r3, #7
 343 02b2 40F20003 		movw	r3, #:lower16:cyPmImoFreqReg2Mhz
 344 02b6 C0F20003 		movt	r3, #:upper16:cyPmImoFreqReg2Mhz
 345 02ba 9A5C     		ldrb	r2, [r3, r2]	@ zero_extendqisi2
ARM GAS  C:\DOCUME~1\akay\LOCALS~1\Temp\ccsadWJD.s 			page 11


 346 02bc 40F20003 		movw	r3, #:lower16:cyPmBackup
 347 02c0 C0F20003 		movt	r3, #:upper16:cyPmBackup
 348 02c4 DA75     		strb	r2, [r3, #23]
 218:./Generated_Source/PSoC5/cyPm.c **** 
 219:./Generated_Source/PSoC5/cyPm.c ****     #endif  /* End of (CY_PM_PSOC5_ES1 || CY_PM_PSOC5_ES2) */
 220:./Generated_Source/PSoC5/cyPm.c ****     
 221:./Generated_Source/PSoC5/cyPm.c ****     /* Set number of wait cycles for the flash */
 222:./Generated_Source/PSoC5/cyPm.c ****     CyFlash_SetWaitCycles(cyPmBackup.cpuFreqMhz);
 349              		.loc 1 222 0
 350 02c6 40F20003 		movw	r3, #:lower16:cyPmBackup
 351 02ca C0F20003 		movt	r3, #:upper16:cyPmBackup
 352 02ce DB7D     		ldrb	r3, [r3, #23]	@ zero_extendqisi2
 353 02d0 1846     		mov	r0, r3
 354 02d2 FFF7FEFF 		bl	CyFlash_SetWaitCycles
 223:./Generated_Source/PSoC5/cyPm.c **** 
 224:./Generated_Source/PSoC5/cyPm.c ****     /* PLL - check enable state, disable if needed */
 225:./Generated_Source/PSoC5/cyPm.c ****     if(0u != (CY_PM_FASTCLK_PLL_CFG0_REG & CY_PM_PLL_CFG0_ENABLE))
 355              		.loc 1 225 0
 356 02d6 44F22023 		movw	r3, #:lower16:1073758752
 357 02da C4F20003 		movt	r3, #:upper16:1073758752
 358 02de 1B78     		ldrb	r3, [r3, #0]
 359 02e0 DBB2     		uxtb	r3, r3
 360 02e2 03F00103 		and	r3, r3, #1
 361 02e6 DBB2     		uxtb	r3, r3
 362 02e8 002B     		cmp	r3, #0
 363 02ea 09D0     		beq	.L16
 226:./Generated_Source/PSoC5/cyPm.c ****     {
 227:./Generated_Source/PSoC5/cyPm.c ****         /* PLL is enabled - save state and disable */
 228:./Generated_Source/PSoC5/cyPm.c ****         cyPmBackup.pllEnableState = CY_PM_ENABLED;
 364              		.loc 1 228 0
 365 02ec 40F20003 		movw	r3, #:lower16:cyPmBackup
 366 02f0 C0F20003 		movt	r3, #:upper16:cyPmBackup
 367 02f4 4FF00102 		mov	r2, #1
 368 02f8 5A70     		strb	r2, [r3, #1]
 229:./Generated_Source/PSoC5/cyPm.c ****         CyPLL_OUT_Stop();
 369              		.loc 1 229 0
 370 02fa FFF7FEFF 		bl	CyPLL_OUT_Stop
 371 02fe 06E0     		b	.L17
 372              	.L16:
 230:./Generated_Source/PSoC5/cyPm.c ****     }
 231:./Generated_Source/PSoC5/cyPm.c ****     else
 232:./Generated_Source/PSoC5/cyPm.c ****     {
 233:./Generated_Source/PSoC5/cyPm.c ****         /* PLL is disabled - save state */
 234:./Generated_Source/PSoC5/cyPm.c ****         cyPmBackup.pllEnableState = CY_PM_DISABLED;
 373              		.loc 1 234 0
 374 0300 40F20003 		movw	r3, #:lower16:cyPmBackup
 375 0304 C0F20003 		movt	r3, #:upper16:cyPmBackup
 376 0308 4FF00002 		mov	r2, #0
 377 030c 5A70     		strb	r2, [r3, #1]
 378              	.L17:
 235:./Generated_Source/PSoC5/cyPm.c ****     }
 236:./Generated_Source/PSoC5/cyPm.c **** 
 237:./Generated_Source/PSoC5/cyPm.c ****     /* MHz ECO - check enable state and disable if needed */
 238:./Generated_Source/PSoC5/cyPm.c ****     if(0u != (CY_PM_FASTCLK_XMHZ_CSR_REG & CY_PM_XMHZ_CSR_ENABLE))
 379              		.loc 1 238 0
 380 030e 44F21023 		movw	r3, #:lower16:1073758736
 381 0312 C4F20003 		movt	r3, #:upper16:1073758736
ARM GAS  C:\DOCUME~1\akay\LOCALS~1\Temp\ccsadWJD.s 			page 12


 382 0316 1B78     		ldrb	r3, [r3, #0]
 383 0318 DBB2     		uxtb	r3, r3
 384 031a 03F00103 		and	r3, r3, #1
 385 031e DBB2     		uxtb	r3, r3
 386 0320 002B     		cmp	r3, #0
 387 0322 09D0     		beq	.L18
 239:./Generated_Source/PSoC5/cyPm.c ****     {
 240:./Generated_Source/PSoC5/cyPm.c ****         /* MHz ECO is enabled - save state and disable */
 241:./Generated_Source/PSoC5/cyPm.c ****         cyPmBackup.xmhzEnableState = CY_PM_ENABLED;
 388              		.loc 1 241 0
 389 0324 40F20003 		movw	r3, #:lower16:cyPmBackup
 390 0328 C0F20003 		movt	r3, #:upper16:cyPmBackup
 391 032c 4FF00102 		mov	r2, #1
 392 0330 9A70     		strb	r2, [r3, #2]
 242:./Generated_Source/PSoC5/cyPm.c ****         CyXTAL_Stop();
 393              		.loc 1 242 0
 394 0332 FFF7FEFF 		bl	CyXTAL_Stop
 395 0336 06E0     		b	.L20
 396              	.L18:
 243:./Generated_Source/PSoC5/cyPm.c ****     }
 244:./Generated_Source/PSoC5/cyPm.c ****     else
 245:./Generated_Source/PSoC5/cyPm.c ****     {
 246:./Generated_Source/PSoC5/cyPm.c ****         /* MHz ECO is disabled - save state */
 247:./Generated_Source/PSoC5/cyPm.c ****         cyPmBackup.xmhzEnableState = CY_PM_DISABLED;
 397              		.loc 1 247 0
 398 0338 40F20003 		movw	r3, #:lower16:cyPmBackup
 399 033c C0F20003 		movt	r3, #:upper16:cyPmBackup
 400 0340 4FF00002 		mov	r2, #0
 401 0344 9A70     		strb	r2, [r3, #2]
 402              	.L20:
 248:./Generated_Source/PSoC5/cyPm.c ****     }
 249:./Generated_Source/PSoC5/cyPm.c **** }
 403              		.loc 1 249 0
 404 0346 80BD     		pop	{r7, pc}
 405              		.cfi_endproc
 406              	.LFE0:
 407              		.size	CyPmSaveClocks, .-CyPmSaveClocks
 408              		.section	.text.CyPmRestoreClocks,"ax",%progbits
 409              		.align	2
 410              		.global	CyPmRestoreClocks
 411              		.thumb
 412              		.thumb_func
 413              		.type	CyPmRestoreClocks, %function
 414              	CyPmRestoreClocks:
 415              	.LFB1:
 250:./Generated_Source/PSoC5/cyPm.c **** 
 251:./Generated_Source/PSoC5/cyPm.c **** 
 252:./Generated_Source/PSoC5/cyPm.c **** /*******************************************************************************
 253:./Generated_Source/PSoC5/cyPm.c **** * Function Name: CyPmRestoreClocks
 254:./Generated_Source/PSoC5/cyPm.c **** ********************************************************************************
 255:./Generated_Source/PSoC5/cyPm.c **** *
 256:./Generated_Source/PSoC5/cyPm.c **** * Summary:
 257:./Generated_Source/PSoC5/cyPm.c **** *  Restores any state that was preserved by the last call to CyPmSaveClocks().
 258:./Generated_Source/PSoC5/cyPm.c **** *  The Flash wait state setting is also restored.
 259:./Generated_Source/PSoC5/cyPm.c **** *
 260:./Generated_Source/PSoC5/cyPm.c **** *  The merge region could be used to process state when  the megahertz crystal
 261:./Generated_Source/PSoC5/cyPm.c **** *  is not ready after CY_PM_MHZ_XTAL_WAIT_MS milliseconds.
ARM GAS  C:\DOCUME~1\akay\LOCALS~1\Temp\ccsadWJD.s 			page 13


 262:./Generated_Source/PSoC5/cyPm.c **** *
 263:./Generated_Source/PSoC5/cyPm.c **** *
 264:./Generated_Source/PSoC5/cyPm.c **** * Parameters:
 265:./Generated_Source/PSoC5/cyPm.c **** *  None.
 266:./Generated_Source/PSoC5/cyPm.c **** *
 267:./Generated_Source/PSoC5/cyPm.c **** * Return:
 268:./Generated_Source/PSoC5/cyPm.c **** *  None.
 269:./Generated_Source/PSoC5/cyPm.c **** *
 270:./Generated_Source/PSoC5/cyPm.c **** * Side Effects:
 271:./Generated_Source/PSoC5/cyPm.c **** *  None.
 272:./Generated_Source/PSoC5/cyPm.c **** *
 273:./Generated_Source/PSoC5/cyPm.c **** *******************************************************************************/
 274:./Generated_Source/PSoC5/cyPm.c **** void CyPmRestoreClocks(void) 
 275:./Generated_Source/PSoC5/cyPm.c **** {
 416              		.loc 1 275 0
 417              		.cfi_startproc
 418              		@ args = 0, pretend = 0, frame = 8
 419              		@ frame_needed = 1, uses_anonymous_args = 0
 420 0000 80B5     		push	{r7, lr}
 421              	.LCFI2:
 422              		.cfi_def_cfa_offset 8
 423 0002 82B0     		sub	sp, sp, #8
 424              	.LCFI3:
 425              		.cfi_def_cfa_offset 16
 426 0004 00AF     		add	r7, sp, #0
 427              		.cfi_offset 14, -4
 428              		.cfi_offset 7, -8
 429              	.LCFI4:
 430              		.cfi_def_cfa_register 7
 276:./Generated_Source/PSoC5/cyPm.c ****     cystatus status = CYRET_TIMEOUT;
 431              		.loc 1 276 0
 432 0006 4FF01003 		mov	r3, #16
 433 000a 3B60     		str	r3, [r7, #0]
 277:./Generated_Source/PSoC5/cyPm.c ****     uint8 i;
 278:./Generated_Source/PSoC5/cyPm.c ****     
 279:./Generated_Source/PSoC5/cyPm.c ****     /* MHz ECO restore state */
 280:./Generated_Source/PSoC5/cyPm.c ****     if(CY_PM_ENABLED == cyPmBackup.xmhzEnableState)
 434              		.loc 1 280 0
 435 000c 40F20003 		movw	r3, #:lower16:cyPmBackup
 436 0010 C0F20003 		movt	r3, #:upper16:cyPmBackup
 437 0014 9B78     		ldrb	r3, [r3, #2]	@ zero_extendqisi2
 438 0016 012B     		cmp	r3, #1
 439 0018 2ED1     		bne	.L23
 281:./Generated_Source/PSoC5/cyPm.c ****     {
 282:./Generated_Source/PSoC5/cyPm.c ****         /* Enabling XMHZ XTAL. The actual CyXTAL_Start() with non zero wait
 283:./Generated_Source/PSoC5/cyPm.c ****            period uses FTW for period measurement. This could cause a problem
 284:./Generated_Source/PSoC5/cyPm.c ****            if CTW/FTW is used as a wake up time in the low power modes APIs.
 285:./Generated_Source/PSoC5/cyPm.c ****            So, the XTAL wait procedure is implemented with a software delay.
 286:./Generated_Source/PSoC5/cyPm.c ****         */
 287:./Generated_Source/PSoC5/cyPm.c ****         
 288:./Generated_Source/PSoC5/cyPm.c ****         /* Enable XMHZ XTAL with no wait */
 289:./Generated_Source/PSoC5/cyPm.c ****         CyXTAL_Start(CY_PM_XTAL_MHZ_NO_WAIT);
 440              		.loc 1 289 0
 441 001a 4FF00000 		mov	r0, #0
 442 001e FFF7FEFF 		bl	CyXTAL_Start
 290:./Generated_Source/PSoC5/cyPm.c ****         
 291:./Generated_Source/PSoC5/cyPm.c ****         /* Read XERR bit to clear it */
ARM GAS  C:\DOCUME~1\akay\LOCALS~1\Temp\ccsadWJD.s 			page 14


 292:./Generated_Source/PSoC5/cyPm.c ****         CY_PM_FASTCLK_XMHZ_CSR_REG;
 443              		.loc 1 292 0
 444 0022 44F21023 		movw	r3, #:lower16:1073758736
 445 0026 C4F20003 		movt	r3, #:upper16:1073758736
 446 002a 1B78     		ldrb	r3, [r3, #0]
 293:./Generated_Source/PSoC5/cyPm.c ****         
 294:./Generated_Source/PSoC5/cyPm.c ****         /* Wait 5 times for CY_PM_WAIT_200_US */
 295:./Generated_Source/PSoC5/cyPm.c ****         for(i = 5u; i > 0u; i--)
 447              		.loc 1 295 0
 448 002c 4FF00503 		mov	r3, #5
 449 0030 FB71     		strb	r3, [r7, #7]
 450 0032 1DE0     		b	.L24
 451              	.L27:
 296:./Generated_Source/PSoC5/cyPm.c ****         {
 297:./Generated_Source/PSoC5/cyPm.c ****             /* Make a us delay */
 298:./Generated_Source/PSoC5/cyPm.c ****             CyDelayCycles(CY_PM_WAIT_200_US * cyPmBackup.cpuFreqMhz);
 452              		.loc 1 298 0
 453 0034 40F20003 		movw	r3, #:lower16:cyPmBackup
 454 0038 C0F20003 		movt	r3, #:upper16:cyPmBackup
 455 003c DB7D     		ldrb	r3, [r3, #23]	@ zero_extendqisi2
 456 003e 4FF0C802 		mov	r2, #200
 457 0042 02FB03F3 		mul	r3, r2, r3
 458 0046 1846     		mov	r0, r3
 459 0048 FFF7FEFF 		bl	CyDelayCycles
 299:./Generated_Source/PSoC5/cyPm.c ****             
 300:./Generated_Source/PSoC5/cyPm.c ****             /* High output indicates oscillator failure */
 301:./Generated_Source/PSoC5/cyPm.c ****             if(0u == (CY_PM_FASTCLK_XMHZ_CSR_REG & CY_PM_XMHZ_CSR_XERR)) 
 460              		.loc 1 301 0
 461 004c 44F21023 		movw	r3, #:lower16:1073758736
 462 0050 C4F20003 		movt	r3, #:upper16:1073758736
 463 0054 1B78     		ldrb	r3, [r3, #0]
 464 0056 DBB2     		uxtb	r3, r3
 465 0058 5BB2     		sxtb	r3, r3
 466 005a 002B     		cmp	r3, #0
 467 005c 04DB     		blt	.L25
 302:./Generated_Source/PSoC5/cyPm.c ****             {
 303:./Generated_Source/PSoC5/cyPm.c ****                 status = CYRET_SUCCESS;
 468              		.loc 1 303 0
 469 005e 4FF00003 		mov	r3, #0
 470 0062 3B60     		str	r3, [r7, #0]
 304:./Generated_Source/PSoC5/cyPm.c ****                 break;
 471              		.loc 1 304 0
 472 0064 00BF     		nop
 473 0066 09E0     		b	.L28
 474              	.L25:
 475              		.loc 1 295 0
 476 0068 FB79     		ldrb	r3, [r7, #7]
 477 006a 03F1FF33 		add	r3, r3, #-1
 478 006e FB71     		strb	r3, [r7, #7]
 479              	.L24:
 480 0070 FB79     		ldrb	r3, [r7, #7]	@ zero_extendqisi2
 481 0072 002B     		cmp	r3, #0
 482 0074 DED1     		bne	.L27
 483 0076 01E0     		b	.L28
 484              	.L23:
 305:./Generated_Source/PSoC5/cyPm.c ****             }
 306:./Generated_Source/PSoC5/cyPm.c ****         }
ARM GAS  C:\DOCUME~1\akay\LOCALS~1\Temp\ccsadWJD.s 			page 15


 307:./Generated_Source/PSoC5/cyPm.c ****         
 308:./Generated_Source/PSoC5/cyPm.c ****         if(CYRET_TIMEOUT == status)
 309:./Generated_Source/PSoC5/cyPm.c ****         {
 310:./Generated_Source/PSoC5/cyPm.c ****             /* `#START MHZ ECO TIMEOUT` */
 311:./Generated_Source/PSoC5/cyPm.c **** 
 312:./Generated_Source/PSoC5/cyPm.c ****             /* `#END` */
 313:./Generated_Source/PSoC5/cyPm.c ****         }
 314:./Generated_Source/PSoC5/cyPm.c ****     }
 315:./Generated_Source/PSoC5/cyPm.c ****     else
 316:./Generated_Source/PSoC5/cyPm.c ****     {
 317:./Generated_Source/PSoC5/cyPm.c ****         /* Disable MHz ECO */
 318:./Generated_Source/PSoC5/cyPm.c ****         CyXTAL_Stop();
 485              		.loc 1 318 0
 486 0078 FFF7FEFF 		bl	CyXTAL_Stop
 487              	.L28:
 319:./Generated_Source/PSoC5/cyPm.c ****     }   /* End of (CY_PM_ENABLED == cyPmBackup.xmhzEnableState) */
 320:./Generated_Source/PSoC5/cyPm.c **** 
 321:./Generated_Source/PSoC5/cyPm.c **** 
 322:./Generated_Source/PSoC5/cyPm.c ****     /* PLL restore state */
 323:./Generated_Source/PSoC5/cyPm.c ****     if(CY_PM_ENABLED == cyPmBackup.pllEnableState)
 488              		.loc 1 323 0
 489 007c 40F20003 		movw	r3, #:lower16:cyPmBackup
 490 0080 C0F20003 		movt	r3, #:upper16:cyPmBackup
 491 0084 5B78     		ldrb	r3, [r3, #1]	@ zero_extendqisi2
 492 0086 012B     		cmp	r3, #1
 493 0088 10D1     		bne	.L29
 324:./Generated_Source/PSoC5/cyPm.c ****     {
 325:./Generated_Source/PSoC5/cyPm.c ****         /* Enabling PLL. The actual CyPLL_OUT_Start() without wait period uses
 326:./Generated_Source/PSoC5/cyPm.c ****            FTW for period measurement. This could cause a problem if CTW/FTW is
 327:./Generated_Source/PSoC5/cyPm.c ****            used as a wake up time in the low power modes APIs. So, the PLL wait
 328:./Generated_Source/PSoC5/cyPm.c ****            procedure is implemented with a software delay.
 329:./Generated_Source/PSoC5/cyPm.c ****         */
 330:./Generated_Source/PSoC5/cyPm.c ****         
 331:./Generated_Source/PSoC5/cyPm.c ****         /* Enable PLL */
 332:./Generated_Source/PSoC5/cyPm.c ****         CyPLL_OUT_Start(CY_PM_PLL_OUT_NO_WAIT);
 494              		.loc 1 332 0
 495 008a 4FF00000 		mov	r0, #0
 496 008e FFF7FEFF 		bl	CyPLL_OUT_Start
 333:./Generated_Source/PSoC5/cyPm.c **** 
 334:./Generated_Source/PSoC5/cyPm.c ****         /* Make a 250 us delay */
 335:./Generated_Source/PSoC5/cyPm.c ****         CyDelayCycles(CY_PM_WAIT_250_US * cyPmBackup.cpuFreqMhz);
 497              		.loc 1 335 0
 498 0092 40F20003 		movw	r3, #:lower16:cyPmBackup
 499 0096 C0F20003 		movt	r3, #:upper16:cyPmBackup
 500 009a DB7D     		ldrb	r3, [r3, #23]	@ zero_extendqisi2
 501 009c 4FF0FA02 		mov	r2, #250
 502 00a0 02FB03F3 		mul	r3, r2, r3
 503 00a4 1846     		mov	r0, r3
 504 00a6 FFF7FEFF 		bl	CyDelayCycles
 505 00aa 01E0     		b	.L30
 506              	.L29:
 336:./Generated_Source/PSoC5/cyPm.c ****     }
 337:./Generated_Source/PSoC5/cyPm.c ****     else
 338:./Generated_Source/PSoC5/cyPm.c ****     {
 339:./Generated_Source/PSoC5/cyPm.c ****         /* Disable PLL */
 340:./Generated_Source/PSoC5/cyPm.c ****         CyPLL_OUT_Stop();
 507              		.loc 1 340 0
ARM GAS  C:\DOCUME~1\akay\LOCALS~1\Temp\ccsadWJD.s 			page 16


 508 00ac FFF7FEFF 		bl	CyPLL_OUT_Stop
 509              	.L30:
 341:./Generated_Source/PSoC5/cyPm.c ****     }   /* End of (CY_PM_ENABLED == cyPmBackup.pllEnableState) */
 342:./Generated_Source/PSoC5/cyPm.c **** 
 343:./Generated_Source/PSoC5/cyPm.c ****     /* Temprorary set the maximum flash wait cycles */
 344:./Generated_Source/PSoC5/cyPm.c ****     #if(CY_PM_PSOC3_ES3)
 345:./Generated_Source/PSoC5/cyPm.c **** 
 346:./Generated_Source/PSoC5/cyPm.c ****         CyFlash_SetWaitCycles(45u);
 347:./Generated_Source/PSoC5/cyPm.c ****                     
 348:./Generated_Source/PSoC5/cyPm.c ****     #endif  /* End of (CY_PM_PSOC3_ES3) */
 349:./Generated_Source/PSoC5/cyPm.c **** 
 350:./Generated_Source/PSoC5/cyPm.c ****     #if(CY_PM_PSOC3_ES2)
 351:./Generated_Source/PSoC5/cyPm.c ****         
 352:./Generated_Source/PSoC5/cyPm.c ****         CyFlash_SetWaitCycles(49u);
 353:./Generated_Source/PSoC5/cyPm.c ****         
 354:./Generated_Source/PSoC5/cyPm.c ****     #endif  /* End of (CY_PM_PSOC3_ES2) */
 355:./Generated_Source/PSoC5/cyPm.c ****     
 356:./Generated_Source/PSoC5/cyPm.c ****     #if(CY_PM_PSOC5_ES1 || CY_PM_PSOC5_ES2)
 357:./Generated_Source/PSoC5/cyPm.c **** 
 358:./Generated_Source/PSoC5/cyPm.c ****         CyFlash_SetWaitCycles(73u);
 510              		.loc 1 358 0
 511 00b0 4FF04900 		mov	r0, #73
 512 00b4 FFF7FEFF 		bl	CyFlash_SetWaitCycles
 359:./Generated_Source/PSoC5/cyPm.c **** 
 360:./Generated_Source/PSoC5/cyPm.c ****     #endif  /* End of (CY_PM_PSOC5_ES1 || CY_PM_PSOC5_ES2) */
 361:./Generated_Source/PSoC5/cyPm.c **** 
 362:./Generated_Source/PSoC5/cyPm.c ****     if(CY_PM_MASTER_CLK_SRC_IMO != cyPmBackup.masterClkSrc)
 513              		.loc 1 362 0
 514 00b8 40F20003 		movw	r3, #:lower16:cyPmBackup
 515 00bc C0F20003 		movt	r3, #:upper16:cyPmBackup
 516 00c0 DB78     		ldrb	r3, [r3, #3]	@ zero_extendqisi2
 517 00c2 002B     		cmp	r3, #0
 518 00c4 1CD0     		beq	.L31
 363:./Generated_Source/PSoC5/cyPm.c ****     {
 364:./Generated_Source/PSoC5/cyPm.c ****         /* If not IMO, then PLL or XMHZ or DSI_CLKIN.
 365:./Generated_Source/PSoC5/cyPm.c ****         *  All clocks above are ready to be source for Master clock,
 366:./Generated_Source/PSoC5/cyPm.c ****         *  so restore Master clock source and Master clock divider.
 367:./Generated_Source/PSoC5/cyPm.c ****         */
 368:./Generated_Source/PSoC5/cyPm.c ****         if(CY_PM_CLKDIST_MSTR0_REG != cyPmBackup.clkSyncDiv)
 519              		.loc 1 368 0
 520 00c6 44F20403 		movw	r3, #:lower16:1073758212
 521 00ca C4F20003 		movt	r3, #:upper16:1073758212
 522 00ce 1B78     		ldrb	r3, [r3, #0]
 523 00d0 DAB2     		uxtb	r2, r3
 524 00d2 40F20003 		movw	r3, #:lower16:cyPmBackup
 525 00d6 C0F20003 		movt	r3, #:upper16:cyPmBackup
 526 00da 1B7B     		ldrb	r3, [r3, #12]	@ zero_extendqisi2
 527 00dc 9A42     		cmp	r2, r3
 528 00de 07D0     		beq	.L32
 369:./Generated_Source/PSoC5/cyPm.c ****         {
 370:./Generated_Source/PSoC5/cyPm.c ****             /* Restore Master clock divider */
 371:./Generated_Source/PSoC5/cyPm.c ****             CyMasterClk_SetDivider(cyPmBackup.clkSyncDiv);
 529              		.loc 1 371 0
 530 00e0 40F20003 		movw	r3, #:lower16:cyPmBackup
 531 00e4 C0F20003 		movt	r3, #:upper16:cyPmBackup
 532 00e8 1B7B     		ldrb	r3, [r3, #12]	@ zero_extendqisi2
 533 00ea 1846     		mov	r0, r3
ARM GAS  C:\DOCUME~1\akay\LOCALS~1\Temp\ccsadWJD.s 			page 17


 534 00ec FFF7FEFF 		bl	CyMasterClk_SetDivider
 535              	.L32:
 372:./Generated_Source/PSoC5/cyPm.c ****         }
 373:./Generated_Source/PSoC5/cyPm.c ****         
 374:./Generated_Source/PSoC5/cyPm.c ****         /* Restore Master clock source */
 375:./Generated_Source/PSoC5/cyPm.c ****         CyMasterClk_SetSource(cyPmBackup.masterClkSrc);
 536              		.loc 1 375 0
 537 00f0 40F20003 		movw	r3, #:lower16:cyPmBackup
 538 00f4 C0F20003 		movt	r3, #:upper16:cyPmBackup
 539 00f8 DB78     		ldrb	r3, [r3, #3]	@ zero_extendqisi2
 540 00fa 1846     		mov	r0, r3
 541 00fc FFF7FEFF 		bl	CyMasterClk_SetSource
 542              	.L31:
 376:./Generated_Source/PSoC5/cyPm.c ****     }
 377:./Generated_Source/PSoC5/cyPm.c **** 
 378:./Generated_Source/PSoC5/cyPm.c ****     /* IMO - restore IMO frequency */
 379:./Generated_Source/PSoC5/cyPm.c ****     if(cyPmBackup.imoFreqMhz != cyPmImoFreqReg2Mhz[(CY_PM_FASTCLK_IMO_CR_REG & CY_PM_FASTCLK_IMO_CR
 543              		.loc 1 379 0
 544 0100 40F20003 		movw	r3, #:lower16:cyPmBackup
 545 0104 C0F20003 		movt	r3, #:upper16:cyPmBackup
 546 0108 9A79     		ldrb	r2, [r3, #6]	@ zero_extendqisi2
 547 010a 44F20023 		movw	r3, #:lower16:1073758720
 548 010e C4F20003 		movt	r3, #:upper16:1073758720
 549 0112 1B78     		ldrb	r3, [r3, #0]
 550 0114 DBB2     		uxtb	r3, r3
 551 0116 03F00701 		and	r1, r3, #7
 552 011a 40F20003 		movw	r3, #:lower16:cyPmImoFreqReg2Mhz
 553 011e C0F20003 		movt	r3, #:upper16:cyPmImoFreqReg2Mhz
 554 0122 5B5C     		ldrb	r3, [r3, r1]	@ zero_extendqisi2
 555 0124 9A42     		cmp	r2, r3
 556 0126 0DD0     		beq	.L33
 380:./Generated_Source/PSoC5/cyPm.c ****     {
 381:./Generated_Source/PSoC5/cyPm.c ****         CyIMO_SetFreq(cyPmImoFreqMhz2Reg[cyPmBackup.imoFreqMhz]);
 557              		.loc 1 381 0
 558 0128 40F20003 		movw	r3, #:lower16:cyPmBackup
 559 012c C0F20003 		movt	r3, #:upper16:cyPmBackup
 560 0130 9B79     		ldrb	r3, [r3, #6]	@ zero_extendqisi2
 561 0132 1A46     		mov	r2, r3
 562 0134 40F20003 		movw	r3, #:lower16:cyPmImoFreqMhz2Reg
 563 0138 C0F20003 		movt	r3, #:upper16:cyPmImoFreqMhz2Reg
 564 013c 9B5C     		ldrb	r3, [r3, r2]	@ zero_extendqisi2
 565 013e 1846     		mov	r0, r3
 566 0140 FFF7FEFF 		bl	CyIMO_SetFreq
 567              	.L33:
 382:./Generated_Source/PSoC5/cyPm.c ****     }    /* Do nothing if IMO freq is equal to saved */
 383:./Generated_Source/PSoC5/cyPm.c **** 
 384:./Generated_Source/PSoC5/cyPm.c ****     /* IMO - restore enable state if needed */
 385:./Generated_Source/PSoC5/cyPm.c ****     if((CY_PM_ENABLED == cyPmBackup.imoEnable) &&
 568              		.loc 1 385 0
 569 0144 40F20003 		movw	r3, #:lower16:cyPmBackup
 570 0148 C0F20003 		movt	r3, #:upper16:cyPmBackup
 571 014c 1B7A     		ldrb	r3, [r3, #8]	@ zero_extendqisi2
 572 014e 012B     		cmp	r3, #1
 573 0150 0DD1     		bne	.L34
 386:./Generated_Source/PSoC5/cyPm.c ****             (0u == (CY_PM_ACT_CFG0_IMO & CY_PM_ACT_CFG0_REG)))
 574              		.loc 1 386 0
 575 0152 44F2A033 		movw	r3, #:lower16:1073759136
ARM GAS  C:\DOCUME~1\akay\LOCALS~1\Temp\ccsadWJD.s 			page 18


 576 0156 C4F20003 		movt	r3, #:upper16:1073759136
 577 015a 1B78     		ldrb	r3, [r3, #0]
 578 015c DBB2     		uxtb	r3, r3
 579 015e 03F01003 		and	r3, r3, #16
 580              		.loc 1 385 0
 581 0162 002B     		cmp	r3, #0
 582 0164 03D1     		bne	.L34
 387:./Generated_Source/PSoC5/cyPm.c ****     {
 388:./Generated_Source/PSoC5/cyPm.c ****         /* IMO - restore enabled state */
 389:./Generated_Source/PSoC5/cyPm.c ****         CyIMO_Start(CY_PM_WAIT_IMO);
 583              		.loc 1 389 0
 584 0166 4FF00000 		mov	r0, #0
 585 016a FFF7FEFF 		bl	CyIMO_Start
 586              	.L34:
 390:./Generated_Source/PSoC5/cyPm.c ****     }    /* Do nothing if saved and actual values are equal */
 391:./Generated_Source/PSoC5/cyPm.c **** 
 392:./Generated_Source/PSoC5/cyPm.c ****     /* IMO - restore enable state if needed */
 393:./Generated_Source/PSoC5/cyPm.c ****     if((CY_PM_ENABLED != cyPmBackup.imoEnable) &&
 587              		.loc 1 393 0
 588 016e 40F20003 		movw	r3, #:lower16:cyPmBackup
 589 0172 C0F20003 		movt	r3, #:upper16:cyPmBackup
 590 0176 1B7A     		ldrb	r3, [r3, #8]	@ zero_extendqisi2
 591 0178 012B     		cmp	r3, #1
 592 017a 0BD0     		beq	.L35
 394:./Generated_Source/PSoC5/cyPm.c ****             (0u != (CY_PM_ACT_CFG0_IMO & CY_PM_ACT_CFG0_REG)))
 593              		.loc 1 394 0
 594 017c 44F2A033 		movw	r3, #:lower16:1073759136
 595 0180 C4F20003 		movt	r3, #:upper16:1073759136
 596 0184 1B78     		ldrb	r3, [r3, #0]
 597 0186 DBB2     		uxtb	r3, r3
 598 0188 03F01003 		and	r3, r3, #16
 599              		.loc 1 393 0
 600 018c 002B     		cmp	r3, #0
 601 018e 01D0     		beq	.L35
 395:./Generated_Source/PSoC5/cyPm.c ****     {
 396:./Generated_Source/PSoC5/cyPm.c ****         /* IMO - restore disabled state */
 397:./Generated_Source/PSoC5/cyPm.c ****         CyIMO_Stop();
 602              		.loc 1 397 0
 603 0190 FFF7FEFF 		bl	CyIMO_Stop
 604              	.L35:
 398:./Generated_Source/PSoC5/cyPm.c ****     }    /* Do nothing if saved and actual values are equal */
 399:./Generated_Source/PSoC5/cyPm.c **** 
 400:./Generated_Source/PSoC5/cyPm.c ****     /* IMO - restore IMOCLK source */
 401:./Generated_Source/PSoC5/cyPm.c ****     CyIMO_SetSource(cyPmBackup.imoClkSrc);
 605              		.loc 1 401 0
 606 0194 40F20003 		movw	r3, #:lower16:cyPmBackup
 607 0198 C0F20003 		movt	r3, #:upper16:cyPmBackup
 608 019c 1B79     		ldrb	r3, [r3, #4]	@ zero_extendqisi2
 609 019e 1846     		mov	r0, r3
 610 01a0 FFF7FEFF 		bl	CyIMO_SetSource
 402:./Generated_Source/PSoC5/cyPm.c **** 
 403:./Generated_Source/PSoC5/cyPm.c ****     /* Restore IMO doubler enable state */
 404:./Generated_Source/PSoC5/cyPm.c ****     if(CY_PM_ENABLED == cyPmBackup.imo2x)
 611              		.loc 1 404 0
 612 01a4 40F20003 		movw	r3, #:lower16:cyPmBackup
 613 01a8 C0F20003 		movt	r3, #:upper16:cyPmBackup
 614 01ac DB79     		ldrb	r3, [r3, #7]	@ zero_extendqisi2
ARM GAS  C:\DOCUME~1\akay\LOCALS~1\Temp\ccsadWJD.s 			page 19


 615 01ae 012B     		cmp	r3, #1
 616 01b0 02D1     		bne	.L36
 405:./Generated_Source/PSoC5/cyPm.c ****     {
 406:./Generated_Source/PSoC5/cyPm.c ****         /* IMO doubler - enable */
 407:./Generated_Source/PSoC5/cyPm.c ****         CyIMO_EnableDoubler();
 617              		.loc 1 407 0
 618 01b2 FFF7FEFF 		bl	CyIMO_EnableDoubler
 619 01b6 01E0     		b	.L37
 620              	.L36:
 408:./Generated_Source/PSoC5/cyPm.c ****     }
 409:./Generated_Source/PSoC5/cyPm.c ****     else
 410:./Generated_Source/PSoC5/cyPm.c ****     {
 411:./Generated_Source/PSoC5/cyPm.c ****         /* IMO doubler - disable */
 412:./Generated_Source/PSoC5/cyPm.c ****         CyIMO_DisableDoubler();
 621              		.loc 1 412 0
 622 01b8 FFF7FEFF 		bl	CyIMO_DisableDoubler
 623              	.L37:
 413:./Generated_Source/PSoC5/cyPm.c ****     }
 414:./Generated_Source/PSoC5/cyPm.c **** 
 415:./Generated_Source/PSoC5/cyPm.c ****     /* IMO - restore clk_imo source, if needed */
 416:./Generated_Source/PSoC5/cyPm.c ****     if(cyPmBackup.clkImoSrc != (CY_PM_CLKDIST_CR_REG & CY_PM_CLKDIST_IMO_OUT_MASK))
 624              		.loc 1 416 0
 625 01bc 40F20003 		movw	r3, #:lower16:cyPmBackup
 626 01c0 C0F20003 		movt	r3, #:upper16:cyPmBackup
 627 01c4 5B79     		ldrb	r3, [r3, #5]	@ zero_extendqisi2
 628 01c6 1A46     		mov	r2, r3
 629 01c8 44F20003 		movw	r3, #:lower16:1073758208
 630 01cc C4F20003 		movt	r3, #:upper16:1073758208
 631 01d0 1B78     		ldrb	r3, [r3, #0]
 632 01d2 DBB2     		uxtb	r3, r3
 633 01d4 03F03003 		and	r3, r3, #48
 634 01d8 9A42     		cmp	r2, r3
 635 01da 14D0     		beq	.L38
 417:./Generated_Source/PSoC5/cyPm.c ****     {
 418:./Generated_Source/PSoC5/cyPm.c ****         CY_PM_CLKDIST_CR_REG = (CY_PM_CLKDIST_CR_REG & ~CY_PM_CLKDIST_IMO_OUT_MASK) |
 636              		.loc 1 418 0
 637 01dc 44F20003 		movw	r3, #:lower16:1073758208
 638 01e0 C4F20003 		movt	r3, #:upper16:1073758208
 639 01e4 44F20002 		movw	r2, #:lower16:1073758208
 640 01e8 C4F20002 		movt	r2, #:upper16:1073758208
 641 01ec 1278     		ldrb	r2, [r2, #0]
 642 01ee D2B2     		uxtb	r2, r2
 643 01f0 02F0CF02 		and	r2, r2, #207
 644 01f4 40F20001 		movw	r1, #:lower16:cyPmBackup
 645 01f8 C0F20001 		movt	r1, #:upper16:cyPmBackup
 646 01fc 4979     		ldrb	r1, [r1, #5]	@ zero_extendqisi2
 647 01fe 42EA0102 		orr	r2, r2, r1
 648 0202 D2B2     		uxtb	r2, r2
 649 0204 1A70     		strb	r2, [r3, #0]
 650              	.L38:
 419:./Generated_Source/PSoC5/cyPm.c ****                             cyPmBackup.clkImoSrc;
 420:./Generated_Source/PSoC5/cyPm.c ****     }    /* Do nothing if saved and actual values are equal */
 421:./Generated_Source/PSoC5/cyPm.c **** 
 422:./Generated_Source/PSoC5/cyPm.c ****     if(CY_PM_MASTER_CLK_SRC_IMO == cyPmBackup.masterClkSrc)
 651              		.loc 1 422 0
 652 0206 40F20003 		movw	r3, #:lower16:cyPmBackup
 653 020a C0F20003 		movt	r3, #:upper16:cyPmBackup
ARM GAS  C:\DOCUME~1\akay\LOCALS~1\Temp\ccsadWJD.s 			page 20


 654 020e DB78     		ldrb	r3, [r3, #3]	@ zero_extendqisi2
 655 0210 002B     		cmp	r3, #0
 656 0212 1CD1     		bne	.L39
 423:./Generated_Source/PSoC5/cyPm.c ****     {
 424:./Generated_Source/PSoC5/cyPm.c ****         /* The IMO is ready to be source for Master clock */
 425:./Generated_Source/PSoC5/cyPm.c ****         if(CY_PM_CLKDIST_MSTR0_REG != cyPmBackup.clkSyncDiv)
 657              		.loc 1 425 0
 658 0214 44F20403 		movw	r3, #:lower16:1073758212
 659 0218 C4F20003 		movt	r3, #:upper16:1073758212
 660 021c 1B78     		ldrb	r3, [r3, #0]
 661 021e DAB2     		uxtb	r2, r3
 662 0220 40F20003 		movw	r3, #:lower16:cyPmBackup
 663 0224 C0F20003 		movt	r3, #:upper16:cyPmBackup
 664 0228 1B7B     		ldrb	r3, [r3, #12]	@ zero_extendqisi2
 665 022a 9A42     		cmp	r2, r3
 666 022c 07D0     		beq	.L40
 426:./Generated_Source/PSoC5/cyPm.c ****         {
 427:./Generated_Source/PSoC5/cyPm.c ****             /* Restore Master clock divider */
 428:./Generated_Source/PSoC5/cyPm.c ****             CyMasterClk_SetDivider(cyPmBackup.clkSyncDiv);
 667              		.loc 1 428 0
 668 022e 40F20003 		movw	r3, #:lower16:cyPmBackup
 669 0232 C0F20003 		movt	r3, #:upper16:cyPmBackup
 670 0236 1B7B     		ldrb	r3, [r3, #12]	@ zero_extendqisi2
 671 0238 1846     		mov	r0, r3
 672 023a FFF7FEFF 		bl	CyMasterClk_SetDivider
 673              	.L40:
 429:./Generated_Source/PSoC5/cyPm.c ****         }
 430:./Generated_Source/PSoC5/cyPm.c ****         
 431:./Generated_Source/PSoC5/cyPm.c ****         /* Restore Master clock source */
 432:./Generated_Source/PSoC5/cyPm.c ****         CyMasterClk_SetSource(cyPmBackup.masterClkSrc);
 674              		.loc 1 432 0
 675 023e 40F20003 		movw	r3, #:lower16:cyPmBackup
 676 0242 C0F20003 		movt	r3, #:upper16:cyPmBackup
 677 0246 DB78     		ldrb	r3, [r3, #3]	@ zero_extendqisi2
 678 0248 1846     		mov	r0, r3
 679 024a FFF7FEFF 		bl	CyMasterClk_SetSource
 680              	.L39:
 433:./Generated_Source/PSoC5/cyPm.c ****         
 434:./Generated_Source/PSoC5/cyPm.c ****     }   /* End of (CY_PM_MASTER_CLK_SRC_IMO == cyPmBackup.masterClkSrc) */
 435:./Generated_Source/PSoC5/cyPm.c **** 
 436:./Generated_Source/PSoC5/cyPm.c ****     /* Bus clock - restore divider, if needed */
 437:./Generated_Source/PSoC5/cyPm.c ****     if(cyPmBackup.clkBusDiv != (((uint16) CY_PM_CLK_BUS_MSB_DIV_REG << 8u) | CY_PM_CLK_BUS_LSB_DIV_
 681              		.loc 1 437 0
 682 024e 40F20003 		movw	r3, #:lower16:cyPmBackup
 683 0252 C0F20003 		movt	r3, #:upper16:cyPmBackup
 684 0256 5B89     		ldrh	r3, [r3, #10]
 685 0258 1A46     		mov	r2, r3
 686 025a 44F20703 		movw	r3, #:lower16:1073758215
 687 025e C4F20003 		movt	r3, #:upper16:1073758215
 688 0262 1B78     		ldrb	r3, [r3, #0]
 689 0264 DBB2     		uxtb	r3, r3
 690 0266 4FEA0321 		lsl	r1, r3, #8
 691 026a 44F20603 		movw	r3, #:lower16:1073758214
 692 026e C4F20003 		movt	r3, #:upper16:1073758214
 693 0272 1B78     		ldrb	r3, [r3, #0]
 694 0274 DBB2     		uxtb	r3, r3
 695 0276 41EA0303 		orr	r3, r1, r3
ARM GAS  C:\DOCUME~1\akay\LOCALS~1\Temp\ccsadWJD.s 			page 21


 696 027a 9A42     		cmp	r2, r3
 697 027c 07D0     		beq	.L41
 438:./Generated_Source/PSoC5/cyPm.c ****     {
 439:./Generated_Source/PSoC5/cyPm.c ****         CyBusClk_SetDivider(cyPmBackup.clkBusDiv);
 698              		.loc 1 439 0
 699 027e 40F20003 		movw	r3, #:lower16:cyPmBackup
 700 0282 C0F20003 		movt	r3, #:upper16:cyPmBackup
 701 0286 5B89     		ldrh	r3, [r3, #10]
 702 0288 1846     		mov	r0, r3
 703 028a FFF7FEFF 		bl	CyBusClk_SetDivider
 704              	.L41:
 440:./Generated_Source/PSoC5/cyPm.c ****     }
 441:./Generated_Source/PSoC5/cyPm.c ****     
 442:./Generated_Source/PSoC5/cyPm.c ****     /* Restore flash wait cycles */
 443:./Generated_Source/PSoC5/cyPm.c ****     CY_PM_CACHE_CR_REG = ((CY_PM_CACHE_CR_REG & ~CY_PM_CACHE_CR_CYCLES_MASK) |
 705              		.loc 1 443 0
 706 028e 44F60003 		movw	r3, #:lower16:1073760256
 707 0292 C4F20003 		movt	r3, #:upper16:1073760256
 708 0296 44F60002 		movw	r2, #:lower16:1073760256
 709 029a C4F20002 		movt	r2, #:upper16:1073760256
 710 029e 1278     		ldrb	r2, [r2, #0]
 711 02a0 D2B2     		uxtb	r2, r2
 712 02a2 02F03F02 		and	r2, r2, #63
 713 02a6 40F20001 		movw	r1, #:lower16:cyPmBackup
 714 02aa C0F20001 		movt	r1, #:upper16:cyPmBackup
 715 02ae 497B     		ldrb	r1, [r1, #13]	@ zero_extendqisi2
 716 02b0 42EA0102 		orr	r2, r2, r1
 717 02b4 D2B2     		uxtb	r2, r2
 718 02b6 1A70     		strb	r2, [r3, #0]
 444:./Generated_Source/PSoC5/cyPm.c ****                             cyPmBackup.flashWaitCycles);
 445:./Generated_Source/PSoC5/cyPm.c **** 
 446:./Generated_Source/PSoC5/cyPm.c ****     /* Digital and analog clocks - restore state */
 447:./Generated_Source/PSoC5/cyPm.c ****     CY_PM_ACT_CFG1_REG = cyPmBackup.enClkA;
 719              		.loc 1 447 0
 720 02b8 44F2A133 		movw	r3, #:lower16:1073759137
 721 02bc C4F20003 		movt	r3, #:upper16:1073759137
 722 02c0 40F20002 		movw	r2, #:lower16:cyPmBackup
 723 02c4 C0F20002 		movt	r2, #:upper16:cyPmBackup
 724 02c8 527C     		ldrb	r2, [r2, #17]	@ zero_extendqisi2
 725 02ca 1A70     		strb	r2, [r3, #0]
 448:./Generated_Source/PSoC5/cyPm.c ****     CY_PM_ACT_CFG2_REG = cyPmBackup.enClkD;
 726              		.loc 1 448 0
 727 02cc 44F2A233 		movw	r3, #:lower16:1073759138
 728 02d0 C4F20003 		movt	r3, #:upper16:1073759138
 729 02d4 40F20002 		movw	r2, #:lower16:cyPmBackup
 730 02d8 C0F20002 		movt	r2, #:upper16:cyPmBackup
 731 02dc 927C     		ldrb	r2, [r2, #18]	@ zero_extendqisi2
 732 02de 1A70     		strb	r2, [r3, #0]
 449:./Generated_Source/PSoC5/cyPm.c **** }
 733              		.loc 1 449 0
 734 02e0 07F10807 		add	r7, r7, #8
 735 02e4 BD46     		mov	sp, r7
 736 02e6 80BD     		pop	{r7, pc}
 737              		.cfi_endproc
 738              	.LFE1:
 739              		.size	CyPmRestoreClocks, .-CyPmRestoreClocks
 740              		.section	.text.CyPmAltAct,"ax",%progbits
ARM GAS  C:\DOCUME~1\akay\LOCALS~1\Temp\ccsadWJD.s 			page 22


 741              		.align	2
 742              		.global	CyPmAltAct
 743              		.thumb
 744              		.thumb_func
 745              		.type	CyPmAltAct, %function
 746              	CyPmAltAct:
 747              	.LFB2:
 450:./Generated_Source/PSoC5/cyPm.c **** 
 451:./Generated_Source/PSoC5/cyPm.c **** 
 452:./Generated_Source/PSoC5/cyPm.c **** /*******************************************************************************
 453:./Generated_Source/PSoC5/cyPm.c **** * Function Name: CyPmAltAct
 454:./Generated_Source/PSoC5/cyPm.c **** ********************************************************************************
 455:./Generated_Source/PSoC5/cyPm.c **** *
 456:./Generated_Source/PSoC5/cyPm.c **** * Summary:
 457:./Generated_Source/PSoC5/cyPm.c **** *  Puts the part into the Alternate Active (Standby) state.  Before switching to
 458:./Generated_Source/PSoC5/cyPm.c **** *  Alternate Active, if a wakeupTime other than NONE is specified, then the
 459:./Generated_Source/PSoC5/cyPm.c **** *  appropriate timer state is configured as specified with the interrupt for
 460:./Generated_Source/PSoC5/cyPm.c **** *  that timer disabled.  The wakeup source will be the combination of the values
 461:./Generated_Source/PSoC5/cyPm.c **** *  specified in the wakeupSource and any timer specified in the wakeupTime
 462:./Generated_Source/PSoC5/cyPm.c **** *  argument.  Once the wakeup condition is satisfied, then all saved state is
 463:./Generated_Source/PSoC5/cyPm.c **** *  restored and the function returns in the Active state.
 464:./Generated_Source/PSoC5/cyPm.c **** *
 465:./Generated_Source/PSoC5/cyPm.c **** *  Note that if the wakeupTime is made with a different value, the period before
 466:./Generated_Source/PSoC5/cyPm.c **** *  the wakeup occurs can be significantly shorter than the specified time.  If
 467:./Generated_Source/PSoC5/cyPm.c **** *  the next call is made with the same wakeupTime value, then the wakeup will
 468:./Generated_Source/PSoC5/cyPm.c **** *  occur the specified period after the previous wakeup occurred.
 469:./Generated_Source/PSoC5/cyPm.c **** *
 470:./Generated_Source/PSoC5/cyPm.c **** *  If a wakeupTime other than NONE is specified, then upon exit the state of the
 471:./Generated_Source/PSoC5/cyPm.c **** *  specified timer will be left as specified by wakeupTime with the timer
 472:./Generated_Source/PSoC5/cyPm.c **** *  enabled and the interrupt disabled.  If the CTW, FTW or One PPS is already
 473:./Generated_Source/PSoC5/cyPm.c **** *  configured for wakeup, for example with the SleepTimer or RTC components,
 474:./Generated_Source/PSoC5/cyPm.c **** *  then specify NONE for the wakeupTime and include the appropriate source for
 475:./Generated_Source/PSoC5/cyPm.c **** *  wakeupSource. 
 476:./Generated_Source/PSoC5/cyPm.c **** *
 477:./Generated_Source/PSoC5/cyPm.c **** *  The Alternate Active state can allow for any of the capabilities of the
 478:./Generated_Source/PSoC5/cyPm.c **** *  device to be active, but the operation of this function is dependent on the
 479:./Generated_Source/PSoC5/cyPm.c **** *  CPU being disabled during the Alternate Active state.  The configuration code
 480:./Generated_Source/PSoC5/cyPm.c **** *  and the component APIs will configure the template for the Alternate Active
 481:./Generated_Source/PSoC5/cyPm.c **** *  state to be the same as the Active state with the exception that the CPU will
 482:./Generated_Source/PSoC5/cyPm.c **** *  be disabled during Alternate Active.
 483:./Generated_Source/PSoC5/cyPm.c **** *
 484:./Generated_Source/PSoC5/cyPm.c **** * Parameters:
 485:./Generated_Source/PSoC5/cyPm.c **** *  wakeupTime: Specifies a timer wakeup source and the frequency of that
 486:./Generated_Source/PSoC5/cyPm.c **** *               source.
 487:./Generated_Source/PSoC5/cyPm.c **** *
 488:./Generated_Source/PSoC5/cyPm.c **** *           Define                      Time
 489:./Generated_Source/PSoC5/cyPm.c **** *  PM_ALT_ACT_TIME_NONE             None
 490:./Generated_Source/PSoC5/cyPm.c **** *  PM_ALT_ACT_TIME_ONE_PPS          One PPS: 1 second
 491:./Generated_Source/PSoC5/cyPm.c **** *  PM_ALT_ACT_TIME_CTW_2MS          CTW: 2 ms
 492:./Generated_Source/PSoC5/cyPm.c **** *  PM_ALT_ACT_TIME_CTW_4MS          CTW: 4 ms
 493:./Generated_Source/PSoC5/cyPm.c **** *  PM_ALT_ACT_TIME_CTW_8MS          CTW: 8 ms
 494:./Generated_Source/PSoC5/cyPm.c **** *  PM_ALT_ACT_TIME_CTW_16MS         CTW: 16 ms
 495:./Generated_Source/PSoC5/cyPm.c **** *  PM_ALT_ACT_TIME_CTW_32MS         CTW: 32 ms
 496:./Generated_Source/PSoC5/cyPm.c **** *  PM_ALT_ACT_TIME_CTW_64MS         CTW: 64 ms
 497:./Generated_Source/PSoC5/cyPm.c **** *  PM_ALT_ACT_TIME_CTW_128MS        CTW: 128 ms
 498:./Generated_Source/PSoC5/cyPm.c **** *  PM_ALT_ACT_TIME_CTW_256MS        CTW: 256 ms
 499:./Generated_Source/PSoC5/cyPm.c **** *  PM_ALT_ACT_TIME_CTW_512MS        CTW: 512 ms
ARM GAS  C:\DOCUME~1\akay\LOCALS~1\Temp\ccsadWJD.s 			page 23


 500:./Generated_Source/PSoC5/cyPm.c **** *  PM_ALT_ACT_TIME_CTW_1024MS       CTW: 1024 ms
 501:./Generated_Source/PSoC5/cyPm.c **** *  PM_ALT_ACT_TIME_CTW_2048MS       CTW: 2048 ms
 502:./Generated_Source/PSoC5/cyPm.c **** *  PM_ALT_ACT_TIME_CTW_4096MS       CTW: 4096 ms
 503:./Generated_Source/PSoC5/cyPm.c **** *  PM_ALT_ACT_TIME_FTW(1-256)*       FTW: 10us to 2.56ms
 504:./Generated_Source/PSoC5/cyPm.c **** *
 505:./Generated_Source/PSoC5/cyPm.c **** *  *Note:   PM_ALT_ACT_TIME_FTW() is a macro that takes an argument that
 506:./Generated_Source/PSoC5/cyPm.c **** *           specifies how many increments of 10us to delay. For PSoC 3 ES2
 507:./Generated_Source/PSoC5/cyPm.c **** *           silicon and earlier and PSoC 5 ES1 silicon and earlier the valid
 508:./Generated_Source/PSoC5/cyPm.c **** *           range of values is 1 to 32. For later silicon the valid range of
 509:./Generated_Source/PSoC5/cyPm.c **** *           values is 1 to 256.
 510:./Generated_Source/PSoC5/cyPm.c **** *
 511:./Generated_Source/PSoC5/cyPm.c **** *  wakeUpSource:    Specifies a bitwise mask of wakeup sources. In addition, if
 512:./Generated_Source/PSoC5/cyPm.c **** *                   a wakeupTime has been specified the associated timer will be
 513:./Generated_Source/PSoC5/cyPm.c **** *                   included as a wakeup source.
 514:./Generated_Source/PSoC5/cyPm.c **** *
 515:./Generated_Source/PSoC5/cyPm.c **** *           Define                      Source
 516:./Generated_Source/PSoC5/cyPm.c **** *  PM_ALT_ACT_SRC_NONE              None
 517:./Generated_Source/PSoC5/cyPm.c **** *  PM_ALT_ACT_SRC_COMPARATOR0       Comparator 0
 518:./Generated_Source/PSoC5/cyPm.c **** *  PM_ALT_ACT_SRC_COMPARATOR1       Comparator 1
 519:./Generated_Source/PSoC5/cyPm.c **** *  PM_ALT_ACT_SRC_COMPARATOR2       Comparator 2
 520:./Generated_Source/PSoC5/cyPm.c **** *  PM_ALT_ACT_SRC_COMPARATOR3       Comparator 3
 521:./Generated_Source/PSoC5/cyPm.c **** *  PM_ALT_ACT_SRC_INTERRUPT         Interrupt
 522:./Generated_Source/PSoC5/cyPm.c **** *  PM_ALT_ACT_SRC_PICU              PICU
 523:./Generated_Source/PSoC5/cyPm.c **** *  PM_ALT_ACT_SRC_I2C               I2C
 524:./Generated_Source/PSoC5/cyPm.c **** *  PM_ALT_ACT_SRC_BOOSTCONVERTER    Boost Converter
 525:./Generated_Source/PSoC5/cyPm.c **** *  PM_ALT_ACT_SRC_FTW               Fast Timewheel
 526:./Generated_Source/PSoC5/cyPm.c **** *  PM_ALT_ACT_SRC_CTW               Central Timewheel*
 527:./Generated_Source/PSoC5/cyPm.c **** *  PM_ALT_ACT_SRC_ONE_PPS           One PPS*
 528:./Generated_Source/PSoC5/cyPm.c **** *  PM_ALT_ACT_SRC_LCD               LCD
 529:./Generated_Source/PSoC5/cyPm.c **** *
 530:./Generated_Source/PSoC5/cyPm.c **** *  *Note: CTW and One PPS wakeup signals are in the same mask bit. For
 531:./Generated_Source/PSoC5/cyPm.c **** *         PSoC 5 ES1 these are also the same address as the FTW.
 532:./Generated_Source/PSoC5/cyPm.c **** *
 533:./Generated_Source/PSoC5/cyPm.c **** *  When specifying a Comparator as the wakeupSource an instance specific define
 534:./Generated_Source/PSoC5/cyPm.c **** *  should be used that will track with the specific comparator that the instance
 535:./Generated_Source/PSoC5/cyPm.c **** *  is placed into. As an example, for a Comparator instance named ?MyComp? the
 536:./Generated_Source/PSoC5/cyPm.c **** *  value to OR into the mask is: MyComp_ctComp__CMP_MASK.
 537:./Generated_Source/PSoC5/cyPm.c **** *
 538:./Generated_Source/PSoC5/cyPm.c **** * Return:
 539:./Generated_Source/PSoC5/cyPm.c **** *  None.
 540:./Generated_Source/PSoC5/cyPm.c **** *
 541:./Generated_Source/PSoC5/cyPm.c **** * Reentrant:
 542:./Generated_Source/PSoC5/cyPm.c **** *  No.
 543:./Generated_Source/PSoC5/cyPm.c **** *
 544:./Generated_Source/PSoC5/cyPm.c **** * Side Effects:
 545:./Generated_Source/PSoC5/cyPm.c **** *  For PSoC 3 ES2 silcon or earlier the wakeup source is not selectable. In this
 546:./Generated_Source/PSoC5/cyPm.c **** *  case the wakeupSource argument is ignored and any of the available wakeup
 547:./Generated_Source/PSoC5/cyPm.c **** *  sources will wake the device.
 548:./Generated_Source/PSoC5/cyPm.c **** *
 549:./Generated_Source/PSoC5/cyPm.c **** *  For PSoC 5 ES1 silicon or earlier the LCD is not a selectable wakeup source.
 550:./Generated_Source/PSoC5/cyPm.c **** *
 551:./Generated_Source/PSoC5/cyPm.c **** *  If a wakeupTime other than NONE is specified, then upon exit the state of the
 552:./Generated_Source/PSoC5/cyPm.c **** *  specified timer will be left as specified by wakeupTime with the timer
 553:./Generated_Source/PSoC5/cyPm.c **** *  enabled and the interrupt disabled.  Also, ILO power mode will be left in a
 554:./Generated_Source/PSoC5/cyPm.c **** *  low power mode, the ILO 1 KHz (if CTW timer is used as wake up time) or
 555:./Generated_Source/PSoC5/cyPm.c **** *  ILO 100 KHz (if FTW timer is used as wake up time) will be left started.
 556:./Generated_Source/PSoC5/cyPm.c **** *
ARM GAS  C:\DOCUME~1\akay\LOCALS~1\Temp\ccsadWJD.s 			page 24


 557:./Generated_Source/PSoC5/cyPm.c **** *******************************************************************************/
 558:./Generated_Source/PSoC5/cyPm.c **** void CyPmAltAct(uint16 wakeupTime, uint16 wakeupSource)
 559:./Generated_Source/PSoC5/cyPm.c **** {
 748              		.loc 1 559 0
 749              		.cfi_startproc
 750              		@ args = 0, pretend = 0, frame = 8
 751              		@ frame_needed = 1, uses_anonymous_args = 0
 752 0000 80B5     		push	{r7, lr}
 753              	.LCFI5:
 754              		.cfi_def_cfa_offset 8
 755 0002 82B0     		sub	sp, sp, #8
 756              	.LCFI6:
 757              		.cfi_def_cfa_offset 16
 758 0004 00AF     		add	r7, sp, #0
 759              		.cfi_offset 14, -4
 760              		.cfi_offset 7, -8
 761              	.LCFI7:
 762              		.cfi_def_cfa_register 7
 763 0006 0246     		mov	r2, r0
 764 0008 0B46     		mov	r3, r1
 765 000a FA80     		strh	r2, [r7, #6]	@ movhi
 766 000c BB80     		strh	r3, [r7, #4]	@ movhi
 560:./Generated_Source/PSoC5/cyPm.c ****     /* FTW - save current and set new configuration */
 561:./Generated_Source/PSoC5/cyPm.c ****     if((wakeupTime >= PM_ALT_ACT_TIME_FTW(1u)) && (wakeupTime <= PM_ALT_ACT_TIME_FTW(256u)))
 767              		.loc 1 561 0
 768 000e FB88     		ldrh	r3, [r7, #6]
 769 0010 0D2B     		cmp	r3, #13
 770 0012 1AD9     		bls	.L44
 771 0014 FA88     		ldrh	r2, [r7, #6]
 772 0016 40F20D13 		movw	r3, #269
 773 001a 9A42     		cmp	r2, r3
 774 001c 15D8     		bhi	.L44
 562:./Generated_Source/PSoC5/cyPm.c ****     {
 563:./Generated_Source/PSoC5/cyPm.c ****         #if(CY_PM_PSOC3_ES2 || CY_PM_PSOC5_ES1)
 564:./Generated_Source/PSoC5/cyPm.c ****         
 565:./Generated_Source/PSoC5/cyPm.c ****             /* If out of range - set to max value */
 566:./Generated_Source/PSoC5/cyPm.c ****             if(wakeupTime >= PM_ALT_ACT_TIME_FTW(32u))
 775              		.loc 1 566 0
 776 001e FB88     		ldrh	r3, [r7, #6]
 777 0020 2C2B     		cmp	r3, #44
 778 0022 04D9     		bls	.L45
 567:./Generated_Source/PSoC5/cyPm.c ****             {
 568:./Generated_Source/PSoC5/cyPm.c **** 				/* Save FTW configuration and set new one to max value */
 569:./Generated_Source/PSoC5/cyPm.c ****                 CyPmFtwSaveSet((PM_ALT_ACT_TIME_FTW(32u) - CY_PM_FTW_INTERVAL_SHIFT - 1u) & CY_PM_F
 779              		.loc 1 569 0
 780 0024 4FF01F00 		mov	r0, #31
 781 0028 FFF7FEFF 		bl	CyPmFtwSaveSet
 782 002c 09E0     		b	.L46
 783              	.L45:
 570:./Generated_Source/PSoC5/cyPm.c ****             }
 571:./Generated_Source/PSoC5/cyPm.c ****             else    /* value is in range - just pass parameter as is */
 572:./Generated_Source/PSoC5/cyPm.c ****             {
 573:./Generated_Source/PSoC5/cyPm.c ****                 /* Save current FTW configuration and set new one */
 574:./Generated_Source/PSoC5/cyPm.c ****                 CyPmFtwSaveSet((wakeupTime - CY_PM_FTW_INTERVAL_SHIFT - 1u) & CY_PM_FTW_INTERVAL_MA
 784              		.loc 1 574 0
 785 002e FB88     		ldrh	r3, [r7, #6]	@ movhi
 786 0030 DBB2     		uxtb	r3, r3
ARM GAS  C:\DOCUME~1\akay\LOCALS~1\Temp\ccsadWJD.s 			page 25


 787 0032 A3F10E03 		sub	r3, r3, #14
 788 0036 DBB2     		uxtb	r3, r3
 789 0038 03F01F03 		and	r3, r3, #31
 790 003c 1846     		mov	r0, r3
 791 003e FFF7FEFF 		bl	CyPmFtwSaveSet
 792              	.L46:
 575:./Generated_Source/PSoC5/cyPm.c ****             }
 576:./Generated_Source/PSoC5/cyPm.c ****         
 577:./Generated_Source/PSoC5/cyPm.c ****         #else   /* PSoC3 ES3 and later, PSoC5 ES2 and later */
 578:./Generated_Source/PSoC5/cyPm.c **** 
 579:./Generated_Source/PSoC5/cyPm.c ****             /* Save current FTW configuration and set new one */
 580:./Generated_Source/PSoC5/cyPm.c ****             CyPmFtwSaveSet((wakeupTime - CY_PM_FTW_INTERVAL_SHIFT - 1u) & CY_PM_FTW_INTERVAL_MASK);
 581:./Generated_Source/PSoC5/cyPm.c ****         
 582:./Generated_Source/PSoC5/cyPm.c ****         #endif  /* End of (CY_PM_PSOC3_ES2 || CY_PM_PSOC5_ES1) */
 583:./Generated_Source/PSoC5/cyPm.c ****         
 584:./Generated_Source/PSoC5/cyPm.c ****         /* Include associated timer to the wakeupSource */
 585:./Generated_Source/PSoC5/cyPm.c ****         wakeupSource |= PM_ALT_ACT_SRC_FTW;
 793              		.loc 1 585 0
 794 0042 BB88     		ldrh	r3, [r7, #4]	@ movhi
 795 0044 43F48063 		orr	r3, r3, #1024
 796 0048 BB80     		strh	r3, [r7, #4]	@ movhi
 797              	.L44:
 586:./Generated_Source/PSoC5/cyPm.c ****     }
 587:./Generated_Source/PSoC5/cyPm.c **** 
 588:./Generated_Source/PSoC5/cyPm.c ****     /* CTW - save current and set new configuration */
 589:./Generated_Source/PSoC5/cyPm.c ****     if((wakeupTime >= PM_ALT_ACT_TIME_CTW_2MS) && (wakeupTime <= PM_ALT_ACT_TIME_CTW_4096MS))
 798              		.loc 1 589 0
 799 004a FB88     		ldrh	r3, [r7, #6]
 800 004c 012B     		cmp	r3, #1
 801 004e 10D9     		bls	.L47
 802 0050 FB88     		ldrh	r3, [r7, #6]
 803 0052 0D2B     		cmp	r3, #13
 804 0054 0DD8     		bhi	.L47
 590:./Generated_Source/PSoC5/cyPm.c ****     {
 591:./Generated_Source/PSoC5/cyPm.c ****         /* Save current CTW configuration and set new one */
 592:./Generated_Source/PSoC5/cyPm.c ****         CyPmCtwSaveSet((wakeupTime - 1u) & CY_PM_CTW_INTERVAL_MASK);
 805              		.loc 1 592 0
 806 0056 FB88     		ldrh	r3, [r7, #6]	@ movhi
 807 0058 DBB2     		uxtb	r3, r3
 808 005a 03F1FF33 		add	r3, r3, #-1
 809 005e DBB2     		uxtb	r3, r3
 810 0060 03F00F03 		and	r3, r3, #15
 811 0064 1846     		mov	r0, r3
 812 0066 FFF7FEFF 		bl	CyPmCtwSaveSet
 593:./Generated_Source/PSoC5/cyPm.c **** 
 594:./Generated_Source/PSoC5/cyPm.c ****         /* Include associated timer to the wakeupSource */
 595:./Generated_Source/PSoC5/cyPm.c ****         wakeupSource |= PM_ALT_ACT_SRC_CTW;
 813              		.loc 1 595 0
 814 006a BB88     		ldrh	r3, [r7, #4]	@ movhi
 815 006c 43F48063 		orr	r3, r3, #1024
 816 0070 BB80     		strh	r3, [r7, #4]	@ movhi
 817              	.L47:
 596:./Generated_Source/PSoC5/cyPm.c ****     }
 597:./Generated_Source/PSoC5/cyPm.c **** 
 598:./Generated_Source/PSoC5/cyPm.c ****     /* 1PPS - save current and set new configuration */
 599:./Generated_Source/PSoC5/cyPm.c ****     if(PM_ALT_ACT_TIME_ONE_PPS == wakeupTime)
 818              		.loc 1 599 0
ARM GAS  C:\DOCUME~1\akay\LOCALS~1\Temp\ccsadWJD.s 			page 26


 819 0072 FB88     		ldrh	r3, [r7, #6]
 820 0074 012B     		cmp	r3, #1
 821 0076 05D1     		bne	.L48
 600:./Generated_Source/PSoC5/cyPm.c ****     {
 601:./Generated_Source/PSoC5/cyPm.c ****         /* Save current 1PPS configuration and set new one */
 602:./Generated_Source/PSoC5/cyPm.c ****         CyPmOppsSaveSet();
 822              		.loc 1 602 0
 823 0078 FFF7FEFF 		bl	CyPmOppsSaveSet
 603:./Generated_Source/PSoC5/cyPm.c **** 
 604:./Generated_Source/PSoC5/cyPm.c ****         /* Include associated timer to the wakeupSource */
 605:./Generated_Source/PSoC5/cyPm.c ****         wakeupSource |= PM_ALT_ACT_SRC_ONE_PPS;
 824              		.loc 1 605 0
 825 007c BB88     		ldrh	r3, [r7, #4]	@ movhi
 826 007e 43F48063 		orr	r3, r3, #1024
 827 0082 BB80     		strh	r3, [r7, #4]	@ movhi
 828              	.L48:
 606:./Generated_Source/PSoC5/cyPm.c ****     }
 607:./Generated_Source/PSoC5/cyPm.c **** 
 608:./Generated_Source/PSoC5/cyPm.c ****     /* Save and set new wake up configuration */
 609:./Generated_Source/PSoC5/cyPm.c ****     #if(CY_PM_PSOC3_ES3 || CY_PM_PSOC5_ES2)
 610:./Generated_Source/PSoC5/cyPm.c **** 
 611:./Generated_Source/PSoC5/cyPm.c ****         /* Interrupt, PICU, I2C, Boost converter, CTW/1PPS */
 612:./Generated_Source/PSoC5/cyPm.c ****         cyPmBackup.wakeupCfg0 = CY_PM_WAKEUP_CFG0_REG;
 613:./Generated_Source/PSoC5/cyPm.c ****         CY_PM_WAKEUP_CFG0_REG = ((uint8) ((wakeupSource >> 4u) & 0xFFu));
 614:./Generated_Source/PSoC5/cyPm.c **** 
 615:./Generated_Source/PSoC5/cyPm.c ****         /* Comparators */
 616:./Generated_Source/PSoC5/cyPm.c ****         cyPmBackup.wakeupCfg1 = CY_PM_WAKEUP_CFG1_REG;
 617:./Generated_Source/PSoC5/cyPm.c ****         CY_PM_WAKEUP_CFG1_REG = (((uint8) wakeupSource) & CY_PM_WAKEUP_SRC_CMPS_MASK);
 618:./Generated_Source/PSoC5/cyPm.c **** 
 619:./Generated_Source/PSoC5/cyPm.c ****         #if(CY_PM_PSOC3_ES3)   /* PSoC3 ES3 or later */
 620:./Generated_Source/PSoC5/cyPm.c **** 
 621:./Generated_Source/PSoC5/cyPm.c ****             /* LCD */
 622:./Generated_Source/PSoC5/cyPm.c ****             cyPmBackup.wakeupCfg2 = CY_PM_WAKEUP_CFG2_REG;
 623:./Generated_Source/PSoC5/cyPm.c ****             CY_PM_WAKEUP_CFG2_REG = ((uint8) ((wakeupSource >> 12u) & 0x01u));
 624:./Generated_Source/PSoC5/cyPm.c **** 
 625:./Generated_Source/PSoC5/cyPm.c ****         #endif  /* End of (CY_PM_PSOC3_ES3) */
 626:./Generated_Source/PSoC5/cyPm.c **** 
 627:./Generated_Source/PSoC5/cyPm.c ****     #else
 628:./Generated_Source/PSoC5/cyPm.c **** 
 629:./Generated_Source/PSoC5/cyPm.c ****         /* To remove unreferenced local variable warning */
 630:./Generated_Source/PSoC5/cyPm.c ****         wakeupSource++;
 829              		.loc 1 630 0
 830 0084 BB88     		ldrh	r3, [r7, #4]	@ movhi
 831 0086 03F10103 		add	r3, r3, #1
 832 008a BB80     		strh	r3, [r7, #4]	@ movhi
 631:./Generated_Source/PSoC5/cyPm.c **** 
 632:./Generated_Source/PSoC5/cyPm.c ****     #endif /* End of (CY_PM_PSOC3_ES3 || CY_PM_PSOC5_ES2) */
 633:./Generated_Source/PSoC5/cyPm.c **** 
 634:./Generated_Source/PSoC5/cyPm.c ****     #if(CY_PM_PSOC3_ES3)
 635:./Generated_Source/PSoC5/cyPm.c **** 
 636:./Generated_Source/PSoC5/cyPm.c ****         /* Save current global interrupt enable and disable it,
 637:./Generated_Source/PSoC5/cyPm.c ****         *  this should be done only if clk_bus is disabled during
 638:./Generated_Source/PSoC5/cyPm.c ****         *  Alternate Active mode. By default, clk_bus is enabled
 639:./Generated_Source/PSoC5/cyPm.c ****         *  during this mode, but user is able to disable it manually,
 640:./Generated_Source/PSoC5/cyPm.c ****         *  so implement this workaround for sure.
 641:./Generated_Source/PSoC5/cyPm.c ****         */
 642:./Generated_Source/PSoC5/cyPm.c ****         cyPmBackup.interruptEnable = CyEnterCriticalSection();
ARM GAS  C:\DOCUME~1\akay\LOCALS~1\Temp\ccsadWJD.s 			page 27


 643:./Generated_Source/PSoC5/cyPm.c **** 
 644:./Generated_Source/PSoC5/cyPm.c ****     #endif  /* End of (CY_PM_PSOC3_ES3)*/
 645:./Generated_Source/PSoC5/cyPm.c **** 
 646:./Generated_Source/PSoC5/cyPm.c ****     /* Switch to the Sleep mode */
 647:./Generated_Source/PSoC5/cyPm.c ****     CY_PM_MODE_CSR_REG = ((CY_PM_MODE_CSR_REG & ~CY_PM_MODE_CSR_MASK) | CY_PM_MODE_CSR_ALT_ACT);
 833              		.loc 1 647 0
 834 008c 44F29333 		movw	r3, #:lower16:1073759123
 835 0090 C4F20003 		movt	r3, #:upper16:1073759123
 836 0094 44F29332 		movw	r2, #:lower16:1073759123
 837 0098 C4F20002 		movt	r2, #:upper16:1073759123
 838 009c 1278     		ldrb	r2, [r2, #0]
 839 009e D2B2     		uxtb	r2, r2
 840 00a0 02F0F802 		and	r2, r2, #248
 841 00a4 42F00102 		orr	r2, r2, #1
 842 00a8 D2B2     		uxtb	r2, r2
 843 00aa 1A70     		strb	r2, [r3, #0]
 648:./Generated_Source/PSoC5/cyPm.c **** 
 649:./Generated_Source/PSoC5/cyPm.c ****     /* Recommended readback. */
 650:./Generated_Source/PSoC5/cyPm.c ****     CY_PM_MODE_CSR_REG;
 844              		.loc 1 650 0
 845 00ac 44F29333 		movw	r3, #:lower16:1073759123
 846 00b0 C4F20003 		movt	r3, #:upper16:1073759123
 847 00b4 1B78     		ldrb	r3, [r3, #0]
 651:./Generated_Source/PSoC5/cyPm.c **** 
 652:./Generated_Source/PSoC5/cyPm.c ****     /* Two recommended NOPs to get into the mode. */
 653:./Generated_Source/PSoC5/cyPm.c ****     CY_NOP;
 848              		.loc 1 653 0
 849              	@ 653 "./Generated_Source/PSoC5/cyPm.c" 1
 850 00b6 00BF     		NOP
 851              	
 852              	@ 0 "" 2
 654:./Generated_Source/PSoC5/cyPm.c ****     CY_NOP;
 853              		.loc 1 654 0
 854              	@ 654 "./Generated_Source/PSoC5/cyPm.c" 1
 855 00b8 00BF     		NOP
 856              	
 857              	@ 0 "" 2
 655:./Generated_Source/PSoC5/cyPm.c **** 
 656:./Generated_Source/PSoC5/cyPm.c ****     /* PSoC3 and PSoC5 has different low power modes entry way */
 657:./Generated_Source/PSoC5/cyPm.c ****     #if(CY_PM_PSOC5_ES1 || CY_PM_PSOC5_ES2)
 658:./Generated_Source/PSoC5/cyPm.c **** 
 659:./Generated_Source/PSoC5/cyPm.c ****         #if defined(__ARMCC_VERSION)
 660:./Generated_Source/PSoC5/cyPm.c **** 
 661:./Generated_Source/PSoC5/cyPm.c ****             /* Instristic for keil compilers */
 662:./Generated_Source/PSoC5/cyPm.c ****             __wfi();
 663:./Generated_Source/PSoC5/cyPm.c **** 
 664:./Generated_Source/PSoC5/cyPm.c ****         #else
 665:./Generated_Source/PSoC5/cyPm.c **** 
 666:./Generated_Source/PSoC5/cyPm.c ****             /* ASM for GCC */
 667:./Generated_Source/PSoC5/cyPm.c ****             asm volatile ("WFI \n");
 858              		.loc 1 667 0
 859              	@ 667 "./Generated_Source/PSoC5/cyPm.c" 1
 860 00ba 30BF     		WFI 
 861              	
 862              	@ 0 "" 2
 668:./Generated_Source/PSoC5/cyPm.c **** 
 669:./Generated_Source/PSoC5/cyPm.c ****         #endif /* End of (__ARMCC_VERSION) */
ARM GAS  C:\DOCUME~1\akay\LOCALS~1\Temp\ccsadWJD.s 			page 28


 670:./Generated_Source/PSoC5/cyPm.c **** 
 671:./Generated_Source/PSoC5/cyPm.c ****     #endif /* End of (DEVICE_PSOC5_ES1 || DEVICE_PSOC5_ES2) */
 672:./Generated_Source/PSoC5/cyPm.c ****     
 673:./Generated_Source/PSoC5/cyPm.c ****     /* Point of return from Alternate Active Mode */
 674:./Generated_Source/PSoC5/cyPm.c **** 
 675:./Generated_Source/PSoC5/cyPm.c **** 
 676:./Generated_Source/PSoC5/cyPm.c ****     #if(CY_PM_PSOC3_ES3)
 677:./Generated_Source/PSoC5/cyPm.c ****     
 678:./Generated_Source/PSoC5/cyPm.c ****         /* Restore global interrupt enable state */
 679:./Generated_Source/PSoC5/cyPm.c ****         CyExitCriticalSection(cyPmBackup.interruptEnable);
 680:./Generated_Source/PSoC5/cyPm.c ****     
 681:./Generated_Source/PSoC5/cyPm.c ****     #endif  /* End of (CY_PM_PSOC3_ES3)*/
 682:./Generated_Source/PSoC5/cyPm.c **** 
 683:./Generated_Source/PSoC5/cyPm.c ****     /* Wake up source configuration */
 684:./Generated_Source/PSoC5/cyPm.c ****     #if(CY_PM_PSOC3_ES3 || CY_PM_PSOC5_ES2)
 685:./Generated_Source/PSoC5/cyPm.c **** 
 686:./Generated_Source/PSoC5/cyPm.c ****         /* Restore current wake up configuration */
 687:./Generated_Source/PSoC5/cyPm.c ****         CY_PM_WAKEUP_CFG0_REG = cyPmBackup.wakeupCfg0;
 688:./Generated_Source/PSoC5/cyPm.c ****         CY_PM_WAKEUP_CFG1_REG = cyPmBackup.wakeupCfg1;
 689:./Generated_Source/PSoC5/cyPm.c **** 
 690:./Generated_Source/PSoC5/cyPm.c ****         /* PSoC3 ES3 or later */
 691:./Generated_Source/PSoC5/cyPm.c ****         #if(CY_PM_PSOC3_ES3)
 692:./Generated_Source/PSoC5/cyPm.c **** 
 693:./Generated_Source/PSoC5/cyPm.c ****             CY_PM_WAKEUP_CFG2_REG = cyPmBackup.wakeupCfg2;
 694:./Generated_Source/PSoC5/cyPm.c **** 
 695:./Generated_Source/PSoC5/cyPm.c ****         #endif  /* End of (CY_PM_PSOC3_ES3) */
 696:./Generated_Source/PSoC5/cyPm.c **** 
 697:./Generated_Source/PSoC5/cyPm.c ****     #endif /* End of (_PSOC3_ES3 || _PSOC5_ES2) */
 698:./Generated_Source/PSoC5/cyPm.c **** }
 863              		.loc 1 698 0
 864              		.thumb
 865 00bc 07F10807 		add	r7, r7, #8
 866 00c0 BD46     		mov	sp, r7
 867 00c2 80BD     		pop	{r7, pc}
 868              		.cfi_endproc
 869              	.LFE2:
 870              		.size	CyPmAltAct, .-CyPmAltAct
 871              		.section	.text.CyPmSleep,"ax",%progbits
 872              		.align	2
 873              		.global	CyPmSleep
 874              		.thumb
 875              		.thumb_func
 876              		.type	CyPmSleep, %function
 877              	CyPmSleep:
 878              	.LFB3:
 699:./Generated_Source/PSoC5/cyPm.c **** 
 700:./Generated_Source/PSoC5/cyPm.c **** 
 701:./Generated_Source/PSoC5/cyPm.c **** /*******************************************************************************
 702:./Generated_Source/PSoC5/cyPm.c **** * Function Name: CyPmSleep
 703:./Generated_Source/PSoC5/cyPm.c **** ********************************************************************************
 704:./Generated_Source/PSoC5/cyPm.c **** *
 705:./Generated_Source/PSoC5/cyPm.c **** * Summary:
 706:./Generated_Source/PSoC5/cyPm.c **** *  Puts the part into the Sleep state.  Before switching to Sleep, if a
 707:./Generated_Source/PSoC5/cyPm.c **** *  wakeupTime other than NONE is specified, then the appropriate timer state is
 708:./Generated_Source/PSoC5/cyPm.c **** *  configured as specified with the interrupt for that timer disabled.  The
 709:./Generated_Source/PSoC5/cyPm.c **** *  wakeup source will be the combination of the values specified in the
 710:./Generated_Source/PSoC5/cyPm.c **** *  wakeupSource and any timer specified in the wakeupTime argument.  Once the
ARM GAS  C:\DOCUME~1\akay\LOCALS~1\Temp\ccsadWJD.s 			page 29


 711:./Generated_Source/PSoC5/cyPm.c **** *  wakeup condition is satisfied, then all saved state is restored and the
 712:./Generated_Source/PSoC5/cyPm.c **** *  function returns in the Active state.
 713:./Generated_Source/PSoC5/cyPm.c **** *
 714:./Generated_Source/PSoC5/cyPm.c **** *  Note that if the wakeupTime is made with a different value, the period before
 715:./Generated_Source/PSoC5/cyPm.c **** *  the wakeup occurs can be significantly shorter than the specified time.  If
 716:./Generated_Source/PSoC5/cyPm.c **** *  the next call is made with the same wakeupTime value, then the wakeup will
 717:./Generated_Source/PSoC5/cyPm.c **** *  occur the specified period after the previous wakeup occurred.
 718:./Generated_Source/PSoC5/cyPm.c **** *
 719:./Generated_Source/PSoC5/cyPm.c **** *  If a wakeupTime other than NONE is specified, then upon exit the state of the
 720:./Generated_Source/PSoC5/cyPm.c **** *  specified timer will be left as specified by wakeupTime with the timer
 721:./Generated_Source/PSoC5/cyPm.c **** *  enabled and the interrupt disabled.  If the CTW or One PPS is already
 722:./Generated_Source/PSoC5/cyPm.c **** *  configured for wakeup, for example with the SleepTimer or RTC components,
 723:./Generated_Source/PSoC5/cyPm.c **** *  then specify NONE for the wakeupTime and include the appropriate source for
 724:./Generated_Source/PSoC5/cyPm.c **** *  wakeupSource. 
 725:./Generated_Source/PSoC5/cyPm.c **** *
 726:./Generated_Source/PSoC5/cyPm.c **** * Parameters:
 727:./Generated_Source/PSoC5/cyPm.c **** *  wakeupTime:      Specifies a timer wakeup source and the frequency of that
 728:./Generated_Source/PSoC5/cyPm.c **** *                   source.
 729:./Generated_Source/PSoC5/cyPm.c **** *
 730:./Generated_Source/PSoC5/cyPm.c **** *           Define                      Time
 731:./Generated_Source/PSoC5/cyPm.c **** *  PM_SLEEP_TIME_NONE               None
 732:./Generated_Source/PSoC5/cyPm.c **** *  PM_SLEEP_TIME_ONE_PPS            One PPS: 1 second
 733:./Generated_Source/PSoC5/cyPm.c **** *  PM_SLEEP_TIME_CTW_2MS            CTW: 2 ms
 734:./Generated_Source/PSoC5/cyPm.c **** *  PM_SLEEP_TIME_CTW_4MS            CTW: 4 ms
 735:./Generated_Source/PSoC5/cyPm.c **** *  PM_SLEEP_TIME_CTW_8MS            CTW: 8 ms
 736:./Generated_Source/PSoC5/cyPm.c **** *  PM_SLEEP_TIME_CTW_16MS           CTW: 16 ms
 737:./Generated_Source/PSoC5/cyPm.c **** *  PM_SLEEP_TIME_CTW_32MS           CTW: 32 ms
 738:./Generated_Source/PSoC5/cyPm.c **** *  PM_SLEEP_TIME_CTW_64MS           CTW: 64 ms
 739:./Generated_Source/PSoC5/cyPm.c **** *  PM_SLEEP_TIME_CTW_128MS          CTW: 128 ms
 740:./Generated_Source/PSoC5/cyPm.c **** *  PM_SLEEP_TIME_CTW_256MS          CTW: 256 ms
 741:./Generated_Source/PSoC5/cyPm.c **** *  PM_SLEEP_TIME_CTW_512MS          CTW: 512 ms
 742:./Generated_Source/PSoC5/cyPm.c **** *  PM_SLEEP_TIME_CTW_1024MS         CTW: 1024 ms
 743:./Generated_Source/PSoC5/cyPm.c **** *  PM_SLEEP_TIME_CTW_2048MS         CTW: 2048 ms
 744:./Generated_Source/PSoC5/cyPm.c **** *  PM_SLEEP_TIME_CTW_4096MS         CTW: 4096 ms
 745:./Generated_Source/PSoC5/cyPm.c **** *
 746:./Generated_Source/PSoC5/cyPm.c **** *  wakeUpSource:    Specifies a bitwise mask of wakeup sources. In addition, if
 747:./Generated_Source/PSoC5/cyPm.c **** *                   a wakeupTime has been specified the associated timer will be
 748:./Generated_Source/PSoC5/cyPm.c **** *                   included as a wakeup source.
 749:./Generated_Source/PSoC5/cyPm.c **** *
 750:./Generated_Source/PSoC5/cyPm.c **** *           Define                      Source
 751:./Generated_Source/PSoC5/cyPm.c **** *  PM_SLEEP_SRC_NONE                None
 752:./Generated_Source/PSoC5/cyPm.c **** *  PM_SLEEP_SRC_COMPARATOR0         Comparator 0
 753:./Generated_Source/PSoC5/cyPm.c **** *  PM_SLEEP_SRC_COMPARATOR1         Comparator 1
 754:./Generated_Source/PSoC5/cyPm.c **** *  PM_SLEEP_SRC_COMPARATOR2         Comparator 2
 755:./Generated_Source/PSoC5/cyPm.c **** *  PM_SLEEP_SRC_COMPARATOR3         Comparator 3
 756:./Generated_Source/PSoC5/cyPm.c **** *  PM_SLEEP_SRC_PICU                PICU
 757:./Generated_Source/PSoC5/cyPm.c **** *  PM_SLEEP_SRC_I2C                 I2C
 758:./Generated_Source/PSoC5/cyPm.c **** *  PM_SLEEP_SRC_BOOSTCONVERTER      Boost Converter
 759:./Generated_Source/PSoC5/cyPm.c **** *  PM_SLEEP_SRC_CTW                 Central Timewheel*
 760:./Generated_Source/PSoC5/cyPm.c **** *  PM_SLEEP_SRC_ONE_PPS             One PPS*
 761:./Generated_Source/PSoC5/cyPm.c **** *  PM_SLEEP_SRC_LCD                 LCD
 762:./Generated_Source/PSoC5/cyPm.c **** *
 763:./Generated_Source/PSoC5/cyPm.c **** *  *Note:   CTW and One PPS wakeup signals are in the same mask bit. For
 764:./Generated_Source/PSoC5/cyPm.c **** *           PSoC 5 ES1 these are in a different bit.
 765:./Generated_Source/PSoC5/cyPm.c **** *
 766:./Generated_Source/PSoC5/cyPm.c **** *  When specifying a Comparator as the wakeupSource an instance specific define
 767:./Generated_Source/PSoC5/cyPm.c **** *  should be used that will track with the specific comparator that the instance
ARM GAS  C:\DOCUME~1\akay\LOCALS~1\Temp\ccsadWJD.s 			page 30


 768:./Generated_Source/PSoC5/cyPm.c **** *  is placed into. As an example for a Comparator instance named ?MyComp? the
 769:./Generated_Source/PSoC5/cyPm.c **** *  value to OR into the mask is: MyComp_ctComp__CMP_MASK.
 770:./Generated_Source/PSoC5/cyPm.c **** *
 771:./Generated_Source/PSoC5/cyPm.c **** * Return:
 772:./Generated_Source/PSoC5/cyPm.c **** *  None.
 773:./Generated_Source/PSoC5/cyPm.c **** *
 774:./Generated_Source/PSoC5/cyPm.c **** * Reentrant:
 775:./Generated_Source/PSoC5/cyPm.c **** *  No.
 776:./Generated_Source/PSoC5/cyPm.c **** *
 777:./Generated_Source/PSoC5/cyPm.c **** * Side Effects:
 778:./Generated_Source/PSoC5/cyPm.c **** *  For PSoC 3 ES2 silcon or earlier the wakeup source is not selectable. In this
 779:./Generated_Source/PSoC5/cyPm.c **** *  case the wakeupSource argument is ignored and any of the available wakeup
 780:./Generated_Source/PSoC5/cyPm.c **** *  sources will wake the device.
 781:./Generated_Source/PSoC5/cyPm.c **** *
 782:./Generated_Source/PSoC5/cyPm.c **** *  For PSoC 5 ES1 silicon or earlier the LCD is not a selectable wakeup source.
 783:./Generated_Source/PSoC5/cyPm.c **** *
 784:./Generated_Source/PSoC5/cyPm.c **** *  If a wakeupTime other than NONE is specified, then upon exit the state of the
 785:./Generated_Source/PSoC5/cyPm.c **** *  specified timer will be left as specified by wakeupTime with the timer
 786:./Generated_Source/PSoC5/cyPm.c **** *  enabled and the interrupt disabled.  Also, ILO power mode will be left in a
 787:./Generated_Source/PSoC5/cyPm.c **** *  low power mode, the ILO 1 KHz (if CTW timer is used as wake up time) will be
 788:./Generated_Source/PSoC5/cyPm.c **** *  left started.
 789:./Generated_Source/PSoC5/cyPm.c **** *
 790:./Generated_Source/PSoC5/cyPm.c **** *  Note: PSoC 3 ES2 and PSoC 5 ES1 silicon have a defect that causes connections
 791:./Generated_Source/PSoC5/cyPm.c **** *  to several analog resources to be unreliable when not the device is placed in
 792:./Generated_Source/PSoC5/cyPm.c **** *  a low power mode. See the silicon errata "PSoC(R)3: CY8C38 Family Errata Silicon
 793:./Generated_Source/PSoC5/cyPm.c **** *  Revision ES2" (http://www.cypress.com/?rID=35179) and App Note AN# 001-63479
 794:./Generated_Source/PSoC5/cyPm.c **** *  (Unreliable Analog Routing in PSoC 3 and PSoC 5 Early Silicon) for details.
 795:./Generated_Source/PSoC5/cyPm.c **** *
 796:./Generated_Source/PSoC5/cyPm.c **** *  Be aware of potential silent failures when using CyPmSleep().
 797:./Generated_Source/PSoC5/cyPm.c **** *
 798:./Generated_Source/PSoC5/cyPm.c **** *******************************************************************************/
 799:./Generated_Source/PSoC5/cyPm.c **** void CyPmSleep(uint8 wakeupTime, uint16 wakeupSource)
 800:./Generated_Source/PSoC5/cyPm.c **** {
 879              		.loc 1 800 0
 880              		.cfi_startproc
 881              		@ args = 0, pretend = 0, frame = 8
 882              		@ frame_needed = 1, uses_anonymous_args = 0
 883 0000 80B5     		push	{r7, lr}
 884              	.LCFI8:
 885              		.cfi_def_cfa_offset 8
 886 0002 82B0     		sub	sp, sp, #8
 887              	.LCFI9:
 888              		.cfi_def_cfa_offset 16
 889 0004 00AF     		add	r7, sp, #0
 890              		.cfi_offset 14, -4
 891              		.cfi_offset 7, -8
 892              	.LCFI10:
 893              		.cfi_def_cfa_register 7
 894 0006 0246     		mov	r2, r0
 895 0008 0B46     		mov	r3, r1
 896 000a FA71     		strb	r2, [r7, #7]
 897 000c BB80     		strh	r3, [r7, #4]	@ movhi
 801:./Generated_Source/PSoC5/cyPm.c ****     /* PSoC3 ES3 */
 802:./Generated_Source/PSoC5/cyPm.c ****     #if(CY_PM_PSOC3_ES3)
 803:./Generated_Source/PSoC5/cyPm.c **** 
 804:./Generated_Source/PSoC5/cyPm.c ****         /* Hibernate/Sleep regulator stabilization */
 805:./Generated_Source/PSoC5/cyPm.c ****         if(0u == (CY_PM_MODE_CSR_REG & CY_PM_MODE_CSR_PWRUP_PULSE_Q))
ARM GAS  C:\DOCUME~1\akay\LOCALS~1\Temp\ccsadWJD.s 			page 31


 806:./Generated_Source/PSoC5/cyPm.c ****         {
 807:./Generated_Source/PSoC5/cyPm.c ****             /* Disable hold off - no action on restore */
 808:./Generated_Source/PSoC5/cyPm.c ****             CY_PM_PWRSYS_SLP_TR_REG &= CY_PM_PWRSYS_SLP_TR_HIBSLP_HOLDOFF_MASK;    
 809:./Generated_Source/PSoC5/cyPm.c ****         }
 810:./Generated_Source/PSoC5/cyPm.c ****         else
 811:./Generated_Source/PSoC5/cyPm.c ****         {
 812:./Generated_Source/PSoC5/cyPm.c ****             /* Abort, device is not ready for low power mode entry */
 813:./Generated_Source/PSoC5/cyPm.c ****             /* This section will be redesign to be correct till Beta 5
 814:./Generated_Source/PSoC5/cyPm.c ****             *  when PSoC3/5 PM API files become device version specific.
 815:./Generated_Source/PSoC5/cyPm.c ****             */
 816:./Generated_Source/PSoC5/cyPm.c ****             return;
 817:./Generated_Source/PSoC5/cyPm.c ****         }
 818:./Generated_Source/PSoC5/cyPm.c **** 
 819:./Generated_Source/PSoC5/cyPm.c ****     #endif /* End of (CY_PM_PSOC3_ES3) */
 820:./Generated_Source/PSoC5/cyPm.c ****     
 821:./Generated_Source/PSoC5/cyPm.c ****     /* CTW - save current and set new configuration */
 822:./Generated_Source/PSoC5/cyPm.c ****     if((wakeupTime >= PM_SLEEP_TIME_CTW_2MS) && (wakeupTime <= PM_SLEEP_TIME_CTW_4096MS))
 898              		.loc 1 822 0
 899 000e FB79     		ldrb	r3, [r7, #7]	@ zero_extendqisi2
 900 0010 012B     		cmp	r3, #1
 901 0012 0FD9     		bls	.L51
 902 0014 FB79     		ldrb	r3, [r7, #7]	@ zero_extendqisi2
 903 0016 0D2B     		cmp	r3, #13
 904 0018 0CD8     		bhi	.L51
 823:./Generated_Source/PSoC5/cyPm.c ****     {
 824:./Generated_Source/PSoC5/cyPm.c ****         /* Save current and set new configuration of the CTW */
 825:./Generated_Source/PSoC5/cyPm.c ****         CyPmCtwSaveSet((wakeupTime - 1u) & CY_PM_CTW_INTERVAL_MASK);
 905              		.loc 1 825 0
 906 001a FB79     		ldrb	r3, [r7, #7]
 907 001c 03F1FF33 		add	r3, r3, #-1
 908 0020 DBB2     		uxtb	r3, r3
 909 0022 03F00F03 		and	r3, r3, #15
 910 0026 1846     		mov	r0, r3
 911 0028 FFF7FEFF 		bl	CyPmCtwSaveSet
 826:./Generated_Source/PSoC5/cyPm.c **** 
 827:./Generated_Source/PSoC5/cyPm.c ****         /* Include associated timer to the wakeupSource */
 828:./Generated_Source/PSoC5/cyPm.c ****         wakeupSource |= PM_SLEEP_SRC_CTW;
 912              		.loc 1 828 0
 913 002c BB88     		ldrh	r3, [r7, #4]	@ movhi
 914 002e 43F48063 		orr	r3, r3, #1024
 915 0032 BB80     		strh	r3, [r7, #4]	@ movhi
 916              	.L51:
 829:./Generated_Source/PSoC5/cyPm.c ****     }
 830:./Generated_Source/PSoC5/cyPm.c ****     
 831:./Generated_Source/PSoC5/cyPm.c ****     /* 1PPS - save current and set new configuration */
 832:./Generated_Source/PSoC5/cyPm.c ****     if(PM_SLEEP_TIME_ONE_PPS == wakeupTime)
 917              		.loc 1 832 0
 918 0034 FB79     		ldrb	r3, [r7, #7]	@ zero_extendqisi2
 919 0036 012B     		cmp	r3, #1
 920 0038 05D1     		bne	.L52
 833:./Generated_Source/PSoC5/cyPm.c ****     {
 834:./Generated_Source/PSoC5/cyPm.c ****         /* Save current and set new configuration of the 1PPS */
 835:./Generated_Source/PSoC5/cyPm.c ****         CyPmOppsSaveSet();
 921              		.loc 1 835 0
 922 003a FFF7FEFF 		bl	CyPmOppsSaveSet
 836:./Generated_Source/PSoC5/cyPm.c ****         
 837:./Generated_Source/PSoC5/cyPm.c ****         /* Include associated timer to the wakeupSource */
ARM GAS  C:\DOCUME~1\akay\LOCALS~1\Temp\ccsadWJD.s 			page 32


 838:./Generated_Source/PSoC5/cyPm.c ****         wakeupSource |= PM_SLEEP_SRC_ONE_PPS;
 923              		.loc 1 838 0
 924 003e BB88     		ldrh	r3, [r7, #4]	@ movhi
 925 0040 43F48063 		orr	r3, r3, #1024
 926 0044 BB80     		strh	r3, [r7, #4]	@ movhi
 927              	.L52:
 839:./Generated_Source/PSoC5/cyPm.c ****     }
 840:./Generated_Source/PSoC5/cyPm.c **** 
 841:./Generated_Source/PSoC5/cyPm.c ****     /* Save and set new wake up configuration */
 842:./Generated_Source/PSoC5/cyPm.c ****     #if(CY_PM_PSOC3_ES3 || CY_PM_PSOC5_ES2)
 843:./Generated_Source/PSoC5/cyPm.c **** 
 844:./Generated_Source/PSoC5/cyPm.c ****         /* Interrupt, PICU, I2C, Boost converter, CTW/1PPS */
 845:./Generated_Source/PSoC5/cyPm.c ****         cyPmBackup.wakeupCfg0 = CY_PM_WAKEUP_CFG0_REG;
 846:./Generated_Source/PSoC5/cyPm.c ****         CY_PM_WAKEUP_CFG0_REG = ((uint8) ((wakeupSource >> 4u) & 0xFFu));
 847:./Generated_Source/PSoC5/cyPm.c **** 
 848:./Generated_Source/PSoC5/cyPm.c ****         /* Comparators */
 849:./Generated_Source/PSoC5/cyPm.c ****         cyPmBackup.wakeupCfg1 = CY_PM_WAKEUP_CFG1_REG;
 850:./Generated_Source/PSoC5/cyPm.c ****         CY_PM_WAKEUP_CFG1_REG = (((uint8) wakeupSource) & CY_PM_WAKEUP_SRC_CMPS_MASK);
 851:./Generated_Source/PSoC5/cyPm.c **** 
 852:./Generated_Source/PSoC5/cyPm.c ****         /* LCD */
 853:./Generated_Source/PSoC5/cyPm.c ****         #if(CY_PM_PSOC3_ES3)   /* PSoC3 ES3 or later */
 854:./Generated_Source/PSoC5/cyPm.c **** 
 855:./Generated_Source/PSoC5/cyPm.c ****             cyPmBackup.wakeupCfg2 = CY_PM_WAKEUP_CFG2_REG;
 856:./Generated_Source/PSoC5/cyPm.c ****             CY_PM_WAKEUP_CFG2_REG = ((uint8) ((wakeupSource >> 12u) & 0x01u));
 857:./Generated_Source/PSoC5/cyPm.c **** 
 858:./Generated_Source/PSoC5/cyPm.c ****         #endif  /* End of (CY_PM_PSOC3_ES3) */
 859:./Generated_Source/PSoC5/cyPm.c **** 
 860:./Generated_Source/PSoC5/cyPm.c ****     #else
 861:./Generated_Source/PSoC5/cyPm.c **** 
 862:./Generated_Source/PSoC5/cyPm.c ****         /* To remove unreferenced local variable warning */
 863:./Generated_Source/PSoC5/cyPm.c ****         wakeupSource++;
 928              		.loc 1 863 0
 929 0046 BB88     		ldrh	r3, [r7, #4]	@ movhi
 930 0048 03F10103 		add	r3, r3, #1
 931 004c BB80     		strh	r3, [r7, #4]	@ movhi
 864:./Generated_Source/PSoC5/cyPm.c **** 
 865:./Generated_Source/PSoC5/cyPm.c ****     #endif /* End of (CY_PM_PSOC3_ES3 || CY_PM_PSOC5_ES2) */
 866:./Generated_Source/PSoC5/cyPm.c **** 
 867:./Generated_Source/PSoC5/cyPm.c ****     /* Tune LVI/HVI and wait for Hibernate/Sleep regulator to stabilize */
 868:./Generated_Source/PSoC5/cyPm.c ****     CyPmHibSlpSaveSet(CY_PM_MODE_CSR_SLEEP);
 932              		.loc 1 868 0
 933 004e 4FF00300 		mov	r0, #3
 934 0052 FFF7FEFF 		bl	CyPmHibSlpSaveSet
 869:./Generated_Source/PSoC5/cyPm.c **** 
 870:./Generated_Source/PSoC5/cyPm.c ****     #if(CY_PM_PSOC3_ES3)
 871:./Generated_Source/PSoC5/cyPm.c **** 
 872:./Generated_Source/PSoC5/cyPm.c ****         /* Save current global interrupt enable and disable it */
 873:./Generated_Source/PSoC5/cyPm.c ****         cyPmBackup.interruptEnable = CyEnterCriticalSection();
 874:./Generated_Source/PSoC5/cyPm.c **** 
 875:./Generated_Source/PSoC5/cyPm.c ****     #endif  /* End of (CY_PM_PSOC3_ES3)*/
 876:./Generated_Source/PSoC5/cyPm.c **** 
 877:./Generated_Source/PSoC5/cyPm.c ****     /* Switch to the Sleep mode */
 878:./Generated_Source/PSoC5/cyPm.c ****     CY_PM_MODE_CSR_REG = ((CY_PM_MODE_CSR_REG & ~CY_PM_MODE_CSR_MASK) | CY_PM_MODE_CSR_SLEEP);
 935              		.loc 1 878 0
 936 0056 44F29333 		movw	r3, #:lower16:1073759123
 937 005a C4F20003 		movt	r3, #:upper16:1073759123
 938 005e 44F29332 		movw	r2, #:lower16:1073759123
ARM GAS  C:\DOCUME~1\akay\LOCALS~1\Temp\ccsadWJD.s 			page 33


 939 0062 C4F20002 		movt	r2, #:upper16:1073759123
 940 0066 1278     		ldrb	r2, [r2, #0]
 941 0068 D2B2     		uxtb	r2, r2
 942 006a 02F0F802 		and	r2, r2, #248
 943 006e 42F00302 		orr	r2, r2, #3
 944 0072 D2B2     		uxtb	r2, r2
 945 0074 1A70     		strb	r2, [r3, #0]
 879:./Generated_Source/PSoC5/cyPm.c **** 
 880:./Generated_Source/PSoC5/cyPm.c ****     /* CHECK: Recommended readback. */
 881:./Generated_Source/PSoC5/cyPm.c ****     CY_PM_MODE_CSR_REG;
 946              		.loc 1 881 0
 947 0076 44F29333 		movw	r3, #:lower16:1073759123
 948 007a C4F20003 		movt	r3, #:upper16:1073759123
 949 007e 1B78     		ldrb	r3, [r3, #0]
 882:./Generated_Source/PSoC5/cyPm.c **** 
 883:./Generated_Source/PSoC5/cyPm.c ****     /* Two recommended NOPs to get into the mode. */
 884:./Generated_Source/PSoC5/cyPm.c ****     CY_NOP;
 950              		.loc 1 884 0
 951              	@ 884 "./Generated_Source/PSoC5/cyPm.c" 1
 952 0080 00BF     		NOP
 953              	
 954              	@ 0 "" 2
 885:./Generated_Source/PSoC5/cyPm.c ****     CY_NOP;
 955              		.loc 1 885 0
 956              	@ 885 "./Generated_Source/PSoC5/cyPm.c" 1
 957 0082 00BF     		NOP
 958              	
 959              	@ 0 "" 2
 886:./Generated_Source/PSoC5/cyPm.c **** 
 887:./Generated_Source/PSoC5/cyPm.c ****     /* PSoC3 and PSoC5 has different low power modes entry way */
 888:./Generated_Source/PSoC5/cyPm.c ****     #if(CY_PM_PSOC5_ES1 || CY_PM_PSOC5_ES2)
 889:./Generated_Source/PSoC5/cyPm.c **** 
 890:./Generated_Source/PSoC5/cyPm.c ****         #if defined(__ARMCC_VERSION)
 891:./Generated_Source/PSoC5/cyPm.c **** 
 892:./Generated_Source/PSoC5/cyPm.c ****             /* Instristic for keil compilers */
 893:./Generated_Source/PSoC5/cyPm.c ****             __wfi();
 894:./Generated_Source/PSoC5/cyPm.c **** 
 895:./Generated_Source/PSoC5/cyPm.c ****         #else
 896:./Generated_Source/PSoC5/cyPm.c **** 
 897:./Generated_Source/PSoC5/cyPm.c ****             /* ASM for GCC */
 898:./Generated_Source/PSoC5/cyPm.c ****             asm volatile ("WFI \n");
 960              		.loc 1 898 0
 961              	@ 898 "./Generated_Source/PSoC5/cyPm.c" 1
 962 0084 30BF     		WFI 
 963              	
 964              	@ 0 "" 2
 899:./Generated_Source/PSoC5/cyPm.c **** 
 900:./Generated_Source/PSoC5/cyPm.c ****         #endif /* End of (__ARMCC_VERSION) */
 901:./Generated_Source/PSoC5/cyPm.c **** 
 902:./Generated_Source/PSoC5/cyPm.c ****     #endif /* End of (DEVICE_PSOC5_ES1 || DEVICE_PSOC5_ES2) */
 903:./Generated_Source/PSoC5/cyPm.c **** 
 904:./Generated_Source/PSoC5/cyPm.c ****     /* Point of return from Sleep Mode */
 905:./Generated_Source/PSoC5/cyPm.c **** 
 906:./Generated_Source/PSoC5/cyPm.c ****     /* Gives the sleep regulator time to stabilize (20us) */
 907:./Generated_Source/PSoC5/cyPm.c ****     CyDelayCycles(CY_PM_WAIT_20_US * cyPmBackup.cpuFreqMhz); 
 965              		.loc 1 907 0
 966              		.thumb
ARM GAS  C:\DOCUME~1\akay\LOCALS~1\Temp\ccsadWJD.s 			page 34


 967 0086 40F20003 		movw	r3, #:lower16:cyPmBackup
 968 008a C0F20003 		movt	r3, #:upper16:cyPmBackup
 969 008e DB7D     		ldrb	r3, [r3, #23]	@ zero_extendqisi2
 970 0090 1A46     		mov	r2, r3
 971 0092 1346     		mov	r3, r2
 972 0094 4FEA8303 		lsl	r3, r3, #2
 973 0098 1344     		add	r3, r3, r2
 974 009a 4FEA8303 		lsl	r3, r3, #2
 975 009e 1846     		mov	r0, r3
 976 00a0 FFF7FEFF 		bl	CyDelayCycles
 908:./Generated_Source/PSoC5/cyPm.c **** 
 909:./Generated_Source/PSoC5/cyPm.c ****     #if(CY_PM_PSOC3_ES3)
 910:./Generated_Source/PSoC5/cyPm.c ****     
 911:./Generated_Source/PSoC5/cyPm.c ****         /* Restore global interrupt enable state */
 912:./Generated_Source/PSoC5/cyPm.c ****         CyExitCriticalSection(cyPmBackup.interruptEnable);
 913:./Generated_Source/PSoC5/cyPm.c ****     
 914:./Generated_Source/PSoC5/cyPm.c ****     #endif  /* End of (CY_PM_PSOC3_ES3)*/
 915:./Generated_Source/PSoC5/cyPm.c **** 
 916:./Generated_Source/PSoC5/cyPm.c ****     /* Restore LVI/HVI configuration */
 917:./Generated_Source/PSoC5/cyPm.c ****     CyPmHibSlpRestore();
 977              		.loc 1 917 0
 978 00a4 FFF7FEFF 		bl	CyPmHibSlpRestore
 918:./Generated_Source/PSoC5/cyPm.c **** 
 919:./Generated_Source/PSoC5/cyPm.c ****     /* Wake up source configuration */
 920:./Generated_Source/PSoC5/cyPm.c ****     #if(CY_PM_PSOC3_ES3 || CY_PM_PSOC5_ES2)
 921:./Generated_Source/PSoC5/cyPm.c **** 
 922:./Generated_Source/PSoC5/cyPm.c ****         /* Restore current wake up configuration */
 923:./Generated_Source/PSoC5/cyPm.c ****         CY_PM_WAKEUP_CFG0_REG = cyPmBackup.wakeupCfg0;
 924:./Generated_Source/PSoC5/cyPm.c ****         CY_PM_WAKEUP_CFG1_REG = cyPmBackup.wakeupCfg1;
 925:./Generated_Source/PSoC5/cyPm.c **** 
 926:./Generated_Source/PSoC5/cyPm.c ****         /* PSoC3 ES3 or later */
 927:./Generated_Source/PSoC5/cyPm.c ****         #if(CY_PM_PSOC3_ES3)
 928:./Generated_Source/PSoC5/cyPm.c **** 
 929:./Generated_Source/PSoC5/cyPm.c ****             CY_PM_WAKEUP_CFG2_REG = cyPmBackup.wakeupCfg2;
 930:./Generated_Source/PSoC5/cyPm.c **** 
 931:./Generated_Source/PSoC5/cyPm.c ****         #endif  /* End of (CY_PM_PSOC3_ES3) */
 932:./Generated_Source/PSoC5/cyPm.c **** 
 933:./Generated_Source/PSoC5/cyPm.c ****     #endif /* End of (CY_PM_PSOC3_ES3 || CY_PM_PSOC5_ES2) */
 934:./Generated_Source/PSoC5/cyPm.c **** }
 979              		.loc 1 934 0
 980 00a8 07F10807 		add	r7, r7, #8
 981 00ac BD46     		mov	sp, r7
 982 00ae 80BD     		pop	{r7, pc}
 983              		.cfi_endproc
 984              	.LFE3:
 985              		.size	CyPmSleep, .-CyPmSleep
 986              		.section	.text.CyPmHibernate,"ax",%progbits
 987              		.align	2
 988              		.global	CyPmHibernate
 989              		.thumb
 990              		.thumb_func
 991              		.type	CyPmHibernate, %function
 992              	CyPmHibernate:
 993              	.LFB4:
 935:./Generated_Source/PSoC5/cyPm.c **** 
 936:./Generated_Source/PSoC5/cyPm.c **** 
 937:./Generated_Source/PSoC5/cyPm.c **** /*******************************************************************************
ARM GAS  C:\DOCUME~1\akay\LOCALS~1\Temp\ccsadWJD.s 			page 35


 938:./Generated_Source/PSoC5/cyPm.c **** * Function Name: CyPmHibernate
 939:./Generated_Source/PSoC5/cyPm.c **** ********************************************************************************
 940:./Generated_Source/PSoC5/cyPm.c **** *
 941:./Generated_Source/PSoC5/cyPm.c **** * Summary:
 942:./Generated_Source/PSoC5/cyPm.c **** *  Puts the part into the Hibernate state. Before switching to Hibernate the
 943:./Generated_Source/PSoC5/cyPm.c **** *  PICU wakeup source bit is saved and then set. The PICU is the only available
 944:./Generated_Source/PSoC5/cyPm.c **** *  source to wakeup from the Hibernate state. Once the wakeup condition is
 945:./Generated_Source/PSoC5/cyPm.c **** *  satisfied, then the PICU wakeup source bit is restored and the function
 946:./Generated_Source/PSoC5/cyPm.c **** *  returns in the Active state.
 947:./Generated_Source/PSoC5/cyPm.c **** *
 948:./Generated_Source/PSoC5/cyPm.c **** *  There is a firmware requirement that specifies applications cannot wakeup
 949:./Generated_Source/PSoC5/cyPm.c **** *  from hibernate and enter sleep for 20 us. The time starts from the wakeup
 950:./Generated_Source/PSoC5/cyPm.c **** *  event and gives the sleep regulator time to stabilize. There is no hardware
 951:./Generated_Source/PSoC5/cyPm.c **** *  check that this requirement is met. The specified delay should be done on
 952:./Generated_Source/PSoC5/cyPm.c **** *  ISR entry.
 953:./Generated_Source/PSoC5/cyPm.c **** *
 954:./Generated_Source/PSoC5/cyPm.c **** * Parameters:
 955:./Generated_Source/PSoC5/cyPm.c **** *  None.
 956:./Generated_Source/PSoC5/cyPm.c **** *
 957:./Generated_Source/PSoC5/cyPm.c **** * Return:
 958:./Generated_Source/PSoC5/cyPm.c **** *  None.
 959:./Generated_Source/PSoC5/cyPm.c **** *
 960:./Generated_Source/PSoC5/cyPm.c **** * Reentrant:
 961:./Generated_Source/PSoC5/cyPm.c **** *  No.
 962:./Generated_Source/PSoC5/cyPm.c **** *
 963:./Generated_Source/PSoC5/cyPm.c **** * Side Effects:
 964:./Generated_Source/PSoC5/cyPm.c **** *  None.
 965:./Generated_Source/PSoC5/cyPm.c **** *
 966:./Generated_Source/PSoC5/cyPm.c **** *  Note: PSoC 3 ES2 and PSoC 5 ES1 silicon have a defect that causes connections
 967:./Generated_Source/PSoC5/cyPm.c **** *  to several analog resources to be unreliable when not the device is placed in
 968:./Generated_Source/PSoC5/cyPm.c **** *  a low power mode. See the silicon errata "PSoC(R)3: CY8C38 Family Errata Silicon
 969:./Generated_Source/PSoC5/cyPm.c **** *  Revision ES2" (http://www.cypress.com/?rID=35179) and App Note AN# 001-63479
 970:./Generated_Source/PSoC5/cyPm.c **** *  (Unreliable Analog Routing in PSoC 3 and PSoC 5 Early Silicon) for details.
 971:./Generated_Source/PSoC5/cyPm.c **** *
 972:./Generated_Source/PSoC5/cyPm.c **** *  Be aware of potential silent failures when using CyPmHibernate().
 973:./Generated_Source/PSoC5/cyPm.c **** *
 974:./Generated_Source/PSoC5/cyPm.c **** *******************************************************************************/
 975:./Generated_Source/PSoC5/cyPm.c **** void CyPmHibernate(void)
 976:./Generated_Source/PSoC5/cyPm.c **** {
 994              		.loc 1 976 0
 995              		.cfi_startproc
 996              		@ args = 0, pretend = 0, frame = 0
 997              		@ frame_needed = 1, uses_anonymous_args = 0
 998 0000 80B5     		push	{r7, lr}
 999              	.LCFI11:
 1000              		.cfi_def_cfa_offset 8
 1001 0002 00AF     		add	r7, sp, #0
 1002              		.cfi_offset 14, -4
 1003              		.cfi_offset 7, -8
 1004              	.LCFI12:
 1005              		.cfi_def_cfa_register 7
 977:./Generated_Source/PSoC5/cyPm.c ****     /* PSoC3 ES3 */
 978:./Generated_Source/PSoC5/cyPm.c ****     #if(CY_PM_PSOC3_ES3)
 979:./Generated_Source/PSoC5/cyPm.c **** 
 980:./Generated_Source/PSoC5/cyPm.c ****         /* Hibernate/Sleep regulator stabilization */
 981:./Generated_Source/PSoC5/cyPm.c ****         if(0u == (CY_PM_MODE_CSR_REG & CY_PM_MODE_CSR_PWRUP_PULSE_Q))
 982:./Generated_Source/PSoC5/cyPm.c ****         {
ARM GAS  C:\DOCUME~1\akay\LOCALS~1\Temp\ccsadWJD.s 			page 36


 983:./Generated_Source/PSoC5/cyPm.c ****             /* Disable hold off - no action on restore */
 984:./Generated_Source/PSoC5/cyPm.c ****             CY_PM_PWRSYS_SLP_TR_REG &= CY_PM_PWRSYS_SLP_TR_HIBSLP_HOLDOFF_MASK;    
 985:./Generated_Source/PSoC5/cyPm.c ****         }
 986:./Generated_Source/PSoC5/cyPm.c ****         else
 987:./Generated_Source/PSoC5/cyPm.c ****         {
 988:./Generated_Source/PSoC5/cyPm.c ****             /* Abort, device is not ready for low power mode entry */
 989:./Generated_Source/PSoC5/cyPm.c ****             /* This section will be redesign to be correct till Beta 5
 990:./Generated_Source/PSoC5/cyPm.c ****             *  when PSoC3/5 PM API files become device version specific.
 991:./Generated_Source/PSoC5/cyPm.c ****             */            
 992:./Generated_Source/PSoC5/cyPm.c ****             return;
 993:./Generated_Source/PSoC5/cyPm.c ****         }
 994:./Generated_Source/PSoC5/cyPm.c **** 
 995:./Generated_Source/PSoC5/cyPm.c ****     #endif /* End of (CY_PM_PSOC3_ES3) */
 996:./Generated_Source/PSoC5/cyPm.c ****     
 997:./Generated_Source/PSoC5/cyPm.c ****     /* Prepare device for proper Hibernate mode entry */
 998:./Generated_Source/PSoC5/cyPm.c ****     CyPmHibSaveSet();
 1006              		.loc 1 998 0
 1007 0004 FFF7FEFF 		bl	CyPmHibSaveSet
 999:./Generated_Source/PSoC5/cyPm.c **** 
1000:./Generated_Source/PSoC5/cyPm.c ****     /* Save and set new wake up configuration */
1001:./Generated_Source/PSoC5/cyPm.c ****     #if(CY_PM_PSOC3_ES3 || CY_PM_PSOC5_ES2)
1002:./Generated_Source/PSoC5/cyPm.c **** 
1003:./Generated_Source/PSoC5/cyPm.c ****         /* Interrupt, PICU, I2C, Boost converter, CTW/1PPS */
1004:./Generated_Source/PSoC5/cyPm.c ****         cyPmBackup.wakeupCfg0 = CY_PM_WAKEUP_CFG0_REG;
1005:./Generated_Source/PSoC5/cyPm.c ****         CY_PM_WAKEUP_CFG0_REG = CY_PM_WAKEUP_PICU;  /* Enable wake up on PICU */
1006:./Generated_Source/PSoC5/cyPm.c **** 
1007:./Generated_Source/PSoC5/cyPm.c ****         /* Comparators */
1008:./Generated_Source/PSoC5/cyPm.c ****         cyPmBackup.wakeupCfg1 = CY_PM_WAKEUP_CFG1_REG;
1009:./Generated_Source/PSoC5/cyPm.c ****         CY_PM_WAKEUP_CFG1_REG = 0x00u;
1010:./Generated_Source/PSoC5/cyPm.c **** 
1011:./Generated_Source/PSoC5/cyPm.c ****         #if(CY_PM_PSOC3_ES3)   /* PSoC3 ES3 or later */
1012:./Generated_Source/PSoC5/cyPm.c **** 
1013:./Generated_Source/PSoC5/cyPm.c ****             /* LCD */
1014:./Generated_Source/PSoC5/cyPm.c ****             cyPmBackup.wakeupCfg2 = CY_PM_WAKEUP_CFG2_REG;
1015:./Generated_Source/PSoC5/cyPm.c ****             CY_PM_WAKEUP_CFG2_REG = 0x00u;
1016:./Generated_Source/PSoC5/cyPm.c **** 
1017:./Generated_Source/PSoC5/cyPm.c ****         #endif  /* End of (CY_PM_PSOC3_ES3) */
1018:./Generated_Source/PSoC5/cyPm.c **** 
1019:./Generated_Source/PSoC5/cyPm.c ****     #endif /* End of (CY_PM_PSOC3_ES3 || CY_PM_PSOC5_ES2) */
1020:./Generated_Source/PSoC5/cyPm.c **** 
1021:./Generated_Source/PSoC5/cyPm.c ****     #if(CY_PM_PSOC3_ES3)
1022:./Generated_Source/PSoC5/cyPm.c **** 
1023:./Generated_Source/PSoC5/cyPm.c ****         /* Save current global interrupt enable and disable it */
1024:./Generated_Source/PSoC5/cyPm.c ****         cyPmBackup.interruptEnable = CyEnterCriticalSection();
1025:./Generated_Source/PSoC5/cyPm.c **** 
1026:./Generated_Source/PSoC5/cyPm.c ****     #endif  /* End of (CY_PM_PSOC3_ES3)*/
1027:./Generated_Source/PSoC5/cyPm.c **** 
1028:./Generated_Source/PSoC5/cyPm.c ****     /* Switch to Hibernate Mode */
1029:./Generated_Source/PSoC5/cyPm.c ****     CY_PM_MODE_CSR_REG = ((CY_PM_MODE_CSR_REG & ~CY_PM_MODE_CSR_MASK) | CY_PM_MODE_CSR_HIBERNATE);
 1008              		.loc 1 1029 0
 1009 0008 44F29333 		movw	r3, #:lower16:1073759123
 1010 000c C4F20003 		movt	r3, #:upper16:1073759123
 1011 0010 44F29332 		movw	r2, #:lower16:1073759123
 1012 0014 C4F20002 		movt	r2, #:upper16:1073759123
 1013 0018 1278     		ldrb	r2, [r2, #0]
 1014 001a D2B2     		uxtb	r2, r2
 1015 001c 02F0F802 		and	r2, r2, #248
ARM GAS  C:\DOCUME~1\akay\LOCALS~1\Temp\ccsadWJD.s 			page 37


 1016 0020 42F00402 		orr	r2, r2, #4
 1017 0024 D2B2     		uxtb	r2, r2
 1018 0026 1A70     		strb	r2, [r3, #0]
1030:./Generated_Source/PSoC5/cyPm.c **** 
1031:./Generated_Source/PSoC5/cyPm.c ****     /* CHECK: Recommended readback. */
1032:./Generated_Source/PSoC5/cyPm.c ****     CY_PM_MODE_CSR_REG;
 1019              		.loc 1 1032 0
 1020 0028 44F29333 		movw	r3, #:lower16:1073759123
 1021 002c C4F20003 		movt	r3, #:upper16:1073759123
 1022 0030 1B78     		ldrb	r3, [r3, #0]
1033:./Generated_Source/PSoC5/cyPm.c **** 
1034:./Generated_Source/PSoC5/cyPm.c ****     /* Two recommended NOPs to get into the mode. */
1035:./Generated_Source/PSoC5/cyPm.c ****     CY_NOP;
 1023              		.loc 1 1035 0
 1024              	@ 1035 "./Generated_Source/PSoC5/cyPm.c" 1
 1025 0032 00BF     		NOP
 1026              	
 1027              	@ 0 "" 2
1036:./Generated_Source/PSoC5/cyPm.c ****     CY_NOP;
 1028              		.loc 1 1036 0
 1029              	@ 1036 "./Generated_Source/PSoC5/cyPm.c" 1
 1030 0034 00BF     		NOP
 1031              	
 1032              	@ 0 "" 2
1037:./Generated_Source/PSoC5/cyPm.c **** 
1038:./Generated_Source/PSoC5/cyPm.c ****     /* PSoC3 and PSoC5 has different low power modes entry way */
1039:./Generated_Source/PSoC5/cyPm.c ****     #if(CY_PM_PSOC5_ES1 || CY_PM_PSOC5_ES2)
1040:./Generated_Source/PSoC5/cyPm.c **** 
1041:./Generated_Source/PSoC5/cyPm.c ****         #if defined(__ARMCC_VERSION)
1042:./Generated_Source/PSoC5/cyPm.c **** 
1043:./Generated_Source/PSoC5/cyPm.c ****             /* Instristic for keil compilers */
1044:./Generated_Source/PSoC5/cyPm.c ****             __wfi();
1045:./Generated_Source/PSoC5/cyPm.c **** 
1046:./Generated_Source/PSoC5/cyPm.c ****         #else
1047:./Generated_Source/PSoC5/cyPm.c **** 
1048:./Generated_Source/PSoC5/cyPm.c ****             /* ASM for GCC */
1049:./Generated_Source/PSoC5/cyPm.c ****             asm volatile ("WFI \n");
 1033              		.loc 1 1049 0
 1034              	@ 1049 "./Generated_Source/PSoC5/cyPm.c" 1
 1035 0036 30BF     		WFI 
 1036              	
 1037              	@ 0 "" 2
1050:./Generated_Source/PSoC5/cyPm.c **** 
1051:./Generated_Source/PSoC5/cyPm.c ****         #endif /* End of (__ARMCC_VERSION) */
1052:./Generated_Source/PSoC5/cyPm.c **** 
1053:./Generated_Source/PSoC5/cyPm.c ****     #endif /* End of (DEVICE_PSOC5_ES1 || DEVICE_PSOC5_ES2) */
1054:./Generated_Source/PSoC5/cyPm.c **** 
1055:./Generated_Source/PSoC5/cyPm.c ****     /* Point of return from Hibernate mode */
1056:./Generated_Source/PSoC5/cyPm.c **** 
1057:./Generated_Source/PSoC5/cyPm.c ****     #if(CY_PM_PSOC3_ES3)
1058:./Generated_Source/PSoC5/cyPm.c ****     
1059:./Generated_Source/PSoC5/cyPm.c ****         /* Restore global interrupt enable state */
1060:./Generated_Source/PSoC5/cyPm.c ****         CyExitCriticalSection(cyPmBackup.interruptEnable);
1061:./Generated_Source/PSoC5/cyPm.c ****     
1062:./Generated_Source/PSoC5/cyPm.c ****     #endif  /* End of (CY_PM_PSOC3_ES3)*/
1063:./Generated_Source/PSoC5/cyPm.c **** 
1064:./Generated_Source/PSoC5/cyPm.c ****     /* Restore device for proper Hibernate mode exit*/
ARM GAS  C:\DOCUME~1\akay\LOCALS~1\Temp\ccsadWJD.s 			page 38


1065:./Generated_Source/PSoC5/cyPm.c ****     CyPmHibRestore();
 1038              		.loc 1 1065 0
 1039              		.thumb
 1040 0038 FFF7FEFF 		bl	CyPmHibRestore
1066:./Generated_Source/PSoC5/cyPm.c **** 
1067:./Generated_Source/PSoC5/cyPm.c ****     /* PSoC3 ES3 or later, PSoC5 ES2 or later */
1068:./Generated_Source/PSoC5/cyPm.c ****     #if(CY_PM_PSOC3_ES3 || CY_PM_PSOC5_ES2)
1069:./Generated_Source/PSoC5/cyPm.c **** 
1070:./Generated_Source/PSoC5/cyPm.c ****         /* Restore saved wake up configuration */
1071:./Generated_Source/PSoC5/cyPm.c ****         CY_PM_WAKEUP_CFG0_REG = cyPmBackup.wakeupCfg0;
1072:./Generated_Source/PSoC5/cyPm.c ****         CY_PM_WAKEUP_CFG1_REG = cyPmBackup.wakeupCfg1;
1073:./Generated_Source/PSoC5/cyPm.c **** 
1074:./Generated_Source/PSoC5/cyPm.c ****         #if(CY_PM_PSOC3_ES3)   /* PSoC3 ES3 or later */
1075:./Generated_Source/PSoC5/cyPm.c **** 
1076:./Generated_Source/PSoC5/cyPm.c ****             CY_PM_WAKEUP_CFG2_REG = cyPmBackup.wakeupCfg2;
1077:./Generated_Source/PSoC5/cyPm.c **** 
1078:./Generated_Source/PSoC5/cyPm.c ****         #endif  /* End of (CY_PM_PSOC3_ES3) */
1079:./Generated_Source/PSoC5/cyPm.c **** 
1080:./Generated_Source/PSoC5/cyPm.c ****     #endif /* End of (CY_PM_PSOC3_ES3 || CY_PM_PSOC5_ES2) */
1081:./Generated_Source/PSoC5/cyPm.c **** }
 1041              		.loc 1 1081 0
 1042 003c 80BD     		pop	{r7, pc}
 1043              		.cfi_endproc
 1044              	.LFE4:
 1045              		.size	CyPmHibernate, .-CyPmHibernate
 1046 003e 00BF     		.section	.text.CyPmReadStatus,"ax",%progbits
 1047              		.align	2
 1048              		.global	CyPmReadStatus
 1049              		.thumb
 1050              		.thumb_func
 1051              		.type	CyPmReadStatus, %function
 1052              	CyPmReadStatus:
 1053              	.LFB5:
1082:./Generated_Source/PSoC5/cyPm.c **** 
1083:./Generated_Source/PSoC5/cyPm.c **** 
1084:./Generated_Source/PSoC5/cyPm.c **** /*******************************************************************************
1085:./Generated_Source/PSoC5/cyPm.c **** * Function Name: CyPMReadStatus
1086:./Generated_Source/PSoC5/cyPm.c **** ********************************************************************************
1087:./Generated_Source/PSoC5/cyPm.c **** *
1088:./Generated_Source/PSoC5/cyPm.c **** * Summary:
1089:./Generated_Source/PSoC5/cyPm.c **** *  Manages the Power Manager Interrupt Status Register.  This register has the
1090:./Generated_Source/PSoC5/cyPm.c **** *  interrupt status for the one pulse per second, central timewheel and fast
1091:./Generated_Source/PSoC5/cyPm.c **** *  timewheel timers.  This hardware register clears on read.  To allow for only
1092:./Generated_Source/PSoC5/cyPm.c **** *  clearing the bits of interest and preserving the other bits, this function
1093:./Generated_Source/PSoC5/cyPm.c **** *  uses a shadow register that retains the state.  This function reads the
1094:./Generated_Source/PSoC5/cyPm.c **** *  status register and ORs that value with the shadow register.  That is the
1095:./Generated_Source/PSoC5/cyPm.c **** *  value that is returned.  Then the bits in the mask that are set are cleared
1096:./Generated_Source/PSoC5/cyPm.c **** *  from this value and written back to the shadow register.
1097:./Generated_Source/PSoC5/cyPm.c **** *
1098:./Generated_Source/PSoC5/cyPm.c **** * Parameters:
1099:./Generated_Source/PSoC5/cyPm.c **** *  mask: Bits in the shadow register to clear.
1100:./Generated_Source/PSoC5/cyPm.c **** *
1101:./Generated_Source/PSoC5/cyPm.c **** *       Define                      Source
1102:./Generated_Source/PSoC5/cyPm.c **** *  CY_PM_FTW_INT                Fast Timewheel
1103:./Generated_Source/PSoC5/cyPm.c **** *  CY_PM_CTW_INT                Central Timewheel
1104:./Generated_Source/PSoC5/cyPm.c **** *  CY_PM_ONEPPS_INT             One Pulse Per Second
1105:./Generated_Source/PSoC5/cyPm.c **** *
ARM GAS  C:\DOCUME~1\akay\LOCALS~1\Temp\ccsadWJD.s 			page 39


1106:./Generated_Source/PSoC5/cyPm.c **** * Return:
1107:./Generated_Source/PSoC5/cyPm.c **** *  Status.  Same bits values as the mask parameter.
1108:./Generated_Source/PSoC5/cyPm.c **** *
1109:./Generated_Source/PSoC5/cyPm.c **** * Reentrant:
1110:./Generated_Source/PSoC5/cyPm.c **** *  No.
1111:./Generated_Source/PSoC5/cyPm.c **** *
1112:./Generated_Source/PSoC5/cyPm.c **** * Side Effects:
1113:./Generated_Source/PSoC5/cyPm.c **** *  None.
1114:./Generated_Source/PSoC5/cyPm.c **** *
1115:./Generated_Source/PSoC5/cyPm.c **** *******************************************************************************/
1116:./Generated_Source/PSoC5/cyPm.c **** uint8 CyPmReadStatus(uint8 mask)
1117:./Generated_Source/PSoC5/cyPm.c **** {
 1054              		.loc 1 1117 0
 1055              		.cfi_startproc
 1056              		@ args = 0, pretend = 0, frame = 16
 1057              		@ frame_needed = 1, uses_anonymous_args = 0
 1058 0000 80B5     		push	{r7, lr}
 1059              	.LCFI13:
 1060              		.cfi_def_cfa_offset 8
 1061 0002 84B0     		sub	sp, sp, #16
 1062              	.LCFI14:
 1063              		.cfi_def_cfa_offset 24
 1064 0004 00AF     		add	r7, sp, #0
 1065              		.cfi_offset 14, -4
 1066              		.cfi_offset 7, -8
 1067              	.LCFI15:
 1068              		.cfi_def_cfa_register 7
 1069 0006 0346     		mov	r3, r0
 1070 0008 FB71     		strb	r3, [r7, #7]
1118:./Generated_Source/PSoC5/cyPm.c ****     static uint8 interruptStatus;
1119:./Generated_Source/PSoC5/cyPm.c ****     uint8 interruptState;
1120:./Generated_Source/PSoC5/cyPm.c ****     uint8 tmpStatus;
1121:./Generated_Source/PSoC5/cyPm.c **** 
1122:./Generated_Source/PSoC5/cyPm.c ****     /* Enter critical section */
1123:./Generated_Source/PSoC5/cyPm.c ****     interruptState = CyEnterCriticalSection();
 1071              		.loc 1 1123 0
 1072 000a FFF7FEFF 		bl	CyEnterCriticalSection
 1073 000e 0346     		mov	r3, r0
 1074 0010 BB73     		strb	r3, [r7, #14]
1124:./Generated_Source/PSoC5/cyPm.c **** 
1125:./Generated_Source/PSoC5/cyPm.c ****     /* Save value of the register, copy it and clear desired bit */
1126:./Generated_Source/PSoC5/cyPm.c ****     interruptStatus |= CY_PM_INT_SR_REG;
 1075              		.loc 1 1126 0
 1076 0012 44F29033 		movw	r3, #:lower16:1073759120
 1077 0016 C4F20003 		movt	r3, #:upper16:1073759120
 1078 001a 1B78     		ldrb	r3, [r3, #0]
 1079 001c DAB2     		uxtb	r2, r3
 1080 001e 40F20003 		movw	r3, #:lower16:interruptStatus.2238
 1081 0022 C0F20003 		movt	r3, #:upper16:interruptStatus.2238
 1082 0026 1B78     		ldrb	r3, [r3, #0]	@ zero_extendqisi2
 1083 0028 42EA0303 		orr	r3, r2, r3
 1084 002c DAB2     		uxtb	r2, r3
 1085 002e 40F20003 		movw	r3, #:lower16:interruptStatus.2238
 1086 0032 C0F20003 		movt	r3, #:upper16:interruptStatus.2238
 1087 0036 1A70     		strb	r2, [r3, #0]
1127:./Generated_Source/PSoC5/cyPm.c ****     tmpStatus = interruptStatus;
 1088              		.loc 1 1127 0
ARM GAS  C:\DOCUME~1\akay\LOCALS~1\Temp\ccsadWJD.s 			page 40


 1089 0038 40F20003 		movw	r3, #:lower16:interruptStatus.2238
 1090 003c C0F20003 		movt	r3, #:upper16:interruptStatus.2238
 1091 0040 1B78     		ldrb	r3, [r3, #0]
 1092 0042 FB73     		strb	r3, [r7, #15]
1128:./Generated_Source/PSoC5/cyPm.c ****     interruptStatus &= ~mask;
 1093              		.loc 1 1128 0
 1094 0044 FB79     		ldrb	r3, [r7, #7]	@ zero_extendqisi2
 1095 0046 6FEA0303 		mvn	r3, r3
 1096 004a DAB2     		uxtb	r2, r3
 1097 004c 40F20003 		movw	r3, #:lower16:interruptStatus.2238
 1098 0050 C0F20003 		movt	r3, #:upper16:interruptStatus.2238
 1099 0054 1B78     		ldrb	r3, [r3, #0]	@ zero_extendqisi2
 1100 0056 02EA0303 		and	r3, r2, r3
 1101 005a DBB2     		uxtb	r3, r3
 1102 005c DAB2     		uxtb	r2, r3
 1103 005e 40F20003 		movw	r3, #:lower16:interruptStatus.2238
 1104 0062 C0F20003 		movt	r3, #:upper16:interruptStatus.2238
 1105 0066 1A70     		strb	r2, [r3, #0]
1129:./Generated_Source/PSoC5/cyPm.c **** 
1130:./Generated_Source/PSoC5/cyPm.c ****     /* Exit critical section */
1131:./Generated_Source/PSoC5/cyPm.c ****     CyExitCriticalSection(interruptState);
 1106              		.loc 1 1131 0
 1107 0068 BB7B     		ldrb	r3, [r7, #14]	@ zero_extendqisi2
 1108 006a 1846     		mov	r0, r3
 1109 006c FFF7FEFF 		bl	CyExitCriticalSection
1132:./Generated_Source/PSoC5/cyPm.c **** 
1133:./Generated_Source/PSoC5/cyPm.c ****     return(tmpStatus);
 1110              		.loc 1 1133 0
 1111 0070 FB7B     		ldrb	r3, [r7, #15]	@ zero_extendqisi2
1134:./Generated_Source/PSoC5/cyPm.c **** }
 1112              		.loc 1 1134 0
 1113 0072 1846     		mov	r0, r3
 1114 0074 07F11007 		add	r7, r7, #16
 1115 0078 BD46     		mov	sp, r7
 1116 007a 80BD     		pop	{r7, pc}
 1117              		.cfi_endproc
 1118              	.LFE5:
 1119              		.size	CyPmReadStatus, .-CyPmReadStatus
 1120              		.section	.text.CyPmHibSaveSet,"ax",%progbits
 1121              		.align	2
 1122              		.global	CyPmHibSaveSet
 1123              		.thumb
 1124              		.thumb_func
 1125              		.type	CyPmHibSaveSet, %function
 1126              	CyPmHibSaveSet:
 1127              	.LFB6:
1135:./Generated_Source/PSoC5/cyPm.c **** 
1136:./Generated_Source/PSoC5/cyPm.c **** 
1137:./Generated_Source/PSoC5/cyPm.c **** /*******************************************************************************
1138:./Generated_Source/PSoC5/cyPm.c **** * Function Name: CyPmHibSaveSet
1139:./Generated_Source/PSoC5/cyPm.c **** ********************************************************************************
1140:./Generated_Source/PSoC5/cyPm.c **** *
1141:./Generated_Source/PSoC5/cyPm.c **** * Summary:
1142:./Generated_Source/PSoC5/cyPm.c **** *  Prepare device for proper Hibernate low power mode entry: disable I2C backup
1143:./Generated_Source/PSoC5/cyPm.c **** *  regulator, save enable state of the 1 kHz and 100 kHz ILO and disable them.
1144:./Generated_Source/PSoC5/cyPm.c **** *  Save ILO power down mode state and enable it. Disable use_vccdclk_det.
1145:./Generated_Source/PSoC5/cyPm.c **** *
ARM GAS  C:\DOCUME~1\akay\LOCALS~1\Temp\ccsadWJD.s 			page 41


1146:./Generated_Source/PSoC5/cyPm.c **** * Parameters:
1147:./Generated_Source/PSoC5/cyPm.c **** *  None.
1148:./Generated_Source/PSoC5/cyPm.c **** *
1149:./Generated_Source/PSoC5/cyPm.c **** * Return:
1150:./Generated_Source/PSoC5/cyPm.c **** *  None.
1151:./Generated_Source/PSoC5/cyPm.c **** *
1152:./Generated_Source/PSoC5/cyPm.c **** * Reentrant:
1153:./Generated_Source/PSoC5/cyPm.c **** *  No.
1154:./Generated_Source/PSoC5/cyPm.c **** *
1155:./Generated_Source/PSoC5/cyPm.c **** * Side Effects:
1156:./Generated_Source/PSoC5/cyPm.c **** *  None.
1157:./Generated_Source/PSoC5/cyPm.c **** *
1158:./Generated_Source/PSoC5/cyPm.c **** *******************************************************************************/
1159:./Generated_Source/PSoC5/cyPm.c **** void CyPmHibSaveSet(void)
1160:./Generated_Source/PSoC5/cyPm.c **** {
 1128              		.loc 1 1160 0
 1129              		.cfi_startproc
 1130              		@ args = 0, pretend = 0, frame = 0
 1131              		@ frame_needed = 1, uses_anonymous_args = 0
 1132 0000 80B5     		push	{r7, lr}
 1133              	.LCFI16:
 1134              		.cfi_def_cfa_offset 8
 1135 0002 00AF     		add	r7, sp, #0
 1136              		.cfi_offset 14, -4
 1137              		.cfi_offset 7, -8
 1138              	.LCFI17:
 1139              		.cfi_def_cfa_register 7
1161:./Generated_Source/PSoC5/cyPm.c ****     /* I2C backup reg must be off when the sleep reg is unavailable */
1162:./Generated_Source/PSoC5/cyPm.c ****     if(0u != (CY_PM_PWRSYS_CR1_REG & CY_PM_PWRSYS_CR1_I2CREG_BACKUP))
 1140              		.loc 1 1162 0
 1141 0004 44F23133 		movw	r3, #:lower16:1073759025
 1142 0008 C4F20003 		movt	r3, #:upper16:1073759025
 1143 000c 1B78     		ldrb	r3, [r3, #0]
 1144 000e DBB2     		uxtb	r3, r3
 1145 0010 03F00403 		and	r3, r3, #4
 1146 0014 002B     		cmp	r3, #0
 1147 0016 14D0     		beq	.L59
1163:./Generated_Source/PSoC5/cyPm.c ****     {
1164:./Generated_Source/PSoC5/cyPm.c ****         /* I2C backup reg is enabled, save enable state and disable */
1165:./Generated_Source/PSoC5/cyPm.c ****         cyPmBackup.i2cRegBackup = CY_PM_ENABLED;
 1148              		.loc 1 1165 0
 1149 0018 40F20003 		movw	r3, #:lower16:cyPmBackup
 1150 001c C0F20003 		movt	r3, #:upper16:cyPmBackup
 1151 0020 4FF00102 		mov	r2, #1
 1152 0024 DA74     		strb	r2, [r3, #19]
1166:./Generated_Source/PSoC5/cyPm.c ****         CY_PM_PWRSYS_CR1_REG &= ~CY_PM_PWRSYS_CR1_I2CREG_BACKUP;
 1153              		.loc 1 1166 0
 1154 0026 44F23133 		movw	r3, #:lower16:1073759025
 1155 002a C4F20003 		movt	r3, #:upper16:1073759025
 1156 002e 44F23132 		movw	r2, #:lower16:1073759025
 1157 0032 C4F20002 		movt	r2, #:upper16:1073759025
 1158 0036 1278     		ldrb	r2, [r2, #0]
 1159 0038 D2B2     		uxtb	r2, r2
 1160 003a 02F0FB02 		and	r2, r2, #251
 1161 003e 1A70     		strb	r2, [r3, #0]
 1162 0040 06E0     		b	.L60
 1163              	.L59:
ARM GAS  C:\DOCUME~1\akay\LOCALS~1\Temp\ccsadWJD.s 			page 42


1167:./Generated_Source/PSoC5/cyPm.c ****     }
1168:./Generated_Source/PSoC5/cyPm.c ****     else
1169:./Generated_Source/PSoC5/cyPm.c ****     {
1170:./Generated_Source/PSoC5/cyPm.c ****         /* Save disabled state of the I2C backup regulator */
1171:./Generated_Source/PSoC5/cyPm.c ****         cyPmBackup.i2cRegBackup = CY_PM_DISABLED;
 1164              		.loc 1 1171 0
 1165 0042 40F20003 		movw	r3, #:lower16:cyPmBackup
 1166 0046 C0F20003 		movt	r3, #:upper16:cyPmBackup
 1167 004a 4FF00002 		mov	r2, #0
 1168 004e DA74     		strb	r2, [r3, #19]
 1169              	.L60:
1172:./Generated_Source/PSoC5/cyPm.c ****     }
1173:./Generated_Source/PSoC5/cyPm.c **** 
1174:./Generated_Source/PSoC5/cyPm.c ****     /* PSoC3 ES3 */
1175:./Generated_Source/PSoC5/cyPm.c ****     #if(CY_PM_PSOC3_ES3)
1176:./Generated_Source/PSoC5/cyPm.c **** 
1177:./Generated_Source/PSoC5/cyPm.c ****         /* Save current ILO power mode and ensure low power mode */
1178:./Generated_Source/PSoC5/cyPm.c ****         cyPmBackup.iloPowerMode = CyILO_SetPowerMode(CY_PM_POWERDOWN_MODE);
1179:./Generated_Source/PSoC5/cyPm.c ****     
1180:./Generated_Source/PSoC5/cyPm.c ****         /* Save current 1kHz ILO enable state. Disabled automatically. */
1181:./Generated_Source/PSoC5/cyPm.c ****         cyPmBackup.ilo1kEnable = (0u != (CY_PM_SLOWCLK_ILO_CR0_REG & CY_PM_ILO_CR0_EN_1K)) ?
1182:./Generated_Source/PSoC5/cyPm.c ****                                     CY_PM_ENABLED : CY_PM_DISABLED;
1183:./Generated_Source/PSoC5/cyPm.c ****     
1184:./Generated_Source/PSoC5/cyPm.c ****         /* Save current 100kHz ILO enable state. Disabled automatically. */
1185:./Generated_Source/PSoC5/cyPm.c ****         cyPmBackup.ilo100kEnable = (0u != (CY_PM_SLOWCLK_ILO_CR0_REG & CY_PM_ILO_CR0_EN_100K)) ?
1186:./Generated_Source/PSoC5/cyPm.c ****                                     CY_PM_ENABLED : CY_PM_DISABLED;
1187:./Generated_Source/PSoC5/cyPm.c **** 
1188:./Generated_Source/PSoC5/cyPm.c ****     #endif  /* End of (CY_PM_PSOC3_ES3) */
1189:./Generated_Source/PSoC5/cyPm.c **** 
1190:./Generated_Source/PSoC5/cyPm.c ****     /* PSoC3 ES3 */
1191:./Generated_Source/PSoC5/cyPm.c ****     #if(CY_PM_PSOC3_ES3)
1192:./Generated_Source/PSoC5/cyPm.c **** 
1193:./Generated_Source/PSoC5/cyPm.c **** 	    if(0u == (CY_PM_PWRSYS_SLP_TR_REG & CY_PM_PWRSYS_SLP_TR_BYPASS))
1194:./Generated_Source/PSoC5/cyPm.c **** 	    {
1195:./Generated_Source/PSoC5/cyPm.c **** 	        /* Save current bypass state */
1196:./Generated_Source/PSoC5/cyPm.c **** 	        cyPmBackup.slpTrBypass = CY_PM_DISABLED;
1197:./Generated_Source/PSoC5/cyPm.c ****         
1198:./Generated_Source/PSoC5/cyPm.c **** 	        /* When set, disables the sleep regulator and shorts vccd to vpwrsleep */
1199:./Generated_Source/PSoC5/cyPm.c **** 	        CY_PM_PWRSYS_SLP_TR_REG |= CY_PM_PWRSYS_SLP_TR_BYPASS;
1200:./Generated_Source/PSoC5/cyPm.c **** 	    }
1201:./Generated_Source/PSoC5/cyPm.c **** 	    else
1202:./Generated_Source/PSoC5/cyPm.c **** 	    {
1203:./Generated_Source/PSoC5/cyPm.c **** 	        /* Save current bypass state */
1204:./Generated_Source/PSoC5/cyPm.c **** 	        cyPmBackup.slpTrBypass = CY_PM_ENABLED;
1205:./Generated_Source/PSoC5/cyPm.c **** 	    }
1206:./Generated_Source/PSoC5/cyPm.c **** 
1207:./Generated_Source/PSoC5/cyPm.c **** 	#endif  /* End of (CY_PM_PSOC3_ES3) */
1208:./Generated_Source/PSoC5/cyPm.c **** 
1209:./Generated_Source/PSoC5/cyPm.c **** 
1210:./Generated_Source/PSoC5/cyPm.c ****     /* PSoC3 ES3 */
1211:./Generated_Source/PSoC5/cyPm.c ****     #if(CY_PM_PSOC3_ES3)
1212:./Generated_Source/PSoC5/cyPm.c **** 
1213:./Generated_Source/PSoC5/cyPm.c ****         /* Only affects when BOTH ext_vccd=1 and ext_vcca=1 */
1214:./Generated_Source/PSoC5/cyPm.c ****         if((0u != (CY_PM_PWRSYS_CR0_REG & CY_PM_PWRSYS_CR0_EXT_VCCA)) &&
1215:./Generated_Source/PSoC5/cyPm.c ****         (0u != (CY_PM_PWRSYS_CR0_REG & CY_PM_PWRSYS_CR0_EXT_VCCD)))
1216:./Generated_Source/PSoC5/cyPm.c ****         {
1217:./Generated_Source/PSoC5/cyPm.c **** 
ARM GAS  C:\DOCUME~1\akay\LOCALS~1\Temp\ccsadWJD.s 			page 43


1218:./Generated_Source/PSoC5/cyPm.c ****             if(0u != CY_PM_PWRSYS_WAKE_TR2_REG & CY_PM_PWRSYS_WAKE_TR2_VCCD_CLK_DET)
1219:./Generated_Source/PSoC5/cyPm.c ****             {
1220:./Generated_Source/PSoC5/cyPm.c ****                 /* Save alternate powergood detector state */
1221:./Generated_Source/PSoC5/cyPm.c ****                 cyPmBackup.vccdClkDet = CY_PM_ENABLED;
1222:./Generated_Source/PSoC5/cyPm.c **** 
1223:./Generated_Source/PSoC5/cyPm.c ****                 /* Enable LPCOMPs (slower) instead of faster powergood detector */
1224:./Generated_Source/PSoC5/cyPm.c ****                 CY_PM_PWRSYS_WAKE_TR2_REG &= ~CY_PM_PWRSYS_WAKE_TR2_VCCD_CLK_DET;
1225:./Generated_Source/PSoC5/cyPm.c ****             }
1226:./Generated_Source/PSoC5/cyPm.c ****             else
1227:./Generated_Source/PSoC5/cyPm.c ****             {
1228:./Generated_Source/PSoC5/cyPm.c ****                 /* Save alternate powergood detector state */
1229:./Generated_Source/PSoC5/cyPm.c ****                 cyPmBackup.vccdClkDet = CY_PM_DISABLED;
1230:./Generated_Source/PSoC5/cyPm.c ****             }
1231:./Generated_Source/PSoC5/cyPm.c ****         }
1232:./Generated_Source/PSoC5/cyPm.c **** 
1233:./Generated_Source/PSoC5/cyPm.c ****     #endif /* End of (CY_PM_PSOC3_ES3) */
1234:./Generated_Source/PSoC5/cyPm.c **** 
1235:./Generated_Source/PSoC5/cyPm.c ****     /* Tune LVI/HVI and wait for Hibernate/Sleep regulator to stabilize */
1236:./Generated_Source/PSoC5/cyPm.c ****     CyPmHibSlpSaveSet(CY_PM_MODE_CSR_HIBERNATE);
 1170              		.loc 1 1236 0
 1171 0050 4FF00400 		mov	r0, #4
 1172 0054 FFF7FEFF 		bl	CyPmHibSlpSaveSet
1237:./Generated_Source/PSoC5/cyPm.c **** }
 1173              		.loc 1 1237 0
 1174 0058 80BD     		pop	{r7, pc}
 1175              		.cfi_endproc
 1176              	.LFE6:
 1177              		.size	CyPmHibSaveSet, .-CyPmHibSaveSet
 1178 005a 00BF     		.section	.text.CyPmHibRestore,"ax",%progbits
 1179              		.align	2
 1180              		.global	CyPmHibRestore
 1181              		.thumb
 1182              		.thumb_func
 1183              		.type	CyPmHibRestore, %function
 1184              	CyPmHibRestore:
 1185              	.LFB7:
1238:./Generated_Source/PSoC5/cyPm.c **** 
1239:./Generated_Source/PSoC5/cyPm.c **** 
1240:./Generated_Source/PSoC5/cyPm.c **** /*******************************************************************************
1241:./Generated_Source/PSoC5/cyPm.c **** * Function Name: CyPmHibRestore
1242:./Generated_Source/PSoC5/cyPm.c **** ********************************************************************************
1243:./Generated_Source/PSoC5/cyPm.c **** *
1244:./Generated_Source/PSoC5/cyPm.c **** * Summary:
1245:./Generated_Source/PSoC5/cyPm.c **** *  Restore device for proper Hibernate mode exit: restore state of I2C backup
1246:./Generated_Source/PSoC5/cyPm.c **** *  regulator, restore enable state of the 1 kHz ILO and 100 kHz ILO. Restore
1247:./Generated_Source/PSoC5/cyPm.c **** *  ILO power down mode state.
1248:./Generated_Source/PSoC5/cyPm.c **** *
1249:./Generated_Source/PSoC5/cyPm.c **** * Parameters:
1250:./Generated_Source/PSoC5/cyPm.c **** *  None.
1251:./Generated_Source/PSoC5/cyPm.c **** *
1252:./Generated_Source/PSoC5/cyPm.c **** * Return:
1253:./Generated_Source/PSoC5/cyPm.c **** *  None.
1254:./Generated_Source/PSoC5/cyPm.c **** *
1255:./Generated_Source/PSoC5/cyPm.c **** * Side Effects:
1256:./Generated_Source/PSoC5/cyPm.c **** *  None.
1257:./Generated_Source/PSoC5/cyPm.c **** *
1258:./Generated_Source/PSoC5/cyPm.c **** *******************************************************************************/
ARM GAS  C:\DOCUME~1\akay\LOCALS~1\Temp\ccsadWJD.s 			page 44


1259:./Generated_Source/PSoC5/cyPm.c **** void CyPmHibRestore(void) 
1260:./Generated_Source/PSoC5/cyPm.c **** {
 1186              		.loc 1 1260 0
 1187              		.cfi_startproc
 1188              		@ args = 0, pretend = 0, frame = 0
 1189              		@ frame_needed = 1, uses_anonymous_args = 0
 1190 0000 80B5     		push	{r7, lr}
 1191              	.LCFI18:
 1192              		.cfi_def_cfa_offset 8
 1193 0002 00AF     		add	r7, sp, #0
 1194              		.cfi_offset 14, -4
 1195              		.cfi_offset 7, -8
 1196              	.LCFI19:
 1197              		.cfi_def_cfa_register 7
1261:./Generated_Source/PSoC5/cyPm.c ****     /* Restore LVI/HVI configuration */
1262:./Generated_Source/PSoC5/cyPm.c ****     CyPmHibSlpRestore();
 1198              		.loc 1 1262 0
 1199 0004 FFF7FEFF 		bl	CyPmHibSlpRestore
1263:./Generated_Source/PSoC5/cyPm.c **** 
1264:./Generated_Source/PSoC5/cyPm.c ****     /* Restore I2C backup regulator configuration */
1265:./Generated_Source/PSoC5/cyPm.c ****     if(CY_PM_ENABLED == cyPmBackup.i2cRegBackup)
 1200              		.loc 1 1265 0
 1201 0008 40F20003 		movw	r3, #:lower16:cyPmBackup
 1202 000c C0F20003 		movt	r3, #:upper16:cyPmBackup
 1203 0010 DB7C     		ldrb	r3, [r3, #19]	@ zero_extendqisi2
 1204 0012 012B     		cmp	r3, #1
 1205 0014 0DD1     		bne	.L64
1266:./Generated_Source/PSoC5/cyPm.c ****     {
1267:./Generated_Source/PSoC5/cyPm.c ****         /* Enable I2C backup regulator state */
1268:./Generated_Source/PSoC5/cyPm.c ****         CY_PM_PWRSYS_CR1_REG |= CY_PM_PWRSYS_CR1_I2CREG_BACKUP;
 1206              		.loc 1 1268 0
 1207 0016 44F23133 		movw	r3, #:lower16:1073759025
 1208 001a C4F20003 		movt	r3, #:upper16:1073759025
 1209 001e 44F23132 		movw	r2, #:lower16:1073759025
 1210 0022 C4F20002 		movt	r2, #:upper16:1073759025
 1211 0026 1278     		ldrb	r2, [r2, #0]
 1212 0028 D2B2     		uxtb	r2, r2
 1213 002a 42F00402 		orr	r2, r2, #4
 1214 002e D2B2     		uxtb	r2, r2
 1215 0030 1A70     		strb	r2, [r3, #0]
 1216              	.L64:
1269:./Generated_Source/PSoC5/cyPm.c ****     }
1270:./Generated_Source/PSoC5/cyPm.c **** 
1271:./Generated_Source/PSoC5/cyPm.c **** 
1272:./Generated_Source/PSoC5/cyPm.c ****     /* PSoC3 ES3 */
1273:./Generated_Source/PSoC5/cyPm.c ****     #if(CY_PM_PSOC3_ES3)
1274:./Generated_Source/PSoC5/cyPm.c ****     
1275:./Generated_Source/PSoC5/cyPm.c ****         /* Restore 1kHz ILO enable state */
1276:./Generated_Source/PSoC5/cyPm.c ****         if(CY_PM_ENABLED == cyPmBackup.ilo1kEnable)
1277:./Generated_Source/PSoC5/cyPm.c ****         {
1278:./Generated_Source/PSoC5/cyPm.c ****             /* Enable 1kHz ILO */
1279:./Generated_Source/PSoC5/cyPm.c ****             CyILO_Start1K();
1280:./Generated_Source/PSoC5/cyPm.c ****         }
1281:./Generated_Source/PSoC5/cyPm.c ****     
1282:./Generated_Source/PSoC5/cyPm.c ****         /* Restore 100kHz ILO enable state */
1283:./Generated_Source/PSoC5/cyPm.c ****         if(CY_PM_ENABLED == cyPmBackup.ilo100kEnable)
1284:./Generated_Source/PSoC5/cyPm.c ****         {
ARM GAS  C:\DOCUME~1\akay\LOCALS~1\Temp\ccsadWJD.s 			page 45


1285:./Generated_Source/PSoC5/cyPm.c ****             /* Enable 100kHz ILO */
1286:./Generated_Source/PSoC5/cyPm.c ****             CyILO_Start100K();
1287:./Generated_Source/PSoC5/cyPm.c ****         }
1288:./Generated_Source/PSoC5/cyPm.c ****     
1289:./Generated_Source/PSoC5/cyPm.c ****         /* Restore ILO power mode */
1290:./Generated_Source/PSoC5/cyPm.c ****         CyILO_SetPowerMode(cyPmBackup.iloPowerMode);
1291:./Generated_Source/PSoC5/cyPm.c **** 
1292:./Generated_Source/PSoC5/cyPm.c ****     #endif  /* End of (CY_PM_PSOC3_ES3) */
1293:./Generated_Source/PSoC5/cyPm.c **** 
1294:./Generated_Source/PSoC5/cyPm.c ****     /* PSoC3 ES3 */
1295:./Generated_Source/PSoC5/cyPm.c ****     #if(CY_PM_PSOC3_ES3)
1296:./Generated_Source/PSoC5/cyPm.c ****     
1297:./Generated_Source/PSoC5/cyPm.c ****         if(CY_PM_DISABLED == cyPmBackup.slpTrBypass)
1298:./Generated_Source/PSoC5/cyPm.c ****         {
1299:./Generated_Source/PSoC5/cyPm.c ****             /* Enable the sleep regulator and short vccd to vpwrsleep */
1300:./Generated_Source/PSoC5/cyPm.c ****             CY_PM_PWRSYS_SLP_TR_REG &= ~CY_PM_PWRSYS_SLP_TR_BYPASS;    
1301:./Generated_Source/PSoC5/cyPm.c ****         }
1302:./Generated_Source/PSoC5/cyPm.c **** 
1303:./Generated_Source/PSoC5/cyPm.c ****     #endif
1304:./Generated_Source/PSoC5/cyPm.c ****     
1305:./Generated_Source/PSoC5/cyPm.c ****     /* PSoC3 ES3 */
1306:./Generated_Source/PSoC5/cyPm.c ****     #if(CY_PM_PSOC3_ES3)
1307:./Generated_Source/PSoC5/cyPm.c **** 
1308:./Generated_Source/PSoC5/cyPm.c ****         /* Restore alternate powergood detector state */
1309:./Generated_Source/PSoC5/cyPm.c ****         if(CY_PM_ENABLED == cyPmBackup.vccdClkDet)
1310:./Generated_Source/PSoC5/cyPm.c ****         {
1311:./Generated_Source/PSoC5/cyPm.c ****             /* Enable LPCOMPs (slower) instead of faster powergood detector */
1312:./Generated_Source/PSoC5/cyPm.c ****             CY_PM_PWRSYS_WAKE_TR2_REG |= CY_PM_PWRSYS_WAKE_TR2_VCCD_CLK_DET;
1313:./Generated_Source/PSoC5/cyPm.c ****         }
1314:./Generated_Source/PSoC5/cyPm.c **** 
1315:./Generated_Source/PSoC5/cyPm.c ****     #endif /* End of (CY_PM_PSOC3_ES3) */
1316:./Generated_Source/PSoC5/cyPm.c **** }
 1217              		.loc 1 1316 0
 1218 0032 80BD     		pop	{r7, pc}
 1219              		.cfi_endproc
 1220              	.LFE7:
 1221              		.size	CyPmHibRestore, .-CyPmHibRestore
 1222              		.section	.text.CyPmCtwSaveSet,"ax",%progbits
 1223              		.align	2
 1224              		.global	CyPmCtwSaveSet
 1225              		.thumb
 1226              		.thumb_func
 1227              		.type	CyPmCtwSaveSet, %function
 1228              	CyPmCtwSaveSet:
 1229              	.LFB8:
1317:./Generated_Source/PSoC5/cyPm.c **** 
1318:./Generated_Source/PSoC5/cyPm.c **** 
1319:./Generated_Source/PSoC5/cyPm.c **** /*******************************************************************************
1320:./Generated_Source/PSoC5/cyPm.c **** * Function Name: CyPmCtwSaveSet
1321:./Generated_Source/PSoC5/cyPm.c **** ********************************************************************************
1322:./Generated_Source/PSoC5/cyPm.c **** *
1323:./Generated_Source/PSoC5/cyPm.c **** * Summary:
1324:./Generated_Source/PSoC5/cyPm.c **** *  Saves current CTW interval, ILO power mode, 1 kHz ILO enable state, CTW
1325:./Generated_Source/PSoC5/cyPm.c **** *  interrupt enable state and CTW enable state. Sets new CTW interval, sets ILO
1326:./Generated_Source/PSoC5/cyPm.c **** *  to the low power mode, enables 1 kHz ILO (if needed), disables CTW interrupt
1327:./Generated_Source/PSoC5/cyPm.c **** *  and enables CTW (if needed).
1328:./Generated_Source/PSoC5/cyPm.c **** *
ARM GAS  C:\DOCUME~1\akay\LOCALS~1\Temp\ccsadWJD.s 			page 46


1329:./Generated_Source/PSoC5/cyPm.c **** * Parameters:
1330:./Generated_Source/PSoC5/cyPm.c **** *  ctwInterval: the CTW interval to be set.
1331:./Generated_Source/PSoC5/cyPm.c **** *
1332:./Generated_Source/PSoC5/cyPm.c **** * Return:
1333:./Generated_Source/PSoC5/cyPm.c **** *  None.
1334:./Generated_Source/PSoC5/cyPm.c **** *
1335:./Generated_Source/PSoC5/cyPm.c **** * Reentrant:
1336:./Generated_Source/PSoC5/cyPm.c **** *  No.
1337:./Generated_Source/PSoC5/cyPm.c **** *
1338:./Generated_Source/PSoC5/cyPm.c **** * Side Effects:
1339:./Generated_Source/PSoC5/cyPm.c **** *  None.
1340:./Generated_Source/PSoC5/cyPm.c **** *
1341:./Generated_Source/PSoC5/cyPm.c **** *******************************************************************************/
1342:./Generated_Source/PSoC5/cyPm.c **** void CyPmCtwSaveSet(uint8 ctwInterval)
1343:./Generated_Source/PSoC5/cyPm.c **** {
 1230              		.loc 1 1343 0
 1231              		.cfi_startproc
 1232              		@ args = 0, pretend = 0, frame = 8
 1233              		@ frame_needed = 1, uses_anonymous_args = 0
 1234 0000 80B5     		push	{r7, lr}
 1235              	.LCFI20:
 1236              		.cfi_def_cfa_offset 8
 1237 0002 82B0     		sub	sp, sp, #8
 1238              	.LCFI21:
 1239              		.cfi_def_cfa_offset 16
 1240 0004 00AF     		add	r7, sp, #0
 1241              		.cfi_offset 14, -4
 1242              		.cfi_offset 7, -8
 1243              	.LCFI22:
 1244              		.cfi_def_cfa_register 7
 1245 0006 0346     		mov	r3, r0
 1246 0008 FB71     		strb	r3, [r7, #7]
1344:./Generated_Source/PSoC5/cyPm.c ****     /* Enable low power mode */
1345:./Generated_Source/PSoC5/cyPm.c **** 	CyILO_SetPowerMode(CY_PM_POWERDOWN_MODE);
 1247              		.loc 1 1345 0
 1248 000a 4FF00100 		mov	r0, #1
 1249 000e FFF7FEFF 		bl	CyILO_SetPowerMode
1346:./Generated_Source/PSoC5/cyPm.c **** 
1347:./Generated_Source/PSoC5/cyPm.c ****     /* Disable CTW interrupt enable if not yet */
1348:./Generated_Source/PSoC5/cyPm.c ****     if(0u != (CY_PM_TW_CFG2_REG & CY_PM_CTW_IE))
 1250              		.loc 1 1348 0
 1251 0012 44F28233 		movw	r3, #:lower16:1073759106
 1252 0016 C4F20003 		movt	r3, #:upper16:1073759106
 1253 001a 1B78     		ldrb	r3, [r3, #0]
 1254 001c DBB2     		uxtb	r3, r3
 1255 001e 03F00803 		and	r3, r3, #8
 1256 0022 002B     		cmp	r3, #0
 1257 0024 0CD0     		beq	.L66
1349:./Generated_Source/PSoC5/cyPm.c ****     {
1350:./Generated_Source/PSoC5/cyPm.c ****         /* Disable CTW interrupt */
1351:./Generated_Source/PSoC5/cyPm.c ****         CY_PM_TW_CFG2_REG &= ~CY_PM_CTW_IE;
 1258              		.loc 1 1351 0
 1259 0026 44F28233 		movw	r3, #:lower16:1073759106
 1260 002a C4F20003 		movt	r3, #:upper16:1073759106
 1261 002e 44F28232 		movw	r2, #:lower16:1073759106
 1262 0032 C4F20002 		movt	r2, #:upper16:1073759106
 1263 0036 1278     		ldrb	r2, [r2, #0]
ARM GAS  C:\DOCUME~1\akay\LOCALS~1\Temp\ccsadWJD.s 			page 47


 1264 0038 D2B2     		uxtb	r2, r2
 1265 003a 02F0F702 		and	r2, r2, #247
 1266 003e 1A70     		strb	r2, [r3, #0]
 1267              	.L66:
1352:./Generated_Source/PSoC5/cyPm.c ****     }   /* Do nothing if CTW interrupt is disabled */
1353:./Generated_Source/PSoC5/cyPm.c **** 
1354:./Generated_Source/PSoC5/cyPm.c ****     /* Enable 1kHz ILO if needed */
1355:./Generated_Source/PSoC5/cyPm.c ****     if(0u == (CY_PM_SLOWCLK_ILO_CR0_REG & CY_PM_ILO_CR0_EN_1K))
 1268              		.loc 1 1355 0
 1269 0040 44F20033 		movw	r3, #:lower16:1073758976
 1270 0044 C4F20003 		movt	r3, #:upper16:1073758976
 1271 0048 1B78     		ldrb	r3, [r3, #0]
 1272 004a DBB2     		uxtb	r3, r3
 1273 004c 03F00203 		and	r3, r3, #2
 1274 0050 002B     		cmp	r3, #0
 1275 0052 01D1     		bne	.L67
1356:./Generated_Source/PSoC5/cyPm.c ****     {
1357:./Generated_Source/PSoC5/cyPm.c ****         /* Enable the 1kHz ILO */
1358:./Generated_Source/PSoC5/cyPm.c ****         CyILO_Start1K();
 1276              		.loc 1 1358 0
 1277 0054 FFF7FEFF 		bl	CyILO_Start1K
 1278              	.L67:
1359:./Generated_Source/PSoC5/cyPm.c ****     }
1360:./Generated_Source/PSoC5/cyPm.c **** 		
1361:./Generated_Source/PSoC5/cyPm.c ****     /* Enable CTW and update interval if needed */
1362:./Generated_Source/PSoC5/cyPm.c ****     if(0u != (CY_PM_TW_CFG2_REG & CY_PM_CTW_EN))
 1279              		.loc 1 1362 0
 1280 0058 44F28233 		movw	r3, #:lower16:1073759106
 1281 005c C4F20003 		movt	r3, #:upper16:1073759106
 1282 0060 1B78     		ldrb	r3, [r3, #0]
 1283 0062 DBB2     		uxtb	r3, r3
 1284 0064 03F00403 		and	r3, r3, #4
 1285 0068 002B     		cmp	r3, #0
 1286 006a 2AD0     		beq	.L68
1363:./Generated_Source/PSoC5/cyPm.c ****     {
1364:./Generated_Source/PSoC5/cyPm.c **** 		/* Set CTW interval if needed */
1365:./Generated_Source/PSoC5/cyPm.c **** 		if(CY_PM_TW_CFG1_REG != ctwInterval)
 1287              		.loc 1 1365 0
 1288 006c 44F28133 		movw	r3, #:lower16:1073759105
 1289 0070 C4F20003 		movt	r3, #:upper16:1073759105
 1290 0074 1B78     		ldrb	r3, [r3, #0]
 1291 0076 DBB2     		uxtb	r3, r3
 1292 0078 FA79     		ldrb	r2, [r7, #7]	@ zero_extendqisi2
 1293 007a 9A42     		cmp	r2, r3
 1294 007c 3FD0     		beq	.L73
1366:./Generated_Source/PSoC5/cyPm.c **** 		{
1367:./Generated_Source/PSoC5/cyPm.c **** 			/* Disable the CTW, set new CTW interval and enable it again */
1368:./Generated_Source/PSoC5/cyPm.c **** 			CY_PM_TW_CFG2_REG &= ~CY_PM_CTW_EN;         
 1295              		.loc 1 1368 0
 1296 007e 44F28233 		movw	r3, #:lower16:1073759106
 1297 0082 C4F20003 		movt	r3, #:upper16:1073759106
 1298 0086 44F28232 		movw	r2, #:lower16:1073759106
 1299 008a C4F20002 		movt	r2, #:upper16:1073759106
 1300 008e 1278     		ldrb	r2, [r2, #0]
 1301 0090 D2B2     		uxtb	r2, r2
 1302 0092 02F0FB02 		and	r2, r2, #251
 1303 0096 1A70     		strb	r2, [r3, #0]
ARM GAS  C:\DOCUME~1\akay\LOCALS~1\Temp\ccsadWJD.s 			page 48


1369:./Generated_Source/PSoC5/cyPm.c **** 			CY_PM_TW_CFG1_REG = ctwInterval;
 1304              		.loc 1 1369 0
 1305 0098 44F28133 		movw	r3, #:lower16:1073759105
 1306 009c C4F20003 		movt	r3, #:upper16:1073759105
 1307 00a0 FA79     		ldrb	r2, [r7, #7]
 1308 00a2 1A70     		strb	r2, [r3, #0]
1370:./Generated_Source/PSoC5/cyPm.c **** 			CY_PM_TW_CFG2_REG |= CY_PM_CTW_EN;
 1309              		.loc 1 1370 0
 1310 00a4 44F28233 		movw	r3, #:lower16:1073759106
 1311 00a8 C4F20003 		movt	r3, #:upper16:1073759106
 1312 00ac 44F28232 		movw	r2, #:lower16:1073759106
 1313 00b0 C4F20002 		movt	r2, #:upper16:1073759106
 1314 00b4 1278     		ldrb	r2, [r2, #0]
 1315 00b6 D2B2     		uxtb	r2, r2
 1316 00b8 42F00402 		orr	r2, r2, #4
 1317 00bc D2B2     		uxtb	r2, r2
 1318 00be 1A70     		strb	r2, [r3, #0]
 1319 00c0 1EE0     		b	.L72
 1320              	.L68:
1371:./Generated_Source/PSoC5/cyPm.c **** 		}
1372:./Generated_Source/PSoC5/cyPm.c ****     }
1373:./Generated_Source/PSoC5/cyPm.c ****     else
1374:./Generated_Source/PSoC5/cyPm.c ****     {
1375:./Generated_Source/PSoC5/cyPm.c **** 		/* Set CTW interval if needed */
1376:./Generated_Source/PSoC5/cyPm.c **** 		if(CY_PM_TW_CFG1_REG != ctwInterval)
 1321              		.loc 1 1376 0
 1322 00c2 44F28133 		movw	r3, #:lower16:1073759105
 1323 00c6 C4F20003 		movt	r3, #:upper16:1073759105
 1324 00ca 1B78     		ldrb	r3, [r3, #0]
 1325 00cc DBB2     		uxtb	r3, r3
 1326 00ce FA79     		ldrb	r2, [r7, #7]	@ zero_extendqisi2
 1327 00d0 9A42     		cmp	r2, r3
 1328 00d2 05D0     		beq	.L71
1377:./Generated_Source/PSoC5/cyPm.c **** 		{
1378:./Generated_Source/PSoC5/cyPm.c **** 			/* Set the new CTW interval. Could be changed if CTW is disabled */
1379:./Generated_Source/PSoC5/cyPm.c **** 			CY_PM_TW_CFG1_REG = ctwInterval;
 1329              		.loc 1 1379 0
 1330 00d4 44F28133 		movw	r3, #:lower16:1073759105
 1331 00d8 C4F20003 		movt	r3, #:upper16:1073759105
 1332 00dc FA79     		ldrb	r2, [r7, #7]
 1333 00de 1A70     		strb	r2, [r3, #0]
 1334              	.L71:
1380:./Generated_Source/PSoC5/cyPm.c **** 		}
1381:./Generated_Source/PSoC5/cyPm.c **** 
1382:./Generated_Source/PSoC5/cyPm.c ****         /* Enable the CTW */
1383:./Generated_Source/PSoC5/cyPm.c ****         CY_PM_TW_CFG2_REG |= CY_PM_CTW_EN;
 1335              		.loc 1 1383 0
 1336 00e0 44F28233 		movw	r3, #:lower16:1073759106
 1337 00e4 C4F20003 		movt	r3, #:upper16:1073759106
 1338 00e8 44F28232 		movw	r2, #:lower16:1073759106
 1339 00ec C4F20002 		movt	r2, #:upper16:1073759106
 1340 00f0 1278     		ldrb	r2, [r2, #0]
 1341 00f2 D2B2     		uxtb	r2, r2
 1342 00f4 42F00402 		orr	r2, r2, #4
 1343 00f8 D2B2     		uxtb	r2, r2
 1344 00fa 1A70     		strb	r2, [r3, #0]
 1345 00fc 00E0     		b	.L72
ARM GAS  C:\DOCUME~1\akay\LOCALS~1\Temp\ccsadWJD.s 			page 49


 1346              	.L73:
 1347              		.loc 1 1370 0
 1348 00fe 00BF     		nop
 1349              	.L72:
1384:./Generated_Source/PSoC5/cyPm.c ****     }
1385:./Generated_Source/PSoC5/cyPm.c **** }
 1350              		.loc 1 1385 0
 1351 0100 07F10807 		add	r7, r7, #8
 1352 0104 BD46     		mov	sp, r7
 1353 0106 80BD     		pop	{r7, pc}
 1354              		.cfi_endproc
 1355              	.LFE8:
 1356              		.size	CyPmCtwSaveSet, .-CyPmCtwSaveSet
 1357              		.section	.text.CyPmOppsSaveSet,"ax",%progbits
 1358              		.align	2
 1359              		.global	CyPmOppsSaveSet
 1360              		.thumb
 1361              		.thumb_func
 1362              		.type	CyPmOppsSaveSet, %function
 1363              	CyPmOppsSaveSet:
 1364              	.LFB9:
1386:./Generated_Source/PSoC5/cyPm.c **** 
1387:./Generated_Source/PSoC5/cyPm.c **** 
1388:./Generated_Source/PSoC5/cyPm.c **** /*******************************************************************************
1389:./Generated_Source/PSoC5/cyPm.c **** * Function Name: CyPmOppsSaveSet
1390:./Generated_Source/PSoC5/cyPm.c **** ********************************************************************************
1391:./Generated_Source/PSoC5/cyPm.c **** *
1392:./Generated_Source/PSoC5/cyPm.c **** * Summary:
1393:./Generated_Source/PSoC5/cyPm.c **** *  Saves current 32kHz XTAL power mode state, saves current 32kHz XTAL enable
1394:./Generated_Source/PSoC5/cyPm.c **** *  state, saves 1PPS interrupt enable state, saves 1PPS enable state. Enable
1395:./Generated_Source/PSoC5/cyPm.c **** *  32kHz XTAL (if needed), disable 1PPS interrupt (if needed), enable 1PPS
1396:./Generated_Source/PSoC5/cyPm.c **** *  (if needed).
1397:./Generated_Source/PSoC5/cyPm.c **** *
1398:./Generated_Source/PSoC5/cyPm.c **** * Parameters:
1399:./Generated_Source/PSoC5/cyPm.c **** *  None.
1400:./Generated_Source/PSoC5/cyPm.c **** *
1401:./Generated_Source/PSoC5/cyPm.c **** * Return:
1402:./Generated_Source/PSoC5/cyPm.c **** *  None.
1403:./Generated_Source/PSoC5/cyPm.c **** *
1404:./Generated_Source/PSoC5/cyPm.c **** * Reentrant:
1405:./Generated_Source/PSoC5/cyPm.c **** *  No.
1406:./Generated_Source/PSoC5/cyPm.c **** *
1407:./Generated_Source/PSoC5/cyPm.c **** * Side Effects:
1408:./Generated_Source/PSoC5/cyPm.c **** *  None.
1409:./Generated_Source/PSoC5/cyPm.c **** *
1410:./Generated_Source/PSoC5/cyPm.c **** *******************************************************************************/
1411:./Generated_Source/PSoC5/cyPm.c **** void CyPmOppsSaveSet(void)
1412:./Generated_Source/PSoC5/cyPm.c **** {
 1365              		.loc 1 1412 0
 1366              		.cfi_startproc
 1367              		@ args = 0, pretend = 0, frame = 0
 1368              		@ frame_needed = 1, uses_anonymous_args = 0
 1369 0000 80B5     		push	{r7, lr}
 1370              	.LCFI23:
 1371              		.cfi_def_cfa_offset 8
 1372 0002 00AF     		add	r7, sp, #0
 1373              		.cfi_offset 14, -4
ARM GAS  C:\DOCUME~1\akay\LOCALS~1\Temp\ccsadWJD.s 			page 50


 1374              		.cfi_offset 7, -8
 1375              	.LCFI24:
 1376              		.cfi_def_cfa_register 7
1413:./Generated_Source/PSoC5/cyPm.c ****     /* Set 32kHz XTAL low power mode */
1414:./Generated_Source/PSoC5/cyPm.c **** 	CyXTAL_32KHZ_SetPowerMode(CY_PM_POWERDOWN_MODE);
 1377              		.loc 1 1414 0
 1378 0004 4FF00100 		mov	r0, #1
 1379 0008 FFF7FEFF 		bl	CyXTAL_32KHZ_SetPowerMode
1415:./Generated_Source/PSoC5/cyPm.c **** 
1416:./Generated_Source/PSoC5/cyPm.c ****     /* Enable 32kHz XTAL if needed */
1417:./Generated_Source/PSoC5/cyPm.c ****     if(0u == (CY_PM_SLOWCLK_X32_CR_REG & CY_PM_X32_CR_X32EN))
 1380              		.loc 1 1417 0
 1381 000c 44F20833 		movw	r3, #:lower16:1073758984
 1382 0010 C4F20003 		movt	r3, #:upper16:1073758984
 1383 0014 1B78     		ldrb	r3, [r3, #0]
 1384 0016 DBB2     		uxtb	r3, r3
 1385 0018 03F00103 		and	r3, r3, #1
 1386 001c 002B     		cmp	r3, #0
 1387 001e 01D1     		bne	.L75
1418:./Generated_Source/PSoC5/cyPm.c ****     {
1419:./Generated_Source/PSoC5/cyPm.c ****         /* Enable 32kHz XTAL */
1420:./Generated_Source/PSoC5/cyPm.c ****         CyXTAL_32KHZ_Start();
 1388              		.loc 1 1420 0
 1389 0020 FFF7FEFF 		bl	CyXTAL_32KHZ_Start
 1390              	.L75:
1421:./Generated_Source/PSoC5/cyPm.c ****     }
1422:./Generated_Source/PSoC5/cyPm.c **** 
1423:./Generated_Source/PSoC5/cyPm.c ****     /* Disable 1PPS interrupt enable if needed */
1424:./Generated_Source/PSoC5/cyPm.c ****     if(0u != (CY_PM_TW_CFG2_REG & CY_PM_1PPS_IE))
 1391              		.loc 1 1424 0
 1392 0024 44F28233 		movw	r3, #:lower16:1073759106
 1393 0028 C4F20003 		movt	r3, #:upper16:1073759106
 1394 002c 1B78     		ldrb	r3, [r3, #0]
 1395 002e DBB2     		uxtb	r3, r3
 1396 0030 03F02003 		and	r3, r3, #32
 1397 0034 002B     		cmp	r3, #0
 1398 0036 0CD0     		beq	.L76
1425:./Generated_Source/PSoC5/cyPm.c ****     {
1426:./Generated_Source/PSoC5/cyPm.c ****         /* Disable 1PPS interrupt */
1427:./Generated_Source/PSoC5/cyPm.c ****         CY_PM_TW_CFG2_REG &= ~CY_PM_1PPS_IE;
 1399              		.loc 1 1427 0
 1400 0038 44F28233 		movw	r3, #:lower16:1073759106
 1401 003c C4F20003 		movt	r3, #:upper16:1073759106
 1402 0040 44F28232 		movw	r2, #:lower16:1073759106
 1403 0044 C4F20002 		movt	r2, #:upper16:1073759106
 1404 0048 1278     		ldrb	r2, [r2, #0]
 1405 004a D2B2     		uxtb	r2, r2
 1406 004c 02F0DF02 		and	r2, r2, #223
 1407 0050 1A70     		strb	r2, [r3, #0]
 1408              	.L76:
1428:./Generated_Source/PSoC5/cyPm.c ****     }
1429:./Generated_Source/PSoC5/cyPm.c **** 
1430:./Generated_Source/PSoC5/cyPm.c ****     /* Enable 1PPS if needed */
1431:./Generated_Source/PSoC5/cyPm.c ****     if(0u == (CY_PM_TW_CFG2_REG & CY_PM_1PPS_EN))
 1409              		.loc 1 1431 0
 1410 0052 44F28233 		movw	r3, #:lower16:1073759106
 1411 0056 C4F20003 		movt	r3, #:upper16:1073759106
ARM GAS  C:\DOCUME~1\akay\LOCALS~1\Temp\ccsadWJD.s 			page 51


 1412 005a 1B78     		ldrb	r3, [r3, #0]
 1413 005c DBB2     		uxtb	r3, r3
 1414 005e 03F01003 		and	r3, r3, #16
 1415 0062 002B     		cmp	r3, #0
 1416 0064 0DD1     		bne	.L78
1432:./Generated_Source/PSoC5/cyPm.c ****     {
1433:./Generated_Source/PSoC5/cyPm.c ****         /* Enable 1PPS operation */
1434:./Generated_Source/PSoC5/cyPm.c ****         CY_PM_TW_CFG2_REG |= CY_PM_1PPS_EN;
 1417              		.loc 1 1434 0
 1418 0066 44F28233 		movw	r3, #:lower16:1073759106
 1419 006a C4F20003 		movt	r3, #:upper16:1073759106
 1420 006e 44F28232 		movw	r2, #:lower16:1073759106
 1421 0072 C4F20002 		movt	r2, #:upper16:1073759106
 1422 0076 1278     		ldrb	r2, [r2, #0]
 1423 0078 D2B2     		uxtb	r2, r2
 1424 007a 42F01002 		orr	r2, r2, #16
 1425 007e D2B2     		uxtb	r2, r2
 1426 0080 1A70     		strb	r2, [r3, #0]
 1427              	.L78:
1435:./Generated_Source/PSoC5/cyPm.c ****     }
1436:./Generated_Source/PSoC5/cyPm.c **** }
 1428              		.loc 1 1436 0
 1429 0082 80BD     		pop	{r7, pc}
 1430              		.cfi_endproc
 1431              	.LFE9:
 1432              		.size	CyPmOppsSaveSet, .-CyPmOppsSaveSet
 1433              		.section	.text.CyPmFtwSaveSet,"ax",%progbits
 1434              		.align	2
 1435              		.global	CyPmFtwSaveSet
 1436              		.thumb
 1437              		.thumb_func
 1438              		.type	CyPmFtwSaveSet, %function
 1439              	CyPmFtwSaveSet:
 1440              	.LFB10:
1437:./Generated_Source/PSoC5/cyPm.c **** 
1438:./Generated_Source/PSoC5/cyPm.c **** 
1439:./Generated_Source/PSoC5/cyPm.c **** /*******************************************************************************
1440:./Generated_Source/PSoC5/cyPm.c **** * Function Name: CyPmFtwSaveSet
1441:./Generated_Source/PSoC5/cyPm.c **** ********************************************************************************
1442:./Generated_Source/PSoC5/cyPm.c **** *
1443:./Generated_Source/PSoC5/cyPm.c **** * Summary:
1444:./Generated_Source/PSoC5/cyPm.c **** *  Saves current FTW interval and set new one, saves ILO power mode state and
1445:./Generated_Source/PSoC5/cyPm.c **** *  sets low power mode, saves 100kHz ILO enable state and enables 100kHz ILO,
1446:./Generated_Source/PSoC5/cyPm.c **** *  saves current FTW interrupt enable state and disable it if needed, saves
1447:./Generated_Source/PSoC5/cyPm.c **** *  current FTW enable state and enable if needed.
1448:./Generated_Source/PSoC5/cyPm.c **** *
1449:./Generated_Source/PSoC5/cyPm.c **** * Parameters:
1450:./Generated_Source/PSoC5/cyPm.c **** *  ftwInterval - FTW counter interval.
1451:./Generated_Source/PSoC5/cyPm.c **** *
1452:./Generated_Source/PSoC5/cyPm.c **** * Return:
1453:./Generated_Source/PSoC5/cyPm.c **** *  None.
1454:./Generated_Source/PSoC5/cyPm.c **** *
1455:./Generated_Source/PSoC5/cyPm.c **** * Reentrant:
1456:./Generated_Source/PSoC5/cyPm.c **** *  No.
1457:./Generated_Source/PSoC5/cyPm.c **** *
1458:./Generated_Source/PSoC5/cyPm.c **** * Side Effects:
1459:./Generated_Source/PSoC5/cyPm.c **** *  None.
ARM GAS  C:\DOCUME~1\akay\LOCALS~1\Temp\ccsadWJD.s 			page 52


1460:./Generated_Source/PSoC5/cyPm.c **** *
1461:./Generated_Source/PSoC5/cyPm.c **** *******************************************************************************/
1462:./Generated_Source/PSoC5/cyPm.c **** void CyPmFtwSaveSet(uint8 ftwInterval)
1463:./Generated_Source/PSoC5/cyPm.c **** {
 1441              		.loc 1 1463 0
 1442              		.cfi_startproc
 1443              		@ args = 0, pretend = 0, frame = 8
 1444              		@ frame_needed = 1, uses_anonymous_args = 0
 1445 0000 80B5     		push	{r7, lr}
 1446              	.LCFI25:
 1447              		.cfi_def_cfa_offset 8
 1448 0002 82B0     		sub	sp, sp, #8
 1449              	.LCFI26:
 1450              		.cfi_def_cfa_offset 16
 1451 0004 00AF     		add	r7, sp, #0
 1452              		.cfi_offset 14, -4
 1453              		.cfi_offset 7, -8
 1454              	.LCFI27:
 1455              		.cfi_def_cfa_register 7
 1456 0006 0346     		mov	r3, r0
 1457 0008 FB71     		strb	r3, [r7, #7]
1464:./Generated_Source/PSoC5/cyPm.c ****     /* Enable ILO low power mode */
1465:./Generated_Source/PSoC5/cyPm.c ****     CyILO_SetPowerMode(CY_PM_POWERDOWN_MODE);
 1458              		.loc 1 1465 0
 1459 000a 4FF00100 		mov	r0, #1
 1460 000e FFF7FEFF 		bl	CyILO_SetPowerMode
1466:./Generated_Source/PSoC5/cyPm.c **** 
1467:./Generated_Source/PSoC5/cyPm.c ****     /* Enable 100kHz ILO if needed */
1468:./Generated_Source/PSoC5/cyPm.c ****     if(0u == (CY_PM_SLOWCLK_ILO_CR0_REG & CY_PM_ILO_CR0_EN_100K))
 1461              		.loc 1 1468 0
 1462 0012 44F20033 		movw	r3, #:lower16:1073758976
 1463 0016 C4F20003 		movt	r3, #:upper16:1073758976
 1464 001a 1B78     		ldrb	r3, [r3, #0]
 1465 001c DBB2     		uxtb	r3, r3
 1466 001e 03F00403 		and	r3, r3, #4
 1467 0022 002B     		cmp	r3, #0
 1468 0024 01D1     		bne	.L80
1469:./Generated_Source/PSoC5/cyPm.c ****     {
1470:./Generated_Source/PSoC5/cyPm.c ****         /* Enable the 100kHz ILO */
1471:./Generated_Source/PSoC5/cyPm.c ****         CyILO_Start100K();
 1469              		.loc 1 1471 0
 1470 0026 FFF7FEFF 		bl	CyILO_Start100K
 1471              	.L80:
1472:./Generated_Source/PSoC5/cyPm.c ****     }
1473:./Generated_Source/PSoC5/cyPm.c **** 
1474:./Generated_Source/PSoC5/cyPm.c ****     /* Enable FTW and set new FTW interval if needed */
1475:./Generated_Source/PSoC5/cyPm.c ****     if(0u != (CY_PM_TW_CFG2_REG & CY_PM_FTW_EN))
 1472              		.loc 1 1475 0
 1473 002a 44F28233 		movw	r3, #:lower16:1073759106
 1474 002e C4F20003 		movt	r3, #:upper16:1073759106
 1475 0032 1B78     		ldrb	r3, [r3, #0]
 1476 0034 DBB2     		uxtb	r3, r3
 1477 0036 03F00103 		and	r3, r3, #1
 1478 003a DBB2     		uxtb	r3, r3
 1479 003c 002B     		cmp	r3, #0
 1480 003e 2AD0     		beq	.L81
1476:./Generated_Source/PSoC5/cyPm.c ****     {
ARM GAS  C:\DOCUME~1\akay\LOCALS~1\Temp\ccsadWJD.s 			page 53


1477:./Generated_Source/PSoC5/cyPm.c ****         /* Disable FTW, set new FTW interval if needed and enable it again */
1478:./Generated_Source/PSoC5/cyPm.c **** 		if(CY_PM_TW_CFG0_REG != ftwInterval)
 1481              		.loc 1 1478 0
 1482 0040 44F28033 		movw	r3, #:lower16:1073759104
 1483 0044 C4F20003 		movt	r3, #:upper16:1073759104
 1484 0048 1B78     		ldrb	r3, [r3, #0]
 1485 004a DBB2     		uxtb	r3, r3
 1486 004c FA79     		ldrb	r2, [r7, #7]	@ zero_extendqisi2
 1487 004e 9A42     		cmp	r2, r3
 1488 0050 3FD0     		beq	.L87
1479:./Generated_Source/PSoC5/cyPm.c **** 		{
1480:./Generated_Source/PSoC5/cyPm.c **** 			/* Disable the CTW, set new CTW interval and enable it again */
1481:./Generated_Source/PSoC5/cyPm.c ****             CY_PM_TW_CFG2_REG &= ~CY_PM_FTW_EN;
 1489              		.loc 1 1481 0
 1490 0052 44F28233 		movw	r3, #:lower16:1073759106
 1491 0056 C4F20003 		movt	r3, #:upper16:1073759106
 1492 005a 44F28232 		movw	r2, #:lower16:1073759106
 1493 005e C4F20002 		movt	r2, #:upper16:1073759106
 1494 0062 1278     		ldrb	r2, [r2, #0]
 1495 0064 D2B2     		uxtb	r2, r2
 1496 0066 02F0FE02 		and	r2, r2, #254
 1497 006a 1A70     		strb	r2, [r3, #0]
1482:./Generated_Source/PSoC5/cyPm.c ****             CY_PM_TW_CFG0_REG = ftwInterval;
 1498              		.loc 1 1482 0
 1499 006c 44F28033 		movw	r3, #:lower16:1073759104
 1500 0070 C4F20003 		movt	r3, #:upper16:1073759104
 1501 0074 FA79     		ldrb	r2, [r7, #7]
 1502 0076 1A70     		strb	r2, [r3, #0]
1483:./Generated_Source/PSoC5/cyPm.c ****             CY_PM_TW_CFG2_REG |= CY_PM_FTW_EN;
 1503              		.loc 1 1483 0
 1504 0078 44F28233 		movw	r3, #:lower16:1073759106
 1505 007c C4F20003 		movt	r3, #:upper16:1073759106
 1506 0080 44F28232 		movw	r2, #:lower16:1073759106
 1507 0084 C4F20002 		movt	r2, #:upper16:1073759106
 1508 0088 1278     		ldrb	r2, [r2, #0]
 1509 008a D2B2     		uxtb	r2, r2
 1510 008c 42F00102 		orr	r2, r2, #1
 1511 0090 D2B2     		uxtb	r2, r2
 1512 0092 1A70     		strb	r2, [r3, #0]
 1513 0094 1EE0     		b	.L83
 1514              	.L81:
1484:./Generated_Source/PSoC5/cyPm.c **** 		}
1485:./Generated_Source/PSoC5/cyPm.c ****     }
1486:./Generated_Source/PSoC5/cyPm.c ****     else
1487:./Generated_Source/PSoC5/cyPm.c ****     {
1488:./Generated_Source/PSoC5/cyPm.c ****         /* Set new FTW counter interval if nedded. FTW is disabled. */
1489:./Generated_Source/PSoC5/cyPm.c **** 		if(CY_PM_TW_CFG0_REG != ftwInterval)
 1515              		.loc 1 1489 0
 1516 0096 44F28033 		movw	r3, #:lower16:1073759104
 1517 009a C4F20003 		movt	r3, #:upper16:1073759104
 1518 009e 1B78     		ldrb	r3, [r3, #0]
 1519 00a0 DBB2     		uxtb	r3, r3
 1520 00a2 FA79     		ldrb	r2, [r7, #7]	@ zero_extendqisi2
 1521 00a4 9A42     		cmp	r2, r3
 1522 00a6 05D0     		beq	.L84
1490:./Generated_Source/PSoC5/cyPm.c **** 		{
1491:./Generated_Source/PSoC5/cyPm.c **** 			/* Set the new CTW interval. Could be changed if CTW is disabled */
ARM GAS  C:\DOCUME~1\akay\LOCALS~1\Temp\ccsadWJD.s 			page 54


1492:./Generated_Source/PSoC5/cyPm.c **** 			CY_PM_TW_CFG0_REG = ftwInterval;
 1523              		.loc 1 1492 0
 1524 00a8 44F28033 		movw	r3, #:lower16:1073759104
 1525 00ac C4F20003 		movt	r3, #:upper16:1073759104
 1526 00b0 FA79     		ldrb	r2, [r7, #7]
 1527 00b2 1A70     		strb	r2, [r3, #0]
 1528              	.L84:
1493:./Generated_Source/PSoC5/cyPm.c **** 		}
1494:./Generated_Source/PSoC5/cyPm.c **** 
1495:./Generated_Source/PSoC5/cyPm.c ****         /* Enable the FTW */
1496:./Generated_Source/PSoC5/cyPm.c ****         CY_PM_TW_CFG2_REG |= CY_PM_FTW_EN;
 1529              		.loc 1 1496 0
 1530 00b4 44F28233 		movw	r3, #:lower16:1073759106
 1531 00b8 C4F20003 		movt	r3, #:upper16:1073759106
 1532 00bc 44F28232 		movw	r2, #:lower16:1073759106
 1533 00c0 C4F20002 		movt	r2, #:upper16:1073759106
 1534 00c4 1278     		ldrb	r2, [r2, #0]
 1535 00c6 D2B2     		uxtb	r2, r2
 1536 00c8 42F00102 		orr	r2, r2, #1
 1537 00cc D2B2     		uxtb	r2, r2
 1538 00ce 1A70     		strb	r2, [r3, #0]
 1539 00d0 00E0     		b	.L83
 1540              	.L87:
 1541              		.loc 1 1483 0
 1542 00d2 00BF     		nop
 1543              	.L83:
1497:./Generated_Source/PSoC5/cyPm.c ****     }
1498:./Generated_Source/PSoC5/cyPm.c **** 
1499:./Generated_Source/PSoC5/cyPm.c ****     /* Disable FTW interrupt enable if needed */
1500:./Generated_Source/PSoC5/cyPm.c ****     if(0u != (CY_PM_TW_CFG2_REG & CY_PM_FTW_IE))
 1544              		.loc 1 1500 0
 1545 00d4 44F28233 		movw	r3, #:lower16:1073759106
 1546 00d8 C4F20003 		movt	r3, #:upper16:1073759106
 1547 00dc 1B78     		ldrb	r3, [r3, #0]
 1548 00de DBB2     		uxtb	r3, r3
 1549 00e0 03F00203 		and	r3, r3, #2
 1550 00e4 002B     		cmp	r3, #0
 1551 00e6 0CD0     		beq	.L86
1501:./Generated_Source/PSoC5/cyPm.c ****     {
1502:./Generated_Source/PSoC5/cyPm.c ****         /* Disable FTW interrupt */
1503:./Generated_Source/PSoC5/cyPm.c ****         CY_PM_TW_CFG2_REG &= ~CY_PM_FTW_IE;
 1552              		.loc 1 1503 0
 1553 00e8 44F28233 		movw	r3, #:lower16:1073759106
 1554 00ec C4F20003 		movt	r3, #:upper16:1073759106
 1555 00f0 44F28232 		movw	r2, #:lower16:1073759106
 1556 00f4 C4F20002 		movt	r2, #:upper16:1073759106
 1557 00f8 1278     		ldrb	r2, [r2, #0]
 1558 00fa D2B2     		uxtb	r2, r2
 1559 00fc 02F0FD02 		and	r2, r2, #253
 1560 0100 1A70     		strb	r2, [r3, #0]
 1561              	.L86:
1504:./Generated_Source/PSoC5/cyPm.c ****     }
1505:./Generated_Source/PSoC5/cyPm.c **** }
 1562              		.loc 1 1505 0
 1563 0102 07F10807 		add	r7, r7, #8
 1564 0106 BD46     		mov	sp, r7
 1565 0108 80BD     		pop	{r7, pc}
ARM GAS  C:\DOCUME~1\akay\LOCALS~1\Temp\ccsadWJD.s 			page 55


 1566              		.cfi_endproc
 1567              	.LFE10:
 1568              		.size	CyPmFtwSaveSet, .-CyPmFtwSaveSet
 1569 010a 00BF     		.section	.text.CyPmHibSlpSaveSet,"ax",%progbits
 1570              		.align	2
 1571              		.global	CyPmHibSlpSaveSet
 1572              		.thumb
 1573              		.thumb_func
 1574              		.type	CyPmHibSlpSaveSet, %function
 1575              	CyPmHibSlpSaveSet:
 1576              	.LFB11:
1506:./Generated_Source/PSoC5/cyPm.c **** 
1507:./Generated_Source/PSoC5/cyPm.c **** 
1508:./Generated_Source/PSoC5/cyPm.c **** /*******************************************************************************
1509:./Generated_Source/PSoC5/cyPm.c **** * Function Name: CyPmHibSlpSaveSet
1510:./Generated_Source/PSoC5/cyPm.c **** ********************************************************************************
1511:./Generated_Source/PSoC5/cyPm.c **** *
1512:./Generated_Source/PSoC5/cyPm.c **** * Summary:
1513:./Generated_Source/PSoC5/cyPm.c **** *  Saves en_lvia, en_lvid, en_hvi enable state, saves wakeup trims (timeout and
1514:./Generated_Source/PSoC5/cyPm.c **** *  holdoff). Disable LVI/HVI if entering hibernate power mode to avoid spurious
1515:./Generated_Source/PSoC5/cyPm.c **** *  interrupts on wakeup. For the Sleep power mode, leaves LVI/HVI as is but
1516:./Generated_Source/PSoC5/cyPm.c **** *  update wakeup time if they are used.
1517:./Generated_Source/PSoC5/cyPm.c **** *
1518:./Generated_Source/PSoC5/cyPm.c **** *  Before entering a mode that can lose state, make sure pwrup_pulse is finished
1519:./Generated_Source/PSoC5/cyPm.c **** *  and clear the powerup pulse holdoff setting.
1520:./Generated_Source/PSoC5/cyPm.c **** *
1521:./Generated_Source/PSoC5/cyPm.c **** * Parameters:
1522:./Generated_Source/PSoC5/cyPm.c **** *  CY_PM_MODE_CSR_HIBERNATE - prepare for the Hibernate low power mode.
1523:./Generated_Source/PSoC5/cyPm.c **** *  CY_PM_MODE_CSR_SLEEP     - prepare for the Sleep low power mode.
1524:./Generated_Source/PSoC5/cyPm.c **** *
1525:./Generated_Source/PSoC5/cyPm.c **** * Return:
1526:./Generated_Source/PSoC5/cyPm.c **** *  None.
1527:./Generated_Source/PSoC5/cyPm.c **** *
1528:./Generated_Source/PSoC5/cyPm.c **** * Reentrant:
1529:./Generated_Source/PSoC5/cyPm.c **** *  No.
1530:./Generated_Source/PSoC5/cyPm.c **** *
1531:./Generated_Source/PSoC5/cyPm.c **** * Side Effects:
1532:./Generated_Source/PSoC5/cyPm.c **** *  Currently, the is no way to define device grade. This API method must be
1533:./Generated_Source/PSoC5/cyPm.c **** *  invoked only for I- & A-grades.
1534:./Generated_Source/PSoC5/cyPm.c **** *
1535:./Generated_Source/PSoC5/cyPm.c **** *  This API could be blocking as it waits for Hibernate/Sleep regulator to
1536:./Generated_Source/PSoC5/cyPm.c **** *  stabilize.
1537:./Generated_Source/PSoC5/cyPm.c **** *
1538:./Generated_Source/PSoC5/cyPm.c **** *******************************************************************************/
1539:./Generated_Source/PSoC5/cyPm.c **** void CyPmHibSlpSaveSet(uint8 powerMode)
1540:./Generated_Source/PSoC5/cyPm.c **** {
 1577              		.loc 1 1540 0
 1578              		.cfi_startproc
 1579              		@ args = 0, pretend = 0, frame = 8
 1580              		@ frame_needed = 1, uses_anonymous_args = 0
 1581              		@ link register save eliminated.
 1582 0000 80B4     		push	{r7}
 1583              	.LCFI28:
 1584              		.cfi_def_cfa_offset 4
 1585 0002 83B0     		sub	sp, sp, #12
 1586              	.LCFI29:
 1587              		.cfi_def_cfa_offset 16
ARM GAS  C:\DOCUME~1\akay\LOCALS~1\Temp\ccsadWJD.s 			page 56


 1588 0004 00AF     		add	r7, sp, #0
 1589              		.cfi_offset 7, -4
 1590              	.LCFI30:
 1591              		.cfi_def_cfa_register 7
 1592 0006 0346     		mov	r3, r0
 1593 0008 FB71     		strb	r3, [r7, #7]
1541:./Generated_Source/PSoC5/cyPm.c ****     /* Save en_lvia, en_lvid, en_hvi */
1542:./Generated_Source/PSoC5/cyPm.c ****     cyPmBackup.lviaLvidHvi = (CY_PM_RESET_CR1_REG & CY_PM_RESET_CR1_HVI_LVI_EN_MASK);
 1594              		.loc 1 1542 0
 1595 000a 44F2F563 		movw	r3, #:lower16:1073759989
 1596 000e C4F20003 		movt	r3, #:upper16:1073759989
 1597 0012 1B78     		ldrb	r3, [r3, #0]
 1598 0014 DBB2     		uxtb	r3, r3
 1599 0016 1A46     		mov	r2, r3
 1600 0018 02F00702 		and	r2, r2, #7
 1601 001c 40F20003 		movw	r3, #:lower16:cyPmBackup
 1602 0020 C0F20003 		movt	r3, #:upper16:cyPmBackup
 1603 0024 5A75     		strb	r2, [r3, #21]
1543:./Generated_Source/PSoC5/cyPm.c **** 
1544:./Generated_Source/PSoC5/cyPm.c ****     #if(CY_PM_PSOC3_ES3)
1545:./Generated_Source/PSoC5/cyPm.c ****     
1546:./Generated_Source/PSoC5/cyPm.c ****         /* Save SC/CT routing registers */
1547:./Generated_Source/PSoC5/cyPm.c ****         cyPmBackup.scct_data[0u]   = CY_GET_REG8(CYDEV_ANAIF_RT_SC0_SW0 );
1548:./Generated_Source/PSoC5/cyPm.c ****         cyPmBackup.scct_data[1u]   = CY_GET_REG8(CYDEV_ANAIF_RT_SC0_SW2 );
1549:./Generated_Source/PSoC5/cyPm.c ****         cyPmBackup.scct_data[2u]   = CY_GET_REG8(CYDEV_ANAIF_RT_SC0_SW3 );
1550:./Generated_Source/PSoC5/cyPm.c ****         cyPmBackup.scct_data[3u]   = CY_GET_REG8(CYDEV_ANAIF_RT_SC0_SW4 );
1551:./Generated_Source/PSoC5/cyPm.c ****         cyPmBackup.scct_data[4u]   = CY_GET_REG8(CYDEV_ANAIF_RT_SC0_SW6 );
1552:./Generated_Source/PSoC5/cyPm.c ****         cyPmBackup.scct_data[5u]   = CY_GET_REG8(CYDEV_ANAIF_RT_SC0_SW8 );
1553:./Generated_Source/PSoC5/cyPm.c ****         cyPmBackup.scct_data[6u]   = CY_GET_REG8(CYDEV_ANAIF_RT_SC0_SW10);
1554:./Generated_Source/PSoC5/cyPm.c ****     
1555:./Generated_Source/PSoC5/cyPm.c ****         cyPmBackup.scct_data[7u]   = CY_GET_REG8(CYDEV_ANAIF_RT_SC1_SW0 );
1556:./Generated_Source/PSoC5/cyPm.c ****         cyPmBackup.scct_data[8u]   = CY_GET_REG8(CYDEV_ANAIF_RT_SC1_SW2 );
1557:./Generated_Source/PSoC5/cyPm.c ****         cyPmBackup.scct_data[9u]   = CY_GET_REG8(CYDEV_ANAIF_RT_SC1_SW3 );
1558:./Generated_Source/PSoC5/cyPm.c ****         cyPmBackup.scct_data[10u]  = CY_GET_REG8(CYDEV_ANAIF_RT_SC1_SW4 );
1559:./Generated_Source/PSoC5/cyPm.c ****         cyPmBackup.scct_data[11u]  = CY_GET_REG8(CYDEV_ANAIF_RT_SC1_SW6 );
1560:./Generated_Source/PSoC5/cyPm.c ****         cyPmBackup.scct_data[12u]  = CY_GET_REG8(CYDEV_ANAIF_RT_SC1_SW8 );
1561:./Generated_Source/PSoC5/cyPm.c ****         cyPmBackup.scct_data[13u]  = CY_GET_REG8(CYDEV_ANAIF_RT_SC1_SW10);
1562:./Generated_Source/PSoC5/cyPm.c ****     
1563:./Generated_Source/PSoC5/cyPm.c ****         cyPmBackup.scct_data[14u]  = CY_GET_REG8(CYDEV_ANAIF_RT_SC2_SW0 );
1564:./Generated_Source/PSoC5/cyPm.c ****         cyPmBackup.scct_data[15u]  = CY_GET_REG8(CYDEV_ANAIF_RT_SC2_SW2 );
1565:./Generated_Source/PSoC5/cyPm.c ****         cyPmBackup.scct_data[16u]  = CY_GET_REG8(CYDEV_ANAIF_RT_SC2_SW3 );
1566:./Generated_Source/PSoC5/cyPm.c ****         cyPmBackup.scct_data[17u]  = CY_GET_REG8(CYDEV_ANAIF_RT_SC2_SW4 );
1567:./Generated_Source/PSoC5/cyPm.c ****         cyPmBackup.scct_data[18u]  = CY_GET_REG8(CYDEV_ANAIF_RT_SC2_SW6 );
1568:./Generated_Source/PSoC5/cyPm.c ****         cyPmBackup.scct_data[19u]  = CY_GET_REG8(CYDEV_ANAIF_RT_SC2_SW8 );
1569:./Generated_Source/PSoC5/cyPm.c ****         cyPmBackup.scct_data[20u]  = CY_GET_REG8(CYDEV_ANAIF_RT_SC2_SW10);
1570:./Generated_Source/PSoC5/cyPm.c ****     
1571:./Generated_Source/PSoC5/cyPm.c ****         cyPmBackup.scct_data[21u]  = CY_GET_REG8(CYDEV_ANAIF_RT_SC3_SW0 );
1572:./Generated_Source/PSoC5/cyPm.c ****         cyPmBackup.scct_data[22u]  = CY_GET_REG8(CYDEV_ANAIF_RT_SC3_SW2 );
1573:./Generated_Source/PSoC5/cyPm.c ****         cyPmBackup.scct_data[23u]  = CY_GET_REG8(CYDEV_ANAIF_RT_SC3_SW3 );
1574:./Generated_Source/PSoC5/cyPm.c ****         cyPmBackup.scct_data[24u]  = CY_GET_REG8(CYDEV_ANAIF_RT_SC3_SW4 );
1575:./Generated_Source/PSoC5/cyPm.c ****         cyPmBackup.scct_data[25u]  = CY_GET_REG8(CYDEV_ANAIF_RT_SC3_SW6 );
1576:./Generated_Source/PSoC5/cyPm.c ****         cyPmBackup.scct_data[26u]  = CY_GET_REG8(CYDEV_ANAIF_RT_SC3_SW8 );
1577:./Generated_Source/PSoC5/cyPm.c ****         cyPmBackup.scct_data[27u]  = CY_GET_REG8(CYDEV_ANAIF_RT_SC3_SW10);
1578:./Generated_Source/PSoC5/cyPm.c **** 
1579:./Generated_Source/PSoC5/cyPm.c ****         CY_SET_REG8(CYDEV_ANAIF_RT_SC0_SW0 , 0u);
1580:./Generated_Source/PSoC5/cyPm.c ****         CY_SET_REG8(CYDEV_ANAIF_RT_SC0_SW2 , 0u);
1581:./Generated_Source/PSoC5/cyPm.c ****         CY_SET_REG8(CYDEV_ANAIF_RT_SC0_SW3 , 0u);
ARM GAS  C:\DOCUME~1\akay\LOCALS~1\Temp\ccsadWJD.s 			page 57


1582:./Generated_Source/PSoC5/cyPm.c ****         CY_SET_REG8(CYDEV_ANAIF_RT_SC0_SW4 , 0u);
1583:./Generated_Source/PSoC5/cyPm.c ****         CY_SET_REG8(CYDEV_ANAIF_RT_SC0_SW6 , 0u);
1584:./Generated_Source/PSoC5/cyPm.c ****         CY_SET_REG8(CYDEV_ANAIF_RT_SC0_SW8 , 0u);
1585:./Generated_Source/PSoC5/cyPm.c ****         CY_SET_REG8(CYDEV_ANAIF_RT_SC0_SW10, 0u);
1586:./Generated_Source/PSoC5/cyPm.c ****     
1587:./Generated_Source/PSoC5/cyPm.c ****         CY_SET_REG8(CYDEV_ANAIF_RT_SC1_SW0 , 0u);
1588:./Generated_Source/PSoC5/cyPm.c ****         CY_SET_REG8(CYDEV_ANAIF_RT_SC1_SW2 , 0u);
1589:./Generated_Source/PSoC5/cyPm.c ****         CY_SET_REG8(CYDEV_ANAIF_RT_SC1_SW3 , 0u);
1590:./Generated_Source/PSoC5/cyPm.c ****         CY_SET_REG8(CYDEV_ANAIF_RT_SC1_SW4 , 0u);
1591:./Generated_Source/PSoC5/cyPm.c ****         CY_SET_REG8(CYDEV_ANAIF_RT_SC1_SW6 , 0u);
1592:./Generated_Source/PSoC5/cyPm.c ****         CY_SET_REG8(CYDEV_ANAIF_RT_SC1_SW8 , 0u);
1593:./Generated_Source/PSoC5/cyPm.c ****         CY_SET_REG8(CYDEV_ANAIF_RT_SC1_SW10, 0u);
1594:./Generated_Source/PSoC5/cyPm.c ****     
1595:./Generated_Source/PSoC5/cyPm.c ****         CY_SET_REG8(CYDEV_ANAIF_RT_SC2_SW0 , 0u);
1596:./Generated_Source/PSoC5/cyPm.c ****         CY_SET_REG8(CYDEV_ANAIF_RT_SC2_SW2 , 0u);
1597:./Generated_Source/PSoC5/cyPm.c ****         CY_SET_REG8(CYDEV_ANAIF_RT_SC2_SW3 , 0u);
1598:./Generated_Source/PSoC5/cyPm.c ****         CY_SET_REG8(CYDEV_ANAIF_RT_SC2_SW4 , 0u);
1599:./Generated_Source/PSoC5/cyPm.c ****         CY_SET_REG8(CYDEV_ANAIF_RT_SC2_SW6 , 0u);
1600:./Generated_Source/PSoC5/cyPm.c ****         CY_SET_REG8(CYDEV_ANAIF_RT_SC2_SW8 , 0u);
1601:./Generated_Source/PSoC5/cyPm.c ****         CY_SET_REG8(CYDEV_ANAIF_RT_SC2_SW10, 0u);
1602:./Generated_Source/PSoC5/cyPm.c ****     
1603:./Generated_Source/PSoC5/cyPm.c ****         CY_SET_REG8(CYDEV_ANAIF_RT_SC3_SW0 , 0u);
1604:./Generated_Source/PSoC5/cyPm.c ****         CY_SET_REG8(CYDEV_ANAIF_RT_SC3_SW2 , 0u);
1605:./Generated_Source/PSoC5/cyPm.c ****         CY_SET_REG8(CYDEV_ANAIF_RT_SC3_SW3 , 0u);
1606:./Generated_Source/PSoC5/cyPm.c ****         CY_SET_REG8(CYDEV_ANAIF_RT_SC3_SW4 , 0u);
1607:./Generated_Source/PSoC5/cyPm.c ****         CY_SET_REG8(CYDEV_ANAIF_RT_SC3_SW6 , 0u);
1608:./Generated_Source/PSoC5/cyPm.c ****         CY_SET_REG8(CYDEV_ANAIF_RT_SC3_SW8 , 0u);
1609:./Generated_Source/PSoC5/cyPm.c ****         CY_SET_REG8(CYDEV_ANAIF_RT_SC3_SW10, 0u);
1610:./Generated_Source/PSoC5/cyPm.c **** 
1611:./Generated_Source/PSoC5/cyPm.c **** 
1612:./Generated_Source/PSoC5/cyPm.c ****         /* Save replica regulated vcca supply state and enable */
1613:./Generated_Source/PSoC5/cyPm.c ****         cyPmBackup.useVccaBackup = (CY_PM_PWRSYS_WAKE_TR2_REG & CY_PM_PWRSYS_WAKE_TR2_USE_VCCA_BACK
1614:./Generated_Source/PSoC5/cyPm.c ****         CY_PM_PWRSYS_WAKE_TR2_REG |= CY_PM_PWRSYS_WAKE_TR2_USE_VCCA_BACKUP;
1615:./Generated_Source/PSoC5/cyPm.c **** 
1616:./Generated_Source/PSoC5/cyPm.c ****         /* LVI/HVI workaround  - save wake up trims */
1617:./Generated_Source/PSoC5/cyPm.c ****         cyPmBackup.wakeupTrimTimeout = CY_PM_PWRSYS_WAKE_TR0_REG;
1618:./Generated_Source/PSoC5/cyPm.c ****         cyPmBackup.wakeupTrimHoldoff = CY_PM_PWRSYS_WAKE_TR3_REG; 
1619:./Generated_Source/PSoC5/cyPm.c ****                 
1620:./Generated_Source/PSoC5/cyPm.c ****         switch(powerMode)
1621:./Generated_Source/PSoC5/cyPm.c ****         {
1622:./Generated_Source/PSoC5/cyPm.c ****             case CY_PM_MODE_CSR_HIBERNATE:
1623:./Generated_Source/PSoC5/cyPm.c **** 
1624:./Generated_Source/PSoC5/cyPm.c ****                 if(0u == (CY_PM_PWRSYS_HIB_TR1_REG & CY_PM_PWRSYS_HIB_TRIM))
1625:./Generated_Source/PSoC5/cyPm.c ****                 {
1626:./Generated_Source/PSoC5/cyPm.c ****                     /* Disable LVI/HVI for hibernate - clear en_lvia, en_lvid, en_hvi */
1627:./Generated_Source/PSoC5/cyPm.c ****                     CY_PM_RESET_CR1_REG &= ~CY_PM_RESET_CR1_HVI_LVI_EN_MASK;
1628:./Generated_Source/PSoC5/cyPm.c ****                     break;
1629:./Generated_Source/PSoC5/cyPm.c ****                 }
1630:./Generated_Source/PSoC5/cyPm.c ****                 /* Intentional fall through */
1631:./Generated_Source/PSoC5/cyPm.c **** 
1632:./Generated_Source/PSoC5/cyPm.c ****             case CY_PM_MODE_CSR_SLEEP:
1633:./Generated_Source/PSoC5/cyPm.c **** 
1634:./Generated_Source/PSoC5/cyPm.c ****                 /* If LVI/HVI enabled then extend wakeup timeline */
1635:./Generated_Source/PSoC5/cyPm.c ****                 if(0u != (CY_PM_RESET_CR1_REG & (CY_PM_RESET_CR1_HVIA_EN | 
1636:./Generated_Source/PSoC5/cyPm.c ****                           CY_PM_RESET_CR1_LVIA_EN | CY_PM_RESET_CR1_LVID_EN)))
1637:./Generated_Source/PSoC5/cyPm.c ****                 {
1638:./Generated_Source/PSoC5/cyPm.c ****                     /* Extend wakeup timeline */
ARM GAS  C:\DOCUME~1\akay\LOCALS~1\Temp\ccsadWJD.s 			page 58


1639:./Generated_Source/PSoC5/cyPm.c ****                     CY_PM_PWRSYS_WAKE_TR0_REG = CY_PM_PWRSYS_WAKE_TIMEOUT_IA;
1640:./Generated_Source/PSoC5/cyPm.c ****                     CY_PM_PWRSYS_WAKE_TR3_REG = CY_PM_PWRSYS_WAKE_HOLFOFF_IA;
1641:./Generated_Source/PSoC5/cyPm.c ****                 }
1642:./Generated_Source/PSoC5/cyPm.c ****                 break;
1643:./Generated_Source/PSoC5/cyPm.c **** 
1644:./Generated_Source/PSoC5/cyPm.c ****             default:
1645:./Generated_Source/PSoC5/cyPm.c **** 
1646:./Generated_Source/PSoC5/cyPm.c ****                 /* No action */
1647:./Generated_Source/PSoC5/cyPm.c ****                 break;
1648:./Generated_Source/PSoC5/cyPm.c ****         }   /* End of switch(powerMode) */
1649:./Generated_Source/PSoC5/cyPm.c ****         
1650:./Generated_Source/PSoC5/cyPm.c ****         /* Serial Wire Viewer (SWV) workaround */
1651:./Generated_Source/PSoC5/cyPm.c ****     
1652:./Generated_Source/PSoC5/cyPm.c ****         /* Disable SWV before entering low power mode */
1653:./Generated_Source/PSoC5/cyPm.c ****         if(0u != (CY_PM_MLOGIC_DBG_REG & CY_PM_MLOGIC_DBG_SWV_CLK_EN))
1654:./Generated_Source/PSoC5/cyPm.c ****         {
1655:./Generated_Source/PSoC5/cyPm.c ****             /* Save SWV clock enabled state */
1656:./Generated_Source/PSoC5/cyPm.c ****             cyPmBackup.swvClkEnabled = CY_PM_ENABLED;
1657:./Generated_Source/PSoC5/cyPm.c ****             
1658:./Generated_Source/PSoC5/cyPm.c ****             /* Save current ports drive mode settings */
1659:./Generated_Source/PSoC5/cyPm.c ****             cyPmBackup.prt1Dm = ((CY_PM_PRT1_PC3_REG & CY_PM_PRT1_PC3_DM_MASK) |
1660:./Generated_Source/PSoC5/cyPm.c ****                                 CY_PM_PRT1_PC3_DM_STRONG);
1661:./Generated_Source/PSoC5/cyPm.c ****     
1662:./Generated_Source/PSoC5/cyPm.c ****             /* Disable SWV clocks */
1663:./Generated_Source/PSoC5/cyPm.c ****             CY_PM_MLOGIC_DBG_REG &= ~CY_PM_MLOGIC_DBG_SWV_CLK_EN;
1664:./Generated_Source/PSoC5/cyPm.c ****         }
1665:./Generated_Source/PSoC5/cyPm.c ****         else
1666:./Generated_Source/PSoC5/cyPm.c ****         {
1667:./Generated_Source/PSoC5/cyPm.c ****             /* Save SWV clock disabled state */
1668:./Generated_Source/PSoC5/cyPm.c ****             cyPmBackup.swvClkEnabled = CY_PM_DISABLED;
1669:./Generated_Source/PSoC5/cyPm.c ****         }
1670:./Generated_Source/PSoC5/cyPm.c ****     
1671:./Generated_Source/PSoC5/cyPm.c ****     #else   /* Not PSoC3 ES3 */
1672:./Generated_Source/PSoC5/cyPm.c **** 
1673:./Generated_Source/PSoC5/cyPm.c ****         /* Disable LVI/HVI to save power - doesn't work during buzzing in these revisions */
1674:./Generated_Source/PSoC5/cyPm.c ****         CY_PM_RESET_CR1_REG &= ~CY_PM_RESET_CR1_HVI_LVI_EN_MASK;
 1604              		.loc 1 1674 0
 1605 0026 44F2F563 		movw	r3, #:lower16:1073759989
 1606 002a C4F20003 		movt	r3, #:upper16:1073759989
 1607 002e 44F2F562 		movw	r2, #:lower16:1073759989
 1608 0032 C4F20002 		movt	r2, #:upper16:1073759989
 1609 0036 1278     		ldrb	r2, [r2, #0]
 1610 0038 D2B2     		uxtb	r2, r2
 1611 003a 02F0F802 		and	r2, r2, #248
 1612 003e 1A70     		strb	r2, [r3, #0]
1675:./Generated_Source/PSoC5/cyPm.c **** 
1676:./Generated_Source/PSoC5/cyPm.c ****         /* Suppress unreferenced local variable warning */
1677:./Generated_Source/PSoC5/cyPm.c ****         powerMode++;
 1613              		.loc 1 1677 0
 1614 0040 FB79     		ldrb	r3, [r7, #7]
 1615 0042 03F10103 		add	r3, r3, #1
 1616 0046 FB71     		strb	r3, [r7, #7]
1678:./Generated_Source/PSoC5/cyPm.c ****         
1679:./Generated_Source/PSoC5/cyPm.c ****     #endif  /* End of (CY_PM_PSOC3_ES3) */
1680:./Generated_Source/PSoC5/cyPm.c **** 
1681:./Generated_Source/PSoC5/cyPm.c **** }
 1617              		.loc 1 1681 0
ARM GAS  C:\DOCUME~1\akay\LOCALS~1\Temp\ccsadWJD.s 			page 59


 1618 0048 07F10C07 		add	r7, r7, #12
 1619 004c BD46     		mov	sp, r7
 1620 004e 80BC     		pop	{r7}
 1621 0050 7047     		bx	lr
 1622              		.cfi_endproc
 1623              	.LFE11:
 1624              		.size	CyPmHibSlpSaveSet, .-CyPmHibSlpSaveSet
 1625 0052 00BF     		.section	.text.CyPmHibSlpRestore,"ax",%progbits
 1626              		.align	2
 1627              		.global	CyPmHibSlpRestore
 1628              		.thumb
 1629              		.thumb_func
 1630              		.type	CyPmHibSlpRestore, %function
 1631              	CyPmHibSlpRestore:
 1632              	.LFB12:
1682:./Generated_Source/PSoC5/cyPm.c **** 
1683:./Generated_Source/PSoC5/cyPm.c **** 
1684:./Generated_Source/PSoC5/cyPm.c **** /*******************************************************************************
1685:./Generated_Source/PSoC5/cyPm.c **** * Function Name: CyPmHibSlpRestore
1686:./Generated_Source/PSoC5/cyPm.c **** ********************************************************************************
1687:./Generated_Source/PSoC5/cyPm.c **** *
1688:./Generated_Source/PSoC5/cyPm.c **** * Summary:
1689:./Generated_Source/PSoC5/cyPm.c **** *  Restores en_lvia, en_lvid, en_hvi enable state and wakeup trims (timeout and
1690:./Generated_Source/PSoC5/cyPm.c **** *  holdoff).
1691:./Generated_Source/PSoC5/cyPm.c **** *
1692:./Generated_Source/PSoC5/cyPm.c **** * Parameters:
1693:./Generated_Source/PSoC5/cyPm.c **** *  None.
1694:./Generated_Source/PSoC5/cyPm.c **** *
1695:./Generated_Source/PSoC5/cyPm.c **** * Return:
1696:./Generated_Source/PSoC5/cyPm.c **** *  None.
1697:./Generated_Source/PSoC5/cyPm.c **** *
1698:./Generated_Source/PSoC5/cyPm.c **** * Side Effects:
1699:./Generated_Source/PSoC5/cyPm.c **** *  None.
1700:./Generated_Source/PSoC5/cyPm.c **** *
1701:./Generated_Source/PSoC5/cyPm.c **** *******************************************************************************/
1702:./Generated_Source/PSoC5/cyPm.c **** void CyPmHibSlpRestore(void) 
1703:./Generated_Source/PSoC5/cyPm.c **** {
 1633              		.loc 1 1703 0
 1634              		.cfi_startproc
 1635              		@ args = 0, pretend = 0, frame = 0
 1636              		@ frame_needed = 1, uses_anonymous_args = 0
 1637              		@ link register save eliminated.
 1638 0000 80B4     		push	{r7}
 1639              	.LCFI31:
 1640              		.cfi_def_cfa_offset 4
 1641 0002 00AF     		add	r7, sp, #0
 1642              		.cfi_offset 7, -4
 1643              	.LCFI32:
 1644              		.cfi_def_cfa_register 7
1704:./Generated_Source/PSoC5/cyPm.c ****     /* Restore en_lvia, en_lvid, en_hvi */
1705:./Generated_Source/PSoC5/cyPm.c ****     CY_PM_RESET_CR1_REG = cyPmBackup.lviaLvidHvi;
 1645              		.loc 1 1705 0
 1646 0004 44F2F563 		movw	r3, #:lower16:1073759989
 1647 0008 C4F20003 		movt	r3, #:upper16:1073759989
 1648 000c 40F20002 		movw	r2, #:lower16:cyPmBackup
 1649 0010 C0F20002 		movt	r2, #:upper16:cyPmBackup
 1650 0014 527D     		ldrb	r2, [r2, #21]	@ zero_extendqisi2
ARM GAS  C:\DOCUME~1\akay\LOCALS~1\Temp\ccsadWJD.s 			page 60


 1651 0016 1A70     		strb	r2, [r3, #0]
1706:./Generated_Source/PSoC5/cyPm.c **** 
1707:./Generated_Source/PSoC5/cyPm.c ****     /* PSoC3 ES3 */
1708:./Generated_Source/PSoC5/cyPm.c ****     #if(CY_PM_PSOC3_ES3)
1709:./Generated_Source/PSoC5/cyPm.c **** 
1710:./Generated_Source/PSoC5/cyPm.c ****         /* Restore SC/CT routing registers */
1711:./Generated_Source/PSoC5/cyPm.c ****         CY_SET_REG8(CYDEV_ANAIF_RT_SC0_SW0 , cyPmBackup.scct_data[0u] );
1712:./Generated_Source/PSoC5/cyPm.c ****         CY_SET_REG8(CYDEV_ANAIF_RT_SC0_SW2 , cyPmBackup.scct_data[1u] );
1713:./Generated_Source/PSoC5/cyPm.c ****         CY_SET_REG8(CYDEV_ANAIF_RT_SC0_SW3 , cyPmBackup.scct_data[2u] );
1714:./Generated_Source/PSoC5/cyPm.c ****         CY_SET_REG8(CYDEV_ANAIF_RT_SC0_SW4 , cyPmBackup.scct_data[3u] );
1715:./Generated_Source/PSoC5/cyPm.c ****         CY_SET_REG8(CYDEV_ANAIF_RT_SC0_SW6 , cyPmBackup.scct_data[4u] );
1716:./Generated_Source/PSoC5/cyPm.c ****         CY_SET_REG8(CYDEV_ANAIF_RT_SC0_SW8 , cyPmBackup.scct_data[5u] );
1717:./Generated_Source/PSoC5/cyPm.c ****         CY_SET_REG8(CYDEV_ANAIF_RT_SC0_SW10, cyPmBackup.scct_data[6u] );
1718:./Generated_Source/PSoC5/cyPm.c **** 
1719:./Generated_Source/PSoC5/cyPm.c ****         CY_SET_REG8(CYDEV_ANAIF_RT_SC1_SW0 , cyPmBackup.scct_data[7u] );
1720:./Generated_Source/PSoC5/cyPm.c ****         CY_SET_REG8(CYDEV_ANAIF_RT_SC1_SW2 , cyPmBackup.scct_data[8u] );
1721:./Generated_Source/PSoC5/cyPm.c ****         CY_SET_REG8(CYDEV_ANAIF_RT_SC1_SW3 , cyPmBackup.scct_data[9u] );
1722:./Generated_Source/PSoC5/cyPm.c ****         CY_SET_REG8(CYDEV_ANAIF_RT_SC1_SW4 , cyPmBackup.scct_data[10u]);
1723:./Generated_Source/PSoC5/cyPm.c ****         CY_SET_REG8(CYDEV_ANAIF_RT_SC1_SW6 , cyPmBackup.scct_data[11u]);
1724:./Generated_Source/PSoC5/cyPm.c ****         CY_SET_REG8(CYDEV_ANAIF_RT_SC1_SW8 , cyPmBackup.scct_data[12u]);
1725:./Generated_Source/PSoC5/cyPm.c ****         CY_SET_REG8(CYDEV_ANAIF_RT_SC1_SW10, cyPmBackup.scct_data[13u]);
1726:./Generated_Source/PSoC5/cyPm.c **** 
1727:./Generated_Source/PSoC5/cyPm.c ****         CY_SET_REG8(CYDEV_ANAIF_RT_SC2_SW0 , cyPmBackup.scct_data[14u]);
1728:./Generated_Source/PSoC5/cyPm.c ****         CY_SET_REG8(CYDEV_ANAIF_RT_SC2_SW2 , cyPmBackup.scct_data[15u]);
1729:./Generated_Source/PSoC5/cyPm.c ****         CY_SET_REG8(CYDEV_ANAIF_RT_SC2_SW3 , cyPmBackup.scct_data[16u]);
1730:./Generated_Source/PSoC5/cyPm.c ****         CY_SET_REG8(CYDEV_ANAIF_RT_SC2_SW4 , cyPmBackup.scct_data[17u]);
1731:./Generated_Source/PSoC5/cyPm.c ****         CY_SET_REG8(CYDEV_ANAIF_RT_SC2_SW6 , cyPmBackup.scct_data[18u]);
1732:./Generated_Source/PSoC5/cyPm.c ****         CY_SET_REG8(CYDEV_ANAIF_RT_SC2_SW8 , cyPmBackup.scct_data[19u]);
1733:./Generated_Source/PSoC5/cyPm.c ****         CY_SET_REG8(CYDEV_ANAIF_RT_SC2_SW10, cyPmBackup.scct_data[20u]);
1734:./Generated_Source/PSoC5/cyPm.c **** 
1735:./Generated_Source/PSoC5/cyPm.c ****         CY_SET_REG8(CYDEV_ANAIF_RT_SC3_SW0 , cyPmBackup.scct_data[21u]);
1736:./Generated_Source/PSoC5/cyPm.c ****         CY_SET_REG8(CYDEV_ANAIF_RT_SC3_SW2 , cyPmBackup.scct_data[22u]);
1737:./Generated_Source/PSoC5/cyPm.c ****         CY_SET_REG8(CYDEV_ANAIF_RT_SC3_SW3 , cyPmBackup.scct_data[23u]);
1738:./Generated_Source/PSoC5/cyPm.c ****         CY_SET_REG8(CYDEV_ANAIF_RT_SC3_SW4 , cyPmBackup.scct_data[24u]);
1739:./Generated_Source/PSoC5/cyPm.c ****         CY_SET_REG8(CYDEV_ANAIF_RT_SC3_SW6 , cyPmBackup.scct_data[25u]);
1740:./Generated_Source/PSoC5/cyPm.c ****         CY_SET_REG8(CYDEV_ANAIF_RT_SC3_SW8 , cyPmBackup.scct_data[26u]);
1741:./Generated_Source/PSoC5/cyPm.c ****         CY_SET_REG8(CYDEV_ANAIF_RT_SC3_SW10, cyPmBackup.scct_data[27u]);        
1742:./Generated_Source/PSoC5/cyPm.c **** 
1743:./Generated_Source/PSoC5/cyPm.c **** 
1744:./Generated_Source/PSoC5/cyPm.c ****         /* Restore replica regulated vcca supply state */
1745:./Generated_Source/PSoC5/cyPm.c ****         CY_PM_PWRSYS_WAKE_TR2_REG = ((CY_PM_PWRSYS_WAKE_TR2_REG & ~CY_PM_PWRSYS_WAKE_TR2_USE_VCCA_B
1746:./Generated_Source/PSoC5/cyPm.c ****                                       cyPmBackup.useVccaBackup);
1747:./Generated_Source/PSoC5/cyPm.c **** 
1748:./Generated_Source/PSoC5/cyPm.c ****         /* Restore wake up trims */ 
1749:./Generated_Source/PSoC5/cyPm.c ****         CY_PM_PWRSYS_WAKE_TR0_REG = cyPmBackup.wakeupTrimTimeout;
1750:./Generated_Source/PSoC5/cyPm.c ****         CY_PM_PWRSYS_WAKE_TR3_REG = cyPmBackup.wakeupTrimHoldoff;
1751:./Generated_Source/PSoC5/cyPm.c **** 
1752:./Generated_Source/PSoC5/cyPm.c ****         /* Serial Wire Viewer (SWV) workaround */
1753:./Generated_Source/PSoC5/cyPm.c ****         if(CY_PM_ENABLED == cyPmBackup.swvClkEnabled)
1754:./Generated_Source/PSoC5/cyPm.c ****         {
1755:./Generated_Source/PSoC5/cyPm.c ****             /* Restore ports drive mode */
1756:./Generated_Source/PSoC5/cyPm.c ****             cyPmBackup.prt1Dm = ((CY_PM_PRT1_PC3_REG & CY_PM_PRT1_PC3_DM_MASK) |
1757:./Generated_Source/PSoC5/cyPm.c ****                                     cyPmBackup.prt1Dm);
1758:./Generated_Source/PSoC5/cyPm.c ****     
1759:./Generated_Source/PSoC5/cyPm.c ****             /* Enable SWV clocks */
1760:./Generated_Source/PSoC5/cyPm.c ****             CY_PM_MLOGIC_DBG_REG |= CY_PM_MLOGIC_DBG_SWV_CLK_EN;
1761:./Generated_Source/PSoC5/cyPm.c ****         }
ARM GAS  C:\DOCUME~1\akay\LOCALS~1\Temp\ccsadWJD.s 			page 61


1762:./Generated_Source/PSoC5/cyPm.c ****     #endif /* End of (CY_PM_PSOC3_ES3) */
1763:./Generated_Source/PSoC5/cyPm.c **** }
 1652              		.loc 1 1763 0
 1653 0018 BD46     		mov	sp, r7
 1654 001a 80BC     		pop	{r7}
 1655 001c 7047     		bx	lr
 1656              		.cfi_endproc
 1657              	.LFE12:
 1658              		.size	CyPmHibSlpRestore, .-CyPmHibSlpRestore
 1659 001e 00BF     		.bss
 1660              	interruptStatus.2238:
 1661 0018 00       		.space	1
 1662 0019 000000   		.text
 1663              	.Letext0:
 1664              		.section	.debug_loc,"",%progbits
 1665              	.Ldebug_loc0:
 1666              	.LLST0:
 1667 0000 00000000 		.4byte	.LFB0
 1668 0004 02000000 		.4byte	.LCFI0
 1669 0008 0100     		.2byte	0x1
 1670 000a 5D       		.byte	0x5d
 1671 000b 02000000 		.4byte	.LCFI0
 1672 000f 04000000 		.4byte	.LCFI1
 1673 0013 0200     		.2byte	0x2
 1674 0015 7D       		.byte	0x7d
 1675 0016 08       		.sleb128 8
 1676 0017 04000000 		.4byte	.LCFI1
 1677 001b 48030000 		.4byte	.LFE0
 1678 001f 0200     		.2byte	0x2
 1679 0021 77       		.byte	0x77
 1680 0022 08       		.sleb128 8
 1681 0023 00000000 		.4byte	0x0
 1682 0027 00000000 		.4byte	0x0
 1683              	.LLST1:
 1684 002b 00000000 		.4byte	.LFB1
 1685 002f 02000000 		.4byte	.LCFI2
 1686 0033 0100     		.2byte	0x1
 1687 0035 5D       		.byte	0x5d
 1688 0036 02000000 		.4byte	.LCFI2
 1689 003a 04000000 		.4byte	.LCFI3
 1690 003e 0200     		.2byte	0x2
 1691 0040 7D       		.byte	0x7d
 1692 0041 08       		.sleb128 8
 1693 0042 04000000 		.4byte	.LCFI3
 1694 0046 06000000 		.4byte	.LCFI4
 1695 004a 0200     		.2byte	0x2
 1696 004c 7D       		.byte	0x7d
 1697 004d 10       		.sleb128 16
 1698 004e 06000000 		.4byte	.LCFI4
 1699 0052 E8020000 		.4byte	.LFE1
 1700 0056 0200     		.2byte	0x2
 1701 0058 77       		.byte	0x77
 1702 0059 10       		.sleb128 16
 1703 005a 00000000 		.4byte	0x0
 1704 005e 00000000 		.4byte	0x0
 1705              	.LLST2:
 1706 0062 00000000 		.4byte	.LFB2
ARM GAS  C:\DOCUME~1\akay\LOCALS~1\Temp\ccsadWJD.s 			page 62


 1707 0066 02000000 		.4byte	.LCFI5
 1708 006a 0100     		.2byte	0x1
 1709 006c 5D       		.byte	0x5d
 1710 006d 02000000 		.4byte	.LCFI5
 1711 0071 04000000 		.4byte	.LCFI6
 1712 0075 0200     		.2byte	0x2
 1713 0077 7D       		.byte	0x7d
 1714 0078 08       		.sleb128 8
 1715 0079 04000000 		.4byte	.LCFI6
 1716 007d 06000000 		.4byte	.LCFI7
 1717 0081 0200     		.2byte	0x2
 1718 0083 7D       		.byte	0x7d
 1719 0084 10       		.sleb128 16
 1720 0085 06000000 		.4byte	.LCFI7
 1721 0089 C4000000 		.4byte	.LFE2
 1722 008d 0200     		.2byte	0x2
 1723 008f 77       		.byte	0x77
 1724 0090 10       		.sleb128 16
 1725 0091 00000000 		.4byte	0x0
 1726 0095 00000000 		.4byte	0x0
 1727              	.LLST3:
 1728 0099 00000000 		.4byte	.LFB3
 1729 009d 02000000 		.4byte	.LCFI8
 1730 00a1 0100     		.2byte	0x1
 1731 00a3 5D       		.byte	0x5d
 1732 00a4 02000000 		.4byte	.LCFI8
 1733 00a8 04000000 		.4byte	.LCFI9
 1734 00ac 0200     		.2byte	0x2
 1735 00ae 7D       		.byte	0x7d
 1736 00af 08       		.sleb128 8
 1737 00b0 04000000 		.4byte	.LCFI9
 1738 00b4 06000000 		.4byte	.LCFI10
 1739 00b8 0200     		.2byte	0x2
 1740 00ba 7D       		.byte	0x7d
 1741 00bb 10       		.sleb128 16
 1742 00bc 06000000 		.4byte	.LCFI10
 1743 00c0 B0000000 		.4byte	.LFE3
 1744 00c4 0200     		.2byte	0x2
 1745 00c6 77       		.byte	0x77
 1746 00c7 10       		.sleb128 16
 1747 00c8 00000000 		.4byte	0x0
 1748 00cc 00000000 		.4byte	0x0
 1749              	.LLST4:
 1750 00d0 00000000 		.4byte	.LFB4
 1751 00d4 02000000 		.4byte	.LCFI11
 1752 00d8 0100     		.2byte	0x1
 1753 00da 5D       		.byte	0x5d
 1754 00db 02000000 		.4byte	.LCFI11
 1755 00df 04000000 		.4byte	.LCFI12
 1756 00e3 0200     		.2byte	0x2
 1757 00e5 7D       		.byte	0x7d
 1758 00e6 08       		.sleb128 8
 1759 00e7 04000000 		.4byte	.LCFI12
 1760 00eb 3E000000 		.4byte	.LFE4
 1761 00ef 0200     		.2byte	0x2
 1762 00f1 77       		.byte	0x77
 1763 00f2 08       		.sleb128 8
ARM GAS  C:\DOCUME~1\akay\LOCALS~1\Temp\ccsadWJD.s 			page 63


 1764 00f3 00000000 		.4byte	0x0
 1765 00f7 00000000 		.4byte	0x0
 1766              	.LLST5:
 1767 00fb 00000000 		.4byte	.LFB5
 1768 00ff 02000000 		.4byte	.LCFI13
 1769 0103 0100     		.2byte	0x1
 1770 0105 5D       		.byte	0x5d
 1771 0106 02000000 		.4byte	.LCFI13
 1772 010a 04000000 		.4byte	.LCFI14
 1773 010e 0200     		.2byte	0x2
 1774 0110 7D       		.byte	0x7d
 1775 0111 08       		.sleb128 8
 1776 0112 04000000 		.4byte	.LCFI14
 1777 0116 06000000 		.4byte	.LCFI15
 1778 011a 0200     		.2byte	0x2
 1779 011c 7D       		.byte	0x7d
 1780 011d 18       		.sleb128 24
 1781 011e 06000000 		.4byte	.LCFI15
 1782 0122 7C000000 		.4byte	.LFE5
 1783 0126 0200     		.2byte	0x2
 1784 0128 77       		.byte	0x77
 1785 0129 18       		.sleb128 24
 1786 012a 00000000 		.4byte	0x0
 1787 012e 00000000 		.4byte	0x0
 1788              	.LLST6:
 1789 0132 00000000 		.4byte	.LFB6
 1790 0136 02000000 		.4byte	.LCFI16
 1791 013a 0100     		.2byte	0x1
 1792 013c 5D       		.byte	0x5d
 1793 013d 02000000 		.4byte	.LCFI16
 1794 0141 04000000 		.4byte	.LCFI17
 1795 0145 0200     		.2byte	0x2
 1796 0147 7D       		.byte	0x7d
 1797 0148 08       		.sleb128 8
 1798 0149 04000000 		.4byte	.LCFI17
 1799 014d 5A000000 		.4byte	.LFE6
 1800 0151 0200     		.2byte	0x2
 1801 0153 77       		.byte	0x77
 1802 0154 08       		.sleb128 8
 1803 0155 00000000 		.4byte	0x0
 1804 0159 00000000 		.4byte	0x0
 1805              	.LLST7:
 1806 015d 00000000 		.4byte	.LFB7
 1807 0161 02000000 		.4byte	.LCFI18
 1808 0165 0100     		.2byte	0x1
 1809 0167 5D       		.byte	0x5d
 1810 0168 02000000 		.4byte	.LCFI18
 1811 016c 04000000 		.4byte	.LCFI19
 1812 0170 0200     		.2byte	0x2
 1813 0172 7D       		.byte	0x7d
 1814 0173 08       		.sleb128 8
 1815 0174 04000000 		.4byte	.LCFI19
 1816 0178 34000000 		.4byte	.LFE7
 1817 017c 0200     		.2byte	0x2
 1818 017e 77       		.byte	0x77
 1819 017f 08       		.sleb128 8
 1820 0180 00000000 		.4byte	0x0
ARM GAS  C:\DOCUME~1\akay\LOCALS~1\Temp\ccsadWJD.s 			page 64


 1821 0184 00000000 		.4byte	0x0
 1822              	.LLST8:
 1823 0188 00000000 		.4byte	.LFB8
 1824 018c 02000000 		.4byte	.LCFI20
 1825 0190 0100     		.2byte	0x1
 1826 0192 5D       		.byte	0x5d
 1827 0193 02000000 		.4byte	.LCFI20
 1828 0197 04000000 		.4byte	.LCFI21
 1829 019b 0200     		.2byte	0x2
 1830 019d 7D       		.byte	0x7d
 1831 019e 08       		.sleb128 8
 1832 019f 04000000 		.4byte	.LCFI21
 1833 01a3 06000000 		.4byte	.LCFI22
 1834 01a7 0200     		.2byte	0x2
 1835 01a9 7D       		.byte	0x7d
 1836 01aa 10       		.sleb128 16
 1837 01ab 06000000 		.4byte	.LCFI22
 1838 01af 08010000 		.4byte	.LFE8
 1839 01b3 0200     		.2byte	0x2
 1840 01b5 77       		.byte	0x77
 1841 01b6 10       		.sleb128 16
 1842 01b7 00000000 		.4byte	0x0
 1843 01bb 00000000 		.4byte	0x0
 1844              	.LLST9:
 1845 01bf 00000000 		.4byte	.LFB9
 1846 01c3 02000000 		.4byte	.LCFI23
 1847 01c7 0100     		.2byte	0x1
 1848 01c9 5D       		.byte	0x5d
 1849 01ca 02000000 		.4byte	.LCFI23
 1850 01ce 04000000 		.4byte	.LCFI24
 1851 01d2 0200     		.2byte	0x2
 1852 01d4 7D       		.byte	0x7d
 1853 01d5 08       		.sleb128 8
 1854 01d6 04000000 		.4byte	.LCFI24
 1855 01da 84000000 		.4byte	.LFE9
 1856 01de 0200     		.2byte	0x2
 1857 01e0 77       		.byte	0x77
 1858 01e1 08       		.sleb128 8
 1859 01e2 00000000 		.4byte	0x0
 1860 01e6 00000000 		.4byte	0x0
 1861              	.LLST10:
 1862 01ea 00000000 		.4byte	.LFB10
 1863 01ee 02000000 		.4byte	.LCFI25
 1864 01f2 0100     		.2byte	0x1
 1865 01f4 5D       		.byte	0x5d
 1866 01f5 02000000 		.4byte	.LCFI25
 1867 01f9 04000000 		.4byte	.LCFI26
 1868 01fd 0200     		.2byte	0x2
 1869 01ff 7D       		.byte	0x7d
 1870 0200 08       		.sleb128 8
 1871 0201 04000000 		.4byte	.LCFI26
 1872 0205 06000000 		.4byte	.LCFI27
 1873 0209 0200     		.2byte	0x2
 1874 020b 7D       		.byte	0x7d
 1875 020c 10       		.sleb128 16
 1876 020d 06000000 		.4byte	.LCFI27
 1877 0211 0A010000 		.4byte	.LFE10
ARM GAS  C:\DOCUME~1\akay\LOCALS~1\Temp\ccsadWJD.s 			page 65


 1878 0215 0200     		.2byte	0x2
 1879 0217 77       		.byte	0x77
 1880 0218 10       		.sleb128 16
 1881 0219 00000000 		.4byte	0x0
 1882 021d 00000000 		.4byte	0x0
 1883              	.LLST11:
 1884 0221 00000000 		.4byte	.LFB11
 1885 0225 02000000 		.4byte	.LCFI28
 1886 0229 0100     		.2byte	0x1
 1887 022b 5D       		.byte	0x5d
 1888 022c 02000000 		.4byte	.LCFI28
 1889 0230 04000000 		.4byte	.LCFI29
 1890 0234 0200     		.2byte	0x2
 1891 0236 7D       		.byte	0x7d
 1892 0237 04       		.sleb128 4
 1893 0238 04000000 		.4byte	.LCFI29
 1894 023c 06000000 		.4byte	.LCFI30
 1895 0240 0200     		.2byte	0x2
 1896 0242 7D       		.byte	0x7d
 1897 0243 10       		.sleb128 16
 1898 0244 06000000 		.4byte	.LCFI30
 1899 0248 52000000 		.4byte	.LFE11
 1900 024c 0200     		.2byte	0x2
 1901 024e 77       		.byte	0x77
 1902 024f 10       		.sleb128 16
 1903 0250 00000000 		.4byte	0x0
 1904 0254 00000000 		.4byte	0x0
 1905              	.LLST12:
 1906 0258 00000000 		.4byte	.LFB12
 1907 025c 02000000 		.4byte	.LCFI31
 1908 0260 0100     		.2byte	0x1
 1909 0262 5D       		.byte	0x5d
 1910 0263 02000000 		.4byte	.LCFI31
 1911 0267 04000000 		.4byte	.LCFI32
 1912 026b 0200     		.2byte	0x2
 1913 026d 7D       		.byte	0x7d
 1914 026e 04       		.sleb128 4
 1915 026f 04000000 		.4byte	.LCFI32
 1916 0273 1E000000 		.4byte	.LFE12
 1917 0277 0200     		.2byte	0x2
 1918 0279 77       		.byte	0x77
 1919 027a 04       		.sleb128 4
 1920 027b 00000000 		.4byte	0x0
 1921 027f 00000000 		.4byte	0x0
 1922              		.file 2 "./Generated_Source/PSoC5/cytypes.h"
 1923              		.file 3 "./Generated_Source/PSoC5/cyPm.h"
 1924              		.section	.debug_info
 1925 0000 3B040000 		.4byte	0x43b
 1926 0004 0200     		.2byte	0x2
 1927 0006 00000000 		.4byte	.Ldebug_abbrev0
 1928 000a 04       		.byte	0x4
 1929 000b 01       		.uleb128 0x1
 1930 000c FE000000 		.4byte	.LASF61
 1931 0010 01       		.byte	0x1
 1932 0011 54020000 		.4byte	.LASF62
 1933 0015 54000000 		.4byte	.LASF63
 1934 0019 00000000 		.4byte	0x0
ARM GAS  C:\DOCUME~1\akay\LOCALS~1\Temp\ccsadWJD.s 			page 66


 1935 001d 00000000 		.4byte	0x0
 1936 0021 00000000 		.4byte	.Ldebug_ranges0+0x0
 1937 0025 00000000 		.4byte	.Ldebug_line0
 1938 0029 02       		.uleb128 0x2
 1939 002a 01       		.byte	0x1
 1940 002b 06       		.byte	0x6
 1941 002c 25010000 		.4byte	.LASF0
 1942 0030 02       		.uleb128 0x2
 1943 0031 01       		.byte	0x1
 1944 0032 08       		.byte	0x8
 1945 0033 AB020000 		.4byte	.LASF1
 1946 0037 02       		.uleb128 0x2
 1947 0038 02       		.byte	0x2
 1948 0039 05       		.byte	0x5
 1949 003a C5020000 		.4byte	.LASF2
 1950 003e 02       		.uleb128 0x2
 1951 003f 02       		.byte	0x2
 1952 0040 07       		.byte	0x7
 1953 0041 D7010000 		.4byte	.LASF3
 1954 0045 02       		.uleb128 0x2
 1955 0046 04       		.byte	0x4
 1956 0047 05       		.byte	0x5
 1957 0048 65010000 		.4byte	.LASF4
 1958 004c 02       		.uleb128 0x2
 1959 004d 04       		.byte	0x4
 1960 004e 07       		.byte	0x7
 1961 004f B5010000 		.4byte	.LASF5
 1962 0053 02       		.uleb128 0x2
 1963 0054 08       		.byte	0x8
 1964 0055 05       		.byte	0x5
 1965 0056 17010000 		.4byte	.LASF6
 1966 005a 02       		.uleb128 0x2
 1967 005b 08       		.byte	0x8
 1968 005c 07       		.byte	0x7
 1969 005d CE000000 		.4byte	.LASF7
 1970 0061 03       		.uleb128 0x3
 1971 0062 04       		.byte	0x4
 1972 0063 05       		.byte	0x5
 1973 0064 696E7400 		.ascii	"int\000"
 1974 0068 02       		.uleb128 0x2
 1975 0069 04       		.byte	0x4
 1976 006a 07       		.byte	0x7
 1977 006b 98010000 		.4byte	.LASF8
 1978 006f 02       		.uleb128 0x2
 1979 0070 01       		.byte	0x1
 1980 0071 08       		.byte	0x8
 1981 0072 0E030000 		.4byte	.LASF9
 1982 0076 04       		.uleb128 0x4
 1983 0077 6E010000 		.4byte	.LASF10
 1984 007b 02       		.byte	0x2
 1985 007c 2A       		.byte	0x2a
 1986 007d 30000000 		.4byte	0x30
 1987 0081 04       		.uleb128 0x4
 1988 0082 00000000 		.4byte	.LASF11
 1989 0086 02       		.byte	0x2
 1990 0087 2B       		.byte	0x2b
 1991 0088 3E000000 		.4byte	0x3e
ARM GAS  C:\DOCUME~1\akay\LOCALS~1\Temp\ccsadWJD.s 			page 67


 1992 008c 04       		.uleb128 0x4
 1993 008d 82030000 		.4byte	.LASF12
 1994 0091 02       		.byte	0x2
 1995 0092 E4       		.byte	0xe4
 1996 0093 4C000000 		.4byte	0x4c
 1997 0097 05       		.uleb128 0x5
 1998 0098 04       		.byte	0x4
 1999 0099 07       		.byte	0x7
 2000 009a 06       		.uleb128 0x6
 2001 009b 07000000 		.4byte	.LASF64
 2002 009f 18       		.byte	0x18
 2003 00a0 03       		.byte	0x3
 2004 00a1 C5       		.byte	0xc5
 2005 00a2 DB010000 		.4byte	0x1db
 2006 00a6 07       		.uleb128 0x7
 2007 00a7 55010000 		.4byte	.LASF13
 2008 00ab 03       		.byte	0x3
 2009 00ac C7       		.byte	0xc7
 2010 00ad 76000000 		.4byte	0x76
 2011 00b1 02       		.byte	0x2
 2012 00b2 23       		.byte	0x23
 2013 00b3 00       		.uleb128 0x0
 2014 00b4 07       		.uleb128 0x7
 2015 00b5 1A020000 		.4byte	.LASF14
 2016 00b9 03       		.byte	0x3
 2017 00ba C8       		.byte	0xc8
 2018 00bb 76000000 		.4byte	0x76
 2019 00bf 02       		.byte	0x2
 2020 00c0 23       		.byte	0x23
 2021 00c1 01       		.uleb128 0x1
 2022 00c2 07       		.uleb128 0x7
 2023 00c3 74010000 		.4byte	.LASF15
 2024 00c7 03       		.byte	0x3
 2025 00c8 C9       		.byte	0xc9
 2026 00c9 76000000 		.4byte	0x76
 2027 00cd 02       		.byte	0x2
 2028 00ce 23       		.byte	0x23
 2029 00cf 02       		.uleb128 0x2
 2030 00d0 07       		.uleb128 0x7
 2031 00d1 19000000 		.4byte	.LASF16
 2032 00d5 03       		.byte	0x3
 2033 00d6 CA       		.byte	0xca
 2034 00d7 76000000 		.4byte	0x76
 2035 00db 02       		.byte	0x2
 2036 00dc 23       		.byte	0x23
 2037 00dd 03       		.uleb128 0x3
 2038 00de 07       		.uleb128 0x7
 2039 00df 81020000 		.4byte	.LASF17
 2040 00e3 03       		.byte	0x3
 2041 00e4 CB       		.byte	0xcb
 2042 00e5 76000000 		.4byte	0x76
 2043 00e9 02       		.byte	0x2
 2044 00ea 23       		.byte	0x23
 2045 00eb 04       		.uleb128 0x4
 2046 00ec 07       		.uleb128 0x7
 2047 00ed F6010000 		.4byte	.LASF18
 2048 00f1 03       		.byte	0x3
ARM GAS  C:\DOCUME~1\akay\LOCALS~1\Temp\ccsadWJD.s 			page 68


 2049 00f2 CC       		.byte	0xcc
 2050 00f3 76000000 		.4byte	0x76
 2051 00f7 02       		.byte	0x2
 2052 00f8 23       		.byte	0x23
 2053 00f9 05       		.uleb128 0x5
 2054 00fa 07       		.uleb128 0x7
 2055 00fb 3B010000 		.4byte	.LASF19
 2056 00ff 03       		.byte	0x3
 2057 0100 CD       		.byte	0xcd
 2058 0101 76000000 		.4byte	0x76
 2059 0105 02       		.byte	0x2
 2060 0106 23       		.byte	0x23
 2061 0107 06       		.uleb128 0x6
 2062 0108 07       		.uleb128 0x7
 2063 0109 5F010000 		.4byte	.LASF20
 2064 010d 03       		.byte	0x3
 2065 010e CE       		.byte	0xce
 2066 010f 76000000 		.4byte	0x76
 2067 0113 02       		.byte	0x2
 2068 0114 23       		.byte	0x23
 2069 0115 07       		.uleb128 0x7
 2070 0116 07       		.uleb128 0x7
 2071 0117 B2030000 		.4byte	.LASF21
 2072 011b 03       		.byte	0x3
 2073 011c CF       		.byte	0xcf
 2074 011d 76000000 		.4byte	0x76
 2075 0121 02       		.byte	0x2
 2076 0122 23       		.byte	0x23
 2077 0123 08       		.uleb128 0x8
 2078 0124 07       		.uleb128 0x7
 2079 0125 31010000 		.4byte	.LASF22
 2080 0129 03       		.byte	0x3
 2081 012a D0       		.byte	0xd0
 2082 012b 81000000 		.4byte	0x81
 2083 012f 02       		.byte	0x2
 2084 0130 23       		.byte	0x23
 2085 0131 0A       		.uleb128 0xa
 2086 0132 07       		.uleb128 0x7
 2087 0133 8B020000 		.4byte	.LASF23
 2088 0137 03       		.byte	0x3
 2089 0138 D1       		.byte	0xd1
 2090 0139 76000000 		.4byte	0x76
 2091 013d 02       		.byte	0x2
 2092 013e 23       		.byte	0x23
 2093 013f 0C       		.uleb128 0xc
 2094 0140 07       		.uleb128 0x7
 2095 0141 97030000 		.4byte	.LASF24
 2096 0145 03       		.byte	0x3
 2097 0146 D2       		.byte	0xd2
 2098 0147 76000000 		.4byte	0x76
 2099 014b 02       		.byte	0x2
 2100 014c 23       		.byte	0x23
 2101 014d 0D       		.uleb128 0xd
 2102 014e 07       		.uleb128 0x7
 2103 014f 0A010000 		.4byte	.LASF25
 2104 0153 03       		.byte	0x3
 2105 0154 D4       		.byte	0xd4
ARM GAS  C:\DOCUME~1\akay\LOCALS~1\Temp\ccsadWJD.s 			page 69


 2106 0155 76000000 		.4byte	0x76
 2107 0159 02       		.byte	0x2
 2108 015a 23       		.byte	0x23
 2109 015b 0E       		.uleb128 0xe
 2110 015c 07       		.uleb128 0x7
 2111 015d B9020000 		.4byte	.LASF26
 2112 0161 03       		.byte	0x3
 2113 0162 D5       		.byte	0xd5
 2114 0163 76000000 		.4byte	0x76
 2115 0167 02       		.byte	0x2
 2116 0168 23       		.byte	0x23
 2117 0169 0F       		.uleb128 0xf
 2118 016a 07       		.uleb128 0x7
 2119 016b E1020000 		.4byte	.LASF27
 2120 016f 03       		.byte	0x3
 2121 0170 D6       		.byte	0xd6
 2122 0171 76000000 		.4byte	0x76
 2123 0175 02       		.byte	0x2
 2124 0176 23       		.byte	0x23
 2125 0177 10       		.uleb128 0x10
 2126 0178 07       		.uleb128 0x7
 2127 0179 3C020000 		.4byte	.LASF28
 2128 017d 03       		.byte	0x3
 2129 017e D8       		.byte	0xd8
 2130 017f 76000000 		.4byte	0x76
 2131 0183 02       		.byte	0x2
 2132 0184 23       		.byte	0x23
 2133 0185 11       		.uleb128 0x11
 2134 0186 07       		.uleb128 0x7
 2135 0187 43020000 		.4byte	.LASF29
 2136 018b 03       		.byte	0x3
 2137 018c D9       		.byte	0xd9
 2138 018d 76000000 		.4byte	0x76
 2139 0191 02       		.byte	0x2
 2140 0192 23       		.byte	0x23
 2141 0193 12       		.uleb128 0x12
 2142 0194 07       		.uleb128 0x7
 2143 0195 EF020000 		.4byte	.LASF30
 2144 0199 03       		.byte	0x3
 2145 019a DB       		.byte	0xdb
 2146 019b 76000000 		.4byte	0x76
 2147 019f 02       		.byte	0x2
 2148 01a0 23       		.byte	0x23
 2149 01a1 13       		.uleb128 0x13
 2150 01a2 07       		.uleb128 0x7
 2151 01a3 0F020000 		.4byte	.LASF31
 2152 01a7 03       		.byte	0x3
 2153 01a8 DC       		.byte	0xdc
 2154 01a9 76000000 		.4byte	0x76
 2155 01ad 02       		.byte	0x2
 2156 01ae 23       		.byte	0x23
 2157 01af 14       		.uleb128 0x14
 2158 01b0 07       		.uleb128 0x7
 2159 01b1 8B030000 		.4byte	.LASF32
 2160 01b5 03       		.byte	0x3
 2161 01b6 DD       		.byte	0xdd
 2162 01b7 76000000 		.4byte	0x76
ARM GAS  C:\DOCUME~1\akay\LOCALS~1\Temp\ccsadWJD.s 			page 70


 2163 01bb 02       		.byte	0x2
 2164 01bc 23       		.byte	0x23
 2165 01bd 15       		.uleb128 0x15
 2166 01be 07       		.uleb128 0x7
 2167 01bf A5010000 		.4byte	.LASF33
 2168 01c3 03       		.byte	0x3
 2169 01c4 DF       		.byte	0xdf
 2170 01c5 76000000 		.4byte	0x76
 2171 01c9 02       		.byte	0x2
 2172 01ca 23       		.byte	0x23
 2173 01cb 16       		.uleb128 0x16
 2174 01cc 07       		.uleb128 0x7
 2175 01cd 26000000 		.4byte	.LASF34
 2176 01d1 03       		.byte	0x3
 2177 01d2 E1       		.byte	0xe1
 2178 01d3 76000000 		.4byte	0x76
 2179 01d7 02       		.byte	0x2
 2180 01d8 23       		.byte	0x23
 2181 01d9 17       		.uleb128 0x17
 2182 01da 00       		.byte	0x0
 2183 01db 08       		.uleb128 0x8
 2184 01dc 31000000 		.4byte	.LASF35
 2185 01e0 03       		.byte	0x3
 2186 01e1 0001     		.2byte	0x100
 2187 01e3 9A000000 		.4byte	0x9a
 2188 01e7 09       		.uleb128 0x9
 2189 01e8 01       		.byte	0x1
 2190 01e9 45000000 		.4byte	.LASF42
 2191 01ed 01       		.byte	0x1
 2192 01ee 48       		.byte	0x48
 2193 01ef 01       		.byte	0x1
 2194 01f0 00000000 		.4byte	.LFB0
 2195 01f4 48030000 		.4byte	.LFE0
 2196 01f8 00000000 		.4byte	.LLST0
 2197 01fc 0A       		.uleb128 0xa
 2198 01fd 01       		.byte	0x1
 2199 01fe FC020000 		.4byte	.LASF37
 2200 0202 01       		.byte	0x1
 2201 0203 1201     		.2byte	0x112
 2202 0205 01       		.byte	0x1
 2203 0206 00000000 		.4byte	.LFB1
 2204 020a E8020000 		.4byte	.LFE1
 2205 020e 2B000000 		.4byte	.LLST1
 2206 0212 33020000 		.4byte	0x233
 2207 0216 0B       		.uleb128 0xb
 2208 0217 61030000 		.4byte	.LASF36
 2209 021b 01       		.byte	0x1
 2210 021c 1401     		.2byte	0x114
 2211 021e 8C000000 		.4byte	0x8c
 2212 0222 02       		.byte	0x2
 2213 0223 91       		.byte	0x91
 2214 0224 70       		.sleb128 -16
 2215 0225 0C       		.uleb128 0xc
 2216 0226 6900     		.ascii	"i\000"
 2217 0228 01       		.byte	0x1
 2218 0229 1501     		.2byte	0x115
 2219 022b 76000000 		.4byte	0x76
ARM GAS  C:\DOCUME~1\akay\LOCALS~1\Temp\ccsadWJD.s 			page 71


 2220 022f 02       		.byte	0x2
 2221 0230 91       		.byte	0x91
 2222 0231 77       		.sleb128 -9
 2223 0232 00       		.byte	0x0
 2224 0233 0A       		.uleb128 0xa
 2225 0234 01       		.byte	0x1
 2226 0235 A0020000 		.4byte	.LASF38
 2227 0239 01       		.byte	0x1
 2228 023a 2E02     		.2byte	0x22e
 2229 023c 01       		.byte	0x1
 2230 023d 00000000 		.4byte	.LFB2
 2231 0241 C4000000 		.4byte	.LFE2
 2232 0245 62000000 		.4byte	.LLST2
 2233 0249 6C020000 		.4byte	0x26c
 2234 024d 0D       		.uleb128 0xd
 2235 024e 77030000 		.4byte	.LASF39
 2236 0252 01       		.byte	0x1
 2237 0253 2E02     		.2byte	0x22e
 2238 0255 81000000 		.4byte	0x81
 2239 0259 02       		.byte	0x2
 2240 025a 91       		.byte	0x91
 2241 025b 76       		.sleb128 -10
 2242 025c 0D       		.uleb128 0xd
 2243 025d 74020000 		.4byte	.LASF40
 2244 0261 01       		.byte	0x1
 2245 0262 2E02     		.2byte	0x22e
 2246 0264 81000000 		.4byte	0x81
 2247 0268 02       		.byte	0x2
 2248 0269 91       		.byte	0x91
 2249 026a 74       		.sleb128 -12
 2250 026b 00       		.byte	0x0
 2251 026c 0A       		.uleb128 0xa
 2252 026d 01       		.byte	0x1
 2253 026e 96020000 		.4byte	.LASF41
 2254 0272 01       		.byte	0x1
 2255 0273 1F03     		.2byte	0x31f
 2256 0275 01       		.byte	0x1
 2257 0276 00000000 		.4byte	.LFB3
 2258 027a B0000000 		.4byte	.LFE3
 2259 027e 99000000 		.4byte	.LLST3
 2260 0282 A5020000 		.4byte	0x2a5
 2261 0286 0D       		.uleb128 0xd
 2262 0287 77030000 		.4byte	.LASF39
 2263 028b 01       		.byte	0x1
 2264 028c 1F03     		.2byte	0x31f
 2265 028e 76000000 		.4byte	0x76
 2266 0292 02       		.byte	0x2
 2267 0293 91       		.byte	0x91
 2268 0294 77       		.sleb128 -9
 2269 0295 0D       		.uleb128 0xd
 2270 0296 74020000 		.4byte	.LASF40
 2271 029a 01       		.byte	0x1
 2272 029b 1F03     		.2byte	0x31f
 2273 029d 81000000 		.4byte	0x81
 2274 02a1 02       		.byte	0x2
 2275 02a2 91       		.byte	0x91
 2276 02a3 74       		.sleb128 -12
ARM GAS  C:\DOCUME~1\akay\LOCALS~1\Temp\ccsadWJD.s 			page 72


 2277 02a4 00       		.byte	0x0
 2278 02a5 0E       		.uleb128 0xe
 2279 02a6 01       		.byte	0x1
 2280 02a7 13030000 		.4byte	.LASF43
 2281 02ab 01       		.byte	0x1
 2282 02ac CF03     		.2byte	0x3cf
 2283 02ae 01       		.byte	0x1
 2284 02af 00000000 		.4byte	.LFB4
 2285 02b3 3E000000 		.4byte	.LFE4
 2286 02b7 D0000000 		.4byte	.LLST4
 2287 02bb 0F       		.uleb128 0xf
 2288 02bc 01       		.byte	0x1
 2289 02bd 40030000 		.4byte	.LASF65
 2290 02c1 01       		.byte	0x1
 2291 02c2 5C04     		.2byte	0x45c
 2292 02c4 01       		.byte	0x1
 2293 02c5 76000000 		.4byte	0x76
 2294 02c9 00000000 		.4byte	.LFB5
 2295 02cd 7C000000 		.4byte	.LFE5
 2296 02d1 FB000000 		.4byte	.LLST5
 2297 02d5 19030000 		.4byte	0x319
 2298 02d9 0D       		.uleb128 0xd
 2299 02da 93010000 		.4byte	.LASF44
 2300 02de 01       		.byte	0x1
 2301 02df 5C04     		.2byte	0x45c
 2302 02e1 76000000 		.4byte	0x76
 2303 02e5 02       		.byte	0x2
 2304 02e6 91       		.byte	0x91
 2305 02e7 6F       		.sleb128 -17
 2306 02e8 0B       		.uleb128 0xb
 2307 02e9 BC030000 		.4byte	.LASF45
 2308 02ed 01       		.byte	0x1
 2309 02ee 5E04     		.2byte	0x45e
 2310 02f0 76000000 		.4byte	0x76
 2311 02f4 05       		.byte	0x5
 2312 02f5 03       		.byte	0x3
 2313 02f6 18000000 		.4byte	interruptStatus.2238
 2314 02fa 0B       		.uleb128 0xb
 2315 02fb 46010000 		.4byte	.LASF46
 2316 02ff 01       		.byte	0x1
 2317 0300 5F04     		.2byte	0x45f
 2318 0302 76000000 		.4byte	0x76
 2319 0306 02       		.byte	0x2
 2320 0307 91       		.byte	0x91
 2321 0308 76       		.sleb128 -10
 2322 0309 0B       		.uleb128 0xb
 2323 030a E5000000 		.4byte	.LASF47
 2324 030e 01       		.byte	0x1
 2325 030f 6004     		.2byte	0x460
 2326 0311 76000000 		.4byte	0x76
 2327 0315 02       		.byte	0x2
 2328 0316 91       		.byte	0x91
 2329 0317 77       		.sleb128 -9
 2330 0318 00       		.byte	0x0
 2331 0319 0E       		.uleb128 0xe
 2332 031a 01       		.byte	0x1
 2333 031b 68030000 		.4byte	.LASF48
ARM GAS  C:\DOCUME~1\akay\LOCALS~1\Temp\ccsadWJD.s 			page 73


 2334 031f 01       		.byte	0x1
 2335 0320 8704     		.2byte	0x487
 2336 0322 01       		.byte	0x1
 2337 0323 00000000 		.4byte	.LFB6
 2338 0327 5A000000 		.4byte	.LFE6
 2339 032b 32010000 		.4byte	.LLST6
 2340 032f 0E       		.uleb128 0xe
 2341 0330 01       		.byte	0x1
 2342 0331 84010000 		.4byte	.LASF49
 2343 0335 01       		.byte	0x1
 2344 0336 EB04     		.2byte	0x4eb
 2345 0338 01       		.byte	0x1
 2346 0339 00000000 		.4byte	.LFB7
 2347 033d 34000000 		.4byte	.LFE7
 2348 0341 5D010000 		.4byte	.LLST7
 2349 0345 0A       		.uleb128 0xa
 2350 0346 01       		.byte	0x1
 2351 0347 00020000 		.4byte	.LASF50
 2352 034b 01       		.byte	0x1
 2353 034c 3E05     		.2byte	0x53e
 2354 034e 01       		.byte	0x1
 2355 034f 00000000 		.4byte	.LFB8
 2356 0353 08010000 		.4byte	.LFE8
 2357 0357 88010000 		.4byte	.LLST8
 2358 035b 6F030000 		.4byte	0x36f
 2359 035f 0D       		.uleb128 0xd
 2360 0360 EA010000 		.4byte	.LASF51
 2361 0364 01       		.byte	0x1
 2362 0365 3E05     		.2byte	0x53e
 2363 0367 76000000 		.4byte	0x76
 2364 036b 02       		.byte	0x2
 2365 036c 91       		.byte	0x91
 2366 036d 77       		.sleb128 -9
 2367 036e 00       		.byte	0x0
 2368 036f 0E       		.uleb128 0xe
 2369 0370 01       		.byte	0x1
 2370 0371 C7010000 		.4byte	.LASF52
 2371 0375 01       		.byte	0x1
 2372 0376 8305     		.2byte	0x583
 2373 0378 01       		.byte	0x1
 2374 0379 00000000 		.4byte	.LFB9
 2375 037d 84000000 		.4byte	.LFE9
 2376 0381 BF010000 		.4byte	.LLST9
 2377 0385 0A       		.uleb128 0xa
 2378 0386 01       		.byte	0x1
 2379 0387 EF000000 		.4byte	.LASF53
 2380 038b 01       		.byte	0x1
 2381 038c B605     		.2byte	0x5b6
 2382 038e 01       		.byte	0x1
 2383 038f 00000000 		.4byte	.LFB10
 2384 0393 0A010000 		.4byte	.LFE10
 2385 0397 EA010000 		.4byte	.LLST10
 2386 039b AF030000 		.4byte	0x3af
 2387 039f 0D       		.uleb128 0xd
 2388 03a0 21030000 		.4byte	.LASF54
 2389 03a4 01       		.byte	0x1
 2390 03a5 B605     		.2byte	0x5b6
ARM GAS  C:\DOCUME~1\akay\LOCALS~1\Temp\ccsadWJD.s 			page 74


 2391 03a7 76000000 		.4byte	0x76
 2392 03ab 02       		.byte	0x2
 2393 03ac 91       		.byte	0x91
 2394 03ad 77       		.sleb128 -9
 2395 03ae 00       		.byte	0x0
 2396 03af 0A       		.uleb128 0xa
 2397 03b0 01       		.byte	0x1
 2398 03b1 CF020000 		.4byte	.LASF55
 2399 03b5 01       		.byte	0x1
 2400 03b6 0306     		.2byte	0x603
 2401 03b8 01       		.byte	0x1
 2402 03b9 00000000 		.4byte	.LFB11
 2403 03bd 52000000 		.4byte	.LFE11
 2404 03c1 21020000 		.4byte	.LLST11
 2405 03c5 D9030000 		.4byte	0x3d9
 2406 03c9 0D       		.uleb128 0xd
 2407 03ca 4A020000 		.4byte	.LASF56
 2408 03ce 01       		.byte	0x1
 2409 03cf 0306     		.2byte	0x603
 2410 03d1 76000000 		.4byte	0x76
 2411 03d5 02       		.byte	0x2
 2412 03d6 91       		.byte	0x91
 2413 03d7 77       		.sleb128 -9
 2414 03d8 00       		.byte	0x0
 2415 03d9 0E       		.uleb128 0xe
 2416 03da 01       		.byte	0x1
 2417 03db 4F030000 		.4byte	.LASF57
 2418 03df 01       		.byte	0x1
 2419 03e0 A606     		.2byte	0x6a6
 2420 03e2 01       		.byte	0x1
 2421 03e3 00000000 		.4byte	.LFB12
 2422 03e7 1E000000 		.4byte	.LFE12
 2423 03eb 58020000 		.4byte	.LLST12
 2424 03ef 10       		.uleb128 0x10
 2425 03f0 A7030000 		.4byte	.LASF58
 2426 03f4 01       		.byte	0x1
 2427 03f5 15       		.byte	0x15
 2428 03f6 DB010000 		.4byte	0x1db
 2429 03fa 05       		.byte	0x5
 2430 03fb 03       		.byte	0x3
 2431 03fc 00000000 		.4byte	cyPmBackup
 2432 0400 11       		.uleb128 0x11
 2433 0401 76000000 		.4byte	0x76
 2434 0405 10040000 		.4byte	0x410
 2435 0409 12       		.uleb128 0x12
 2436 040a 97000000 		.4byte	0x97
 2437 040e 06       		.byte	0x6
 2438 040f 00       		.byte	0x0
 2439 0410 13       		.uleb128 0x13
 2440 0411 29020000 		.4byte	.LASF59
 2441 0415 01       		.byte	0x1
 2442 0416 18       		.byte	0x18
 2443 0417 22040000 		.4byte	0x422
 2444 041b 01       		.byte	0x1
 2445 041c 05       		.byte	0x5
 2446 041d 03       		.byte	0x3
 2447 041e 00000000 		.4byte	cyPmImoFreqMhz2Reg
ARM GAS  C:\DOCUME~1\akay\LOCALS~1\Temp\ccsadWJD.s 			page 75


 2448 0422 14       		.uleb128 0x14
 2449 0423 00040000 		.4byte	0x400
 2450 0427 13       		.uleb128 0x13
 2451 0428 2D030000 		.4byte	.LASF60
 2452 042c 01       		.byte	0x1
 2453 042d 1D       		.byte	0x1d
 2454 042e 39040000 		.4byte	0x439
 2455 0432 01       		.byte	0x1
 2456 0433 05       		.byte	0x5
 2457 0434 03       		.byte	0x3
 2458 0435 00000000 		.4byte	cyPmImoFreqReg2Mhz
 2459 0439 14       		.uleb128 0x14
 2460 043a 00040000 		.4byte	0x400
 2461 043e 00       		.byte	0x0
 2462              		.section	.debug_abbrev
 2463 0000 01       		.uleb128 0x1
 2464 0001 11       		.uleb128 0x11
 2465 0002 01       		.byte	0x1
 2466 0003 25       		.uleb128 0x25
 2467 0004 0E       		.uleb128 0xe
 2468 0005 13       		.uleb128 0x13
 2469 0006 0B       		.uleb128 0xb
 2470 0007 03       		.uleb128 0x3
 2471 0008 0E       		.uleb128 0xe
 2472 0009 1B       		.uleb128 0x1b
 2473 000a 0E       		.uleb128 0xe
 2474 000b 11       		.uleb128 0x11
 2475 000c 01       		.uleb128 0x1
 2476 000d 52       		.uleb128 0x52
 2477 000e 01       		.uleb128 0x1
 2478 000f 55       		.uleb128 0x55
 2479 0010 06       		.uleb128 0x6
 2480 0011 10       		.uleb128 0x10
 2481 0012 06       		.uleb128 0x6
 2482 0013 00       		.byte	0x0
 2483 0014 00       		.byte	0x0
 2484 0015 02       		.uleb128 0x2
 2485 0016 24       		.uleb128 0x24
 2486 0017 00       		.byte	0x0
 2487 0018 0B       		.uleb128 0xb
 2488 0019 0B       		.uleb128 0xb
 2489 001a 3E       		.uleb128 0x3e
 2490 001b 0B       		.uleb128 0xb
 2491 001c 03       		.uleb128 0x3
 2492 001d 0E       		.uleb128 0xe
 2493 001e 00       		.byte	0x0
 2494 001f 00       		.byte	0x0
 2495 0020 03       		.uleb128 0x3
 2496 0021 24       		.uleb128 0x24
 2497 0022 00       		.byte	0x0
 2498 0023 0B       		.uleb128 0xb
 2499 0024 0B       		.uleb128 0xb
 2500 0025 3E       		.uleb128 0x3e
 2501 0026 0B       		.uleb128 0xb
 2502 0027 03       		.uleb128 0x3
 2503 0028 08       		.uleb128 0x8
 2504 0029 00       		.byte	0x0
ARM GAS  C:\DOCUME~1\akay\LOCALS~1\Temp\ccsadWJD.s 			page 76


 2505 002a 00       		.byte	0x0
 2506 002b 04       		.uleb128 0x4
 2507 002c 16       		.uleb128 0x16
 2508 002d 00       		.byte	0x0
 2509 002e 03       		.uleb128 0x3
 2510 002f 0E       		.uleb128 0xe
 2511 0030 3A       		.uleb128 0x3a
 2512 0031 0B       		.uleb128 0xb
 2513 0032 3B       		.uleb128 0x3b
 2514 0033 0B       		.uleb128 0xb
 2515 0034 49       		.uleb128 0x49
 2516 0035 13       		.uleb128 0x13
 2517 0036 00       		.byte	0x0
 2518 0037 00       		.byte	0x0
 2519 0038 05       		.uleb128 0x5
 2520 0039 24       		.uleb128 0x24
 2521 003a 00       		.byte	0x0
 2522 003b 0B       		.uleb128 0xb
 2523 003c 0B       		.uleb128 0xb
 2524 003d 3E       		.uleb128 0x3e
 2525 003e 0B       		.uleb128 0xb
 2526 003f 00       		.byte	0x0
 2527 0040 00       		.byte	0x0
 2528 0041 06       		.uleb128 0x6
 2529 0042 13       		.uleb128 0x13
 2530 0043 01       		.byte	0x1
 2531 0044 03       		.uleb128 0x3
 2532 0045 0E       		.uleb128 0xe
 2533 0046 0B       		.uleb128 0xb
 2534 0047 0B       		.uleb128 0xb
 2535 0048 3A       		.uleb128 0x3a
 2536 0049 0B       		.uleb128 0xb
 2537 004a 3B       		.uleb128 0x3b
 2538 004b 0B       		.uleb128 0xb
 2539 004c 01       		.uleb128 0x1
 2540 004d 13       		.uleb128 0x13
 2541 004e 00       		.byte	0x0
 2542 004f 00       		.byte	0x0
 2543 0050 07       		.uleb128 0x7
 2544 0051 0D       		.uleb128 0xd
 2545 0052 00       		.byte	0x0
 2546 0053 03       		.uleb128 0x3
 2547 0054 0E       		.uleb128 0xe
 2548 0055 3A       		.uleb128 0x3a
 2549 0056 0B       		.uleb128 0xb
 2550 0057 3B       		.uleb128 0x3b
 2551 0058 0B       		.uleb128 0xb
 2552 0059 49       		.uleb128 0x49
 2553 005a 13       		.uleb128 0x13
 2554 005b 38       		.uleb128 0x38
 2555 005c 0A       		.uleb128 0xa
 2556 005d 00       		.byte	0x0
 2557 005e 00       		.byte	0x0
 2558 005f 08       		.uleb128 0x8
 2559 0060 16       		.uleb128 0x16
 2560 0061 00       		.byte	0x0
 2561 0062 03       		.uleb128 0x3
ARM GAS  C:\DOCUME~1\akay\LOCALS~1\Temp\ccsadWJD.s 			page 77


 2562 0063 0E       		.uleb128 0xe
 2563 0064 3A       		.uleb128 0x3a
 2564 0065 0B       		.uleb128 0xb
 2565 0066 3B       		.uleb128 0x3b
 2566 0067 05       		.uleb128 0x5
 2567 0068 49       		.uleb128 0x49
 2568 0069 13       		.uleb128 0x13
 2569 006a 00       		.byte	0x0
 2570 006b 00       		.byte	0x0
 2571 006c 09       		.uleb128 0x9
 2572 006d 2E       		.uleb128 0x2e
 2573 006e 00       		.byte	0x0
 2574 006f 3F       		.uleb128 0x3f
 2575 0070 0C       		.uleb128 0xc
 2576 0071 03       		.uleb128 0x3
 2577 0072 0E       		.uleb128 0xe
 2578 0073 3A       		.uleb128 0x3a
 2579 0074 0B       		.uleb128 0xb
 2580 0075 3B       		.uleb128 0x3b
 2581 0076 0B       		.uleb128 0xb
 2582 0077 27       		.uleb128 0x27
 2583 0078 0C       		.uleb128 0xc
 2584 0079 11       		.uleb128 0x11
 2585 007a 01       		.uleb128 0x1
 2586 007b 12       		.uleb128 0x12
 2587 007c 01       		.uleb128 0x1
 2588 007d 40       		.uleb128 0x40
 2589 007e 06       		.uleb128 0x6
 2590 007f 00       		.byte	0x0
 2591 0080 00       		.byte	0x0
 2592 0081 0A       		.uleb128 0xa
 2593 0082 2E       		.uleb128 0x2e
 2594 0083 01       		.byte	0x1
 2595 0084 3F       		.uleb128 0x3f
 2596 0085 0C       		.uleb128 0xc
 2597 0086 03       		.uleb128 0x3
 2598 0087 0E       		.uleb128 0xe
 2599 0088 3A       		.uleb128 0x3a
 2600 0089 0B       		.uleb128 0xb
 2601 008a 3B       		.uleb128 0x3b
 2602 008b 05       		.uleb128 0x5
 2603 008c 27       		.uleb128 0x27
 2604 008d 0C       		.uleb128 0xc
 2605 008e 11       		.uleb128 0x11
 2606 008f 01       		.uleb128 0x1
 2607 0090 12       		.uleb128 0x12
 2608 0091 01       		.uleb128 0x1
 2609 0092 40       		.uleb128 0x40
 2610 0093 06       		.uleb128 0x6
 2611 0094 01       		.uleb128 0x1
 2612 0095 13       		.uleb128 0x13
 2613 0096 00       		.byte	0x0
 2614 0097 00       		.byte	0x0
 2615 0098 0B       		.uleb128 0xb
 2616 0099 34       		.uleb128 0x34
 2617 009a 00       		.byte	0x0
 2618 009b 03       		.uleb128 0x3
ARM GAS  C:\DOCUME~1\akay\LOCALS~1\Temp\ccsadWJD.s 			page 78


 2619 009c 0E       		.uleb128 0xe
 2620 009d 3A       		.uleb128 0x3a
 2621 009e 0B       		.uleb128 0xb
 2622 009f 3B       		.uleb128 0x3b
 2623 00a0 05       		.uleb128 0x5
 2624 00a1 49       		.uleb128 0x49
 2625 00a2 13       		.uleb128 0x13
 2626 00a3 02       		.uleb128 0x2
 2627 00a4 0A       		.uleb128 0xa
 2628 00a5 00       		.byte	0x0
 2629 00a6 00       		.byte	0x0
 2630 00a7 0C       		.uleb128 0xc
 2631 00a8 34       		.uleb128 0x34
 2632 00a9 00       		.byte	0x0
 2633 00aa 03       		.uleb128 0x3
 2634 00ab 08       		.uleb128 0x8
 2635 00ac 3A       		.uleb128 0x3a
 2636 00ad 0B       		.uleb128 0xb
 2637 00ae 3B       		.uleb128 0x3b
 2638 00af 05       		.uleb128 0x5
 2639 00b0 49       		.uleb128 0x49
 2640 00b1 13       		.uleb128 0x13
 2641 00b2 02       		.uleb128 0x2
 2642 00b3 0A       		.uleb128 0xa
 2643 00b4 00       		.byte	0x0
 2644 00b5 00       		.byte	0x0
 2645 00b6 0D       		.uleb128 0xd
 2646 00b7 05       		.uleb128 0x5
 2647 00b8 00       		.byte	0x0
 2648 00b9 03       		.uleb128 0x3
 2649 00ba 0E       		.uleb128 0xe
 2650 00bb 3A       		.uleb128 0x3a
 2651 00bc 0B       		.uleb128 0xb
 2652 00bd 3B       		.uleb128 0x3b
 2653 00be 05       		.uleb128 0x5
 2654 00bf 49       		.uleb128 0x49
 2655 00c0 13       		.uleb128 0x13
 2656 00c1 02       		.uleb128 0x2
 2657 00c2 0A       		.uleb128 0xa
 2658 00c3 00       		.byte	0x0
 2659 00c4 00       		.byte	0x0
 2660 00c5 0E       		.uleb128 0xe
 2661 00c6 2E       		.uleb128 0x2e
 2662 00c7 00       		.byte	0x0
 2663 00c8 3F       		.uleb128 0x3f
 2664 00c9 0C       		.uleb128 0xc
 2665 00ca 03       		.uleb128 0x3
 2666 00cb 0E       		.uleb128 0xe
 2667 00cc 3A       		.uleb128 0x3a
 2668 00cd 0B       		.uleb128 0xb
 2669 00ce 3B       		.uleb128 0x3b
 2670 00cf 05       		.uleb128 0x5
 2671 00d0 27       		.uleb128 0x27
 2672 00d1 0C       		.uleb128 0xc
 2673 00d2 11       		.uleb128 0x11
 2674 00d3 01       		.uleb128 0x1
 2675 00d4 12       		.uleb128 0x12
ARM GAS  C:\DOCUME~1\akay\LOCALS~1\Temp\ccsadWJD.s 			page 79


 2676 00d5 01       		.uleb128 0x1
 2677 00d6 40       		.uleb128 0x40
 2678 00d7 06       		.uleb128 0x6
 2679 00d8 00       		.byte	0x0
 2680 00d9 00       		.byte	0x0
 2681 00da 0F       		.uleb128 0xf
 2682 00db 2E       		.uleb128 0x2e
 2683 00dc 01       		.byte	0x1
 2684 00dd 3F       		.uleb128 0x3f
 2685 00de 0C       		.uleb128 0xc
 2686 00df 03       		.uleb128 0x3
 2687 00e0 0E       		.uleb128 0xe
 2688 00e1 3A       		.uleb128 0x3a
 2689 00e2 0B       		.uleb128 0xb
 2690 00e3 3B       		.uleb128 0x3b
 2691 00e4 05       		.uleb128 0x5
 2692 00e5 27       		.uleb128 0x27
 2693 00e6 0C       		.uleb128 0xc
 2694 00e7 49       		.uleb128 0x49
 2695 00e8 13       		.uleb128 0x13
 2696 00e9 11       		.uleb128 0x11
 2697 00ea 01       		.uleb128 0x1
 2698 00eb 12       		.uleb128 0x12
 2699 00ec 01       		.uleb128 0x1
 2700 00ed 40       		.uleb128 0x40
 2701 00ee 06       		.uleb128 0x6
 2702 00ef 01       		.uleb128 0x1
 2703 00f0 13       		.uleb128 0x13
 2704 00f1 00       		.byte	0x0
 2705 00f2 00       		.byte	0x0
 2706 00f3 10       		.uleb128 0x10
 2707 00f4 34       		.uleb128 0x34
 2708 00f5 00       		.byte	0x0
 2709 00f6 03       		.uleb128 0x3
 2710 00f7 0E       		.uleb128 0xe
 2711 00f8 3A       		.uleb128 0x3a
 2712 00f9 0B       		.uleb128 0xb
 2713 00fa 3B       		.uleb128 0x3b
 2714 00fb 0B       		.uleb128 0xb
 2715 00fc 49       		.uleb128 0x49
 2716 00fd 13       		.uleb128 0x13
 2717 00fe 02       		.uleb128 0x2
 2718 00ff 0A       		.uleb128 0xa
 2719 0100 00       		.byte	0x0
 2720 0101 00       		.byte	0x0
 2721 0102 11       		.uleb128 0x11
 2722 0103 01       		.uleb128 0x1
 2723 0104 01       		.byte	0x1
 2724 0105 49       		.uleb128 0x49
 2725 0106 13       		.uleb128 0x13
 2726 0107 01       		.uleb128 0x1
 2727 0108 13       		.uleb128 0x13
 2728 0109 00       		.byte	0x0
 2729 010a 00       		.byte	0x0
 2730 010b 12       		.uleb128 0x12
 2731 010c 21       		.uleb128 0x21
 2732 010d 00       		.byte	0x0
ARM GAS  C:\DOCUME~1\akay\LOCALS~1\Temp\ccsadWJD.s 			page 80


 2733 010e 49       		.uleb128 0x49
 2734 010f 13       		.uleb128 0x13
 2735 0110 2F       		.uleb128 0x2f
 2736 0111 0B       		.uleb128 0xb
 2737 0112 00       		.byte	0x0
 2738 0113 00       		.byte	0x0
 2739 0114 13       		.uleb128 0x13
 2740 0115 34       		.uleb128 0x34
 2741 0116 00       		.byte	0x0
 2742 0117 03       		.uleb128 0x3
 2743 0118 0E       		.uleb128 0xe
 2744 0119 3A       		.uleb128 0x3a
 2745 011a 0B       		.uleb128 0xb
 2746 011b 3B       		.uleb128 0x3b
 2747 011c 0B       		.uleb128 0xb
 2748 011d 49       		.uleb128 0x49
 2749 011e 13       		.uleb128 0x13
 2750 011f 3F       		.uleb128 0x3f
 2751 0120 0C       		.uleb128 0xc
 2752 0121 02       		.uleb128 0x2
 2753 0122 0A       		.uleb128 0xa
 2754 0123 00       		.byte	0x0
 2755 0124 00       		.byte	0x0
 2756 0125 14       		.uleb128 0x14
 2757 0126 26       		.uleb128 0x26
 2758 0127 00       		.byte	0x0
 2759 0128 49       		.uleb128 0x49
 2760 0129 13       		.uleb128 0x13
 2761 012a 00       		.byte	0x0
 2762 012b 00       		.byte	0x0
 2763 012c 00       		.byte	0x0
 2764              		.section	.debug_pubnames,"",%progbits
 2765 0000 33010000 		.4byte	0x133
 2766 0004 0200     		.2byte	0x2
 2767 0006 00000000 		.4byte	.Ldebug_info0
 2768 000a 3F040000 		.4byte	0x43f
 2769 000e E7010000 		.4byte	0x1e7
 2770 0012 4379506D 		.ascii	"CyPmSaveClocks\000"
 2770      53617665 
 2770      436C6F63 
 2770      6B7300
 2771 0021 FC010000 		.4byte	0x1fc
 2772 0025 4379506D 		.ascii	"CyPmRestoreClocks\000"
 2772      52657374 
 2772      6F726543 
 2772      6C6F636B 
 2772      7300
 2773 0037 33020000 		.4byte	0x233
 2774 003b 4379506D 		.ascii	"CyPmAltAct\000"
 2774      416C7441 
 2774      637400
 2775 0046 6C020000 		.4byte	0x26c
 2776 004a 4379506D 		.ascii	"CyPmSleep\000"
 2776      536C6565 
 2776      7000
 2777 0054 A5020000 		.4byte	0x2a5
 2778 0058 4379506D 		.ascii	"CyPmHibernate\000"
ARM GAS  C:\DOCUME~1\akay\LOCALS~1\Temp\ccsadWJD.s 			page 81


 2778      48696265 
 2778      726E6174 
 2778      6500
 2779 0066 BB020000 		.4byte	0x2bb
 2780 006a 4379506D 		.ascii	"CyPmReadStatus\000"
 2780      52656164 
 2780      53746174 
 2780      757300
 2781 0079 19030000 		.4byte	0x319
 2782 007d 4379506D 		.ascii	"CyPmHibSaveSet\000"
 2782      48696253 
 2782      61766553 
 2782      657400
 2783 008c 2F030000 		.4byte	0x32f
 2784 0090 4379506D 		.ascii	"CyPmHibRestore\000"
 2784      48696252 
 2784      6573746F 
 2784      726500
 2785 009f 45030000 		.4byte	0x345
 2786 00a3 4379506D 		.ascii	"CyPmCtwSaveSet\000"
 2786      43747753 
 2786      61766553 
 2786      657400
 2787 00b2 6F030000 		.4byte	0x36f
 2788 00b6 4379506D 		.ascii	"CyPmOppsSaveSet\000"
 2788      4F707073 
 2788      53617665 
 2788      53657400 
 2789 00c6 85030000 		.4byte	0x385
 2790 00ca 4379506D 		.ascii	"CyPmFtwSaveSet\000"
 2790      46747753 
 2790      61766553 
 2790      657400
 2791 00d9 AF030000 		.4byte	0x3af
 2792 00dd 4379506D 		.ascii	"CyPmHibSlpSaveSet\000"
 2792      48696253 
 2792      6C705361 
 2792      76655365 
 2792      7400
 2793 00ef D9030000 		.4byte	0x3d9
 2794 00f3 4379506D 		.ascii	"CyPmHibSlpRestore\000"
 2794      48696253 
 2794      6C705265 
 2794      73746F72 
 2794      6500
 2795 0105 10040000 		.4byte	0x410
 2796 0109 6379506D 		.ascii	"cyPmImoFreqMhz2Reg\000"
 2796      496D6F46 
 2796      7265714D 
 2796      687A3252 
 2796      656700
 2797 011c 27040000 		.4byte	0x427
 2798 0120 6379506D 		.ascii	"cyPmImoFreqReg2Mhz\000"
 2798      496D6F46 
 2798      72657152 
 2798      6567324D 
 2798      687A00
ARM GAS  C:\DOCUME~1\akay\LOCALS~1\Temp\ccsadWJD.s 			page 82


 2799 0133 00000000 		.4byte	0x0
 2800              		.section	.debug_aranges,"",%progbits
 2801 0000 7C000000 		.4byte	0x7c
 2802 0004 0200     		.2byte	0x2
 2803 0006 00000000 		.4byte	.Ldebug_info0
 2804 000a 04       		.byte	0x4
 2805 000b 00       		.byte	0x0
 2806 000c 0000     		.2byte	0x0
 2807 000e 0000     		.2byte	0x0
 2808 0010 00000000 		.4byte	.LFB0
 2809 0014 48030000 		.4byte	.LFE0-.LFB0
 2810 0018 00000000 		.4byte	.LFB1
 2811 001c E8020000 		.4byte	.LFE1-.LFB1
 2812 0020 00000000 		.4byte	.LFB2
 2813 0024 C4000000 		.4byte	.LFE2-.LFB2
 2814 0028 00000000 		.4byte	.LFB3
 2815 002c B0000000 		.4byte	.LFE3-.LFB3
 2816 0030 00000000 		.4byte	.LFB4
 2817 0034 3E000000 		.4byte	.LFE4-.LFB4
 2818 0038 00000000 		.4byte	.LFB5
 2819 003c 7C000000 		.4byte	.LFE5-.LFB5
 2820 0040 00000000 		.4byte	.LFB6
 2821 0044 5A000000 		.4byte	.LFE6-.LFB6
 2822 0048 00000000 		.4byte	.LFB7
 2823 004c 34000000 		.4byte	.LFE7-.LFB7
 2824 0050 00000000 		.4byte	.LFB8
 2825 0054 08010000 		.4byte	.LFE8-.LFB8
 2826 0058 00000000 		.4byte	.LFB9
 2827 005c 84000000 		.4byte	.LFE9-.LFB9
 2828 0060 00000000 		.4byte	.LFB10
 2829 0064 0A010000 		.4byte	.LFE10-.LFB10
 2830 0068 00000000 		.4byte	.LFB11
 2831 006c 52000000 		.4byte	.LFE11-.LFB11
 2832 0070 00000000 		.4byte	.LFB12
 2833 0074 1E000000 		.4byte	.LFE12-.LFB12
 2834 0078 00000000 		.4byte	0x0
 2835 007c 00000000 		.4byte	0x0
 2836              		.section	.debug_ranges,"",%progbits
 2837              	.Ldebug_ranges0:
 2838 0000 00000000 		.4byte	.Ltext0
 2839 0004 00000000 		.4byte	.Letext0
 2840 0008 00000000 		.4byte	.LFB0
 2841 000c 48030000 		.4byte	.LFE0
 2842 0010 00000000 		.4byte	.LFB1
 2843 0014 E8020000 		.4byte	.LFE1
 2844 0018 00000000 		.4byte	.LFB2
 2845 001c C4000000 		.4byte	.LFE2
 2846 0020 00000000 		.4byte	.LFB3
 2847 0024 B0000000 		.4byte	.LFE3
 2848 0028 00000000 		.4byte	.LFB4
 2849 002c 3E000000 		.4byte	.LFE4
 2850 0030 00000000 		.4byte	.LFB5
 2851 0034 7C000000 		.4byte	.LFE5
 2852 0038 00000000 		.4byte	.LFB6
 2853 003c 5A000000 		.4byte	.LFE6
 2854 0040 00000000 		.4byte	.LFB7
 2855 0044 34000000 		.4byte	.LFE7
ARM GAS  C:\DOCUME~1\akay\LOCALS~1\Temp\ccsadWJD.s 			page 83


 2856 0048 00000000 		.4byte	.LFB8
 2857 004c 08010000 		.4byte	.LFE8
 2858 0050 00000000 		.4byte	.LFB9
 2859 0054 84000000 		.4byte	.LFE9
 2860 0058 00000000 		.4byte	.LFB10
 2861 005c 0A010000 		.4byte	.LFE10
 2862 0060 00000000 		.4byte	.LFB11
 2863 0064 52000000 		.4byte	.LFE11
 2864 0068 00000000 		.4byte	.LFB12
 2865 006c 1E000000 		.4byte	.LFE12
 2866 0070 00000000 		.4byte	0x0
 2867 0074 00000000 		.4byte	0x0
 2868              		.section	.debug_str,"MS",%progbits,1
 2869              	.LASF11:
 2870 0000 75696E74 		.ascii	"uint16\000"
 2870      313600
 2871              	.LASF64:
 2872 0007 5F637950 		.ascii	"_cyPmBackupStruct\000"
 2872      6D426163 
 2872      6B757053 
 2872      74727563 
 2872      7400
 2873              	.LASF16:
 2874 0019 6D617374 		.ascii	"masterClkSrc\000"
 2874      6572436C 
 2874      6B537263 
 2874      00
 2875              	.LASF34:
 2876 0026 63707546 		.ascii	"cpuFreqMhz\000"
 2876      7265714D 
 2876      687A00
 2877              	.LASF35:
 2878 0031 43595F50 		.ascii	"CY_PM_BACKUP_STRUCT\000"
 2878      4D5F4241 
 2878      434B5550 
 2878      5F535452 
 2878      55435400 
 2879              	.LASF42:
 2880 0045 4379506D 		.ascii	"CyPmSaveClocks\000"
 2880      53617665 
 2880      436C6F63 
 2880      6B7300
 2881              	.LASF63:
 2882 0054 433A5C44 		.ascii	"C:\\Documents and Settings\\akay\\My Documents\\Exa"
 2882      6F63756D 
 2882      656E7473 
 2882      20616E64 
 2882      20536574 
 2883 0083 6D706C65 		.ascii	"mple Projects\\PSoC3 I2C EEPROM\\Example_I2C_EEPROM"
 2883      2050726F 
 2883      6A656374 
 2883      735C5053 
 2883      6F433320 
 2884 00b4 5C457861 		.ascii	"\\Example_I2C_EEPROM.cydsn\000"
 2884      6D706C65 
 2884      5F493243 
 2884      5F454550 
ARM GAS  C:\DOCUME~1\akay\LOCALS~1\Temp\ccsadWJD.s 			page 84


 2884      524F4D2E 
 2885              	.LASF7:
 2886 00ce 6C6F6E67 		.ascii	"long long unsigned int\000"
 2886      206C6F6E 
 2886      6720756E 
 2886      7369676E 
 2886      65642069 
 2887              	.LASF47:
 2888 00e5 746D7053 		.ascii	"tmpStatus\000"
 2888      74617475 
 2888      7300
 2889              	.LASF53:
 2890 00ef 4379506D 		.ascii	"CyPmFtwSaveSet\000"
 2890      46747753 
 2890      61766553 
 2890      657400
 2891              	.LASF61:
 2892 00fe 474E5520 		.ascii	"GNU C 4.4.1\000"
 2892      4320342E 
 2892      342E3100 
 2893              	.LASF25:
 2894 010a 696C6F50 		.ascii	"iloPowerMode\000"
 2894      6F776572 
 2894      4D6F6465 
 2894      00
 2895              	.LASF6:
 2896 0117 6C6F6E67 		.ascii	"long long int\000"
 2896      206C6F6E 
 2896      6720696E 
 2896      7400
 2897              	.LASF0:
 2898 0125 7369676E 		.ascii	"signed char\000"
 2898      65642063 
 2898      68617200 
 2899              	.LASF22:
 2900 0131 636C6B42 		.ascii	"clkBusDiv\000"
 2900      75734469 
 2900      7600
 2901              	.LASF19:
 2902 013b 696D6F46 		.ascii	"imoFreqMhz\000"
 2902      7265714D 
 2902      687A00
 2903              	.LASF46:
 2904 0146 696E7465 		.ascii	"interruptState\000"
 2904      72727570 
 2904      74537461 
 2904      746500
 2905              	.LASF13:
 2906 0155 636C6B44 		.ascii	"clkDistCr\000"
 2906      69737443 
 2906      7200
 2907              	.LASF20:
 2908 015f 696D6F32 		.ascii	"imo2x\000"
 2908      7800
 2909              	.LASF4:
 2910 0165 6C6F6E67 		.ascii	"long int\000"
 2910      20696E74 
ARM GAS  C:\DOCUME~1\akay\LOCALS~1\Temp\ccsadWJD.s 			page 85


 2910      00
 2911              	.LASF10:
 2912 016e 75696E74 		.ascii	"uint8\000"
 2912      3800
 2913              	.LASF15:
 2914 0174 786D687A 		.ascii	"xmhzEnableState\000"
 2914      456E6162 
 2914      6C655374 
 2914      61746500 
 2915              	.LASF49:
 2916 0184 4379506D 		.ascii	"CyPmHibRestore\000"
 2916      48696252 
 2916      6573746F 
 2916      726500
 2917              	.LASF44:
 2918 0193 6D61736B 		.ascii	"mask\000"
 2918      00
 2919              	.LASF8:
 2920 0198 756E7369 		.ascii	"unsigned int\000"
 2920      676E6564 
 2920      20696E74 
 2920      00
 2921              	.LASF33:
 2922 01a5 696E7465 		.ascii	"interruptEnable\000"
 2922      72727570 
 2922      74456E61 
 2922      626C6500 
 2923              	.LASF5:
 2924 01b5 6C6F6E67 		.ascii	"long unsigned int\000"
 2924      20756E73 
 2924      69676E65 
 2924      6420696E 
 2924      7400
 2925              	.LASF52:
 2926 01c7 4379506D 		.ascii	"CyPmOppsSaveSet\000"
 2926      4F707073 
 2926      53617665 
 2926      53657400 
 2927              	.LASF3:
 2928 01d7 73686F72 		.ascii	"short unsigned int\000"
 2928      7420756E 
 2928      7369676E 
 2928      65642069 
 2928      6E7400
 2929              	.LASF51:
 2930 01ea 63747749 		.ascii	"ctwInterval\000"
 2930      6E746572 
 2930      76616C00 
 2931              	.LASF18:
 2932 01f6 636C6B49 		.ascii	"clkImoSrc\000"
 2932      6D6F5372 
 2932      6300
 2933              	.LASF50:
 2934 0200 4379506D 		.ascii	"CyPmCtwSaveSet\000"
 2934      43747753 
 2934      61766553 
 2934      657400
ARM GAS  C:\DOCUME~1\akay\LOCALS~1\Temp\ccsadWJD.s 			page 86


 2935              	.LASF31:
 2936 020f 76636364 		.ascii	"vccdClkDet\000"
 2936      436C6B44 
 2936      657400
 2937              	.LASF14:
 2938 021a 706C6C45 		.ascii	"pllEnableState\000"
 2938      6E61626C 
 2938      65537461 
 2938      746500
 2939              	.LASF59:
 2940 0229 6379506D 		.ascii	"cyPmImoFreqMhz2Reg\000"
 2940      496D6F46 
 2940      7265714D 
 2940      687A3252 
 2940      656700
 2941              	.LASF28:
 2942 023c 656E436C 		.ascii	"enClkA\000"
 2942      6B4100
 2943              	.LASF29:
 2944 0243 656E436C 		.ascii	"enClkD\000"
 2944      6B4400
 2945              	.LASF56:
 2946 024a 706F7765 		.ascii	"powerMode\000"
 2946      724D6F64 
 2946      6500
 2947              	.LASF62:
 2948 0254 2E2F4765 		.ascii	"./Generated_Source/PSoC5/cyPm.c\000"
 2948      6E657261 
 2948      7465645F 
 2948      536F7572 
 2948      63652F50 
 2949              	.LASF40:
 2950 0274 77616B65 		.ascii	"wakeupSource\000"
 2950      7570536F 
 2950      75726365 
 2950      00
 2951              	.LASF17:
 2952 0281 696D6F43 		.ascii	"imoClkSrc\000"
 2952      6C6B5372 
 2952      6300
 2953              	.LASF23:
 2954 028b 636C6B53 		.ascii	"clkSyncDiv\000"
 2954      796E6344 
 2954      697600
 2955              	.LASF41:
 2956 0296 4379506D 		.ascii	"CyPmSleep\000"
 2956      536C6565 
 2956      7000
 2957              	.LASF38:
 2958 02a0 4379506D 		.ascii	"CyPmAltAct\000"
 2958      416C7441 
 2958      637400
 2959              	.LASF1:
 2960 02ab 756E7369 		.ascii	"unsigned char\000"
 2960      676E6564 
 2960      20636861 
 2960      7200
ARM GAS  C:\DOCUME~1\akay\LOCALS~1\Temp\ccsadWJD.s 			page 87


 2961              	.LASF26:
 2962 02b9 696C6F31 		.ascii	"ilo1kEnable\000"
 2962      6B456E61 
 2962      626C6500 
 2963              	.LASF2:
 2964 02c5 73686F72 		.ascii	"short int\000"
 2964      7420696E 
 2964      7400
 2965              	.LASF55:
 2966 02cf 4379506D 		.ascii	"CyPmHibSlpSaveSet\000"
 2966      48696253 
 2966      6C705361 
 2966      76655365 
 2966      7400
 2967              	.LASF27:
 2968 02e1 696C6F31 		.ascii	"ilo100kEnable\000"
 2968      30306B45 
 2968      6E61626C 
 2968      6500
 2969              	.LASF30:
 2970 02ef 69326352 		.ascii	"i2cRegBackup\000"
 2970      65674261 
 2970      636B7570 
 2970      00
 2971              	.LASF37:
 2972 02fc 4379506D 		.ascii	"CyPmRestoreClocks\000"
 2972      52657374 
 2972      6F726543 
 2972      6C6F636B 
 2972      7300
 2973              	.LASF9:
 2974 030e 63686172 		.ascii	"char\000"
 2974      00
 2975              	.LASF43:
 2976 0313 4379506D 		.ascii	"CyPmHibernate\000"
 2976      48696265 
 2976      726E6174 
 2976      6500
 2977              	.LASF54:
 2978 0321 66747749 		.ascii	"ftwInterval\000"
 2978      6E746572 
 2978      76616C00 
 2979              	.LASF60:
 2980 032d 6379506D 		.ascii	"cyPmImoFreqReg2Mhz\000"
 2980      496D6F46 
 2980      72657152 
 2980      6567324D 
 2980      687A00
 2981              	.LASF65:
 2982 0340 4379506D 		.ascii	"CyPmReadStatus\000"
 2982      52656164 
 2982      53746174 
 2982      757300
 2983              	.LASF57:
 2984 034f 4379506D 		.ascii	"CyPmHibSlpRestore\000"
 2984      48696253 
 2984      6C705265 
ARM GAS  C:\DOCUME~1\akay\LOCALS~1\Temp\ccsadWJD.s 			page 88


 2984      73746F72 
 2984      6500
 2985              	.LASF36:
 2986 0361 73746174 		.ascii	"status\000"
 2986      757300
 2987              	.LASF48:
 2988 0368 4379506D 		.ascii	"CyPmHibSaveSet\000"
 2988      48696253 
 2988      61766553 
 2988      657400
 2989              	.LASF39:
 2990 0377 77616B65 		.ascii	"wakeupTime\000"
 2990      75705469 
 2990      6D6500
 2991              	.LASF12:
 2992 0382 63797374 		.ascii	"cystatus\000"
 2992      61747573 
 2992      00
 2993              	.LASF32:
 2994 038b 6C766961 		.ascii	"lviaLvidHvi\000"
 2994      4C766964 
 2994      48766900 
 2995              	.LASF24:
 2996 0397 666C6173 		.ascii	"flashWaitCycles\000"
 2996      68576169 
 2996      74437963 
 2996      6C657300 
 2997              	.LASF58:
 2998 03a7 6379506D 		.ascii	"cyPmBackup\000"
 2998      4261636B 
 2998      757000
 2999              	.LASF21:
 3000 03b2 696D6F45 		.ascii	"imoEnable\000"
 3000      6E61626C 
 3000      6500
 3001              	.LASF45:
 3002 03bc 696E7465 		.ascii	"interruptStatus\000"
 3002      72727570 
 3002      74537461 
 3002      74757300 
 3003              		.ident	"GCC: (Sourcery G++ Lite 2010q1-188) 4.4.1"
