ARM GAS  C:\DOCUME~1\akay\LOCALS~1\Temp\ccAcOuWa.s 			page 1


   1              		.syntax unified
   2              		.cpu cortex-m3
   3              		.fpu softvfp
   4              		.eabi_attribute 20, 1
   5              		.eabi_attribute 21, 1
   6              		.eabi_attribute 23, 3
   7              		.eabi_attribute 24, 1
   8              		.eabi_attribute 25, 1
   9              		.eabi_attribute 26, 1
  10              		.eabi_attribute 30, 6
  11              		.eabi_attribute 18, 4
  12              		.thumb
  13              		.file	"CySpc.c"
  20 0000 CD010000 		.text
  20      02004400 
  20      00000201 
  20      FB0E0D00 
  20      01010101 
  21              	.Ltext0:
  22              		.cfi_sections	.debug_frame
  23              		.global	SpcLockState
  24              		.bss
  25              		.align	2
  26              		.type	SpcLockState, %object
  27              		.size	SpcLockState, 4
  28              	SpcLockState:
  29 0000 00000000 		.space	4
  30              		.comm	cyCommand,16,4
  31              		.comm	cyCommandSize,1,1
  32              		.section	.text.CySpcLock,"ax",%progbits
  33              		.align	2
  34              		.global	CySpcLock
  35              		.thumb
  36              		.thumb_func
  37              		.type	CySpcLock, %function
  38              	CySpcLock:
  39              	.LFB0:
  40              		.file 1 "./Generated_Source/PSoC5/CySpc.c"
   1:./Generated_Source/PSoC5/CySpc.c **** /*******************************************************************************
   2:./Generated_Source/PSoC5/CySpc.c **** * File Name: CySpc.c  
   3:./Generated_Source/PSoC5/CySpc.c **** * Version 2.0
   4:./Generated_Source/PSoC5/CySpc.c **** *
   5:./Generated_Source/PSoC5/CySpc.c **** *  Description:
   6:./Generated_Source/PSoC5/CySpc.c **** *   Provides an API for the System Performance Component. 
   7:./Generated_Source/PSoC5/CySpc.c **** *   The SPC functions are not meant to be called directly by the user application.
   8:./Generated_Source/PSoC5/CySpc.c **** *
   9:./Generated_Source/PSoC5/CySpc.c **** *  Note:
  10:./Generated_Source/PSoC5/CySpc.c **** *
  11:./Generated_Source/PSoC5/CySpc.c **** *   
  12:./Generated_Source/PSoC5/CySpc.c **** *
  13:./Generated_Source/PSoC5/CySpc.c **** *******************************************************************************
ARM GAS  C:\DOCUME~1\akay\LOCALS~1\Temp\ccAcOuWa.s 			page 2


  14:./Generated_Source/PSoC5/CySpc.c **** * Copyright 2008-2010, Cypress Semiconductor Corporation.  All rights reserved.
  15:./Generated_Source/PSoC5/CySpc.c **** * You may use this file only in accordance with the license, terms, conditions, 
  16:./Generated_Source/PSoC5/CySpc.c **** * disclaimers, and limitations in the end user license agreement accompanying 
  17:./Generated_Source/PSoC5/CySpc.c **** * the software package with which this file was provided.
  18:./Generated_Source/PSoC5/CySpc.c **** ********************************************************************************/
  19:./Generated_Source/PSoC5/CySpc.c **** 
  20:./Generated_Source/PSoC5/CySpc.c **** 
  21:./Generated_Source/PSoC5/CySpc.c **** #include <CySpc.h>
  22:./Generated_Source/PSoC5/CySpc.c **** 
  23:./Generated_Source/PSoC5/CySpc.c **** 
  24:./Generated_Source/PSoC5/CySpc.c **** /* Gate calls to the SPC. */
  25:./Generated_Source/PSoC5/CySpc.c **** unsigned int SpcLockState = 0;
  26:./Generated_Source/PSoC5/CySpc.c **** 
  27:./Generated_Source/PSoC5/CySpc.c **** /* We only need storage for one comand since we can only do one command at a time. */
  28:./Generated_Source/PSoC5/CySpc.c **** uint8 cyCommand[16];
  29:./Generated_Source/PSoC5/CySpc.c **** uint8 cyCommandSize;
  30:./Generated_Source/PSoC5/CySpc.c **** 
  31:./Generated_Source/PSoC5/CySpc.c **** 
  32:./Generated_Source/PSoC5/CySpc.c **** 
  33:./Generated_Source/PSoC5/CySpc.c **** /*******************************************************************************
  34:./Generated_Source/PSoC5/CySpc.c **** * Function Name: CySpcLock
  35:./Generated_Source/PSoC5/CySpc.c **** ********************************************************************************
  36:./Generated_Source/PSoC5/CySpc.c **** * Summary:
  37:./Generated_Source/PSoC5/CySpc.c **** *   Locks the SPC so it can not be used by someone else.
  38:./Generated_Source/PSoC5/CySpc.c **** *   NOTE: SPC functions are not meant to be called directly by the user application.
  39:./Generated_Source/PSoC5/CySpc.c **** *
  40:./Generated_Source/PSoC5/CySpc.c **** * Parameters:
  41:./Generated_Source/PSoC5/CySpc.c **** *   void.
  42:./Generated_Source/PSoC5/CySpc.c **** *
  43:./Generated_Source/PSoC5/CySpc.c **** *   
  44:./Generated_Source/PSoC5/CySpc.c **** * Return:
  45:./Generated_Source/PSoC5/CySpc.c **** *   .
  46:./Generated_Source/PSoC5/CySpc.c **** *   CYRET_SUCCESS if the resource was free.
  47:./Generated_Source/PSoC5/CySpc.c **** *   CYRET_LOCKED if the SPC is in use.
  48:./Generated_Source/PSoC5/CySpc.c **** *
  49:./Generated_Source/PSoC5/CySpc.c **** *
  50:./Generated_Source/PSoC5/CySpc.c **** *******************************************************************************/
  51:./Generated_Source/PSoC5/CySpc.c **** cystatus CySpcLock(void)
  52:./Generated_Source/PSoC5/CySpc.c **** {
  41              		.loc 1 52 0
  42              		.cfi_startproc
  43              		@ args = 0, pretend = 0, frame = 8
  44              		@ frame_needed = 1, uses_anonymous_args = 0
  45 0000 80B5     		push	{r7, lr}
  46              	.LCFI0:
  47              		.cfi_def_cfa_offset 8
  48 0002 82B0     		sub	sp, sp, #8
  49              	.LCFI1:
  50              		.cfi_def_cfa_offset 16
  51 0004 00AF     		add	r7, sp, #0
  52              		.cfi_offset 14, -4
  53              		.cfi_offset 7, -8
  54              	.LCFI2:
  55              		.cfi_def_cfa_register 7
  53:./Generated_Source/PSoC5/CySpc.c ****     cystatus status;
  54:./Generated_Source/PSoC5/CySpc.c ****     uint8 interruptState;
  55:./Generated_Source/PSoC5/CySpc.c **** 
ARM GAS  C:\DOCUME~1\akay\LOCALS~1\Temp\ccAcOuWa.s 			page 3


  56:./Generated_Source/PSoC5/CySpc.c **** 
  57:./Generated_Source/PSoC5/CySpc.c ****     /* Enter critical section! */
  58:./Generated_Source/PSoC5/CySpc.c ****     interruptState = CyEnterCriticalSection();
  56              		.loc 1 58 0
  57 0006 FFF7FEFF 		bl	CyEnterCriticalSection
  58 000a 0346     		mov	r3, r0
  59 000c FB71     		strb	r3, [r7, #7]
  59:./Generated_Source/PSoC5/CySpc.c **** 
  60:./Generated_Source/PSoC5/CySpc.c ****     if(SpcLockState == 0)
  60              		.loc 1 60 0
  61 000e 40F20003 		movw	r3, #:lower16:SpcLockState
  62 0012 C0F20003 		movt	r3, #:upper16:SpcLockState
  63 0016 1B68     		ldr	r3, [r3, #0]
  64 0018 002B     		cmp	r3, #0
  65 001a 0AD1     		bne	.L2
  61:./Generated_Source/PSoC5/CySpc.c ****     {
  62:./Generated_Source/PSoC5/CySpc.c ****         SpcLockState = 1;
  66              		.loc 1 62 0
  67 001c 40F20003 		movw	r3, #:lower16:SpcLockState
  68 0020 C0F20003 		movt	r3, #:upper16:SpcLockState
  69 0024 4FF00102 		mov	r2, #1
  70 0028 1A60     		str	r2, [r3, #0]
  63:./Generated_Source/PSoC5/CySpc.c ****         status = CYRET_SUCCESS;
  71              		.loc 1 63 0
  72 002a 4FF00003 		mov	r3, #0
  73 002e 3B60     		str	r3, [r7, #0]
  74 0030 02E0     		b	.L3
  75              	.L2:
  64:./Generated_Source/PSoC5/CySpc.c ****     }
  65:./Generated_Source/PSoC5/CySpc.c ****     else
  66:./Generated_Source/PSoC5/CySpc.c ****     {
  67:./Generated_Source/PSoC5/CySpc.c ****         status = CYRET_LOCKED;
  76              		.loc 1 67 0
  77 0032 4FF00403 		mov	r3, #4
  78 0036 3B60     		str	r3, [r7, #0]
  79              	.L3:
  68:./Generated_Source/PSoC5/CySpc.c ****     }
  69:./Generated_Source/PSoC5/CySpc.c **** 
  70:./Generated_Source/PSoC5/CySpc.c ****     /* Exit critical section! */
  71:./Generated_Source/PSoC5/CySpc.c ****     CyExitCriticalSection(interruptState);
  80              		.loc 1 71 0
  81 0038 FB79     		ldrb	r3, [r7, #7]	@ zero_extendqisi2
  82 003a 1846     		mov	r0, r3
  83 003c FFF7FEFF 		bl	CyExitCriticalSection
  72:./Generated_Source/PSoC5/CySpc.c **** 
  73:./Generated_Source/PSoC5/CySpc.c ****     return status;
  84              		.loc 1 73 0
  85 0040 3B68     		ldr	r3, [r7, #0]
  74:./Generated_Source/PSoC5/CySpc.c **** }
  86              		.loc 1 74 0
  87 0042 1846     		mov	r0, r3
  88 0044 07F10807 		add	r7, r7, #8
  89 0048 BD46     		mov	sp, r7
  90 004a 80BD     		pop	{r7, pc}
  91              		.cfi_endproc
  92              	.LFE0:
  93              		.size	CySpcLock, .-CySpcLock
ARM GAS  C:\DOCUME~1\akay\LOCALS~1\Temp\ccAcOuWa.s 			page 4


  94              		.section	.text.CySpcWriteCommand,"ax",%progbits
  95              		.align	2
  96              		.global	CySpcWriteCommand
  97              		.thumb
  98              		.thumb_func
  99              		.type	CySpcWriteCommand, %function
 100              	CySpcWriteCommand:
 101              	.LFB1:
  75:./Generated_Source/PSoC5/CySpc.c **** 
  76:./Generated_Source/PSoC5/CySpc.c **** 
  77:./Generated_Source/PSoC5/CySpc.c **** /*******************************************************************************
  78:./Generated_Source/PSoC5/CySpc.c **** * Function Name: CySpcWriteCommand
  79:./Generated_Source/PSoC5/CySpc.c **** ********************************************************************************
  80:./Generated_Source/PSoC5/CySpc.c **** * Summary:
  81:./Generated_Source/PSoC5/CySpc.c **** *   Writes the command created by one of the "CySpcCreateCmd..." functions, then
  82:./Generated_Source/PSoC5/CySpc.c **** *   writes the data parameters passed into this function. 
  83:./Generated_Source/PSoC5/CySpc.c **** *   NOTE: SPC functions are not meant to be called directly by the user application.
  84:./Generated_Source/PSoC5/CySpc.c **** *
  85:./Generated_Source/PSoC5/CySpc.c **** * Parameters:
  86:./Generated_Source/PSoC5/CySpc.c **** * parameters:
  87:./Generated_Source/PSoC5/CySpc.c **** *   Address of the parameters associated with the SPC function being executed.
  88:./Generated_Source/PSoC5/CySpc.c **** *   NOTE: SPC functions are not meant to be called directly by the user application.
  89:./Generated_Source/PSoC5/CySpc.c **** *
  90:./Generated_Source/PSoC5/CySpc.c **** * size:
  91:./Generated_Source/PSoC5/CySpc.c **** *   size of data in bytes.
  92:./Generated_Source/PSoC5/CySpc.c **** *
  93:./Generated_Source/PSoC5/CySpc.c **** *   
  94:./Generated_Source/PSoC5/CySpc.c **** * Return:
  95:./Generated_Source/PSoC5/CySpc.c **** *   CYRET_LOCKED if the SPC is in use.
  96:./Generated_Source/PSoC5/CySpc.c **** *   CYRET_CANCELED if the SPC didn't accept the commnad.
  97:./Generated_Source/PSoC5/CySpc.c **** *   CYRET_STARTED if the command and data was correctly started.
  98:./Generated_Source/PSoC5/CySpc.c **** *
  99:./Generated_Source/PSoC5/CySpc.c **** * Theory:
 100:./Generated_Source/PSoC5/CySpc.c **** *   This function must be called after one of the "CySpcCreateCmd..." functions.
 101:./Generated_Source/PSoC5/CySpc.c **** *   This function writes the command and data parameters to the
 102:./Generated_Source/PSoC5/CySpc.c **** *   SPC.
 103:./Generated_Source/PSoC5/CySpc.c **** *
 104:./Generated_Source/PSoC5/CySpc.c **** *
 105:./Generated_Source/PSoC5/CySpc.c **** *******************************************************************************/
 106:./Generated_Source/PSoC5/CySpc.c **** cystatus CySpcWriteCommand(uint8 * parameters, uint16 size)
 107:./Generated_Source/PSoC5/CySpc.c **** {
 102              		.loc 1 107 0
 103              		.cfi_startproc
 104              		@ args = 0, pretend = 0, frame = 24
 105              		@ frame_needed = 1, uses_anonymous_args = 0
 106              		@ link register save eliminated.
 107 0000 80B4     		push	{r7}
 108              	.LCFI3:
 109              		.cfi_def_cfa_offset 4
 110 0002 87B0     		sub	sp, sp, #28
 111              	.LCFI4:
 112              		.cfi_def_cfa_offset 32
 113 0004 00AF     		add	r7, sp, #0
 114              		.cfi_offset 7, -4
 115              	.LCFI5:
 116              		.cfi_def_cfa_register 7
 117 0006 7860     		str	r0, [r7, #4]
ARM GAS  C:\DOCUME~1\akay\LOCALS~1\Temp\ccAcOuWa.s 			page 5


 118 0008 0B46     		mov	r3, r1
 119 000a 7B80     		strh	r3, [r7, #2]	@ movhi
 108:./Generated_Source/PSoC5/CySpc.c ****     uint8 * pointer;
 109:./Generated_Source/PSoC5/CySpc.c ****     uint16 index;
 110:./Generated_Source/PSoC5/CySpc.c ****     cystatus status;
 111:./Generated_Source/PSoC5/CySpc.c **** 
 112:./Generated_Source/PSoC5/CySpc.c **** 
 113:./Generated_Source/PSoC5/CySpc.c ****     /* Has the SPC controller started something? */
 114:./Generated_Source/PSoC5/CySpc.c ****     if(*SPC_STATUS & SPC_SPC_IDLE)
 120              		.loc 1 114 0
 121 000c 44F22273 		movw	r3, #:lower16:1073760034
 122 0010 C4F20003 		movt	r3, #:upper16:1073760034
 123 0014 1B78     		ldrb	r3, [r3, #0]
 124 0016 DBB2     		uxtb	r3, r3
 125 0018 03F00203 		and	r3, r3, #2
 126 001c 002B     		cmp	r3, #0
 127 001e 6AD0     		beq	.L6
 115:./Generated_Source/PSoC5/CySpc.c ****     {
 116:./Generated_Source/PSoC5/CySpc.c ****         /* Create packet. */
 117:./Generated_Source/PSoC5/CySpc.c ****         pointer = cyCommand;
 128              		.loc 1 117 0
 129 0020 40F20003 		movw	r3, #:lower16:cyCommand
 130 0024 C0F20003 		movt	r3, #:upper16:cyCommand
 131 0028 FB60     		str	r3, [r7, #12]
 118:./Generated_Source/PSoC5/CySpc.c ****         *SPC_CPU_DATA = *pointer++;
 132              		.loc 1 118 0
 133 002a 44F22073 		movw	r3, #:lower16:1073760032
 134 002e C4F20003 		movt	r3, #:upper16:1073760032
 135 0032 FA68     		ldr	r2, [r7, #12]
 136 0034 1278     		ldrb	r2, [r2, #0]	@ zero_extendqisi2
 137 0036 1A70     		strb	r2, [r3, #0]
 138 0038 FB68     		ldr	r3, [r7, #12]
 139 003a 03F10103 		add	r3, r3, #1
 140 003e FB60     		str	r3, [r7, #12]
 119:./Generated_Source/PSoC5/CySpc.c ****         *SPC_CPU_DATA = *pointer++;
 141              		.loc 1 119 0
 142 0040 44F22073 		movw	r3, #:lower16:1073760032
 143 0044 C4F20003 		movt	r3, #:upper16:1073760032
 144 0048 FA68     		ldr	r2, [r7, #12]
 145 004a 1278     		ldrb	r2, [r2, #0]	@ zero_extendqisi2
 146 004c 1A70     		strb	r2, [r3, #0]
 147 004e FB68     		ldr	r3, [r7, #12]
 148 0050 03F10103 		add	r3, r3, #1
 149 0054 FB60     		str	r3, [r7, #12]
 120:./Generated_Source/PSoC5/CySpc.c ****         *SPC_CPU_DATA = *pointer++;
 150              		.loc 1 120 0
 151 0056 44F22073 		movw	r3, #:lower16:1073760032
 152 005a C4F20003 		movt	r3, #:upper16:1073760032
 153 005e FA68     		ldr	r2, [r7, #12]
 154 0060 1278     		ldrb	r2, [r2, #0]	@ zero_extendqisi2
 155 0062 1A70     		strb	r2, [r3, #0]
 156 0064 FB68     		ldr	r3, [r7, #12]
 157 0066 03F10103 		add	r3, r3, #1
 158 006a FB60     		str	r3, [r7, #12]
 121:./Generated_Source/PSoC5/CySpc.c **** 
 122:./Generated_Source/PSoC5/CySpc.c ****         /* Make sure the command was accepted. */
 123:./Generated_Source/PSoC5/CySpc.c ****         if(!(*SPC_STATUS & SPC_SPC_IDLE))
ARM GAS  C:\DOCUME~1\akay\LOCALS~1\Temp\ccAcOuWa.s 			page 6


 159              		.loc 1 123 0
 160 006c 44F22273 		movw	r3, #:lower16:1073760034
 161 0070 C4F20003 		movt	r3, #:upper16:1073760034
 162 0074 1B78     		ldrb	r3, [r3, #0]
 163 0076 DBB2     		uxtb	r3, r3
 164 0078 03F00203 		and	r3, r3, #2
 165 007c 002B     		cmp	r3, #0
 166 007e 36D1     		bne	.L7
 124:./Generated_Source/PSoC5/CySpc.c ****         {
 125:./Generated_Source/PSoC5/CySpc.c ****             /* Write the parameters. */
 126:./Generated_Source/PSoC5/CySpc.c ****             for(index = 0; index < cyCommandSize; index++)
 167              		.loc 1 126 0
 168 0080 4FF00003 		mov	r3, #0
 169 0084 7B82     		strh	r3, [r7, #18]	@ movhi
 170 0086 0EE0     		b	.L8
 171              	.L9:
 127:./Generated_Source/PSoC5/CySpc.c ****                 *SPC_CPU_DATA = *pointer++;
 172              		.loc 1 127 0
 173 0088 44F22073 		movw	r3, #:lower16:1073760032
 174 008c C4F20003 		movt	r3, #:upper16:1073760032
 175 0090 FA68     		ldr	r2, [r7, #12]
 176 0092 1278     		ldrb	r2, [r2, #0]	@ zero_extendqisi2
 177 0094 1A70     		strb	r2, [r3, #0]
 178 0096 FB68     		ldr	r3, [r7, #12]
 179 0098 03F10103 		add	r3, r3, #1
 180 009c FB60     		str	r3, [r7, #12]
 181              		.loc 1 126 0
 182 009e 7B8A     		ldrh	r3, [r7, #18]	@ movhi
 183 00a0 03F10103 		add	r3, r3, #1
 184 00a4 7B82     		strh	r3, [r7, #18]	@ movhi
 185              	.L8:
 186 00a6 40F20003 		movw	r3, #:lower16:cyCommandSize
 187 00aa C0F20003 		movt	r3, #:upper16:cyCommandSize
 188 00ae 1B78     		ldrb	r3, [r3, #0]	@ zero_extendqisi2
 189 00b0 7A8A     		ldrh	r2, [r7, #18]
 190 00b2 9A42     		cmp	r2, r3
 191 00b4 E8D3     		bcc	.L9
 128:./Generated_Source/PSoC5/CySpc.c **** 
 129:./Generated_Source/PSoC5/CySpc.c ****             /* Write parameters. */
 130:./Generated_Source/PSoC5/CySpc.c ****             if(size != 0)
 192              		.loc 1 130 0
 193 00b6 7B88     		ldrh	r3, [r7, #2]
 194 00b8 002B     		cmp	r3, #0
 195 00ba 14D0     		beq	.L10
 131:./Generated_Source/PSoC5/CySpc.c ****             {
 132:./Generated_Source/PSoC5/CySpc.c ****                 for(index = 0; index < size; index++)
 196              		.loc 1 132 0
 197 00bc 4FF00003 		mov	r3, #0
 198 00c0 7B82     		strh	r3, [r7, #18]	@ movhi
 199 00c2 0CE0     		b	.L11
 200              	.L12:
 133:./Generated_Source/PSoC5/CySpc.c ****                     *SPC_CPU_DATA = parameters[index];
 201              		.loc 1 133 0
 202 00c4 44F22073 		movw	r3, #:lower16:1073760032
 203 00c8 C4F20003 		movt	r3, #:upper16:1073760032
 204 00cc 798A     		ldrh	r1, [r7, #18]
 205 00ce 7A68     		ldr	r2, [r7, #4]
ARM GAS  C:\DOCUME~1\akay\LOCALS~1\Temp\ccAcOuWa.s 			page 7


 206 00d0 0A44     		add	r2, r1, r2
 207 00d2 1278     		ldrb	r2, [r2, #0]	@ zero_extendqisi2
 208 00d4 1A70     		strb	r2, [r3, #0]
 209              		.loc 1 132 0
 210 00d6 7B8A     		ldrh	r3, [r7, #18]	@ movhi
 211 00d8 03F10103 		add	r3, r3, #1
 212 00dc 7B82     		strh	r3, [r7, #18]	@ movhi
 213              	.L11:
 214 00de 7A8A     		ldrh	r2, [r7, #18]
 215 00e0 7B88     		ldrh	r3, [r7, #2]
 216 00e2 9A42     		cmp	r2, r3
 217 00e4 EED3     		bcc	.L12
 218              	.L10:
 134:./Generated_Source/PSoC5/CySpc.c ****             }
 135:./Generated_Source/PSoC5/CySpc.c **** 
 136:./Generated_Source/PSoC5/CySpc.c ****             /* We successfuly wrote the command, the caller can check for errors. */
 137:./Generated_Source/PSoC5/CySpc.c ****             status = CYRET_STARTED;
 219              		.loc 1 137 0
 220 00e6 4FF00703 		mov	r3, #7
 221 00ea 7B61     		str	r3, [r7, #20]
 138:./Generated_Source/PSoC5/CySpc.c ****         }
 139:./Generated_Source/PSoC5/CySpc.c ****         else
 140:./Generated_Source/PSoC5/CySpc.c ****         {
 141:./Generated_Source/PSoC5/CySpc.c ****             /* Get the status. */
 142:./Generated_Source/PSoC5/CySpc.c ****             status = CYRET_CANCELED;
 222              		.loc 1 142 0
 223 00ec 06E0     		b	.L14
 224              	.L7:
 225 00ee 4FF00903 		mov	r3, #9
 226 00f2 7B61     		str	r3, [r7, #20]
 227 00f4 02E0     		b	.L14
 228              	.L6:
 143:./Generated_Source/PSoC5/CySpc.c ****         }
 144:./Generated_Source/PSoC5/CySpc.c ****     }
 145:./Generated_Source/PSoC5/CySpc.c ****     else
 146:./Generated_Source/PSoC5/CySpc.c ****     {
 147:./Generated_Source/PSoC5/CySpc.c ****         status = CYRET_LOCKED;
 229              		.loc 1 147 0
 230 00f6 4FF00403 		mov	r3, #4
 231 00fa 7B61     		str	r3, [r7, #20]
 232              	.L14:
 148:./Generated_Source/PSoC5/CySpc.c ****     }
 149:./Generated_Source/PSoC5/CySpc.c **** 
 150:./Generated_Source/PSoC5/CySpc.c ****     return status;
 233              		.loc 1 150 0
 234 00fc 7B69     		ldr	r3, [r7, #20]
 151:./Generated_Source/PSoC5/CySpc.c **** }
 235              		.loc 1 151 0
 236 00fe 1846     		mov	r0, r3
 237 0100 07F11C07 		add	r7, r7, #28
 238 0104 BD46     		mov	sp, r7
 239 0106 80BC     		pop	{r7}
 240 0108 7047     		bx	lr
 241              		.cfi_endproc
 242              	.LFE1:
 243              		.size	CySpcWriteCommand, .-CySpcWriteCommand
 244 010a 00BF     		.section	.text.CySpcReadData,"ax",%progbits
ARM GAS  C:\DOCUME~1\akay\LOCALS~1\Temp\ccAcOuWa.s 			page 8


 245              		.align	2
 246              		.global	CySpcReadData
 247              		.thumb
 248              		.thumb_func
 249              		.type	CySpcReadData, %function
 250              	CySpcReadData:
 251              	.LFB2:
 152:./Generated_Source/PSoC5/CySpc.c **** 
 153:./Generated_Source/PSoC5/CySpc.c **** 
 154:./Generated_Source/PSoC5/CySpc.c **** /*******************************************************************************
 155:./Generated_Source/PSoC5/CySpc.c **** * Function Name: CySPCReadData
 156:./Generated_Source/PSoC5/CySpc.c **** ********************************************************************************
 157:./Generated_Source/PSoC5/CySpc.c **** * Summary:
 158:./Generated_Source/PSoC5/CySpc.c **** *   Reads data back from the SPC.  
 159:./Generated_Source/PSoC5/CySpc.c **** *   NOTE: SPC functions are not meant to be called directly by the user application.
 160:./Generated_Source/PSoC5/CySpc.c **** *
 161:./Generated_Source/PSoC5/CySpc.c **** * Parameters:
 162:./Generated_Source/PSoC5/CySpc.c **** * buffer:
 163:./Generated_Source/PSoC5/CySpc.c **** *   Address to store data read.
 164:./Generated_Source/PSoC5/CySpc.c **** *
 165:./Generated_Source/PSoC5/CySpc.c **** * size:
 166:./Generated_Source/PSoC5/CySpc.c **** *   number of bytes to read from the SPC.
 167:./Generated_Source/PSoC5/CySpc.c **** *
 168:./Generated_Source/PSoC5/CySpc.c **** * Return:
 169:./Generated_Source/PSoC5/CySpc.c **** *   The number of bytes read from the SPC.
 170:./Generated_Source/PSoC5/CySpc.c **** *
 171:./Generated_Source/PSoC5/CySpc.c **** *
 172:./Generated_Source/PSoC5/CySpc.c **** *******************************************************************************/
 173:./Generated_Source/PSoC5/CySpc.c **** cystatus CySpcReadData(uint8 * buffer, uint8 size) 
 174:./Generated_Source/PSoC5/CySpc.c **** {
 252              		.loc 1 174 0
 253              		.cfi_startproc
 254              		@ args = 0, pretend = 0, frame = 16
 255              		@ frame_needed = 1, uses_anonymous_args = 0
 256              		@ link register save eliminated.
 257 0000 80B4     		push	{r7}
 258              	.LCFI6:
 259              		.cfi_def_cfa_offset 4
 260 0002 85B0     		sub	sp, sp, #20
 261              	.LCFI7:
 262              		.cfi_def_cfa_offset 24
 263 0004 00AF     		add	r7, sp, #0
 264              		.cfi_offset 7, -4
 265              	.LCFI8:
 266              		.cfi_def_cfa_register 7
 267 0006 7860     		str	r0, [r7, #4]
 268 0008 0B46     		mov	r3, r1
 269 000a FB70     		strb	r3, [r7, #3]
 175:./Generated_Source/PSoC5/CySpc.c ****     uint8 index;
 176:./Generated_Source/PSoC5/CySpc.c ****     
 177:./Generated_Source/PSoC5/CySpc.c ****     for(index = 0; index < size; index++)
 270              		.loc 1 177 0
 271 000c 4FF00003 		mov	r3, #0
 272 0010 FB73     		strb	r3, [r7, #15]
 273 0012 17E0     		b	.L17
 274              	.L18:
 178:./Generated_Source/PSoC5/CySpc.c ****     {    
ARM GAS  C:\DOCUME~1\akay\LOCALS~1\Temp\ccAcOuWa.s 			page 9


 179:./Generated_Source/PSoC5/CySpc.c ****         while(!(*SPC_STATUS & SPC_DATA_READY))
 275              		.loc 1 179 0
 276 0014 44F22273 		movw	r3, #:lower16:1073760034
 277 0018 C4F20003 		movt	r3, #:upper16:1073760034
 278 001c 1B78     		ldrb	r3, [r3, #0]
 279 001e DBB2     		uxtb	r3, r3
 280 0020 03F00103 		and	r3, r3, #1
 281 0024 002B     		cmp	r3, #0
 282 0026 F5D0     		beq	.L18
 180:./Generated_Source/PSoC5/CySpc.c ****         {
 181:./Generated_Source/PSoC5/CySpc.c ****         }
 182:./Generated_Source/PSoC5/CySpc.c **** 
 183:./Generated_Source/PSoC5/CySpc.c ****         buffer[index] = *SPC_CPU_DATA;
 283              		.loc 1 183 0
 284 0028 FA7B     		ldrb	r2, [r7, #15]	@ zero_extendqisi2
 285 002a 7B68     		ldr	r3, [r7, #4]
 286 002c 1A44     		add	r2, r2, r3
 287 002e 44F22073 		movw	r3, #:lower16:1073760032
 288 0032 C4F20003 		movt	r3, #:upper16:1073760032
 289 0036 1B78     		ldrb	r3, [r3, #0]
 290 0038 DBB2     		uxtb	r3, r3
 291 003a 1370     		strb	r3, [r2, #0]
 292              		.loc 1 177 0
 293 003c FB7B     		ldrb	r3, [r7, #15]
 294 003e 03F10103 		add	r3, r3, #1
 295 0042 FB73     		strb	r3, [r7, #15]
 296              	.L17:
 297 0044 FA7B     		ldrb	r2, [r7, #15]	@ zero_extendqisi2
 298 0046 FB78     		ldrb	r3, [r7, #3]	@ zero_extendqisi2
 299 0048 9A42     		cmp	r2, r3
 300 004a E3D3     		bcc	.L18
 184:./Generated_Source/PSoC5/CySpc.c ****     }
 185:./Generated_Source/PSoC5/CySpc.c **** 
 186:./Generated_Source/PSoC5/CySpc.c ****     return index;
 301              		.loc 1 186 0
 302 004c FB7B     		ldrb	r3, [r7, #15]	@ zero_extendqisi2
 187:./Generated_Source/PSoC5/CySpc.c **** }
 303              		.loc 1 187 0
 304 004e 1846     		mov	r0, r3
 305 0050 07F11407 		add	r7, r7, #20
 306 0054 BD46     		mov	sp, r7
 307 0056 80BC     		pop	{r7}
 308 0058 7047     		bx	lr
 309              		.cfi_endproc
 310              	.LFE2:
 311              		.size	CySpcReadData, .-CySpcReadData
 312 005a 00BF     		.section	.text.CySpcUnlock,"ax",%progbits
 313              		.align	2
 314              		.global	CySpcUnlock
 315              		.thumb
 316              		.thumb_func
 317              		.type	CySpcUnlock, %function
 318              	CySpcUnlock:
 319              	.LFB3:
 188:./Generated_Source/PSoC5/CySpc.c **** 
 189:./Generated_Source/PSoC5/CySpc.c **** 
 190:./Generated_Source/PSoC5/CySpc.c **** /*******************************************************************************
ARM GAS  C:\DOCUME~1\akay\LOCALS~1\Temp\ccAcOuWa.s 			page 10


 191:./Generated_Source/PSoC5/CySpc.c **** * Function Name: CySpcUnlock
 192:./Generated_Source/PSoC5/CySpc.c **** ********************************************************************************
 193:./Generated_Source/PSoC5/CySpc.c **** * Summary:
 194:./Generated_Source/PSoC5/CySpc.c **** *   Unlocks the SPC so it can be used by someone else.
 195:./Generated_Source/PSoC5/CySpc.c **** *   NOTE: SPC functions are not meant to be called directly by the user application.
 196:./Generated_Source/PSoC5/CySpc.c **** *
 197:./Generated_Source/PSoC5/CySpc.c **** * Parameters:
 198:./Generated_Source/PSoC5/CySpc.c **** *   void.
 199:./Generated_Source/PSoC5/CySpc.c **** *
 200:./Generated_Source/PSoC5/CySpc.c **** *   
 201:./Generated_Source/PSoC5/CySpc.c **** * Return:
 202:./Generated_Source/PSoC5/CySpc.c **** *   void.
 203:./Generated_Source/PSoC5/CySpc.c **** *
 204:./Generated_Source/PSoC5/CySpc.c **** *
 205:./Generated_Source/PSoC5/CySpc.c **** *******************************************************************************/
 206:./Generated_Source/PSoC5/CySpc.c **** void CySpcUnlock(void)
 207:./Generated_Source/PSoC5/CySpc.c **** {
 320              		.loc 1 207 0
 321              		.cfi_startproc
 322              		@ args = 0, pretend = 0, frame = 0
 323              		@ frame_needed = 1, uses_anonymous_args = 0
 324              		@ link register save eliminated.
 325 0000 80B4     		push	{r7}
 326              	.LCFI9:
 327              		.cfi_def_cfa_offset 4
 328 0002 00AF     		add	r7, sp, #0
 329              		.cfi_offset 7, -4
 330              	.LCFI10:
 331              		.cfi_def_cfa_register 7
 208:./Generated_Source/PSoC5/CySpc.c ****     /* Release the SPC object. */
 209:./Generated_Source/PSoC5/CySpc.c ****     SpcLockState = 0;
 332              		.loc 1 209 0
 333 0004 40F20003 		movw	r3, #:lower16:SpcLockState
 334 0008 C0F20003 		movt	r3, #:upper16:SpcLockState
 335 000c 4FF00002 		mov	r2, #0
 336 0010 1A60     		str	r2, [r3, #0]
 210:./Generated_Source/PSoC5/CySpc.c **** }
 337              		.loc 1 210 0
 338 0012 BD46     		mov	sp, r7
 339 0014 80BC     		pop	{r7}
 340 0016 7047     		bx	lr
 341              		.cfi_endproc
 342              	.LFE3:
 343              		.size	CySpcUnlock, .-CySpcUnlock
 344              		.section	.text.CySpcCreateCmdLoadMultiByte,"ax",%progbits
 345              		.align	2
 346              		.global	CySpcCreateCmdLoadMultiByte
 347              		.thumb
 348              		.thumb_func
 349              		.type	CySpcCreateCmdLoadMultiByte, %function
 350              	CySpcCreateCmdLoadMultiByte:
 351              	.LFB4:
 211:./Generated_Source/PSoC5/CySpc.c **** 
 212:./Generated_Source/PSoC5/CySpc.c **** 
 213:./Generated_Source/PSoC5/CySpc.c **** /*******************************************************************************
 214:./Generated_Source/PSoC5/CySpc.c **** * Function Name: CySpcCreateCmdLoadMultiByte
 215:./Generated_Source/PSoC5/CySpc.c **** ********************************************************************************
ARM GAS  C:\DOCUME~1\akay\LOCALS~1\Temp\ccAcOuWa.s 			page 11


 216:./Generated_Source/PSoC5/CySpc.c **** * Summary:
 217:./Generated_Source/PSoC5/CySpc.c **** *   Sets up the command to LoadMultiByte.
 218:./Generated_Source/PSoC5/CySpc.c **** *
 219:./Generated_Source/PSoC5/CySpc.c **** * Parameters:
 220:./Generated_Source/PSoC5/CySpc.c **** * array:
 221:./Generated_Source/PSoC5/CySpc.c **** *   Id of the array.
 222:./Generated_Source/PSoC5/CySpc.c **** *
 223:./Generated_Source/PSoC5/CySpc.c **** * address:
 224:./Generated_Source/PSoC5/CySpc.c **** *   flash/eeprom addrress
 225:./Generated_Source/PSoC5/CySpc.c **** *
 226:./Generated_Source/PSoC5/CySpc.c **** * size:
 227:./Generated_Source/PSoC5/CySpc.c **** *   number bytes to load.
 228:./Generated_Source/PSoC5/CySpc.c **** *   
 229:./Generated_Source/PSoC5/CySpc.c **** * Return:
 230:./Generated_Source/PSoC5/CySpc.c **** *   CYRET_SUCCESS if the command was created sucessfuly.
 231:./Generated_Source/PSoC5/CySpc.c **** *   CYRET_LOCKED if the SPC is in use.
 232:./Generated_Source/PSoC5/CySpc.c **** *   CYRET_BAD_PARAM if an invalid parameter was passed.
 233:./Generated_Source/PSoC5/CySpc.c **** *
 234:./Generated_Source/PSoC5/CySpc.c **** * Theory:
 235:./Generated_Source/PSoC5/CySpc.c **** *
 236:./Generated_Source/PSoC5/CySpc.c **** *
 237:./Generated_Source/PSoC5/CySpc.c **** *******************************************************************************/
 238:./Generated_Source/PSoC5/CySpc.c **** cystatus CySpcCreateCmdLoadMultiByte(uint8 array, uint16 address, uint16 number)
 239:./Generated_Source/PSoC5/CySpc.c **** {
 352              		.loc 1 239 0
 353              		.cfi_startproc
 354              		@ args = 0, pretend = 0, frame = 16
 355              		@ frame_needed = 1, uses_anonymous_args = 0
 356              		@ link register save eliminated.
 357 0000 80B4     		push	{r7}
 358              	.LCFI11:
 359              		.cfi_def_cfa_offset 4
 360 0002 85B0     		sub	sp, sp, #20
 361              	.LCFI12:
 362              		.cfi_def_cfa_offset 24
 363 0004 00AF     		add	r7, sp, #0
 364              		.cfi_offset 7, -4
 365              	.LCFI13:
 366              		.cfi_def_cfa_register 7
 367 0006 1346     		mov	r3, r2
 368 0008 0246     		mov	r2, r0
 369 000a FA71     		strb	r2, [r7, #7]
 370 000c 0A46     		mov	r2, r1	@ movhi
 371 000e BA80     		strh	r2, [r7, #4]	@ movhi
 372 0010 7B80     		strh	r3, [r7, #2]	@ movhi
 240:./Generated_Source/PSoC5/CySpc.c ****     cystatus status;
 241:./Generated_Source/PSoC5/CySpc.c **** 
 242:./Generated_Source/PSoC5/CySpc.c **** 
 243:./Generated_Source/PSoC5/CySpc.c ****     /* Check if number is correct for array. */
 244:./Generated_Source/PSoC5/CySpc.c ****     if((array < LAST_FLASH_ARRAYID && number == 32) ||
 373              		.loc 1 244 0
 374 0012 FB79     		ldrb	r3, [r7, #7]	@ zero_extendqisi2
 375 0014 3E2B     		cmp	r3, #62
 376 0016 02D8     		bhi	.L23
 377 0018 7B88     		ldrh	r3, [r7, #2]
 378 001a 202B     		cmp	r3, #32
 379 001c 05D0     		beq	.L24
ARM GAS  C:\DOCUME~1\akay\LOCALS~1\Temp\ccAcOuWa.s 			page 12


 380              	.L23:
 381 001e FB79     		ldrb	r3, [r7, #7]	@ zero_extendqisi2
 382 0020 3F2B     		cmp	r3, #63
 383 0022 46D9     		bls	.L25
 384 0024 7B88     		ldrh	r3, [r7, #2]
 385 0026 102B     		cmp	r3, #16
 386 0028 43D1     		bne	.L25
 387              	.L24:
 245:./Generated_Source/PSoC5/CySpc.c ****        (array > LAST_FLASH_ARRAYID && number == 16))
 246:./Generated_Source/PSoC5/CySpc.c ****     {
 247:./Generated_Source/PSoC5/CySpc.c ****         /* Create packet command. */
 248:./Generated_Source/PSoC5/CySpc.c ****         cyCommand[0] = SPC_KEY_ONE;
 388              		.loc 1 248 0
 389 002a 40F20003 		movw	r3, #:lower16:cyCommand
 390 002e C0F20003 		movt	r3, #:upper16:cyCommand
 391 0032 6FF04902 		mvn	r2, #73
 392 0036 1A70     		strb	r2, [r3, #0]
 249:./Generated_Source/PSoC5/CySpc.c ****         cyCommand[1] = SPC_KEY_TWO(SPC_CMD_LD_MULTI_BYTE);
 393              		.loc 1 249 0
 394 0038 40F20003 		movw	r3, #:lower16:cyCommand
 395 003c C0F20003 		movt	r3, #:upper16:cyCommand
 396 0040 6FF02B02 		mvn	r2, #43
 397 0044 5A70     		strb	r2, [r3, #1]
 250:./Generated_Source/PSoC5/CySpc.c ****         cyCommand[2] = SPC_CMD_LD_MULTI_BYTE;
 398              		.loc 1 250 0
 399 0046 40F20003 		movw	r3, #:lower16:cyCommand
 400 004a C0F20003 		movt	r3, #:upper16:cyCommand
 401 004e 4FF00102 		mov	r2, #1
 402 0052 9A70     		strb	r2, [r3, #2]
 251:./Generated_Source/PSoC5/CySpc.c ****         
 252:./Generated_Source/PSoC5/CySpc.c ****         /* Create packet parameters. */
 253:./Generated_Source/PSoC5/CySpc.c ****         cyCommand[3] = array;
 403              		.loc 1 253 0
 404 0054 40F20003 		movw	r3, #:lower16:cyCommand
 405 0058 C0F20003 		movt	r3, #:upper16:cyCommand
 406 005c FA79     		ldrb	r2, [r7, #7]
 407 005e DA70     		strb	r2, [r3, #3]
 254:./Generated_Source/PSoC5/CySpc.c ****         cyCommand[4] = 1 & HI8(address);
 408              		.loc 1 254 0
 409 0060 BB88     		ldrh	r3, [r7, #4]
 410 0062 4FEA1323 		lsr	r3, r3, #8
 411 0066 9BB2     		uxth	r3, r3
 412 0068 DBB2     		uxtb	r3, r3
 413 006a 1A46     		mov	r2, r3
 414 006c 02F00102 		and	r2, r2, #1
 415 0070 40F20003 		movw	r3, #:lower16:cyCommand
 416 0074 C0F20003 		movt	r3, #:upper16:cyCommand
 417 0078 1A71     		strb	r2, [r3, #4]
 255:./Generated_Source/PSoC5/CySpc.c ****         cyCommand[5] = LO8(address);
 418              		.loc 1 255 0
 419 007a BB88     		ldrh	r3, [r7, #4]	@ movhi
 420 007c DAB2     		uxtb	r2, r3
 421 007e 40F20003 		movw	r3, #:lower16:cyCommand
 422 0082 C0F20003 		movt	r3, #:upper16:cyCommand
 423 0086 5A71     		strb	r2, [r3, #5]
 256:./Generated_Source/PSoC5/CySpc.c ****         cyCommand[6] = number - 1;
 424              		.loc 1 256 0
ARM GAS  C:\DOCUME~1\akay\LOCALS~1\Temp\ccAcOuWa.s 			page 13


 425 0088 7B88     		ldrh	r3, [r7, #2]	@ movhi
 426 008a DBB2     		uxtb	r3, r3
 427 008c 03F1FF33 		add	r3, r3, #-1
 428 0090 DAB2     		uxtb	r2, r3
 429 0092 40F20003 		movw	r3, #:lower16:cyCommand
 430 0096 C0F20003 		movt	r3, #:upper16:cyCommand
 431 009a 9A71     		strb	r2, [r3, #6]
 257:./Generated_Source/PSoC5/CySpc.c **** 
 258:./Generated_Source/PSoC5/CySpc.c ****         cyCommandSize = SIZEOF_CMD_LOAD_MBYTE;
 432              		.loc 1 258 0
 433 009c 40F20003 		movw	r3, #:lower16:cyCommandSize
 434 00a0 C0F20003 		movt	r3, #:upper16:cyCommandSize
 435 00a4 4FF00402 		mov	r2, #4
 436 00a8 1A70     		strb	r2, [r3, #0]
 259:./Generated_Source/PSoC5/CySpc.c **** 
 260:./Generated_Source/PSoC5/CySpc.c ****         status = CYRET_SUCCESS;
 437              		.loc 1 260 0
 438 00aa 4FF00003 		mov	r3, #0
 439 00ae FB60     		str	r3, [r7, #12]
 440              		.loc 1 244 0
 441 00b0 02E0     		b	.L26
 442              	.L25:
 261:./Generated_Source/PSoC5/CySpc.c ****     }
 262:./Generated_Source/PSoC5/CySpc.c ****     else
 263:./Generated_Source/PSoC5/CySpc.c ****     {
 264:./Generated_Source/PSoC5/CySpc.c ****         status = CYRET_BAD_PARAM;
 443              		.loc 1 264 0
 444 00b2 4FF00103 		mov	r3, #1
 445 00b6 FB60     		str	r3, [r7, #12]
 446              	.L26:
 265:./Generated_Source/PSoC5/CySpc.c ****     }
 266:./Generated_Source/PSoC5/CySpc.c **** 
 267:./Generated_Source/PSoC5/CySpc.c ****     return status;
 447              		.loc 1 267 0
 448 00b8 FB68     		ldr	r3, [r7, #12]
 268:./Generated_Source/PSoC5/CySpc.c **** }
 449              		.loc 1 268 0
 450 00ba 1846     		mov	r0, r3
 451 00bc 07F11407 		add	r7, r7, #20
 452 00c0 BD46     		mov	sp, r7
 453 00c2 80BC     		pop	{r7}
 454 00c4 7047     		bx	lr
 455              		.cfi_endproc
 456              	.LFE4:
 457              		.size	CySpcCreateCmdLoadMultiByte, .-CySpcCreateCmdLoadMultiByte
 458 00c6 00BF     		.section	.text.CySpcCreateCmdLoadRow,"ax",%progbits
 459              		.align	2
 460              		.global	CySpcCreateCmdLoadRow
 461              		.thumb
 462              		.thumb_func
 463              		.type	CySpcCreateCmdLoadRow, %function
 464              	CySpcCreateCmdLoadRow:
 465              	.LFB5:
 269:./Generated_Source/PSoC5/CySpc.c **** 
 270:./Generated_Source/PSoC5/CySpc.c **** 
 271:./Generated_Source/PSoC5/CySpc.c **** /*******************************************************************************
 272:./Generated_Source/PSoC5/CySpc.c **** * Function Name: CySpcCreateCmdLoadRow
ARM GAS  C:\DOCUME~1\akay\LOCALS~1\Temp\ccAcOuWa.s 			page 14


 273:./Generated_Source/PSoC5/CySpc.c **** ********************************************************************************
 274:./Generated_Source/PSoC5/CySpc.c **** * Summary:
 275:./Generated_Source/PSoC5/CySpc.c **** *   Sets up the command to LoadRow.
 276:./Generated_Source/PSoC5/CySpc.c **** *   NOTE: SPC functions are not meant to be called directly by the user application.
 277:./Generated_Source/PSoC5/CySpc.c **** *   
 278:./Generated_Source/PSoC5/CySpc.c **** *
 279:./Generated_Source/PSoC5/CySpc.c **** * Parameters:
 280:./Generated_Source/PSoC5/CySpc.c **** * array:
 281:./Generated_Source/PSoC5/CySpc.c **** *   Id of the array.
 282:./Generated_Source/PSoC5/CySpc.c **** *
 283:./Generated_Source/PSoC5/CySpc.c **** *
 284:./Generated_Source/PSoC5/CySpc.c **** * Return:
 285:./Generated_Source/PSoC5/CySpc.c **** *   CYRET_SUCCESS if the command was created sucessfuly.
 286:./Generated_Source/PSoC5/CySpc.c **** *   CYRET_BAD_PARAM if an invalid parameter was passed.
 287:./Generated_Source/PSoC5/CySpc.c **** *
 288:./Generated_Source/PSoC5/CySpc.c **** *
 289:./Generated_Source/PSoC5/CySpc.c **** * Theory:
 290:./Generated_Source/PSoC5/CySpc.c **** *
 291:./Generated_Source/PSoC5/CySpc.c **** *
 292:./Generated_Source/PSoC5/CySpc.c **** *******************************************************************************/
 293:./Generated_Source/PSoC5/CySpc.c **** cystatus CySpcCreateCmdLoadRow(uint8 array)
 294:./Generated_Source/PSoC5/CySpc.c **** {
 466              		.loc 1 294 0
 467              		.cfi_startproc
 468              		@ args = 0, pretend = 0, frame = 16
 469              		@ frame_needed = 1, uses_anonymous_args = 0
 470              		@ link register save eliminated.
 471 0000 80B4     		push	{r7}
 472              	.LCFI14:
 473              		.cfi_def_cfa_offset 4
 474 0002 85B0     		sub	sp, sp, #20
 475              	.LCFI15:
 476              		.cfi_def_cfa_offset 24
 477 0004 00AF     		add	r7, sp, #0
 478              		.cfi_offset 7, -4
 479              	.LCFI16:
 480              		.cfi_def_cfa_register 7
 481 0006 0346     		mov	r3, r0
 482 0008 FB71     		strb	r3, [r7, #7]
 295:./Generated_Source/PSoC5/CySpc.c ****     cystatus status;
 296:./Generated_Source/PSoC5/CySpc.c **** 
 297:./Generated_Source/PSoC5/CySpc.c **** 
 298:./Generated_Source/PSoC5/CySpc.c ****     /* Create packet command. */
 299:./Generated_Source/PSoC5/CySpc.c ****     cyCommand[0] = SPC_KEY_ONE;
 483              		.loc 1 299 0
 484 000a 40F20003 		movw	r3, #:lower16:cyCommand
 485 000e C0F20003 		movt	r3, #:upper16:cyCommand
 486 0012 6FF04902 		mvn	r2, #73
 487 0016 1A70     		strb	r2, [r3, #0]
 300:./Generated_Source/PSoC5/CySpc.c ****     cyCommand[1] = SPC_KEY_TWO(SPC_CMD_LD_ROW);
 488              		.loc 1 300 0
 489 0018 40F20003 		movw	r3, #:lower16:cyCommand
 490 001c C0F20003 		movt	r3, #:upper16:cyCommand
 491 0020 6FF02A02 		mvn	r2, #42
 492 0024 5A70     		strb	r2, [r3, #1]
 301:./Generated_Source/PSoC5/CySpc.c ****     cyCommand[2] = SPC_CMD_LD_ROW;
 493              		.loc 1 301 0
ARM GAS  C:\DOCUME~1\akay\LOCALS~1\Temp\ccAcOuWa.s 			page 15


 494 0026 40F20003 		movw	r3, #:lower16:cyCommand
 495 002a C0F20003 		movt	r3, #:upper16:cyCommand
 496 002e 4FF00202 		mov	r2, #2
 497 0032 9A70     		strb	r2, [r3, #2]
 302:./Generated_Source/PSoC5/CySpc.c ****     
 303:./Generated_Source/PSoC5/CySpc.c ****     /* Create packet parameters. */
 304:./Generated_Source/PSoC5/CySpc.c ****     cyCommand[3] = array;
 498              		.loc 1 304 0
 499 0034 40F20003 		movw	r3, #:lower16:cyCommand
 500 0038 C0F20003 		movt	r3, #:upper16:cyCommand
 501 003c FA79     		ldrb	r2, [r7, #7]
 502 003e DA70     		strb	r2, [r3, #3]
 305:./Generated_Source/PSoC5/CySpc.c **** 
 306:./Generated_Source/PSoC5/CySpc.c ****     cyCommandSize = SIZEOF_CMD_LOAD_ROW;
 503              		.loc 1 306 0
 504 0040 40F20003 		movw	r3, #:lower16:cyCommandSize
 505 0044 C0F20003 		movt	r3, #:upper16:cyCommandSize
 506 0048 4FF00102 		mov	r2, #1
 507 004c 1A70     		strb	r2, [r3, #0]
 307:./Generated_Source/PSoC5/CySpc.c **** 
 308:./Generated_Source/PSoC5/CySpc.c ****     status = CYRET_SUCCESS;
 508              		.loc 1 308 0
 509 004e 4FF00003 		mov	r3, #0
 510 0052 FB60     		str	r3, [r7, #12]
 309:./Generated_Source/PSoC5/CySpc.c ****     
 310:./Generated_Source/PSoC5/CySpc.c ****     
 311:./Generated_Source/PSoC5/CySpc.c ****     return status;
 511              		.loc 1 311 0
 512 0054 FB68     		ldr	r3, [r7, #12]
 312:./Generated_Source/PSoC5/CySpc.c **** }
 513              		.loc 1 312 0
 514 0056 1846     		mov	r0, r3
 515 0058 07F11407 		add	r7, r7, #20
 516 005c BD46     		mov	sp, r7
 517 005e 80BC     		pop	{r7}
 518 0060 7047     		bx	lr
 519              		.cfi_endproc
 520              	.LFE5:
 521              		.size	CySpcCreateCmdLoadRow, .-CySpcCreateCmdLoadRow
 522 0062 00BF     		.section	.text.CySpcCreateCmdReadMultiByte,"ax",%progbits
 523              		.align	2
 524              		.global	CySpcCreateCmdReadMultiByte
 525              		.thumb
 526              		.thumb_func
 527              		.type	CySpcCreateCmdReadMultiByte, %function
 528              	CySpcCreateCmdReadMultiByte:
 529              	.LFB6:
 313:./Generated_Source/PSoC5/CySpc.c **** 
 314:./Generated_Source/PSoC5/CySpc.c **** 
 315:./Generated_Source/PSoC5/CySpc.c **** /*******************************************************************************
 316:./Generated_Source/PSoC5/CySpc.c **** * Function Name: CySpcCreateCmdReadMultiByte
 317:./Generated_Source/PSoC5/CySpc.c **** ********************************************************************************
 318:./Generated_Source/PSoC5/CySpc.c **** * Summary:
 319:./Generated_Source/PSoC5/CySpc.c **** *   Sets up the command to ReadMultiByte.
 320:./Generated_Source/PSoC5/CySpc.c **** *   NOTE: SPC functions are not meant to be called directly by the user application.
 321:./Generated_Source/PSoC5/CySpc.c **** *
 322:./Generated_Source/PSoC5/CySpc.c **** * Parameters:
ARM GAS  C:\DOCUME~1\akay\LOCALS~1\Temp\ccAcOuWa.s 			page 16


 323:./Generated_Source/PSoC5/CySpc.c **** * array:
 324:./Generated_Source/PSoC5/CySpc.c **** *   Id of the array.
 325:./Generated_Source/PSoC5/CySpc.c **** *
 326:./Generated_Source/PSoC5/CySpc.c **** * ecc:
 327:./Generated_Source/PSoC5/CySpc.c **** *   0x80 if reading ecc data.
 328:./Generated_Source/PSoC5/CySpc.c **** *   0x00 if user data.
 329:./Generated_Source/PSoC5/CySpc.c **** *
 330:./Generated_Source/PSoC5/CySpc.c **** * address:
 331:./Generated_Source/PSoC5/CySpc.c **** *   flash addrress.
 332:./Generated_Source/PSoC5/CySpc.c **** *
 333:./Generated_Source/PSoC5/CySpc.c **** * size:
 334:./Generated_Source/PSoC5/CySpc.c **** *   number bytes to load.
 335:./Generated_Source/PSoC5/CySpc.c **** *   
 336:./Generated_Source/PSoC5/CySpc.c **** * Return:
 337:./Generated_Source/PSoC5/CySpc.c **** *   CYRET_SUCCESS if the command was created sucessfuly.
 338:./Generated_Source/PSoC5/CySpc.c **** *   CYRET_BAD_PARAM if an invalid parameter was passed.
 339:./Generated_Source/PSoC5/CySpc.c **** *
 340:./Generated_Source/PSoC5/CySpc.c **** * Theory:
 341:./Generated_Source/PSoC5/CySpc.c **** *
 342:./Generated_Source/PSoC5/CySpc.c **** *
 343:./Generated_Source/PSoC5/CySpc.c **** *******************************************************************************/
 344:./Generated_Source/PSoC5/CySpc.c **** cystatus CySpcCreateCmdReadMultiByte(uint8 array, uint8 ecc, uint16 address, uint8 number)
 345:./Generated_Source/PSoC5/CySpc.c **** {
 530              		.loc 1 345 0
 531              		.cfi_startproc
 532              		@ args = 0, pretend = 0, frame = 16
 533              		@ frame_needed = 1, uses_anonymous_args = 0
 534              		@ link register save eliminated.
 535 0000 80B4     		push	{r7}
 536              	.LCFI17:
 537              		.cfi_def_cfa_offset 4
 538 0002 85B0     		sub	sp, sp, #20
 539              	.LCFI18:
 540              		.cfi_def_cfa_offset 24
 541 0004 00AF     		add	r7, sp, #0
 542              		.cfi_offset 7, -4
 543              	.LCFI19:
 544              		.cfi_def_cfa_register 7
 545 0006 F871     		strb	r0, [r7, #7]
 546 0008 B971     		strb	r1, [r7, #6]
 547 000a BA80     		strh	r2, [r7, #4]	@ movhi
 548 000c FB70     		strb	r3, [r7, #3]
 346:./Generated_Source/PSoC5/CySpc.c ****     cystatus status;
 347:./Generated_Source/PSoC5/CySpc.c **** 
 348:./Generated_Source/PSoC5/CySpc.c **** 
 349:./Generated_Source/PSoC5/CySpc.c ****     /* Create packet command. */
 350:./Generated_Source/PSoC5/CySpc.c ****     cyCommand[0] = SPC_KEY_ONE;
 549              		.loc 1 350 0
 550 000e 40F20003 		movw	r3, #:lower16:cyCommand
 551 0012 C0F20003 		movt	r3, #:upper16:cyCommand
 552 0016 6FF04902 		mvn	r2, #73
 553 001a 1A70     		strb	r2, [r3, #0]
 351:./Generated_Source/PSoC5/CySpc.c ****     cyCommand[1] = SPC_KEY_TWO(SPC_CMD_RD_MULTI_BYTE);
 554              		.loc 1 351 0
 555 001c 40F20003 		movw	r3, #:lower16:cyCommand
 556 0020 C0F20003 		movt	r3, #:upper16:cyCommand
 557 0024 6FF02802 		mvn	r2, #40
ARM GAS  C:\DOCUME~1\akay\LOCALS~1\Temp\ccAcOuWa.s 			page 17


 558 0028 5A70     		strb	r2, [r3, #1]
 352:./Generated_Source/PSoC5/CySpc.c ****     cyCommand[2] = SPC_CMD_RD_MULTI_BYTE;
 559              		.loc 1 352 0
 560 002a 40F20003 		movw	r3, #:lower16:cyCommand
 561 002e C0F20003 		movt	r3, #:upper16:cyCommand
 562 0032 4FF00402 		mov	r2, #4
 563 0036 9A70     		strb	r2, [r3, #2]
 353:./Generated_Source/PSoC5/CySpc.c ****     
 354:./Generated_Source/PSoC5/CySpc.c ****     /* Create packet parameters. */
 355:./Generated_Source/PSoC5/CySpc.c ****     cyCommand[3] = array;
 564              		.loc 1 355 0
 565 0038 40F20003 		movw	r3, #:lower16:cyCommand
 566 003c C0F20003 		movt	r3, #:upper16:cyCommand
 567 0040 FA79     		ldrb	r2, [r7, #7]
 568 0042 DA70     		strb	r2, [r3, #3]
 356:./Generated_Source/PSoC5/CySpc.c ****     cyCommand[4] = ecc;
 569              		.loc 1 356 0
 570 0044 40F20003 		movw	r3, #:lower16:cyCommand
 571 0048 C0F20003 		movt	r3, #:upper16:cyCommand
 572 004c BA79     		ldrb	r2, [r7, #6]
 573 004e 1A71     		strb	r2, [r3, #4]
 357:./Generated_Source/PSoC5/CySpc.c ****     cyCommand[5] = HI8(address);
 574              		.loc 1 357 0
 575 0050 BB88     		ldrh	r3, [r7, #4]
 576 0052 4FEA1323 		lsr	r3, r3, #8
 577 0056 9BB2     		uxth	r3, r3
 578 0058 DAB2     		uxtb	r2, r3
 579 005a 40F20003 		movw	r3, #:lower16:cyCommand
 580 005e C0F20003 		movt	r3, #:upper16:cyCommand
 581 0062 5A71     		strb	r2, [r3, #5]
 358:./Generated_Source/PSoC5/CySpc.c ****     cyCommand[6] = LO8(address);
 582              		.loc 1 358 0
 583 0064 BB88     		ldrh	r3, [r7, #4]	@ movhi
 584 0066 DAB2     		uxtb	r2, r3
 585 0068 40F20003 		movw	r3, #:lower16:cyCommand
 586 006c C0F20003 		movt	r3, #:upper16:cyCommand
 587 0070 9A71     		strb	r2, [r3, #6]
 359:./Generated_Source/PSoC5/CySpc.c ****     cyCommand[7] = number - 1;
 588              		.loc 1 359 0
 589 0072 FB78     		ldrb	r3, [r7, #3]
 590 0074 03F1FF33 		add	r3, r3, #-1
 591 0078 DAB2     		uxtb	r2, r3
 592 007a 40F20003 		movw	r3, #:lower16:cyCommand
 593 007e C0F20003 		movt	r3, #:upper16:cyCommand
 594 0082 DA71     		strb	r2, [r3, #7]
 360:./Generated_Source/PSoC5/CySpc.c **** 
 361:./Generated_Source/PSoC5/CySpc.c ****     cyCommandSize = SIZEOF_CMD_READ_MBYTE;
 595              		.loc 1 361 0
 596 0084 40F20003 		movw	r3, #:lower16:cyCommandSize
 597 0088 C0F20003 		movt	r3, #:upper16:cyCommandSize
 598 008c 4FF00502 		mov	r2, #5
 599 0090 1A70     		strb	r2, [r3, #0]
 362:./Generated_Source/PSoC5/CySpc.c **** 
 363:./Generated_Source/PSoC5/CySpc.c ****     status = CYRET_SUCCESS;
 600              		.loc 1 363 0
 601 0092 4FF00003 		mov	r3, #0
 602 0096 FB60     		str	r3, [r7, #12]
ARM GAS  C:\DOCUME~1\akay\LOCALS~1\Temp\ccAcOuWa.s 			page 18


 364:./Generated_Source/PSoC5/CySpc.c ****     
 365:./Generated_Source/PSoC5/CySpc.c ****     return status;
 603              		.loc 1 365 0
 604 0098 FB68     		ldr	r3, [r7, #12]
 366:./Generated_Source/PSoC5/CySpc.c **** }
 605              		.loc 1 366 0
 606 009a 1846     		mov	r0, r3
 607 009c 07F11407 		add	r7, r7, #20
 608 00a0 BD46     		mov	sp, r7
 609 00a2 80BC     		pop	{r7}
 610 00a4 7047     		bx	lr
 611              		.cfi_endproc
 612              	.LFE6:
 613              		.size	CySpcCreateCmdReadMultiByte, .-CySpcCreateCmdReadMultiByte
 614 00a6 00BF     		.section	.text.CySpcCreateCmdWriteRow,"ax",%progbits
 615              		.align	2
 616              		.global	CySpcCreateCmdWriteRow
 617              		.thumb
 618              		.thumb_func
 619              		.type	CySpcCreateCmdWriteRow, %function
 620              	CySpcCreateCmdWriteRow:
 621              	.LFB7:
 367:./Generated_Source/PSoC5/CySpc.c **** 
 368:./Generated_Source/PSoC5/CySpc.c **** 
 369:./Generated_Source/PSoC5/CySpc.c **** /*******************************************************************************
 370:./Generated_Source/PSoC5/CySpc.c **** * Function Name: CySpcCreateCmdWriteRow
 371:./Generated_Source/PSoC5/CySpc.c **** ********************************************************************************
 372:./Generated_Source/PSoC5/CySpc.c **** * Summary:
 373:./Generated_Source/PSoC5/CySpc.c **** *   Sets up the command to WriteRow.
 374:./Generated_Source/PSoC5/CySpc.c **** *   NOTE: SPC functions are not meant to be called directly by the user application.
 375:./Generated_Source/PSoC5/CySpc.c **** *   
 376:./Generated_Source/PSoC5/CySpc.c **** *
 377:./Generated_Source/PSoC5/CySpc.c **** * Parameters:
 378:./Generated_Source/PSoC5/CySpc.c **** * array:
 379:./Generated_Source/PSoC5/CySpc.c **** *   Id of the array.
 380:./Generated_Source/PSoC5/CySpc.c **** *
 381:./Generated_Source/PSoC5/CySpc.c **** *
 382:./Generated_Source/PSoC5/CySpc.c **** * address:
 383:./Generated_Source/PSoC5/CySpc.c **** *   flash/eeprom addrress
 384:./Generated_Source/PSoC5/CySpc.c **** *
 385:./Generated_Source/PSoC5/CySpc.c **** *
 386:./Generated_Source/PSoC5/CySpc.c **** * tempPolarity:
 387:./Generated_Source/PSoC5/CySpc.c **** *
 388:./Generated_Source/PSoC5/CySpc.c **** *
 389:./Generated_Source/PSoC5/CySpc.c **** * tempMagnitute:
 390:./Generated_Source/PSoC5/CySpc.c **** *
 391:./Generated_Source/PSoC5/CySpc.c **** *
 392:./Generated_Source/PSoC5/CySpc.c **** *
 393:./Generated_Source/PSoC5/CySpc.c **** *   
 394:./Generated_Source/PSoC5/CySpc.c **** * Return:
 395:./Generated_Source/PSoC5/CySpc.c **** *   CYRET_SUCCESS if the command was created sucessfuly.
 396:./Generated_Source/PSoC5/CySpc.c **** *   CYRET_BAD_PARAM if an invalid parameter was passed.
 397:./Generated_Source/PSoC5/CySpc.c **** *
 398:./Generated_Source/PSoC5/CySpc.c **** *
 399:./Generated_Source/PSoC5/CySpc.c **** * Theory:
 400:./Generated_Source/PSoC5/CySpc.c **** *
 401:./Generated_Source/PSoC5/CySpc.c **** *
ARM GAS  C:\DOCUME~1\akay\LOCALS~1\Temp\ccAcOuWa.s 			page 19


 402:./Generated_Source/PSoC5/CySpc.c **** *******************************************************************************/
 403:./Generated_Source/PSoC5/CySpc.c **** cystatus CySpcCreateCmdWriteRow(uint8 array, uint16 address, uint8 tempPolarity, uint8 tempMagnitut
 404:./Generated_Source/PSoC5/CySpc.c **** {
 622              		.loc 1 404 0
 623              		.cfi_startproc
 624              		@ args = 0, pretend = 0, frame = 16
 625              		@ frame_needed = 1, uses_anonymous_args = 0
 626              		@ link register save eliminated.
 627 0000 80B4     		push	{r7}
 628              	.LCFI20:
 629              		.cfi_def_cfa_offset 4
 630 0002 85B0     		sub	sp, sp, #20
 631              	.LCFI21:
 632              		.cfi_def_cfa_offset 24
 633 0004 00AF     		add	r7, sp, #0
 634              		.cfi_offset 7, -4
 635              	.LCFI22:
 636              		.cfi_def_cfa_register 7
 637 0006 F871     		strb	r0, [r7, #7]
 638 0008 B980     		strh	r1, [r7, #4]	@ movhi
 639 000a FA70     		strb	r2, [r7, #3]
 640 000c BB70     		strb	r3, [r7, #2]
 405:./Generated_Source/PSoC5/CySpc.c ****     cystatus status;
 406:./Generated_Source/PSoC5/CySpc.c **** 
 407:./Generated_Source/PSoC5/CySpc.c ****     
 408:./Generated_Source/PSoC5/CySpc.c ****     /* Create packet command. */
 409:./Generated_Source/PSoC5/CySpc.c ****     cyCommand[0] = SPC_KEY_ONE;
 641              		.loc 1 409 0
 642 000e 40F20003 		movw	r3, #:lower16:cyCommand
 643 0012 C0F20003 		movt	r3, #:upper16:cyCommand
 644 0016 6FF04902 		mvn	r2, #73
 645 001a 1A70     		strb	r2, [r3, #0]
 410:./Generated_Source/PSoC5/CySpc.c ****     cyCommand[1] = SPC_KEY_TWO(SPC_CMD_WR_ROW);
 646              		.loc 1 410 0
 647 001c 40F20003 		movw	r3, #:lower16:cyCommand
 648 0020 C0F20003 		movt	r3, #:upper16:cyCommand
 649 0024 6FF02702 		mvn	r2, #39
 650 0028 5A70     		strb	r2, [r3, #1]
 411:./Generated_Source/PSoC5/CySpc.c ****     cyCommand[2] = SPC_CMD_WR_ROW;
 651              		.loc 1 411 0
 652 002a 40F20003 		movw	r3, #:lower16:cyCommand
 653 002e C0F20003 		movt	r3, #:upper16:cyCommand
 654 0032 4FF00502 		mov	r2, #5
 655 0036 9A70     		strb	r2, [r3, #2]
 412:./Generated_Source/PSoC5/CySpc.c ****     
 413:./Generated_Source/PSoC5/CySpc.c ****     /* Create packet parameters. */
 414:./Generated_Source/PSoC5/CySpc.c ****     cyCommand[3] = array;
 656              		.loc 1 414 0
 657 0038 40F20003 		movw	r3, #:lower16:cyCommand
 658 003c C0F20003 		movt	r3, #:upper16:cyCommand
 659 0040 FA79     		ldrb	r2, [r7, #7]
 660 0042 DA70     		strb	r2, [r3, #3]
 415:./Generated_Source/PSoC5/CySpc.c ****     cyCommand[4] = HI8(address);
 661              		.loc 1 415 0
 662 0044 BB88     		ldrh	r3, [r7, #4]
 663 0046 4FEA1323 		lsr	r3, r3, #8
 664 004a 9BB2     		uxth	r3, r3
ARM GAS  C:\DOCUME~1\akay\LOCALS~1\Temp\ccAcOuWa.s 			page 20


 665 004c DAB2     		uxtb	r2, r3
 666 004e 40F20003 		movw	r3, #:lower16:cyCommand
 667 0052 C0F20003 		movt	r3, #:upper16:cyCommand
 668 0056 1A71     		strb	r2, [r3, #4]
 416:./Generated_Source/PSoC5/CySpc.c ****     cyCommand[5] = LO8(address);
 669              		.loc 1 416 0
 670 0058 BB88     		ldrh	r3, [r7, #4]	@ movhi
 671 005a DAB2     		uxtb	r2, r3
 672 005c 40F20003 		movw	r3, #:lower16:cyCommand
 673 0060 C0F20003 		movt	r3, #:upper16:cyCommand
 674 0064 5A71     		strb	r2, [r3, #5]
 417:./Generated_Source/PSoC5/CySpc.c ****     cyCommand[6] = tempPolarity;
 675              		.loc 1 417 0
 676 0066 40F20003 		movw	r3, #:lower16:cyCommand
 677 006a C0F20003 		movt	r3, #:upper16:cyCommand
 678 006e FA78     		ldrb	r2, [r7, #3]
 679 0070 9A71     		strb	r2, [r3, #6]
 418:./Generated_Source/PSoC5/CySpc.c ****     cyCommand[7] = tempMagnitute;
 680              		.loc 1 418 0
 681 0072 40F20003 		movw	r3, #:lower16:cyCommand
 682 0076 C0F20003 		movt	r3, #:upper16:cyCommand
 683 007a BA78     		ldrb	r2, [r7, #2]
 684 007c DA71     		strb	r2, [r3, #7]
 419:./Generated_Source/PSoC5/CySpc.c **** 
 420:./Generated_Source/PSoC5/CySpc.c ****     cyCommandSize = SIZEOF_CMD_WR_ROW;
 685              		.loc 1 420 0
 686 007e 40F20003 		movw	r3, #:lower16:cyCommandSize
 687 0082 C0F20003 		movt	r3, #:upper16:cyCommandSize
 688 0086 4FF00502 		mov	r2, #5
 689 008a 1A70     		strb	r2, [r3, #0]
 421:./Generated_Source/PSoC5/CySpc.c **** 
 422:./Generated_Source/PSoC5/CySpc.c ****     status = CYRET_SUCCESS;
 690              		.loc 1 422 0
 691 008c 4FF00003 		mov	r3, #0
 692 0090 FB60     		str	r3, [r7, #12]
 423:./Generated_Source/PSoC5/CySpc.c ****     
 424:./Generated_Source/PSoC5/CySpc.c ****     return status;
 693              		.loc 1 424 0
 694 0092 FB68     		ldr	r3, [r7, #12]
 425:./Generated_Source/PSoC5/CySpc.c **** }
 695              		.loc 1 425 0
 696 0094 1846     		mov	r0, r3
 697 0096 07F11407 		add	r7, r7, #20
 698 009a BD46     		mov	sp, r7
 699 009c 80BC     		pop	{r7}
 700 009e 7047     		bx	lr
 701              		.cfi_endproc
 702              	.LFE7:
 703              		.size	CySpcCreateCmdWriteRow, .-CySpcCreateCmdWriteRow
 704              		.section	.text.CySpcCreateCmdProgramRow,"ax",%progbits
 705              		.align	2
 706              		.global	CySpcCreateCmdProgramRow
 707              		.thumb
 708              		.thumb_func
 709              		.type	CySpcCreateCmdProgramRow, %function
 710              	CySpcCreateCmdProgramRow:
 711              	.LFB8:
ARM GAS  C:\DOCUME~1\akay\LOCALS~1\Temp\ccAcOuWa.s 			page 21


 426:./Generated_Source/PSoC5/CySpc.c **** 
 427:./Generated_Source/PSoC5/CySpc.c **** 
 428:./Generated_Source/PSoC5/CySpc.c **** /*******************************************************************************
 429:./Generated_Source/PSoC5/CySpc.c **** * Function Name: CySpcCreateCmdProgramRow
 430:./Generated_Source/PSoC5/CySpc.c **** ********************************************************************************
 431:./Generated_Source/PSoC5/CySpc.c **** * Summary:
 432:./Generated_Source/PSoC5/CySpc.c **** *   Sets up the command to ProgramRow.
 433:./Generated_Source/PSoC5/CySpc.c **** *   NOTE: SPC functions are not meant to be called directly by the user application.
 434:./Generated_Source/PSoC5/CySpc.c **** *   
 435:./Generated_Source/PSoC5/CySpc.c **** *
 436:./Generated_Source/PSoC5/CySpc.c **** * Parameters:
 437:./Generated_Source/PSoC5/CySpc.c **** * array:
 438:./Generated_Source/PSoC5/CySpc.c **** *   Id of the array.
 439:./Generated_Source/PSoC5/CySpc.c **** *
 440:./Generated_Source/PSoC5/CySpc.c **** *
 441:./Generated_Source/PSoC5/CySpc.c **** * address:
 442:./Generated_Source/PSoC5/CySpc.c **** *   flash/eeprom addrress
 443:./Generated_Source/PSoC5/CySpc.c **** *
 444:./Generated_Source/PSoC5/CySpc.c **** *
 445:./Generated_Source/PSoC5/CySpc.c **** * par3:
 446:./Generated_Source/PSoC5/CySpc.c **** *
 447:./Generated_Source/PSoC5/CySpc.c **** *   
 448:./Generated_Source/PSoC5/CySpc.c **** * Return:
 449:./Generated_Source/PSoC5/CySpc.c **** *   CYRET_SUCCESS if the command was created sucessfuly.
 450:./Generated_Source/PSoC5/CySpc.c **** *   CYRET_BAD_PARAM if an invalid parameter was passed.
 451:./Generated_Source/PSoC5/CySpc.c **** *
 452:./Generated_Source/PSoC5/CySpc.c **** *
 453:./Generated_Source/PSoC5/CySpc.c **** * Theory:
 454:./Generated_Source/PSoC5/CySpc.c **** *
 455:./Generated_Source/PSoC5/CySpc.c **** *
 456:./Generated_Source/PSoC5/CySpc.c **** *******************************************************************************/
 457:./Generated_Source/PSoC5/CySpc.c **** cystatus CySpcCreateCmdProgramRow(uint8 array, uint16 address)
 458:./Generated_Source/PSoC5/CySpc.c **** {
 712              		.loc 1 458 0
 713              		.cfi_startproc
 714              		@ args = 0, pretend = 0, frame = 16
 715              		@ frame_needed = 1, uses_anonymous_args = 0
 716              		@ link register save eliminated.
 717 0000 80B4     		push	{r7}
 718              	.LCFI23:
 719              		.cfi_def_cfa_offset 4
 720 0002 85B0     		sub	sp, sp, #20
 721              	.LCFI24:
 722              		.cfi_def_cfa_offset 24
 723 0004 00AF     		add	r7, sp, #0
 724              		.cfi_offset 7, -4
 725              	.LCFI25:
 726              		.cfi_def_cfa_register 7
 727 0006 0246     		mov	r2, r0
 728 0008 0B46     		mov	r3, r1
 729 000a FA71     		strb	r2, [r7, #7]
 730 000c BB80     		strh	r3, [r7, #4]	@ movhi
 459:./Generated_Source/PSoC5/CySpc.c ****     cystatus status;
 460:./Generated_Source/PSoC5/CySpc.c **** 
 461:./Generated_Source/PSoC5/CySpc.c **** 
 462:./Generated_Source/PSoC5/CySpc.c ****     /* Create packet command. */
 463:./Generated_Source/PSoC5/CySpc.c ****     cyCommand[0] = SPC_KEY_ONE;
ARM GAS  C:\DOCUME~1\akay\LOCALS~1\Temp\ccAcOuWa.s 			page 22


 731              		.loc 1 463 0
 732 000e 40F20003 		movw	r3, #:lower16:cyCommand
 733 0012 C0F20003 		movt	r3, #:upper16:cyCommand
 734 0016 6FF04902 		mvn	r2, #73
 735 001a 1A70     		strb	r2, [r3, #0]
 464:./Generated_Source/PSoC5/CySpc.c ****     cyCommand[1] = SPC_KEY_TWO(SPC_CMD_PRG_ROW);
 736              		.loc 1 464 0
 737 001c 40F20003 		movw	r3, #:lower16:cyCommand
 738 0020 C0F20003 		movt	r3, #:upper16:cyCommand
 739 0024 6FF02502 		mvn	r2, #37
 740 0028 5A70     		strb	r2, [r3, #1]
 465:./Generated_Source/PSoC5/CySpc.c ****     cyCommand[2] = SPC_CMD_PRG_ROW;
 741              		.loc 1 465 0
 742 002a 40F20003 		movw	r3, #:lower16:cyCommand
 743 002e C0F20003 		movt	r3, #:upper16:cyCommand
 744 0032 4FF00702 		mov	r2, #7
 745 0036 9A70     		strb	r2, [r3, #2]
 466:./Generated_Source/PSoC5/CySpc.c ****     
 467:./Generated_Source/PSoC5/CySpc.c ****     /* Create packet parameters. */
 468:./Generated_Source/PSoC5/CySpc.c ****     cyCommand[3] = array;
 746              		.loc 1 468 0
 747 0038 40F20003 		movw	r3, #:lower16:cyCommand
 748 003c C0F20003 		movt	r3, #:upper16:cyCommand
 749 0040 FA79     		ldrb	r2, [r7, #7]
 750 0042 DA70     		strb	r2, [r3, #3]
 469:./Generated_Source/PSoC5/CySpc.c ****     cyCommand[4] = HI8(address);
 751              		.loc 1 469 0
 752 0044 BB88     		ldrh	r3, [r7, #4]
 753 0046 4FEA1323 		lsr	r3, r3, #8
 754 004a 9BB2     		uxth	r3, r3
 755 004c DAB2     		uxtb	r2, r3
 756 004e 40F20003 		movw	r3, #:lower16:cyCommand
 757 0052 C0F20003 		movt	r3, #:upper16:cyCommand
 758 0056 1A71     		strb	r2, [r3, #4]
 470:./Generated_Source/PSoC5/CySpc.c ****     cyCommand[5] = LO8(address);
 759              		.loc 1 470 0
 760 0058 BB88     		ldrh	r3, [r7, #4]	@ movhi
 761 005a DAB2     		uxtb	r2, r3
 762 005c 40F20003 		movw	r3, #:lower16:cyCommand
 763 0060 C0F20003 		movt	r3, #:upper16:cyCommand
 764 0064 5A71     		strb	r2, [r3, #5]
 471:./Generated_Source/PSoC5/CySpc.c **** 
 472:./Generated_Source/PSoC5/CySpc.c ****     cyCommandSize = SIZEOF_CMD_PRGM_ROW;
 765              		.loc 1 472 0
 766 0066 40F20003 		movw	r3, #:lower16:cyCommandSize
 767 006a C0F20003 		movt	r3, #:upper16:cyCommandSize
 768 006e 4FF00302 		mov	r2, #3
 769 0072 1A70     		strb	r2, [r3, #0]
 473:./Generated_Source/PSoC5/CySpc.c **** 
 474:./Generated_Source/PSoC5/CySpc.c ****     status = CYRET_SUCCESS;
 770              		.loc 1 474 0
 771 0074 4FF00003 		mov	r3, #0
 772 0078 FB60     		str	r3, [r7, #12]
 475:./Generated_Source/PSoC5/CySpc.c ****     
 476:./Generated_Source/PSoC5/CySpc.c ****     return status;
 773              		.loc 1 476 0
 774 007a FB68     		ldr	r3, [r7, #12]
ARM GAS  C:\DOCUME~1\akay\LOCALS~1\Temp\ccAcOuWa.s 			page 23


 477:./Generated_Source/PSoC5/CySpc.c **** }
 775              		.loc 1 477 0
 776 007c 1846     		mov	r0, r3
 777 007e 07F11407 		add	r7, r7, #20
 778 0082 BD46     		mov	sp, r7
 779 0084 80BC     		pop	{r7}
 780 0086 7047     		bx	lr
 781              		.cfi_endproc
 782              	.LFE8:
 783              		.size	CySpcCreateCmdProgramRow, .-CySpcCreateCmdProgramRow
 784              		.section	.text.CySpcCreateCmdEraseSector,"ax",%progbits
 785              		.align	2
 786              		.global	CySpcCreateCmdEraseSector
 787              		.thumb
 788              		.thumb_func
 789              		.type	CySpcCreateCmdEraseSector, %function
 790              	CySpcCreateCmdEraseSector:
 791              	.LFB9:
 478:./Generated_Source/PSoC5/CySpc.c **** 
 479:./Generated_Source/PSoC5/CySpc.c **** 
 480:./Generated_Source/PSoC5/CySpc.c **** /*******************************************************************************
 481:./Generated_Source/PSoC5/CySpc.c **** * Function Name: CySpcCreateCmdEraseSector
 482:./Generated_Source/PSoC5/CySpc.c **** ********************************************************************************
 483:./Generated_Source/PSoC5/CySpc.c **** * Summary:
 484:./Generated_Source/PSoC5/CySpc.c **** *   Sets up the command to EraseSector.
 485:./Generated_Source/PSoC5/CySpc.c **** *   NOTE: SPC functions are not meant to be called directly by the user application.
 486:./Generated_Source/PSoC5/CySpc.c **** *   
 487:./Generated_Source/PSoC5/CySpc.c **** *
 488:./Generated_Source/PSoC5/CySpc.c **** * Parameters:
 489:./Generated_Source/PSoC5/CySpc.c **** * array:
 490:./Generated_Source/PSoC5/CySpc.c **** *   Id of the array.
 491:./Generated_Source/PSoC5/CySpc.c **** *
 492:./Generated_Source/PSoC5/CySpc.c **** *
 493:./Generated_Source/PSoC5/CySpc.c **** * address:
 494:./Generated_Source/PSoC5/CySpc.c **** *   flash/eeprom addrress
 495:./Generated_Source/PSoC5/CySpc.c **** *
 496:./Generated_Source/PSoC5/CySpc.c **** *   
 497:./Generated_Source/PSoC5/CySpc.c **** * Return:
 498:./Generated_Source/PSoC5/CySpc.c **** *   CYRET_SUCCESS if the command was created sucessfuly.
 499:./Generated_Source/PSoC5/CySpc.c **** *   CYRET_BAD_PARAM if an invalid parameter was passed.
 500:./Generated_Source/PSoC5/CySpc.c **** *
 501:./Generated_Source/PSoC5/CySpc.c **** *
 502:./Generated_Source/PSoC5/CySpc.c **** * Theory:
 503:./Generated_Source/PSoC5/CySpc.c **** *
 504:./Generated_Source/PSoC5/CySpc.c **** *
 505:./Generated_Source/PSoC5/CySpc.c **** *******************************************************************************/
 506:./Generated_Source/PSoC5/CySpc.c **** cystatus CySpcCreateCmdEraseSector(uint8 array, uint16 address)
 507:./Generated_Source/PSoC5/CySpc.c **** {
 792              		.loc 1 507 0
 793              		.cfi_startproc
 794              		@ args = 0, pretend = 0, frame = 16
 795              		@ frame_needed = 1, uses_anonymous_args = 0
 796              		@ link register save eliminated.
 797 0000 80B4     		push	{r7}
 798              	.LCFI26:
 799              		.cfi_def_cfa_offset 4
 800 0002 85B0     		sub	sp, sp, #20
ARM GAS  C:\DOCUME~1\akay\LOCALS~1\Temp\ccAcOuWa.s 			page 24


 801              	.LCFI27:
 802              		.cfi_def_cfa_offset 24
 803 0004 00AF     		add	r7, sp, #0
 804              		.cfi_offset 7, -4
 805              	.LCFI28:
 806              		.cfi_def_cfa_register 7
 807 0006 0246     		mov	r2, r0
 808 0008 0B46     		mov	r3, r1
 809 000a FA71     		strb	r2, [r7, #7]
 810 000c BB80     		strh	r3, [r7, #4]	@ movhi
 508:./Generated_Source/PSoC5/CySpc.c ****     cystatus status;
 509:./Generated_Source/PSoC5/CySpc.c **** 
 510:./Generated_Source/PSoC5/CySpc.c ****     
 511:./Generated_Source/PSoC5/CySpc.c ****     /* Create packet command. */
 512:./Generated_Source/PSoC5/CySpc.c ****     cyCommand[0] = SPC_KEY_ONE;
 811              		.loc 1 512 0
 812 000e 40F20003 		movw	r3, #:lower16:cyCommand
 813 0012 C0F20003 		movt	r3, #:upper16:cyCommand
 814 0016 6FF04902 		mvn	r2, #73
 815 001a 1A70     		strb	r2, [r3, #0]
 513:./Generated_Source/PSoC5/CySpc.c ****     cyCommand[1] = SPC_KEY_TWO(SPC_CMD_ER_SECTOR);
 816              		.loc 1 513 0
 817 001c 40F20003 		movw	r3, #:lower16:cyCommand
 818 0020 C0F20003 		movt	r3, #:upper16:cyCommand
 819 0024 6FF02402 		mvn	r2, #36
 820 0028 5A70     		strb	r2, [r3, #1]
 514:./Generated_Source/PSoC5/CySpc.c ****     cyCommand[2] = SPC_CMD_ER_SECTOR;
 821              		.loc 1 514 0
 822 002a 40F20003 		movw	r3, #:lower16:cyCommand
 823 002e C0F20003 		movt	r3, #:upper16:cyCommand
 824 0032 4FF00802 		mov	r2, #8
 825 0036 9A70     		strb	r2, [r3, #2]
 515:./Generated_Source/PSoC5/CySpc.c ****     
 516:./Generated_Source/PSoC5/CySpc.c ****     /* Create packet parameters. */
 517:./Generated_Source/PSoC5/CySpc.c ****     cyCommand[3] = array;
 826              		.loc 1 517 0
 827 0038 40F20003 		movw	r3, #:lower16:cyCommand
 828 003c C0F20003 		movt	r3, #:upper16:cyCommand
 829 0040 FA79     		ldrb	r2, [r7, #7]
 830 0042 DA70     		strb	r2, [r3, #3]
 518:./Generated_Source/PSoC5/CySpc.c **** 
 519:./Generated_Source/PSoC5/CySpc.c ****     if(array < LAST_FLASH_ARRAYID)
 831              		.loc 1 519 0
 832 0044 FB79     		ldrb	r3, [r7, #7]	@ zero_extendqisi2
 833 0046 3E2B     		cmp	r3, #62
 834 0048 0DD8     		bhi	.L37
 520:./Generated_Source/PSoC5/CySpc.c ****     {
 521:./Generated_Source/PSoC5/CySpc.c ****         cyCommand[4] = FLASH_SECTOR_ADDRESS(address);  
 835              		.loc 1 521 0
 836 004a BB88     		ldrh	r3, [r7, #4]
 837 004c 4FEA9323 		lsr	r3, r3, #10
 838 0050 9BB2     		uxth	r3, r3
 839 0052 DBB2     		uxtb	r3, r3
 840 0054 1A46     		mov	r2, r3
 841 0056 02F00302 		and	r2, r2, #3
 842 005a 40F20003 		movw	r3, #:lower16:cyCommand
 843 005e C0F20003 		movt	r3, #:upper16:cyCommand
ARM GAS  C:\DOCUME~1\akay\LOCALS~1\Temp\ccAcOuWa.s 			page 25


 844 0062 1A71     		strb	r2, [r3, #4]
 845 0064 0CE0     		b	.L38
 846              	.L37:
 522:./Generated_Source/PSoC5/CySpc.c ****     }
 523:./Generated_Source/PSoC5/CySpc.c ****     else
 524:./Generated_Source/PSoC5/CySpc.c ****     {
 525:./Generated_Source/PSoC5/CySpc.c ****         cyCommand[4] = EEPRM_SECTOR_ADDRESS(address);  
 847              		.loc 1 525 0
 848 0066 BB88     		ldrh	r3, [r7, #4]
 849 0068 4FEA9313 		lsr	r3, r3, #6
 850 006c 9BB2     		uxth	r3, r3
 851 006e DBB2     		uxtb	r3, r3
 852 0070 1A46     		mov	r2, r3
 853 0072 02F08002 		and	r2, r2, #128
 854 0076 40F20003 		movw	r3, #:lower16:cyCommand
 855 007a C0F20003 		movt	r3, #:upper16:cyCommand
 856 007e 1A71     		strb	r2, [r3, #4]
 857              	.L38:
 526:./Generated_Source/PSoC5/CySpc.c ****     }
 527:./Generated_Source/PSoC5/CySpc.c **** 
 528:./Generated_Source/PSoC5/CySpc.c ****     cyCommandSize = SIZEOF_CMD_ER_SECTOR;
 858              		.loc 1 528 0
 859 0080 40F20003 		movw	r3, #:lower16:cyCommandSize
 860 0084 C0F20003 		movt	r3, #:upper16:cyCommandSize
 861 0088 4FF00202 		mov	r2, #2
 862 008c 1A70     		strb	r2, [r3, #0]
 529:./Generated_Source/PSoC5/CySpc.c **** 
 530:./Generated_Source/PSoC5/CySpc.c ****     status = CYRET_SUCCESS;
 863              		.loc 1 530 0
 864 008e 4FF00003 		mov	r3, #0
 865 0092 FB60     		str	r3, [r7, #12]
 531:./Generated_Source/PSoC5/CySpc.c ****     
 532:./Generated_Source/PSoC5/CySpc.c ****     return status;
 866              		.loc 1 532 0
 867 0094 FB68     		ldr	r3, [r7, #12]
 533:./Generated_Source/PSoC5/CySpc.c **** }
 868              		.loc 1 533 0
 869 0096 1846     		mov	r0, r3
 870 0098 07F11407 		add	r7, r7, #20
 871 009c BD46     		mov	sp, r7
 872 009e 80BC     		pop	{r7}
 873 00a0 7047     		bx	lr
 874              		.cfi_endproc
 875              	.LFE9:
 876              		.size	CySpcCreateCmdEraseSector, .-CySpcCreateCmdEraseSector
 877 00a2 00BF     		.section	.text.CySpcCreateCmdGetTemp,"ax",%progbits
 878              		.align	2
 879              		.global	CySpcCreateCmdGetTemp
 880              		.thumb
 881              		.thumb_func
 882              		.type	CySpcCreateCmdGetTemp, %function
 883              	CySpcCreateCmdGetTemp:
 884              	.LFB10:
 534:./Generated_Source/PSoC5/CySpc.c **** 
 535:./Generated_Source/PSoC5/CySpc.c **** 
 536:./Generated_Source/PSoC5/CySpc.c **** /*******************************************************************************
 537:./Generated_Source/PSoC5/CySpc.c **** * Function Name: CySpcCreateCmdGetTemp
ARM GAS  C:\DOCUME~1\akay\LOCALS~1\Temp\ccAcOuWa.s 			page 26


 538:./Generated_Source/PSoC5/CySpc.c **** ********************************************************************************
 539:./Generated_Source/PSoC5/CySpc.c **** * Summary:
 540:./Generated_Source/PSoC5/CySpc.c **** *   Sets up the command to GetTemp.
 541:./Generated_Source/PSoC5/CySpc.c **** *   NOTE: SPC functions are not meant to be called directly by the user application.
 542:./Generated_Source/PSoC5/CySpc.c **** *   
 543:./Generated_Source/PSoC5/CySpc.c **** *
 544:./Generated_Source/PSoC5/CySpc.c **** * Parameters:
 545:./Generated_Source/PSoC5/CySpc.c **** * numSamples:
 546:./Generated_Source/PSoC5/CySpc.c **** *
 547:./Generated_Source/PSoC5/CySpc.c **** *
 548:./Generated_Source/PSoC5/CySpc.c **** * timerPeriod:
 549:./Generated_Source/PSoC5/CySpc.c **** *
 550:./Generated_Source/PSoC5/CySpc.c **** *
 551:./Generated_Source/PSoC5/CySpc.c **** * clkDivSelect:
 552:./Generated_Source/PSoC5/CySpc.c **** *
 553:./Generated_Source/PSoC5/CySpc.c **** *   
 554:./Generated_Source/PSoC5/CySpc.c **** * Return:
 555:./Generated_Source/PSoC5/CySpc.c **** *   CYRET_SUCCESS if the command was created sucessfuly.
 556:./Generated_Source/PSoC5/CySpc.c **** *   CYRET_BAD_PARAM if an invalid parameter was passed.
 557:./Generated_Source/PSoC5/CySpc.c **** *
 558:./Generated_Source/PSoC5/CySpc.c **** * Theory:
 559:./Generated_Source/PSoC5/CySpc.c **** *
 560:./Generated_Source/PSoC5/CySpc.c **** *
 561:./Generated_Source/PSoC5/CySpc.c **** *******************************************************************************/
 562:./Generated_Source/PSoC5/CySpc.c **** cystatus CySpcCreateCmdGetTemp(uint8 numSamples, uint16 timerPeriod, uint8 clkDivSelect)
 563:./Generated_Source/PSoC5/CySpc.c **** {
 885              		.loc 1 563 0
 886              		.cfi_startproc
 887              		@ args = 0, pretend = 0, frame = 16
 888              		@ frame_needed = 1, uses_anonymous_args = 0
 889              		@ link register save eliminated.
 890 0000 80B4     		push	{r7}
 891              	.LCFI29:
 892              		.cfi_def_cfa_offset 4
 893 0002 85B0     		sub	sp, sp, #20
 894              	.LCFI30:
 895              		.cfi_def_cfa_offset 24
 896 0004 00AF     		add	r7, sp, #0
 897              		.cfi_offset 7, -4
 898              	.LCFI31:
 899              		.cfi_def_cfa_register 7
 900 0006 1346     		mov	r3, r2
 901 0008 0246     		mov	r2, r0
 902 000a FA71     		strb	r2, [r7, #7]
 903 000c 0A46     		mov	r2, r1	@ movhi
 904 000e BA80     		strh	r2, [r7, #4]	@ movhi
 905 0010 FB70     		strb	r3, [r7, #3]
 564:./Generated_Source/PSoC5/CySpc.c ****     cystatus status;
 565:./Generated_Source/PSoC5/CySpc.c **** 
 566:./Generated_Source/PSoC5/CySpc.c **** 
 567:./Generated_Source/PSoC5/CySpc.c ****     /* Check parameters. */
 568:./Generated_Source/PSoC5/CySpc.c ****     if(numSamples)
 906              		.loc 1 568 0
 907 0012 FB79     		ldrb	r3, [r7, #7]	@ zero_extendqisi2
 908 0014 002B     		cmp	r3, #0
 909 0016 3CD0     		beq	.L41
 569:./Generated_Source/PSoC5/CySpc.c ****     {
ARM GAS  C:\DOCUME~1\akay\LOCALS~1\Temp\ccAcOuWa.s 			page 27


 570:./Generated_Source/PSoC5/CySpc.c ****         /* Create packet command. */
 571:./Generated_Source/PSoC5/CySpc.c ****         cyCommand[0] = SPC_KEY_ONE;
 910              		.loc 1 571 0
 911 0018 40F20003 		movw	r3, #:lower16:cyCommand
 912 001c C0F20003 		movt	r3, #:upper16:cyCommand
 913 0020 6FF04902 		mvn	r2, #73
 914 0024 1A70     		strb	r2, [r3, #0]
 572:./Generated_Source/PSoC5/CySpc.c ****         cyCommand[1] = SPC_KEY_TWO(SPC_CMD_GET_TEMP);
 915              		.loc 1 572 0
 916 0026 40F20003 		movw	r3, #:lower16:cyCommand
 917 002a C0F20003 		movt	r3, #:upper16:cyCommand
 918 002e 6FF01E02 		mvn	r2, #30
 919 0032 5A70     		strb	r2, [r3, #1]
 573:./Generated_Source/PSoC5/CySpc.c ****         cyCommand[2] = SPC_CMD_GET_TEMP;
 920              		.loc 1 573 0
 921 0034 40F20003 		movw	r3, #:lower16:cyCommand
 922 0038 C0F20003 		movt	r3, #:upper16:cyCommand
 923 003c 4FF00E02 		mov	r2, #14
 924 0040 9A70     		strb	r2, [r3, #2]
 574:./Generated_Source/PSoC5/CySpc.c ****     
 575:./Generated_Source/PSoC5/CySpc.c ****         /* Create packet parameters. */
 576:./Generated_Source/PSoC5/CySpc.c ****         cyCommand[3] = numSamples;
 925              		.loc 1 576 0
 926 0042 40F20003 		movw	r3, #:lower16:cyCommand
 927 0046 C0F20003 		movt	r3, #:upper16:cyCommand
 928 004a FA79     		ldrb	r2, [r7, #7]
 929 004c DA70     		strb	r2, [r3, #3]
 577:./Generated_Source/PSoC5/CySpc.c ****         cyCommand[4] = HI8(timerPeriod);
 930              		.loc 1 577 0
 931 004e BB88     		ldrh	r3, [r7, #4]
 932 0050 4FEA1323 		lsr	r3, r3, #8
 933 0054 9BB2     		uxth	r3, r3
 934 0056 DAB2     		uxtb	r2, r3
 935 0058 40F20003 		movw	r3, #:lower16:cyCommand
 936 005c C0F20003 		movt	r3, #:upper16:cyCommand
 937 0060 1A71     		strb	r2, [r3, #4]
 578:./Generated_Source/PSoC5/CySpc.c ****         cyCommand[5] = LO8(timerPeriod);
 938              		.loc 1 578 0
 939 0062 BB88     		ldrh	r3, [r7, #4]	@ movhi
 940 0064 DAB2     		uxtb	r2, r3
 941 0066 40F20003 		movw	r3, #:lower16:cyCommand
 942 006a C0F20003 		movt	r3, #:upper16:cyCommand
 943 006e 5A71     		strb	r2, [r3, #5]
 579:./Generated_Source/PSoC5/CySpc.c ****         cyCommand[6] = clkDivSelect;
 944              		.loc 1 579 0
 945 0070 40F20003 		movw	r3, #:lower16:cyCommand
 946 0074 C0F20003 		movt	r3, #:upper16:cyCommand
 947 0078 FA78     		ldrb	r2, [r7, #3]
 948 007a 9A71     		strb	r2, [r3, #6]
 580:./Generated_Source/PSoC5/CySpc.c **** 
 581:./Generated_Source/PSoC5/CySpc.c ****         cyCommandSize = SIZEOF_CMD_GET_TEMP;
 949              		.loc 1 581 0
 950 007c 40F20003 		movw	r3, #:lower16:cyCommandSize
 951 0080 C0F20003 		movt	r3, #:upper16:cyCommandSize
 952 0084 4FF00402 		mov	r2, #4
 953 0088 1A70     		strb	r2, [r3, #0]
 582:./Generated_Source/PSoC5/CySpc.c **** 
ARM GAS  C:\DOCUME~1\akay\LOCALS~1\Temp\ccAcOuWa.s 			page 28


 583:./Generated_Source/PSoC5/CySpc.c ****         status = CYRET_SUCCESS;
 954              		.loc 1 583 0
 955 008a 4FF00003 		mov	r3, #0
 956 008e FB60     		str	r3, [r7, #12]
 957 0090 02E0     		b	.L42
 958              	.L41:
 584:./Generated_Source/PSoC5/CySpc.c ****     }
 585:./Generated_Source/PSoC5/CySpc.c ****     else
 586:./Generated_Source/PSoC5/CySpc.c ****     {
 587:./Generated_Source/PSoC5/CySpc.c ****         status = CYRET_BAD_PARAM;
 959              		.loc 1 587 0
 960 0092 4FF00103 		mov	r3, #1
 961 0096 FB60     		str	r3, [r7, #12]
 962              	.L42:
 588:./Generated_Source/PSoC5/CySpc.c ****     }
 589:./Generated_Source/PSoC5/CySpc.c **** 
 590:./Generated_Source/PSoC5/CySpc.c ****     return status;
 963              		.loc 1 590 0
 964 0098 FB68     		ldr	r3, [r7, #12]
 591:./Generated_Source/PSoC5/CySpc.c **** }
 965              		.loc 1 591 0
 966 009a 1846     		mov	r0, r3
 967 009c 07F11407 		add	r7, r7, #20
 968 00a0 BD46     		mov	sp, r7
 969 00a2 80BC     		pop	{r7}
 970 00a4 7047     		bx	lr
 971              		.cfi_endproc
 972              	.LFE10:
 973              		.size	CySpcCreateCmdGetTemp, .-CySpcCreateCmdGetTemp
 974 00a6 00BF     		.section	.text.CySpcCreateCmdSetupTs,"ax",%progbits
 975              		.align	2
 976              		.global	CySpcCreateCmdSetupTs
 977              		.thumb
 978              		.thumb_func
 979              		.type	CySpcCreateCmdSetupTs, %function
 980              	CySpcCreateCmdSetupTs:
 981              	.LFB11:
 592:./Generated_Source/PSoC5/CySpc.c **** 
 593:./Generated_Source/PSoC5/CySpc.c **** 
 594:./Generated_Source/PSoC5/CySpc.c **** /*******************************************************************************
 595:./Generated_Source/PSoC5/CySpc.c **** * Function Name: CySpcCreateCmdSetupTs
 596:./Generated_Source/PSoC5/CySpc.c **** ********************************************************************************
 597:./Generated_Source/PSoC5/CySpc.c **** * Summary:
 598:./Generated_Source/PSoC5/CySpc.c **** *   Sets up the command to Setup Temperature Sensor.
 599:./Generated_Source/PSoC5/CySpc.c **** *   NOTE: SPC functions are not meant to be called directly by the user application.
 600:./Generated_Source/PSoC5/CySpc.c **** *   
 601:./Generated_Source/PSoC5/CySpc.c **** *
 602:./Generated_Source/PSoC5/CySpc.c **** * Parameters:
 603:./Generated_Source/PSoC5/CySpc.c **** * SeqSelect:
 604:./Generated_Source/PSoC5/CySpc.c **** *
 605:./Generated_Source/PSoC5/CySpc.c **** *
 606:./Generated_Source/PSoC5/CySpc.c **** * SeqFreeze:
 607:./Generated_Source/PSoC5/CySpc.c **** *
 608:./Generated_Source/PSoC5/CySpc.c **** *
 609:./Generated_Source/PSoC5/CySpc.c **** * ClkDivSel:
 610:./Generated_Source/PSoC5/CySpc.c **** *
 611:./Generated_Source/PSoC5/CySpc.c **** *
ARM GAS  C:\DOCUME~1\akay\LOCALS~1\Temp\ccAcOuWa.s 			page 29


 612:./Generated_Source/PSoC5/CySpc.c **** * CurvCompEnable:
 613:./Generated_Source/PSoC5/CySpc.c **** *
 614:./Generated_Source/PSoC5/CySpc.c **** *
 615:./Generated_Source/PSoC5/CySpc.c **** *   
 616:./Generated_Source/PSoC5/CySpc.c **** * Return:
 617:./Generated_Source/PSoC5/CySpc.c **** *   CYRET_SUCCESS if the command was created sucessfuly.
 618:./Generated_Source/PSoC5/CySpc.c **** *   CYRET_BAD_PARAM if an invalid parameter was passed.
 619:./Generated_Source/PSoC5/CySpc.c **** *
 620:./Generated_Source/PSoC5/CySpc.c **** *
 621:./Generated_Source/PSoC5/CySpc.c **** * Theory:
 622:./Generated_Source/PSoC5/CySpc.c **** *
 623:./Generated_Source/PSoC5/CySpc.c **** *
 624:./Generated_Source/PSoC5/CySpc.c **** *******************************************************************************/
 625:./Generated_Source/PSoC5/CySpc.c **** cystatus CySpcCreateCmdSetupTs(uint8 SeqSelect, uint8 SeqFreeze, uint8 ClkDivSel, uint8 CurvCompEna
 626:./Generated_Source/PSoC5/CySpc.c **** {
 982              		.loc 1 626 0
 983              		.cfi_startproc
 984              		@ args = 0, pretend = 0, frame = 16
 985              		@ frame_needed = 1, uses_anonymous_args = 0
 986              		@ link register save eliminated.
 987 0000 80B4     		push	{r7}
 988              	.LCFI32:
 989              		.cfi_def_cfa_offset 4
 990 0002 85B0     		sub	sp, sp, #20
 991              	.LCFI33:
 992              		.cfi_def_cfa_offset 24
 993 0004 00AF     		add	r7, sp, #0
 994              		.cfi_offset 7, -4
 995              	.LCFI34:
 996              		.cfi_def_cfa_register 7
 997 0006 F871     		strb	r0, [r7, #7]
 998 0008 B971     		strb	r1, [r7, #6]
 999 000a 7A71     		strb	r2, [r7, #5]
 1000 000c 3B71     		strb	r3, [r7, #4]
 627:./Generated_Source/PSoC5/CySpc.c ****     cystatus status;
 628:./Generated_Source/PSoC5/CySpc.c **** 
 629:./Generated_Source/PSoC5/CySpc.c ****     
 630:./Generated_Source/PSoC5/CySpc.c ****     /* Create packet command. */
 631:./Generated_Source/PSoC5/CySpc.c ****     cyCommand[0] = SPC_KEY_ONE;
 1001              		.loc 1 631 0
 1002 000e 40F20003 		movw	r3, #:lower16:cyCommand
 1003 0012 C0F20003 		movt	r3, #:upper16:cyCommand
 1004 0016 6FF04902 		mvn	r2, #73
 1005 001a 1A70     		strb	r2, [r3, #0]
 632:./Generated_Source/PSoC5/CySpc.c ****     cyCommand[1] = SPC_KEY_TWO(SPC_CMD_SETUP_TS);
 1006              		.loc 1 632 0
 1007 001c 40F20003 		movw	r3, #:lower16:cyCommand
 1008 0020 C0F20003 		movt	r3, #:upper16:cyCommand
 1009 0024 6FF01B02 		mvn	r2, #27
 1010 0028 5A70     		strb	r2, [r3, #1]
 633:./Generated_Source/PSoC5/CySpc.c ****     cyCommand[2] = SPC_CMD_SETUP_TS;
 1011              		.loc 1 633 0
 1012 002a 40F20003 		movw	r3, #:lower16:cyCommand
 1013 002e C0F20003 		movt	r3, #:upper16:cyCommand
 1014 0032 4FF01102 		mov	r2, #17
 1015 0036 9A70     		strb	r2, [r3, #2]
 634:./Generated_Source/PSoC5/CySpc.c ****     
ARM GAS  C:\DOCUME~1\akay\LOCALS~1\Temp\ccAcOuWa.s 			page 30


 635:./Generated_Source/PSoC5/CySpc.c ****     /* Create packet parameters. */
 636:./Generated_Source/PSoC5/CySpc.c ****     cyCommand[3] = SeqSelect;
 1016              		.loc 1 636 0
 1017 0038 40F20003 		movw	r3, #:lower16:cyCommand
 1018 003c C0F20003 		movt	r3, #:upper16:cyCommand
 1019 0040 FA79     		ldrb	r2, [r7, #7]
 1020 0042 DA70     		strb	r2, [r3, #3]
 637:./Generated_Source/PSoC5/CySpc.c ****     cyCommand[4] = SeqFreeze;  
 1021              		.loc 1 637 0
 1022 0044 40F20003 		movw	r3, #:lower16:cyCommand
 1023 0048 C0F20003 		movt	r3, #:upper16:cyCommand
 1024 004c BA79     		ldrb	r2, [r7, #6]
 1025 004e 1A71     		strb	r2, [r3, #4]
 638:./Generated_Source/PSoC5/CySpc.c ****     cyCommand[5] = ClkDivSel;  
 1026              		.loc 1 638 0
 1027 0050 40F20003 		movw	r3, #:lower16:cyCommand
 1028 0054 C0F20003 		movt	r3, #:upper16:cyCommand
 1029 0058 7A79     		ldrb	r2, [r7, #5]
 1030 005a 5A71     		strb	r2, [r3, #5]
 639:./Generated_Source/PSoC5/CySpc.c ****     cyCommand[6] = CurvCompEnable;  
 1031              		.loc 1 639 0
 1032 005c 40F20003 		movw	r3, #:lower16:cyCommand
 1033 0060 C0F20003 		movt	r3, #:upper16:cyCommand
 1034 0064 3A79     		ldrb	r2, [r7, #4]
 1035 0066 9A71     		strb	r2, [r3, #6]
 640:./Generated_Source/PSoC5/CySpc.c **** 
 641:./Generated_Source/PSoC5/CySpc.c ****     cyCommandSize = SIZEOF_CMD_SETUP_TS;
 1036              		.loc 1 641 0
 1037 0068 40F20003 		movw	r3, #:lower16:cyCommandSize
 1038 006c C0F20003 		movt	r3, #:upper16:cyCommandSize
 1039 0070 4FF00402 		mov	r2, #4
 1040 0074 1A70     		strb	r2, [r3, #0]
 642:./Generated_Source/PSoC5/CySpc.c **** 
 643:./Generated_Source/PSoC5/CySpc.c ****     status = CYRET_SUCCESS;
 1041              		.loc 1 643 0
 1042 0076 4FF00003 		mov	r3, #0
 1043 007a FB60     		str	r3, [r7, #12]
 644:./Generated_Source/PSoC5/CySpc.c ****     
 645:./Generated_Source/PSoC5/CySpc.c ****     return status;
 1044              		.loc 1 645 0
 1045 007c FB68     		ldr	r3, [r7, #12]
 646:./Generated_Source/PSoC5/CySpc.c **** }
 1046              		.loc 1 646 0
 1047 007e 1846     		mov	r0, r3
 1048 0080 07F11407 		add	r7, r7, #20
 1049 0084 BD46     		mov	sp, r7
 1050 0086 80BC     		pop	{r7}
 1051 0088 7047     		bx	lr
 1052              		.cfi_endproc
 1053              	.LFE11:
 1054              		.size	CySpcCreateCmdSetupTs, .-CySpcCreateCmdSetupTs
 1055 008a 00BF     		.section	.text.CySpcCreateCmdDisableTs,"ax",%progbits
 1056              		.align	2
 1057              		.global	CySpcCreateCmdDisableTs
 1058              		.thumb
 1059              		.thumb_func
 1060              		.type	CySpcCreateCmdDisableTs, %function
ARM GAS  C:\DOCUME~1\akay\LOCALS~1\Temp\ccAcOuWa.s 			page 31


 1061              	CySpcCreateCmdDisableTs:
 1062              	.LFB12:
 647:./Generated_Source/PSoC5/CySpc.c **** 
 648:./Generated_Source/PSoC5/CySpc.c **** 
 649:./Generated_Source/PSoC5/CySpc.c **** /*******************************************************************************
 650:./Generated_Source/PSoC5/CySpc.c **** * Function Name: CySpcCreateCmdDisableTs
 651:./Generated_Source/PSoC5/CySpc.c **** ********************************************************************************
 652:./Generated_Source/PSoC5/CySpc.c **** * Summary:
 653:./Generated_Source/PSoC5/CySpc.c **** *   Sets up the command to Temperature Sensor.
 654:./Generated_Source/PSoC5/CySpc.c **** *   NOTE: SPC functions are not meant to be called directly by the user application.
 655:./Generated_Source/PSoC5/CySpc.c **** *   
 656:./Generated_Source/PSoC5/CySpc.c **** *
 657:./Generated_Source/PSoC5/CySpc.c **** * Parameters:
 658:./Generated_Source/PSoC5/CySpc.c **** * array:
 659:./Generated_Source/PSoC5/CySpc.c **** *   Id of the array.
 660:./Generated_Source/PSoC5/CySpc.c **** *
 661:./Generated_Source/PSoC5/CySpc.c **** *
 662:./Generated_Source/PSoC5/CySpc.c **** * address:
 663:./Generated_Source/PSoC5/CySpc.c **** *   flash/eeprom addrress
 664:./Generated_Source/PSoC5/CySpc.c **** *
 665:./Generated_Source/PSoC5/CySpc.c **** *   
 666:./Generated_Source/PSoC5/CySpc.c **** * Return:
 667:./Generated_Source/PSoC5/CySpc.c **** *   CYRET_SUCCESS if the command was created sucessfuly.
 668:./Generated_Source/PSoC5/CySpc.c **** *   CYRET_BAD_PARAM if an invalid parameter was passed.
 669:./Generated_Source/PSoC5/CySpc.c **** *
 670:./Generated_Source/PSoC5/CySpc.c **** *
 671:./Generated_Source/PSoC5/CySpc.c **** * Theory:
 672:./Generated_Source/PSoC5/CySpc.c **** *
 673:./Generated_Source/PSoC5/CySpc.c **** *
 674:./Generated_Source/PSoC5/CySpc.c **** *******************************************************************************/
 675:./Generated_Source/PSoC5/CySpc.c **** cystatus CySpcCreateCmdDisableTs(void)
 676:./Generated_Source/PSoC5/CySpc.c **** {
 1063              		.loc 1 676 0
 1064              		.cfi_startproc
 1065              		@ args = 0, pretend = 0, frame = 8
 1066              		@ frame_needed = 1, uses_anonymous_args = 0
 1067              		@ link register save eliminated.
 1068 0000 80B4     		push	{r7}
 1069              	.LCFI35:
 1070              		.cfi_def_cfa_offset 4
 1071 0002 83B0     		sub	sp, sp, #12
 1072              	.LCFI36:
 1073              		.cfi_def_cfa_offset 16
 1074 0004 00AF     		add	r7, sp, #0
 1075              		.cfi_offset 7, -4
 1076              	.LCFI37:
 1077              		.cfi_def_cfa_register 7
 677:./Generated_Source/PSoC5/CySpc.c ****     cystatus status;
 678:./Generated_Source/PSoC5/CySpc.c **** 
 679:./Generated_Source/PSoC5/CySpc.c ****     
 680:./Generated_Source/PSoC5/CySpc.c ****     /* Create packet command. */
 681:./Generated_Source/PSoC5/CySpc.c ****     cyCommand[0] = SPC_KEY_ONE;
 1078              		.loc 1 681 0
 1079 0006 40F20003 		movw	r3, #:lower16:cyCommand
 1080 000a C0F20003 		movt	r3, #:upper16:cyCommand
 1081 000e 6FF04902 		mvn	r2, #73
 1082 0012 1A70     		strb	r2, [r3, #0]
ARM GAS  C:\DOCUME~1\akay\LOCALS~1\Temp\ccAcOuWa.s 			page 32


 682:./Generated_Source/PSoC5/CySpc.c ****     cyCommand[1] = SPC_KEY_TWO(SPC_CMD_DISABLE_TS);
 1083              		.loc 1 682 0
 1084 0014 40F20003 		movw	r3, #:lower16:cyCommand
 1085 0018 C0F20003 		movt	r3, #:upper16:cyCommand
 1086 001c 6FF01A02 		mvn	r2, #26
 1087 0020 5A70     		strb	r2, [r3, #1]
 683:./Generated_Source/PSoC5/CySpc.c ****     cyCommand[2] = SPC_CMD_DISABLE_TS;
 1088              		.loc 1 683 0
 1089 0022 40F20003 		movw	r3, #:lower16:cyCommand
 1090 0026 C0F20003 		movt	r3, #:upper16:cyCommand
 1091 002a 4FF01202 		mov	r2, #18
 1092 002e 9A70     		strb	r2, [r3, #2]
 684:./Generated_Source/PSoC5/CySpc.c ****     
 685:./Generated_Source/PSoC5/CySpc.c ****     cyCommandSize = SIZEOF_CMD_DISABLE_TS;
 1093              		.loc 1 685 0
 1094 0030 40F20003 		movw	r3, #:lower16:cyCommandSize
 1095 0034 C0F20003 		movt	r3, #:upper16:cyCommandSize
 1096 0038 4FF00002 		mov	r2, #0
 1097 003c 1A70     		strb	r2, [r3, #0]
 686:./Generated_Source/PSoC5/CySpc.c **** 
 687:./Generated_Source/PSoC5/CySpc.c ****     status = CYRET_SUCCESS;
 1098              		.loc 1 687 0
 1099 003e 4FF00003 		mov	r3, #0
 1100 0042 7B60     		str	r3, [r7, #4]
 688:./Generated_Source/PSoC5/CySpc.c ****     
 689:./Generated_Source/PSoC5/CySpc.c ****     return status;
 1101              		.loc 1 689 0
 1102 0044 7B68     		ldr	r3, [r7, #4]
 690:./Generated_Source/PSoC5/CySpc.c **** }
 1103              		.loc 1 690 0
 1104 0046 1846     		mov	r0, r3
 1105 0048 07F10C07 		add	r7, r7, #12
 1106 004c BD46     		mov	sp, r7
 1107 004e 80BC     		pop	{r7}
 1108 0050 7047     		bx	lr
 1109              		.cfi_endproc
 1110              	.LFE12:
 1111              		.size	CySpcCreateCmdDisableTs, .-CySpcCreateCmdDisableTs
 1112 0052 00BF     		.section	.text.CySpcActivePower,"ax",%progbits
 1113              		.align	2
 1114              		.global	CySpcActivePower
 1115              		.thumb
 1116              		.thumb_func
 1117              		.type	CySpcActivePower, %function
 1118              	CySpcActivePower:
 1119              	.LFB13:
 691:./Generated_Source/PSoC5/CySpc.c **** 
 692:./Generated_Source/PSoC5/CySpc.c **** 
 693:./Generated_Source/PSoC5/CySpc.c **** /*******************************************************************************
 694:./Generated_Source/PSoC5/CySpc.c **** * Function Name: CySpcActivePower
 695:./Generated_Source/PSoC5/CySpc.c **** ********************************************************************************
 696:./Generated_Source/PSoC5/CySpc.c **** * Summary:
 697:./Generated_Source/PSoC5/CySpc.c **** *   Selects the power for active operation mode.
 698:./Generated_Source/PSoC5/CySpc.c **** *   NOTE: SPC functions are not meant to be called directly by the user application.
 699:./Generated_Source/PSoC5/CySpc.c **** *
 700:./Generated_Source/PSoC5/CySpc.c **** *
 701:./Generated_Source/PSoC5/CySpc.c **** * Parameters:
ARM GAS  C:\DOCUME~1\akay\LOCALS~1\Temp\ccAcOuWa.s 			page 33


 702:./Generated_Source/PSoC5/CySpc.c **** *   state:
 703:./Generated_Source/PSoC5/CySpc.c **** *       Active power state. 1 is active, 0 inactive.
 704:./Generated_Source/PSoC5/CySpc.c **** *
 705:./Generated_Source/PSoC5/CySpc.c **** *   
 706:./Generated_Source/PSoC5/CySpc.c **** * Return:
 707:./Generated_Source/PSoC5/CySpc.c **** *   void.
 708:./Generated_Source/PSoC5/CySpc.c **** *
 709:./Generated_Source/PSoC5/CySpc.c **** *
 710:./Generated_Source/PSoC5/CySpc.c **** *******************************************************************************/
 711:./Generated_Source/PSoC5/CySpc.c **** void CySpcActivePower(uint8 state) 
 712:./Generated_Source/PSoC5/CySpc.c **** {
 1120              		.loc 1 712 0
 1121              		.cfi_startproc
 1122              		@ args = 0, pretend = 0, frame = 8
 1123              		@ frame_needed = 1, uses_anonymous_args = 0
 1124              		@ link register save eliminated.
 1125 0000 80B4     		push	{r7}
 1126              	.LCFI38:
 1127              		.cfi_def_cfa_offset 4
 1128 0002 83B0     		sub	sp, sp, #12
 1129              	.LCFI39:
 1130              		.cfi_def_cfa_offset 16
 1131 0004 00AF     		add	r7, sp, #0
 1132              		.cfi_offset 7, -4
 1133              	.LCFI40:
 1134              		.cfi_def_cfa_register 7
 1135 0006 0346     		mov	r3, r0
 1136 0008 FB71     		strb	r3, [r7, #7]
 713:./Generated_Source/PSoC5/CySpc.c ****     if(state == 0)
 1137              		.loc 1 713 0
 1138 000a FB79     		ldrb	r3, [r7, #7]	@ zero_extendqisi2
 1139 000c 002B     		cmp	r3, #0
 1140 000e 0DD1     		bne	.L49
 714:./Generated_Source/PSoC5/CySpc.c ****     {
 715:./Generated_Source/PSoC5/CySpc.c ****         *PM_ACT_SPC &= ~PM_SPC_MASK;
 1141              		.loc 1 715 0
 1142 0010 44F2A033 		movw	r3, #:lower16:1073759136
 1143 0014 C4F20003 		movt	r3, #:upper16:1073759136
 1144 0018 44F2A032 		movw	r2, #:lower16:1073759136
 1145 001c C4F20002 		movt	r2, #:upper16:1073759136
 1146 0020 1278     		ldrb	r2, [r2, #0]
 1147 0022 D2B2     		uxtb	r2, r2
 1148 0024 02F0F702 		and	r2, r2, #247
 1149 0028 1A70     		strb	r2, [r3, #0]
 1150 002a 0DE0     		b	.L51
 1151              	.L49:
 716:./Generated_Source/PSoC5/CySpc.c ****     }
 717:./Generated_Source/PSoC5/CySpc.c ****     else
 718:./Generated_Source/PSoC5/CySpc.c ****     {
 719:./Generated_Source/PSoC5/CySpc.c ****         *PM_ACT_SPC |= PM_SPC_MASK;
 1152              		.loc 1 719 0
 1153 002c 44F2A033 		movw	r3, #:lower16:1073759136
 1154 0030 C4F20003 		movt	r3, #:upper16:1073759136
 1155 0034 44F2A032 		movw	r2, #:lower16:1073759136
 1156 0038 C4F20002 		movt	r2, #:upper16:1073759136
 1157 003c 1278     		ldrb	r2, [r2, #0]
 1158 003e D2B2     		uxtb	r2, r2
ARM GAS  C:\DOCUME~1\akay\LOCALS~1\Temp\ccAcOuWa.s 			page 34


 1159 0040 42F00802 		orr	r2, r2, #8
 1160 0044 D2B2     		uxtb	r2, r2
 1161 0046 1A70     		strb	r2, [r3, #0]
 1162              	.L51:
 720:./Generated_Source/PSoC5/CySpc.c ****     }
 721:./Generated_Source/PSoC5/CySpc.c **** }
 1163              		.loc 1 721 0
 1164 0048 07F10C07 		add	r7, r7, #12
 1165 004c BD46     		mov	sp, r7
 1166 004e 80BC     		pop	{r7}
 1167 0050 7047     		bx	lr
 1168              		.cfi_endproc
 1169              	.LFE13:
 1170              		.size	CySpcActivePower, .-CySpcActivePower
 1171 0052 00BF     		.section	.text.CySpcStandbyPower,"ax",%progbits
 1172              		.align	2
 1173              		.global	CySpcStandbyPower
 1174              		.thumb
 1175              		.thumb_func
 1176              		.type	CySpcStandbyPower, %function
 1177              	CySpcStandbyPower:
 1178              	.LFB14:
 722:./Generated_Source/PSoC5/CySpc.c **** 
 723:./Generated_Source/PSoC5/CySpc.c **** /*******************************************************************************
 724:./Generated_Source/PSoC5/CySpc.c **** * Function Name: CySpcStandbyPower
 725:./Generated_Source/PSoC5/CySpc.c **** ********************************************************************************
 726:./Generated_Source/PSoC5/CySpc.c **** * Summary:
 727:./Generated_Source/PSoC5/CySpc.c **** *   Selects the power for standby operation modes.
 728:./Generated_Source/PSoC5/CySpc.c **** *   NOTE: SPC functions are not meant to be called directly by the user application.
 729:./Generated_Source/PSoC5/CySpc.c **** *
 730:./Generated_Source/PSoC5/CySpc.c **** *
 731:./Generated_Source/PSoC5/CySpc.c **** * Parameters:
 732:./Generated_Source/PSoC5/CySpc.c **** *   state:
 733:./Generated_Source/PSoC5/CySpc.c **** *       Standby power state. 1 is active, 0 inactive.
 734:./Generated_Source/PSoC5/CySpc.c **** *
 735:./Generated_Source/PSoC5/CySpc.c **** *   
 736:./Generated_Source/PSoC5/CySpc.c **** * Return:
 737:./Generated_Source/PSoC5/CySpc.c **** *   void.
 738:./Generated_Source/PSoC5/CySpc.c **** *
 739:./Generated_Source/PSoC5/CySpc.c **** *
 740:./Generated_Source/PSoC5/CySpc.c **** *******************************************************************************/
 741:./Generated_Source/PSoC5/CySpc.c **** void CySpcStandbyPower(uint8 state) 
 742:./Generated_Source/PSoC5/CySpc.c **** {
 1179              		.loc 1 742 0
 1180              		.cfi_startproc
 1181              		@ args = 0, pretend = 0, frame = 8
 1182              		@ frame_needed = 1, uses_anonymous_args = 0
 1183              		@ link register save eliminated.
 1184 0000 80B4     		push	{r7}
 1185              	.LCFI41:
 1186              		.cfi_def_cfa_offset 4
 1187 0002 83B0     		sub	sp, sp, #12
 1188              	.LCFI42:
 1189              		.cfi_def_cfa_offset 16
 1190 0004 00AF     		add	r7, sp, #0
 1191              		.cfi_offset 7, -4
 1192              	.LCFI43:
ARM GAS  C:\DOCUME~1\akay\LOCALS~1\Temp\ccAcOuWa.s 			page 35


 1193              		.cfi_def_cfa_register 7
 1194 0006 0346     		mov	r3, r0
 1195 0008 FB71     		strb	r3, [r7, #7]
 743:./Generated_Source/PSoC5/CySpc.c ****     if(state == 0)
 1196              		.loc 1 743 0
 1197 000a FB79     		ldrb	r3, [r7, #7]	@ zero_extendqisi2
 1198 000c 002B     		cmp	r3, #0
 1199 000e 0DD1     		bne	.L53
 744:./Generated_Source/PSoC5/CySpc.c ****     {
 745:./Generated_Source/PSoC5/CySpc.c ****         *PM_STBY_SPC &= ~PM_SPC_MASK;
 1200              		.loc 1 745 0
 1201 0010 44F2B033 		movw	r3, #:lower16:1073759152
 1202 0014 C4F20003 		movt	r3, #:upper16:1073759152
 1203 0018 44F2B032 		movw	r2, #:lower16:1073759152
 1204 001c C4F20002 		movt	r2, #:upper16:1073759152
 1205 0020 1278     		ldrb	r2, [r2, #0]
 1206 0022 D2B2     		uxtb	r2, r2
 1207 0024 02F0F702 		and	r2, r2, #247
 1208 0028 1A70     		strb	r2, [r3, #0]
 1209 002a 0DE0     		b	.L55
 1210              	.L53:
 746:./Generated_Source/PSoC5/CySpc.c ****     }
 747:./Generated_Source/PSoC5/CySpc.c ****     else
 748:./Generated_Source/PSoC5/CySpc.c ****     {
 749:./Generated_Source/PSoC5/CySpc.c ****         *PM_STBY_SPC |= PM_SPC_MASK;
 1211              		.loc 1 749 0
 1212 002c 44F2B033 		movw	r3, #:lower16:1073759152
 1213 0030 C4F20003 		movt	r3, #:upper16:1073759152
 1214 0034 44F2B032 		movw	r2, #:lower16:1073759152
 1215 0038 C4F20002 		movt	r2, #:upper16:1073759152
 1216 003c 1278     		ldrb	r2, [r2, #0]
 1217 003e D2B2     		uxtb	r2, r2
 1218 0040 42F00802 		orr	r2, r2, #8
 1219 0044 D2B2     		uxtb	r2, r2
 1220 0046 1A70     		strb	r2, [r3, #0]
 1221              	.L55:
 750:./Generated_Source/PSoC5/CySpc.c ****     }
 751:./Generated_Source/PSoC5/CySpc.c **** }
 1222              		.loc 1 751 0
 1223 0048 07F10C07 		add	r7, r7, #12
 1224 004c BD46     		mov	sp, r7
 1225 004e 80BC     		pop	{r7}
 1226 0050 7047     		bx	lr
 1227              		.cfi_endproc
 1228              	.LFE14:
 1229              		.size	CySpcStandbyPower, .-CySpcStandbyPower
 1230 0052 00BF     		.text
 1231              	.Letext0: