ARM GAS  C:\DOCUME~1\akay\LOCALS~1\Temp\ccIxUN4U.s 			page 1


   1              		.syntax unified
   2              		.cpu cortex-m3
   3              		.fpu softvfp
   4              		.eabi_attribute 20, 1
   5              		.eabi_attribute 21, 1
   6              		.eabi_attribute 23, 3
   7              		.eabi_attribute 24, 1
   8              		.eabi_attribute 25, 1
   9              		.eabi_attribute 26, 1
  10              		.eabi_attribute 30, 6
  11              		.eabi_attribute 18, 4
  12              		.thumb
  13              		.file	"LCD.c"
  20 0000 B9010000 		.text
  20      02004200 
  20      00000201 
  20      FB0E0D00 
  20      01010101 
  21              	.Ltext0:
  22              		.cfi_sections	.debug_frame
  23              		.global	LCD_enableState
  24              		.bss
  25              		.type	LCD_enableState, %object
  26              		.size	LCD_enableState, 1
  27              	LCD_enableState:
  28 0000 00       		.space	1
  29              		.global	LCD_initVar
  30              		.type	LCD_initVar, %object
  31              		.size	LCD_initVar, 1
  32              	LCD_initVar:
  33 0001 00       		.space	1
  34              		.global	LCD_hex
  35              		.section	.rodata
  36              		.align	2
  37              		.type	LCD_hex, %object
  38              		.size	LCD_hex, 16
  39              	LCD_hex:
  40 0000 30313233 		.ascii	"0123456789ABCDEF"
  40      34353637 
  40      38394142 
  40      43444546 
  41              		.section	.text.LCD_Init,"ax",%progbits
  42              		.align	2
  43              		.global	LCD_Init
  44              		.thumb
  45              		.thumb_func
  46              		.type	LCD_Init, %function
  47              	LCD_Init:
  48              	.LFB0:
  49              		.file 1 "./Generated_Source/PSoC5/LCD.c"
   1:./Generated_Source/PSoC5/LCD.c **** /*******************************************************************************
ARM GAS  C:\DOCUME~1\akay\LOCALS~1\Temp\ccIxUN4U.s 			page 2


   2:./Generated_Source/PSoC5/LCD.c **** * File Name: LCD.c
   3:./Generated_Source/PSoC5/LCD.c **** * Version 1.50
   4:./Generated_Source/PSoC5/LCD.c **** *
   5:./Generated_Source/PSoC5/LCD.c **** * Description:
   6:./Generated_Source/PSoC5/LCD.c **** *  This file provides source code for the Character LCD component's API.
   7:./Generated_Source/PSoC5/LCD.c **** *
   8:./Generated_Source/PSoC5/LCD.c **** * Note:
   9:./Generated_Source/PSoC5/LCD.c **** *
  10:./Generated_Source/PSoC5/LCD.c **** ********************************************************************************
  11:./Generated_Source/PSoC5/LCD.c **** * Copyright 2008-2010, Cypress Semiconductor Corporation.  All rights reserved.
  12:./Generated_Source/PSoC5/LCD.c **** * You may use this file only in accordance with the license, terms, conditions,
  13:./Generated_Source/PSoC5/LCD.c **** * disclaimers, and limitations in the end user license agreement accompanying
  14:./Generated_Source/PSoC5/LCD.c **** * the software package with which this file was provided.
  15:./Generated_Source/PSoC5/LCD.c **** *******************************************************************************/
  16:./Generated_Source/PSoC5/LCD.c **** 
  17:./Generated_Source/PSoC5/LCD.c **** #include "CyLib.h"
  18:./Generated_Source/PSoC5/LCD.c **** #include "LCD.h"
  19:./Generated_Source/PSoC5/LCD.c **** 
  20:./Generated_Source/PSoC5/LCD.c **** 
  21:./Generated_Source/PSoC5/LCD.c **** void LCD_Enable(void);
  22:./Generated_Source/PSoC5/LCD.c **** 
  23:./Generated_Source/PSoC5/LCD.c **** 
  24:./Generated_Source/PSoC5/LCD.c **** uint8 LCD_enableState = 0u;
  25:./Generated_Source/PSoC5/LCD.c **** 
  26:./Generated_Source/PSoC5/LCD.c **** uint8 LCD_initVar = 0u;
  27:./Generated_Source/PSoC5/LCD.c **** 
  28:./Generated_Source/PSoC5/LCD.c **** char8 const CYCODE LCD_hex[16u] = "0123456789ABCDEF";
  29:./Generated_Source/PSoC5/LCD.c **** 
  30:./Generated_Source/PSoC5/LCD.c **** extern uint8 const CYCODE LCD_customFonts[];
  31:./Generated_Source/PSoC5/LCD.c **** 
  32:./Generated_Source/PSoC5/LCD.c **** 
  33:./Generated_Source/PSoC5/LCD.c **** /*******************************************************************************
  34:./Generated_Source/PSoC5/LCD.c **** * Function Name: LCD_Init
  35:./Generated_Source/PSoC5/LCD.c **** ********************************************************************************
  36:./Generated_Source/PSoC5/LCD.c **** *
  37:./Generated_Source/PSoC5/LCD.c **** * Summary:
  38:./Generated_Source/PSoC5/LCD.c **** *  Perform initialization required for components normal work.
  39:./Generated_Source/PSoC5/LCD.c **** *  This function initializes the LCD hardware module as follows: 
  40:./Generated_Source/PSoC5/LCD.c **** *        Enable 4-bit interface
  41:./Generated_Source/PSoC5/LCD.c **** *        Clear the display
  42:./Generated_Source/PSoC5/LCD.c **** *        Enable auto cursor increment
  43:./Generated_Source/PSoC5/LCD.c **** *        Resets the cursor to start position
  44:./Generated_Source/PSoC5/LCD.c **** *  Also loads custom character set to LCD if it was defined in the customizer.
  45:./Generated_Source/PSoC5/LCD.c **** *
  46:./Generated_Source/PSoC5/LCD.c **** * Parameters:
  47:./Generated_Source/PSoC5/LCD.c **** *  None.
  48:./Generated_Source/PSoC5/LCD.c **** *
  49:./Generated_Source/PSoC5/LCD.c **** * Return:
  50:./Generated_Source/PSoC5/LCD.c **** *  None.
  51:./Generated_Source/PSoC5/LCD.c **** *
  52:./Generated_Source/PSoC5/LCD.c **** * Reentrant:
  53:./Generated_Source/PSoC5/LCD.c **** *  No.
  54:./Generated_Source/PSoC5/LCD.c **** *
  55:./Generated_Source/PSoC5/LCD.c **** *******************************************************************************/
  56:./Generated_Source/PSoC5/LCD.c **** void LCD_Init(void)
  57:./Generated_Source/PSoC5/LCD.c **** {
  50              		.loc 1 57 0
ARM GAS  C:\DOCUME~1\akay\LOCALS~1\Temp\ccIxUN4U.s 			page 3


  51              		.cfi_startproc
  52              		@ args = 0, pretend = 0, frame = 0
  53              		@ frame_needed = 1, uses_anonymous_args = 0
  54 0000 80B5     		push	{r7, lr}
  55              	.LCFI0:
  56              		.cfi_def_cfa_offset 8
  57 0002 00AF     		add	r7, sp, #0
  58              		.cfi_offset 14, -4
  59              		.cfi_offset 7, -8
  60              	.LCFI1:
  61              		.cfi_def_cfa_register 7
  58:./Generated_Source/PSoC5/LCD.c ****     /* INIT CODE */
  59:./Generated_Source/PSoC5/LCD.c ****     CyDelay(40u);                                                        /* Delay 40 ms */
  62              		.loc 1 59 0
  63 0004 4FF02800 		mov	r0, #40
  64 0008 FFF7FEFF 		bl	CyDelay
  60:./Generated_Source/PSoC5/LCD.c ****     LCD_WrCntrlNib(LCD_DISPLAY_8_BIT_INIT);   /* Selects 8-bit mode */
  65              		.loc 1 60 0
  66 000c 4FF00300 		mov	r0, #3
  67 0010 FFF7FEFF 		bl	LCD_WrCntrlNib
  61:./Generated_Source/PSoC5/LCD.c ****     CyDelay(5u);                                                         /* Delay 5 ms */
  68              		.loc 1 61 0
  69 0014 4FF00500 		mov	r0, #5
  70 0018 FFF7FEFF 		bl	CyDelay
  62:./Generated_Source/PSoC5/LCD.c ****     LCD_WrCntrlNib(LCD_DISPLAY_8_BIT_INIT);   /* Selects 8-bit mode */
  71              		.loc 1 62 0
  72 001c 4FF00300 		mov	r0, #3
  73 0020 FFF7FEFF 		bl	LCD_WrCntrlNib
  63:./Generated_Source/PSoC5/LCD.c ****     CyDelay(15u);                                                        /* Delay 15 ms */
  74              		.loc 1 63 0
  75 0024 4FF00F00 		mov	r0, #15
  76 0028 FFF7FEFF 		bl	CyDelay
  64:./Generated_Source/PSoC5/LCD.c ****     LCD_WrCntrlNib(LCD_DISPLAY_8_BIT_INIT);   /* Selects 8-bit mode */
  77              		.loc 1 64 0
  78 002c 4FF00300 		mov	r0, #3
  79 0030 FFF7FEFF 		bl	LCD_WrCntrlNib
  65:./Generated_Source/PSoC5/LCD.c ****     CyDelay(1u);                                                         /* Delay 1 ms */
  80              		.loc 1 65 0
  81 0034 4FF00100 		mov	r0, #1
  82 0038 FFF7FEFF 		bl	CyDelay
  66:./Generated_Source/PSoC5/LCD.c ****     LCD_WrCntrlNib(LCD_DISPLAY_4_BIT_INIT);   /* Selects 4-bit mode */
  83              		.loc 1 66 0
  84 003c 4FF00200 		mov	r0, #2
  85 0040 FFF7FEFF 		bl	LCD_WrCntrlNib
  67:./Generated_Source/PSoC5/LCD.c ****     CyDelay(5u);                                                         /* Delay 5 ms */
  86              		.loc 1 67 0
  87 0044 4FF00500 		mov	r0, #5
  88 0048 FFF7FEFF 		bl	CyDelay
  68:./Generated_Source/PSoC5/LCD.c **** 
  69:./Generated_Source/PSoC5/LCD.c ****     LCD_WriteControl(LCD_CURSOR_AUTO_INCR_ON);    /* Incr Cursor After Writes */
  89              		.loc 1 69 0
  90 004c 4FF00600 		mov	r0, #6
  91 0050 FFF7FEFF 		bl	LCD_WriteControl
  70:./Generated_Source/PSoC5/LCD.c ****     LCD_WriteControl(LCD_DISPLAY_CURSOR_ON);      /* Turn Display, Cursor ON */
  92              		.loc 1 70 0
  93 0054 4FF00E00 		mov	r0, #14
  94 0058 FFF7FEFF 		bl	LCD_WriteControl
ARM GAS  C:\DOCUME~1\akay\LOCALS~1\Temp\ccIxUN4U.s 			page 4


  71:./Generated_Source/PSoC5/LCD.c ****     LCD_WriteControl(LCD_DISPLAY_2_LINES_5x10);   /* 2 Lines by 5x10 Characters */
  95              		.loc 1 71 0
  96 005c 4FF02C00 		mov	r0, #44
  97 0060 FFF7FEFF 		bl	LCD_WriteControl
  72:./Generated_Source/PSoC5/LCD.c ****     LCD_WriteControl(LCD_DISPLAY_CURSOR_OFF);     /* Turn Display, Cursor OFF */
  98              		.loc 1 72 0
  99 0064 4FF00800 		mov	r0, #8
 100 0068 FFF7FEFF 		bl	LCD_WriteControl
  73:./Generated_Source/PSoC5/LCD.c ****     LCD_WriteControl(LCD_CLEAR_DISPLAY);          /* Clear LCD Screen */
 101              		.loc 1 73 0
 102 006c 4FF00100 		mov	r0, #1
 103 0070 FFF7FEFF 		bl	LCD_WriteControl
  74:./Generated_Source/PSoC5/LCD.c ****     LCD_WriteControl(LCD_DISPLAY_ON_CURSOR_OFF);  /* Turn Display ON, Cursor OFF */
 104              		.loc 1 74 0
 105 0074 4FF00C00 		mov	r0, #12
 106 0078 FFF7FEFF 		bl	LCD_WriteControl
  75:./Generated_Source/PSoC5/LCD.c ****     LCD_WriteControl(LCD_RESET_CURSOR_POSITION);  /* Set Cursor to 0,0 */
 107              		.loc 1 75 0
 108 007c 4FF00300 		mov	r0, #3
 109 0080 FFF7FEFF 		bl	LCD_WriteControl
  76:./Generated_Source/PSoC5/LCD.c ****     CyDelay(5u);     
 110              		.loc 1 76 0
 111 0084 4FF00500 		mov	r0, #5
 112 0088 FFF7FEFF 		bl	CyDelay
  77:./Generated_Source/PSoC5/LCD.c ****     
  78:./Generated_Source/PSoC5/LCD.c ****     #if(LCD_CUSTOM_CHAR_SET != LCD_NONE)
  79:./Generated_Source/PSoC5/LCD.c ****         LCD_LoadCustomFonts(LCD_customFonts);
  80:./Generated_Source/PSoC5/LCD.c ****     #endif /* LCD_CUSTOM_CHAR_SET != LCD_NONE */
  81:./Generated_Source/PSoC5/LCD.c **** }
 113              		.loc 1 81 0
 114 008c 80BD     		pop	{r7, pc}
 115              		.cfi_endproc
 116              	.LFE0:
 117              		.size	LCD_Init, .-LCD_Init
 118 008e 00BF     		.section	.text.LCD_Enable,"ax",%progbits
 119              		.align	2
 120              		.global	LCD_Enable
 121              		.thumb
 122              		.thumb_func
 123              		.type	LCD_Enable, %function
 124              	LCD_Enable:
 125              	.LFB1:
  82:./Generated_Source/PSoC5/LCD.c **** 
  83:./Generated_Source/PSoC5/LCD.c **** 
  84:./Generated_Source/PSoC5/LCD.c **** /*******************************************************************************
  85:./Generated_Source/PSoC5/LCD.c **** * Function Name: LCD_Enable
  86:./Generated_Source/PSoC5/LCD.c **** ********************************************************************************
  87:./Generated_Source/PSoC5/LCD.c **** *
  88:./Generated_Source/PSoC5/LCD.c **** * Summary:
  89:./Generated_Source/PSoC5/LCD.c **** *  Turns on the display.
  90:./Generated_Source/PSoC5/LCD.c **** *
  91:./Generated_Source/PSoC5/LCD.c **** * Parameters:
  92:./Generated_Source/PSoC5/LCD.c **** *  None.
  93:./Generated_Source/PSoC5/LCD.c **** *
  94:./Generated_Source/PSoC5/LCD.c **** * Return:
  95:./Generated_Source/PSoC5/LCD.c **** *  None.
  96:./Generated_Source/PSoC5/LCD.c **** *
ARM GAS  C:\DOCUME~1\akay\LOCALS~1\Temp\ccIxUN4U.s 			page 5


  97:./Generated_Source/PSoC5/LCD.c **** * Reentrant:
  98:./Generated_Source/PSoC5/LCD.c **** *  No.
  99:./Generated_Source/PSoC5/LCD.c **** *
 100:./Generated_Source/PSoC5/LCD.c **** * Theory:
 101:./Generated_Source/PSoC5/LCD.c **** *  This finction has no effect when it called first time as 
 102:./Generated_Source/PSoC5/LCD.c **** *  LCD_Init() turns on the LCD.
 103:./Generated_Source/PSoC5/LCD.c **** *
 104:./Generated_Source/PSoC5/LCD.c **** *******************************************************************************/
 105:./Generated_Source/PSoC5/LCD.c **** void LCD_Enable(void)
 106:./Generated_Source/PSoC5/LCD.c **** {
 126              		.loc 1 106 0
 127              		.cfi_startproc
 128              		@ args = 0, pretend = 0, frame = 0
 129              		@ frame_needed = 1, uses_anonymous_args = 0
 130 0000 80B5     		push	{r7, lr}
 131              	.LCFI2:
 132              		.cfi_def_cfa_offset 8
 133 0002 00AF     		add	r7, sp, #0
 134              		.cfi_offset 14, -4
 135              		.cfi_offset 7, -8
 136              	.LCFI3:
 137              		.cfi_def_cfa_register 7
 107:./Generated_Source/PSoC5/LCD.c ****     LCD_DisplayOn();
 138              		.loc 1 107 0
 139 0004 4FF00C00 		mov	r0, #12
 140 0008 FFF7FEFF 		bl	LCD_WriteControl
 108:./Generated_Source/PSoC5/LCD.c ****     LCD_enableState = 1u;
 141              		.loc 1 108 0
 142 000c 40F20003 		movw	r3, #:lower16:LCD_enableState
 143 0010 C0F20003 		movt	r3, #:upper16:LCD_enableState
 144 0014 4FF00102 		mov	r2, #1
 145 0018 1A70     		strb	r2, [r3, #0]
 109:./Generated_Source/PSoC5/LCD.c **** }
 146              		.loc 1 109 0
 147 001a 80BD     		pop	{r7, pc}
 148              		.cfi_endproc
 149              	.LFE1:
 150              		.size	LCD_Enable, .-LCD_Enable
 151              		.section	.text.LCD_Start,"ax",%progbits
 152              		.align	2
 153              		.global	LCD_Start
 154              		.thumb
 155              		.thumb_func
 156              		.type	LCD_Start, %function
 157              	LCD_Start:
 158              	.LFB2:
 110:./Generated_Source/PSoC5/LCD.c **** 
 111:./Generated_Source/PSoC5/LCD.c **** 
 112:./Generated_Source/PSoC5/LCD.c **** /*******************************************************************************
 113:./Generated_Source/PSoC5/LCD.c **** * Function Name: LCD_Start
 114:./Generated_Source/PSoC5/LCD.c **** ********************************************************************************
 115:./Generated_Source/PSoC5/LCD.c **** *
 116:./Generated_Source/PSoC5/LCD.c **** * Summary:
 117:./Generated_Source/PSoC5/LCD.c **** *  Perform initialization required for components normal work.
 118:./Generated_Source/PSoC5/LCD.c **** *  This function initializes the LCD hardware module as follows: 
 119:./Generated_Source/PSoC5/LCD.c **** *        Enable 4-bit interface
 120:./Generated_Source/PSoC5/LCD.c **** *        Clear the display
ARM GAS  C:\DOCUME~1\akay\LOCALS~1\Temp\ccIxUN4U.s 			page 6


 121:./Generated_Source/PSoC5/LCD.c **** *        Enable auto cursor increment
 122:./Generated_Source/PSoC5/LCD.c **** *        Resets the cursor to start position
 123:./Generated_Source/PSoC5/LCD.c **** *  Also loads custom character set to LCD if it was defined in the customizer.
 124:./Generated_Source/PSoC5/LCD.c **** *  If it was not the first call in this project then it just turns on the 
 125:./Generated_Source/PSoC5/LCD.c **** *  display  
 126:./Generated_Source/PSoC5/LCD.c **** *  
 127:./Generated_Source/PSoC5/LCD.c **** *
 128:./Generated_Source/PSoC5/LCD.c **** * Parameters:
 129:./Generated_Source/PSoC5/LCD.c **** *  LCD_initVar - global variable. 
 130:./Generated_Source/PSoC5/LCD.c **** *
 131:./Generated_Source/PSoC5/LCD.c **** * Return:
 132:./Generated_Source/PSoC5/LCD.c **** *  LCD_initVar - global variable. 
 133:./Generated_Source/PSoC5/LCD.c **** *
 134:./Generated_Source/PSoC5/LCD.c **** * Reentrant:
 135:./Generated_Source/PSoC5/LCD.c **** *  No.
 136:./Generated_Source/PSoC5/LCD.c **** *
 137:./Generated_Source/PSoC5/LCD.c **** *******************************************************************************/
 138:./Generated_Source/PSoC5/LCD.c **** void LCD_Start()
 139:./Generated_Source/PSoC5/LCD.c **** {   
 159              		.loc 1 139 0
 160              		.cfi_startproc
 161              		@ args = 0, pretend = 0, frame = 0
 162              		@ frame_needed = 1, uses_anonymous_args = 0
 163 0000 80B5     		push	{r7, lr}
 164              	.LCFI4:
 165              		.cfi_def_cfa_offset 8
 166 0002 00AF     		add	r7, sp, #0
 167              		.cfi_offset 14, -4
 168              		.cfi_offset 7, -8
 169              	.LCFI5:
 170              		.cfi_def_cfa_register 7
 140:./Generated_Source/PSoC5/LCD.c ****     /* If not initialized then perform initialization */
 141:./Generated_Source/PSoC5/LCD.c ****     if(LCD_initVar == 0u)
 171              		.loc 1 141 0
 172 0004 40F20003 		movw	r3, #:lower16:LCD_initVar
 173 0008 C0F20003 		movt	r3, #:upper16:LCD_initVar
 174 000c 1B78     		ldrb	r3, [r3, #0]	@ zero_extendqisi2
 175 000e 002B     		cmp	r3, #0
 176 0010 08D1     		bne	.L6
 142:./Generated_Source/PSoC5/LCD.c ****     {
 143:./Generated_Source/PSoC5/LCD.c ****         LCD_Init();
 177              		.loc 1 143 0
 178 0012 FFF7FEFF 		bl	LCD_Init
 144:./Generated_Source/PSoC5/LCD.c ****         LCD_initVar = 1u;
 179              		.loc 1 144 0
 180 0016 40F20003 		movw	r3, #:lower16:LCD_initVar
 181 001a C0F20003 		movt	r3, #:upper16:LCD_initVar
 182 001e 4FF00102 		mov	r2, #1
 183 0022 1A70     		strb	r2, [r3, #0]
 184              	.L6:
 145:./Generated_Source/PSoC5/LCD.c ****     }
 146:./Generated_Source/PSoC5/LCD.c ****     
 147:./Generated_Source/PSoC5/LCD.c ****     /* Turn on the LCD */
 148:./Generated_Source/PSoC5/LCD.c ****     LCD_Enable();
 185              		.loc 1 148 0
 186 0024 FFF7FEFF 		bl	LCD_Enable
 149:./Generated_Source/PSoC5/LCD.c **** }
ARM GAS  C:\DOCUME~1\akay\LOCALS~1\Temp\ccIxUN4U.s 			page 7


 187              		.loc 1 149 0
 188 0028 80BD     		pop	{r7, pc}
 189              		.cfi_endproc
 190              	.LFE2:
 191              		.size	LCD_Start, .-LCD_Start
 192 002a 00BF     		.section	.text.LCD_Stop,"ax",%progbits
 193              		.align	2
 194              		.global	LCD_Stop
 195              		.thumb
 196              		.thumb_func
 197              		.type	LCD_Stop, %function
 198              	LCD_Stop:
 199              	.LFB3:
 150:./Generated_Source/PSoC5/LCD.c **** 
 151:./Generated_Source/PSoC5/LCD.c **** 
 152:./Generated_Source/PSoC5/LCD.c **** /*******************************************************************************
 153:./Generated_Source/PSoC5/LCD.c **** * Function Name: LCD_Stop
 154:./Generated_Source/PSoC5/LCD.c **** ********************************************************************************
 155:./Generated_Source/PSoC5/LCD.c **** *
 156:./Generated_Source/PSoC5/LCD.c **** * Summary:
 157:./Generated_Source/PSoC5/LCD.c **** *  Turns off the display of the LCD screen.
 158:./Generated_Source/PSoC5/LCD.c **** *
 159:./Generated_Source/PSoC5/LCD.c **** * Parameters:
 160:./Generated_Source/PSoC5/LCD.c **** *  None.
 161:./Generated_Source/PSoC5/LCD.c **** *
 162:./Generated_Source/PSoC5/LCD.c **** * Return:
 163:./Generated_Source/PSoC5/LCD.c **** *  None.
 164:./Generated_Source/PSoC5/LCD.c **** *
 165:./Generated_Source/PSoC5/LCD.c **** * Reentrant:
 166:./Generated_Source/PSoC5/LCD.c **** *  No.
 167:./Generated_Source/PSoC5/LCD.c **** *
 168:./Generated_Source/PSoC5/LCD.c **** *******************************************************************************/
 169:./Generated_Source/PSoC5/LCD.c **** void LCD_Stop()
 170:./Generated_Source/PSoC5/LCD.c **** {
 200              		.loc 1 170 0
 201              		.cfi_startproc
 202              		@ args = 0, pretend = 0, frame = 0
 203              		@ frame_needed = 1, uses_anonymous_args = 0
 204 0000 80B5     		push	{r7, lr}
 205              	.LCFI6:
 206              		.cfi_def_cfa_offset 8
 207 0002 00AF     		add	r7, sp, #0
 208              		.cfi_offset 14, -4
 209              		.cfi_offset 7, -8
 210              	.LCFI7:
 211              		.cfi_def_cfa_register 7
 171:./Generated_Source/PSoC5/LCD.c ****     /* Calls LCD Off Macro */
 172:./Generated_Source/PSoC5/LCD.c ****     LCD_DisplayOff();
 212              		.loc 1 172 0
 213 0004 4FF00800 		mov	r0, #8
 214 0008 FFF7FEFF 		bl	LCD_WriteControl
 173:./Generated_Source/PSoC5/LCD.c ****     LCD_enableState = 0u;
 215              		.loc 1 173 0
 216 000c 40F20003 		movw	r3, #:lower16:LCD_enableState
 217 0010 C0F20003 		movt	r3, #:upper16:LCD_enableState
 218 0014 4FF00002 		mov	r2, #0
 219 0018 1A70     		strb	r2, [r3, #0]
ARM GAS  C:\DOCUME~1\akay\LOCALS~1\Temp\ccIxUN4U.s 			page 8


 174:./Generated_Source/PSoC5/LCD.c **** }
 220              		.loc 1 174 0
 221 001a 80BD     		pop	{r7, pc}
 222              		.cfi_endproc
 223              	.LFE3:
 224              		.size	LCD_Stop, .-LCD_Stop
 225              		.section	.text.LCD_Position,"ax",%progbits
 226              		.align	2
 227              		.global	LCD_Position
 228              		.thumb
 229              		.thumb_func
 230              		.type	LCD_Position, %function
 231              	LCD_Position:
 232              	.LFB4:
 175:./Generated_Source/PSoC5/LCD.c **** 
 176:./Generated_Source/PSoC5/LCD.c **** 
 177:./Generated_Source/PSoC5/LCD.c **** /*******************************************************************************
 178:./Generated_Source/PSoC5/LCD.c **** *  Function Name: LCD_Position
 179:./Generated_Source/PSoC5/LCD.c **** ********************************************************************************
 180:./Generated_Source/PSoC5/LCD.c **** *
 181:./Generated_Source/PSoC5/LCD.c **** * Summary:
 182:./Generated_Source/PSoC5/LCD.c **** *  Moves active cursor location to a point specified by the input arguments
 183:./Generated_Source/PSoC5/LCD.c **** *
 184:./Generated_Source/PSoC5/LCD.c **** * Parameters:
 185:./Generated_Source/PSoC5/LCD.c **** *  row:     Specific row of LCD module to be written
 186:./Generated_Source/PSoC5/LCD.c **** *  column:  Column of LCD module to be written
 187:./Generated_Source/PSoC5/LCD.c **** *
 188:./Generated_Source/PSoC5/LCD.c **** * Return:
 189:./Generated_Source/PSoC5/LCD.c **** *  None.
 190:./Generated_Source/PSoC5/LCD.c **** *
 191:./Generated_Source/PSoC5/LCD.c **** * Note:
 192:./Generated_Source/PSoC5/LCD.c **** *  This only applies for LCD displays which use the 2X40 address mode.
 193:./Generated_Source/PSoC5/LCD.c **** *  This results in Row 2 offset from row one by 0x28.
 194:./Generated_Source/PSoC5/LCD.c **** *  When there are more than 2 rows, each row must be fewer than 20 characters.
 195:./Generated_Source/PSoC5/LCD.c **** *
 196:./Generated_Source/PSoC5/LCD.c **** *******************************************************************************/
 197:./Generated_Source/PSoC5/LCD.c **** void LCD_Position(uint8 row, uint8 column) 
 198:./Generated_Source/PSoC5/LCD.c **** {
 233              		.loc 1 198 0
 234              		.cfi_startproc
 235              		@ args = 0, pretend = 0, frame = 8
 236              		@ frame_needed = 1, uses_anonymous_args = 0
 237 0000 80B5     		push	{r7, lr}
 238              	.LCFI8:
 239              		.cfi_def_cfa_offset 8
 240 0002 82B0     		sub	sp, sp, #8
 241              	.LCFI9:
 242              		.cfi_def_cfa_offset 16
 243 0004 00AF     		add	r7, sp, #0
 244              		.cfi_offset 14, -4
 245              		.cfi_offset 7, -8
 246              	.LCFI10:
 247              		.cfi_def_cfa_register 7
 248 0006 0246     		mov	r2, r0
 249 0008 0B46     		mov	r3, r1
 250 000a FA71     		strb	r2, [r7, #7]
 251 000c BB71     		strb	r3, [r7, #6]
ARM GAS  C:\DOCUME~1\akay\LOCALS~1\Temp\ccIxUN4U.s 			page 9


 199:./Generated_Source/PSoC5/LCD.c ****     switch (row)
 252              		.loc 1 199 0
 253 000e FB79     		ldrb	r3, [r7, #7]	@ zero_extendqisi2
 254 0010 032B     		cmp	r3, #3
 255 0012 2AD8     		bhi	.L17
 256 0014 01A2     		adr	r2, .L16
 257 0016 52F823F0 		ldr	pc, [r2, r3, lsl #2]
 258 001a 00BF     		.align	2
 259              	.L16:
 260 001c 2D000000 		.word	.L12+1
 261 0020 3D000000 		.word	.L13+1
 262 0024 4D000000 		.word	.L14+1
 263 0028 5D000000 		.word	.L15+1
 264              	.L12:
 200:./Generated_Source/PSoC5/LCD.c ****     {
 201:./Generated_Source/PSoC5/LCD.c ****         case 0:
 202:./Generated_Source/PSoC5/LCD.c ****             LCD_WriteControl(LCD_ROW_0_START + column);
 265              		.loc 1 202 0
 266 002c BB79     		ldrb	r3, [r7, #6]
 267 002e A3F18003 		sub	r3, r3, #128
 268 0032 DBB2     		uxtb	r3, r3
 269 0034 1846     		mov	r0, r3
 270 0036 FFF7FEFF 		bl	LCD_WriteControl
 203:./Generated_Source/PSoC5/LCD.c ****             break;
 271              		.loc 1 203 0
 272 003a 16E0     		b	.L17
 273              	.L13:
 204:./Generated_Source/PSoC5/LCD.c ****         case 1:
 205:./Generated_Source/PSoC5/LCD.c ****             LCD_WriteControl(LCD_ROW_1_START + column);
 274              		.loc 1 205 0
 275 003c BB79     		ldrb	r3, [r7, #6]
 276 003e A3F14003 		sub	r3, r3, #64
 277 0042 DBB2     		uxtb	r3, r3
 278 0044 1846     		mov	r0, r3
 279 0046 FFF7FEFF 		bl	LCD_WriteControl
 206:./Generated_Source/PSoC5/LCD.c ****             break;
 280              		.loc 1 206 0
 281 004a 0EE0     		b	.L17
 282              	.L14:
 207:./Generated_Source/PSoC5/LCD.c ****         case 2:
 208:./Generated_Source/PSoC5/LCD.c ****             LCD_WriteControl(LCD_ROW_2_START + column);
 283              		.loc 1 208 0
 284 004c BB79     		ldrb	r3, [r7, #6]
 285 004e A3F16C03 		sub	r3, r3, #108
 286 0052 DBB2     		uxtb	r3, r3
 287 0054 1846     		mov	r0, r3
 288 0056 FFF7FEFF 		bl	LCD_WriteControl
 209:./Generated_Source/PSoC5/LCD.c ****             break;
 289              		.loc 1 209 0
 290 005a 06E0     		b	.L17
 291              	.L15:
 210:./Generated_Source/PSoC5/LCD.c ****         case 3:
 211:./Generated_Source/PSoC5/LCD.c ****             LCD_WriteControl(LCD_ROW_3_START + column);
 292              		.loc 1 211 0
 293 005c BB79     		ldrb	r3, [r7, #6]
 294 005e A3F12C03 		sub	r3, r3, #44
 295 0062 DBB2     		uxtb	r3, r3
ARM GAS  C:\DOCUME~1\akay\LOCALS~1\Temp\ccIxUN4U.s 			page 10


 296 0064 1846     		mov	r0, r3
 297 0066 FFF7FEFF 		bl	LCD_WriteControl
 298              	.L17:
 212:./Generated_Source/PSoC5/LCD.c ****             break;
 213:./Generated_Source/PSoC5/LCD.c ****         default:
 214:./Generated_Source/PSoC5/LCD.c ****             /* if default case is hit, invalid row argument was passed.*/
 215:./Generated_Source/PSoC5/LCD.c ****             break;
 216:./Generated_Source/PSoC5/LCD.c ****     }
 217:./Generated_Source/PSoC5/LCD.c **** }
 299              		.loc 1 217 0
 300 006a 07F10807 		add	r7, r7, #8
 301 006e BD46     		mov	sp, r7
 302 0070 80BD     		pop	{r7, pc}
 303              		.cfi_endproc
 304              	.LFE4:
 305              		.size	LCD_Position, .-LCD_Position
 306 0072 00BF     		.section	.text.LCD_PrintString,"ax",%progbits
 307              		.align	2
 308              		.global	LCD_PrintString
 309              		.thumb
 310              		.thumb_func
 311              		.type	LCD_PrintString, %function
 312              	LCD_PrintString:
 313              	.LFB5:
 218:./Generated_Source/PSoC5/LCD.c **** 
 219:./Generated_Source/PSoC5/LCD.c **** 
 220:./Generated_Source/PSoC5/LCD.c **** /*******************************************************************************
 221:./Generated_Source/PSoC5/LCD.c **** * Function Name: LCD_PrintString
 222:./Generated_Source/PSoC5/LCD.c **** ********************************************************************************
 223:./Generated_Source/PSoC5/LCD.c **** *
 224:./Generated_Source/PSoC5/LCD.c **** * Summary:
 225:./Generated_Source/PSoC5/LCD.c **** *  Writes a zero terminated string to the LCD.
 226:./Generated_Source/PSoC5/LCD.c **** *
 227:./Generated_Source/PSoC5/LCD.c **** * Parameters:
 228:./Generated_Source/PSoC5/LCD.c **** *  string:  pointer to head of char8 array to be written to the LCD module
 229:./Generated_Source/PSoC5/LCD.c **** *
 230:./Generated_Source/PSoC5/LCD.c **** * Return:
 231:./Generated_Source/PSoC5/LCD.c **** *  None.
 232:./Generated_Source/PSoC5/LCD.c **** *
 233:./Generated_Source/PSoC5/LCD.c **** *******************************************************************************/
 234:./Generated_Source/PSoC5/LCD.c **** void LCD_PrintString(char8 * string) 
 235:./Generated_Source/PSoC5/LCD.c **** {
 314              		.loc 1 235 0
 315              		.cfi_startproc
 316              		@ args = 0, pretend = 0, frame = 16
 317              		@ frame_needed = 1, uses_anonymous_args = 0
 318 0000 80B5     		push	{r7, lr}
 319              	.LCFI11:
 320              		.cfi_def_cfa_offset 8
 321 0002 84B0     		sub	sp, sp, #16
 322              	.LCFI12:
 323              		.cfi_def_cfa_offset 24
 324 0004 00AF     		add	r7, sp, #0
 325              		.cfi_offset 14, -4
 326              		.cfi_offset 7, -8
 327              	.LCFI13:
 328              		.cfi_def_cfa_register 7
ARM GAS  C:\DOCUME~1\akay\LOCALS~1\Temp\ccIxUN4U.s 			page 11


 329 0006 7860     		str	r0, [r7, #4]
 236:./Generated_Source/PSoC5/LCD.c ****     uint8 indexU8 = 1u;
 330              		.loc 1 236 0
 331 0008 4FF00103 		mov	r3, #1
 332 000c BB73     		strb	r3, [r7, #14]
 237:./Generated_Source/PSoC5/LCD.c ****     char8 current = *string;
 333              		.loc 1 237 0
 334 000e 7B68     		ldr	r3, [r7, #4]
 335 0010 1B78     		ldrb	r3, [r3, #0]
 336 0012 FB73     		strb	r3, [r7, #15]
 238:./Generated_Source/PSoC5/LCD.c ****     
 239:./Generated_Source/PSoC5/LCD.c ****     /* Until null is reached, print next character */
 240:./Generated_Source/PSoC5/LCD.c ****     while(current != (char8) '\0')
 337              		.loc 1 240 0
 338 0014 0CE0     		b	.L19
 339              	.L20:
 241:./Generated_Source/PSoC5/LCD.c ****     {
 242:./Generated_Source/PSoC5/LCD.c ****         LCD_WriteData(current);
 340              		.loc 1 242 0
 341 0016 FB7B     		ldrb	r3, [r7, #15]	@ zero_extendqisi2
 342 0018 1846     		mov	r0, r3
 343 001a FFF7FEFF 		bl	LCD_WriteData
 243:./Generated_Source/PSoC5/LCD.c ****         current = *(string + indexU8); 
 344              		.loc 1 243 0
 345 001e BA7B     		ldrb	r2, [r7, #14]	@ zero_extendqisi2
 346 0020 7B68     		ldr	r3, [r7, #4]
 347 0022 1344     		add	r3, r2, r3
 348 0024 1B78     		ldrb	r3, [r3, #0]
 349 0026 FB73     		strb	r3, [r7, #15]
 244:./Generated_Source/PSoC5/LCD.c ****         indexU8++;
 350              		.loc 1 244 0
 351 0028 BB7B     		ldrb	r3, [r7, #14]
 352 002a 03F10103 		add	r3, r3, #1
 353 002e BB73     		strb	r3, [r7, #14]
 354              	.L19:
 355              		.loc 1 240 0
 356 0030 FB7B     		ldrb	r3, [r7, #15]	@ zero_extendqisi2
 357 0032 002B     		cmp	r3, #0
 358 0034 EFD1     		bne	.L20
 245:./Generated_Source/PSoC5/LCD.c ****     }
 246:./Generated_Source/PSoC5/LCD.c **** }
 359              		.loc 1 246 0
 360 0036 07F11007 		add	r7, r7, #16
 361 003a BD46     		mov	sp, r7
 362 003c 80BD     		pop	{r7, pc}
 363              		.cfi_endproc
 364              	.LFE5:
 365              		.size	LCD_PrintString, .-LCD_PrintString
 366 003e 00BF     		.section	.text.LCD_PutChar,"ax",%progbits
 367              		.align	2
 368              		.global	LCD_PutChar
 369              		.thumb
 370              		.thumb_func
 371              		.type	LCD_PutChar, %function
 372              	LCD_PutChar:
 373              	.LFB6:
 247:./Generated_Source/PSoC5/LCD.c **** 
ARM GAS  C:\DOCUME~1\akay\LOCALS~1\Temp\ccIxUN4U.s 			page 12


 248:./Generated_Source/PSoC5/LCD.c **** 
 249:./Generated_Source/PSoC5/LCD.c **** /*******************************************************************************
 250:./Generated_Source/PSoC5/LCD.c **** *  Function Name: LCD_PutChar
 251:./Generated_Source/PSoC5/LCD.c **** ********************************************************************************
 252:./Generated_Source/PSoC5/LCD.c **** *
 253:./Generated_Source/PSoC5/LCD.c **** * Summary:
 254:./Generated_Source/PSoC5/LCD.c **** *  Writes a single character to the current cursor position of the LCD module.
 255:./Generated_Source/PSoC5/LCD.c **** *  Custom character names (_CUSTOM_0 through
 256:./Generated_Source/PSoC5/LCD.c **** *  _CUSTOM_7) are acceptable as inputs.
 257:./Generated_Source/PSoC5/LCD.c **** *
 258:./Generated_Source/PSoC5/LCD.c **** * Parameters:
 259:./Generated_Source/PSoC5/LCD.c **** *  character:  character to be written to the LCD
 260:./Generated_Source/PSoC5/LCD.c **** *
 261:./Generated_Source/PSoC5/LCD.c **** * Return:
 262:./Generated_Source/PSoC5/LCD.c **** *  None.
 263:./Generated_Source/PSoC5/LCD.c **** *
 264:./Generated_Source/PSoC5/LCD.c **** *******************************************************************************/
 265:./Generated_Source/PSoC5/LCD.c **** void LCD_PutChar(char8 character) 
 266:./Generated_Source/PSoC5/LCD.c **** {
 374              		.loc 1 266 0
 375              		.cfi_startproc
 376              		@ args = 0, pretend = 0, frame = 8
 377              		@ frame_needed = 1, uses_anonymous_args = 0
 378 0000 80B5     		push	{r7, lr}
 379              	.LCFI14:
 380              		.cfi_def_cfa_offset 8
 381 0002 82B0     		sub	sp, sp, #8
 382              	.LCFI15:
 383              		.cfi_def_cfa_offset 16
 384 0004 00AF     		add	r7, sp, #0
 385              		.cfi_offset 14, -4
 386              		.cfi_offset 7, -8
 387              	.LCFI16:
 388              		.cfi_def_cfa_register 7
 389 0006 0346     		mov	r3, r0
 390 0008 FB71     		strb	r3, [r7, #7]
 267:./Generated_Source/PSoC5/LCD.c ****     LCD_WriteData(character);
 391              		.loc 1 267 0
 392 000a FB79     		ldrb	r3, [r7, #7]	@ zero_extendqisi2
 393 000c 1846     		mov	r0, r3
 394 000e FFF7FEFF 		bl	LCD_WriteData
 268:./Generated_Source/PSoC5/LCD.c **** }
 395              		.loc 1 268 0
 396 0012 07F10807 		add	r7, r7, #8
 397 0016 BD46     		mov	sp, r7
 398 0018 80BD     		pop	{r7, pc}
 399              		.cfi_endproc
 400              	.LFE6:
 401              		.size	LCD_PutChar, .-LCD_PutChar
 402 001a 00BF     		.section	.text.LCD_WriteData,"ax",%progbits
 403              		.align	2
 404              		.global	LCD_WriteData
 405              		.thumb
 406              		.thumb_func
 407              		.type	LCD_WriteData, %function
 408              	LCD_WriteData:
 409              	.LFB7:
ARM GAS  C:\DOCUME~1\akay\LOCALS~1\Temp\ccIxUN4U.s 			page 13


 269:./Generated_Source/PSoC5/LCD.c **** 
 270:./Generated_Source/PSoC5/LCD.c **** 
 271:./Generated_Source/PSoC5/LCD.c **** /*******************************************************************************
 272:./Generated_Source/PSoC5/LCD.c **** *  Function Name: LCD_WriteData
 273:./Generated_Source/PSoC5/LCD.c **** ********************************************************************************
 274:./Generated_Source/PSoC5/LCD.c **** *
 275:./Generated_Source/PSoC5/LCD.c **** * Summary:
 276:./Generated_Source/PSoC5/LCD.c **** *  Writes a data byte to the LCD module's Data Display RAM.
 277:./Generated_Source/PSoC5/LCD.c **** *
 278:./Generated_Source/PSoC5/LCD.c **** * Parameters:
 279:./Generated_Source/PSoC5/LCD.c **** *  dByte:  byte to be written to LCD module.
 280:./Generated_Source/PSoC5/LCD.c **** *
 281:./Generated_Source/PSoC5/LCD.c **** * Return:
 282:./Generated_Source/PSoC5/LCD.c **** *  None.
 283:./Generated_Source/PSoC5/LCD.c **** *
 284:./Generated_Source/PSoC5/LCD.c **** *******************************************************************************/
 285:./Generated_Source/PSoC5/LCD.c **** void LCD_WriteData(uint8 dByte) 
 286:./Generated_Source/PSoC5/LCD.c **** {
 410              		.loc 1 286 0
 411              		.cfi_startproc
 412              		@ args = 0, pretend = 0, frame = 16
 413              		@ frame_needed = 1, uses_anonymous_args = 0
 414 0000 80B5     		push	{r7, lr}
 415              	.LCFI17:
 416              		.cfi_def_cfa_offset 8
 417 0002 84B0     		sub	sp, sp, #16
 418              	.LCFI18:
 419              		.cfi_def_cfa_offset 24
 420 0004 00AF     		add	r7, sp, #0
 421              		.cfi_offset 14, -4
 422              		.cfi_offset 7, -8
 423              	.LCFI19:
 424              		.cfi_def_cfa_register 7
 425 0006 0346     		mov	r3, r0
 426 0008 FB71     		strb	r3, [r7, #7]
 287:./Generated_Source/PSoC5/LCD.c ****     uint8 nibble;
 288:./Generated_Source/PSoC5/LCD.c **** 
 289:./Generated_Source/PSoC5/LCD.c ****     LCD_IsReady();
 427              		.loc 1 289 0
 428 000a FFF7FEFF 		bl	LCD_IsReady
 290:./Generated_Source/PSoC5/LCD.c ****     nibble = dByte >> LCD_NIBBLE_SHIFT;
 429              		.loc 1 290 0
 430 000e FB79     		ldrb	r3, [r7, #7]	@ zero_extendqisi2
 431 0010 4FEA1313 		lsr	r3, r3, #4
 432 0014 FB73     		strb	r3, [r7, #15]
 291:./Generated_Source/PSoC5/LCD.c ****     
 292:./Generated_Source/PSoC5/LCD.c ****     /* Write high nibble */
 293:./Generated_Source/PSoC5/LCD.c ****     LCD_WrDatNib(nibble);
 433              		.loc 1 293 0
 434 0016 FB7B     		ldrb	r3, [r7, #15]	@ zero_extendqisi2
 435 0018 1846     		mov	r0, r3
 436 001a FFF7FEFF 		bl	LCD_WrDatNib
 294:./Generated_Source/PSoC5/LCD.c **** 
 295:./Generated_Source/PSoC5/LCD.c ****     nibble = dByte & LCD_NIBBLE_MASK;
 437              		.loc 1 295 0
 438 001e FB79     		ldrb	r3, [r7, #7]
 439 0020 03F00F03 		and	r3, r3, #15
ARM GAS  C:\DOCUME~1\akay\LOCALS~1\Temp\ccIxUN4U.s 			page 14


 440 0024 FB73     		strb	r3, [r7, #15]
 296:./Generated_Source/PSoC5/LCD.c ****     /* Write low nibble */
 297:./Generated_Source/PSoC5/LCD.c ****     LCD_WrDatNib(nibble);
 441              		.loc 1 297 0
 442 0026 FB7B     		ldrb	r3, [r7, #15]	@ zero_extendqisi2
 443 0028 1846     		mov	r0, r3
 444 002a FFF7FEFF 		bl	LCD_WrDatNib
 298:./Generated_Source/PSoC5/LCD.c **** }
 445              		.loc 1 298 0
 446 002e 07F11007 		add	r7, r7, #16
 447 0032 BD46     		mov	sp, r7
 448 0034 80BD     		pop	{r7, pc}
 449              		.cfi_endproc
 450              	.LFE7:
 451              		.size	LCD_WriteData, .-LCD_WriteData
 452 0036 00BF     		.section	.text.LCD_WriteControl,"ax",%progbits
 453              		.align	2
 454              		.global	LCD_WriteControl
 455              		.thumb
 456              		.thumb_func
 457              		.type	LCD_WriteControl, %function
 458              	LCD_WriteControl:
 459              	.LFB8:
 299:./Generated_Source/PSoC5/LCD.c **** 
 300:./Generated_Source/PSoC5/LCD.c **** 
 301:./Generated_Source/PSoC5/LCD.c **** /*******************************************************************************
 302:./Generated_Source/PSoC5/LCD.c **** *  Function Name: LCD_WriteControl
 303:./Generated_Source/PSoC5/LCD.c **** ********************************************************************************
 304:./Generated_Source/PSoC5/LCD.c **** *
 305:./Generated_Source/PSoC5/LCD.c **** * Summary:
 306:./Generated_Source/PSoC5/LCD.c **** *  Writes a command byte to the LCD module.
 307:./Generated_Source/PSoC5/LCD.c **** *
 308:./Generated_Source/PSoC5/LCD.c **** * Parameters:
 309:./Generated_Source/PSoC5/LCD.c **** *  cByte:   byte to be written to LCD module.
 310:./Generated_Source/PSoC5/LCD.c **** *
 311:./Generated_Source/PSoC5/LCD.c **** * Return:
 312:./Generated_Source/PSoC5/LCD.c **** *  None.
 313:./Generated_Source/PSoC5/LCD.c **** *
 314:./Generated_Source/PSoC5/LCD.c **** *******************************************************************************/
 315:./Generated_Source/PSoC5/LCD.c **** void LCD_WriteControl(uint8 cByte) 
 316:./Generated_Source/PSoC5/LCD.c **** {
 460              		.loc 1 316 0
 461              		.cfi_startproc
 462              		@ args = 0, pretend = 0, frame = 16
 463              		@ frame_needed = 1, uses_anonymous_args = 0
 464 0000 80B5     		push	{r7, lr}
 465              	.LCFI20:
 466              		.cfi_def_cfa_offset 8
 467 0002 84B0     		sub	sp, sp, #16
 468              	.LCFI21:
 469              		.cfi_def_cfa_offset 24
 470 0004 00AF     		add	r7, sp, #0
 471              		.cfi_offset 14, -4
 472              		.cfi_offset 7, -8
 473              	.LCFI22:
 474              		.cfi_def_cfa_register 7
 475 0006 0346     		mov	r3, r0
ARM GAS  C:\DOCUME~1\akay\LOCALS~1\Temp\ccIxUN4U.s 			page 15


 476 0008 FB71     		strb	r3, [r7, #7]
 317:./Generated_Source/PSoC5/LCD.c ****     uint8 nibble;
 318:./Generated_Source/PSoC5/LCD.c ****     
 319:./Generated_Source/PSoC5/LCD.c ****     nibble = cByte >> LCD_NIBBLE_SHIFT;
 477              		.loc 1 319 0
 478 000a FB79     		ldrb	r3, [r7, #7]	@ zero_extendqisi2
 479 000c 4FEA1313 		lsr	r3, r3, #4
 480 0010 FB73     		strb	r3, [r7, #15]
 320:./Generated_Source/PSoC5/LCD.c ****     
 321:./Generated_Source/PSoC5/LCD.c ****     LCD_IsReady();
 481              		.loc 1 321 0
 482 0012 FFF7FEFF 		bl	LCD_IsReady
 322:./Generated_Source/PSoC5/LCD.c ****     nibble &= LCD_NIBBLE_MASK;
 483              		.loc 1 322 0
 484 0016 FB7B     		ldrb	r3, [r7, #15]
 485 0018 03F00F03 		and	r3, r3, #15
 486 001c FB73     		strb	r3, [r7, #15]
 323:./Generated_Source/PSoC5/LCD.c ****    
 324:./Generated_Source/PSoC5/LCD.c ****     /* WrCntrlNib(High Nibble) */
 325:./Generated_Source/PSoC5/LCD.c ****     LCD_WrCntrlNib(nibble);
 487              		.loc 1 325 0
 488 001e FB7B     		ldrb	r3, [r7, #15]	@ zero_extendqisi2
 489 0020 1846     		mov	r0, r3
 490 0022 FFF7FEFF 		bl	LCD_WrCntrlNib
 326:./Generated_Source/PSoC5/LCD.c ****     nibble = cByte & LCD_NIBBLE_MASK;
 491              		.loc 1 326 0
 492 0026 FB79     		ldrb	r3, [r7, #7]
 493 0028 03F00F03 		and	r3, r3, #15
 494 002c FB73     		strb	r3, [r7, #15]
 327:./Generated_Source/PSoC5/LCD.c ****    
 328:./Generated_Source/PSoC5/LCD.c ****     /* WrCntrlNib(Low Nibble) */
 329:./Generated_Source/PSoC5/LCD.c ****     LCD_WrCntrlNib(nibble);
 495              		.loc 1 329 0
 496 002e FB7B     		ldrb	r3, [r7, #15]	@ zero_extendqisi2
 497 0030 1846     		mov	r0, r3
 498 0032 FFF7FEFF 		bl	LCD_WrCntrlNib
 330:./Generated_Source/PSoC5/LCD.c **** }
 499              		.loc 1 330 0
 500 0036 07F11007 		add	r7, r7, #16
 501 003a BD46     		mov	sp, r7
 502 003c 80BD     		pop	{r7, pc}
 503              		.cfi_endproc
 504              	.LFE8:
 505              		.size	LCD_WriteControl, .-LCD_WriteControl
 506 003e 00BF     		.section	.text.LCD_IsReady,"ax",%progbits
 507              		.align	2
 508              		.global	LCD_IsReady
 509              		.thumb
 510              		.thumb_func
 511              		.type	LCD_IsReady, %function
 512              	LCD_IsReady:
 513              	.LFB9:
 331:./Generated_Source/PSoC5/LCD.c **** 
 332:./Generated_Source/PSoC5/LCD.c **** 
 333:./Generated_Source/PSoC5/LCD.c **** /*******************************************************************************
 334:./Generated_Source/PSoC5/LCD.c **** * Function Name: LCD_IsReady
 335:./Generated_Source/PSoC5/LCD.c **** ********************************************************************************
ARM GAS  C:\DOCUME~1\akay\LOCALS~1\Temp\ccIxUN4U.s 			page 16


 336:./Generated_Source/PSoC5/LCD.c **** *
 337:./Generated_Source/PSoC5/LCD.c **** * Summary:
 338:./Generated_Source/PSoC5/LCD.c **** *  Polls LCD until the ready bit is set.
 339:./Generated_Source/PSoC5/LCD.c **** *
 340:./Generated_Source/PSoC5/LCD.c **** * Parameters:
 341:./Generated_Source/PSoC5/LCD.c **** *  None.
 342:./Generated_Source/PSoC5/LCD.c **** *
 343:./Generated_Source/PSoC5/LCD.c **** * Return:
 344:./Generated_Source/PSoC5/LCD.c **** *  None.
 345:./Generated_Source/PSoC5/LCD.c **** *
 346:./Generated_Source/PSoC5/LCD.c **** * Note:
 347:./Generated_Source/PSoC5/LCD.c **** *  Changes pins to High-Z.
 348:./Generated_Source/PSoC5/LCD.c **** *
 349:./Generated_Source/PSoC5/LCD.c **** *******************************************************************************/
 350:./Generated_Source/PSoC5/LCD.c **** void LCD_IsReady() 
 351:./Generated_Source/PSoC5/LCD.c **** {    
 514              		.loc 1 351 0
 515              		.cfi_startproc
 516              		@ args = 0, pretend = 0, frame = 8
 517              		@ frame_needed = 1, uses_anonymous_args = 0
 518 0000 80B5     		push	{r7, lr}
 519              	.LCFI23:
 520              		.cfi_def_cfa_offset 8
 521 0002 82B0     		sub	sp, sp, #8
 522              	.LCFI24:
 523              		.cfi_def_cfa_offset 16
 524 0004 00AF     		add	r7, sp, #0
 525              		.cfi_offset 14, -4
 526              		.cfi_offset 7, -8
 527              	.LCFI25:
 528              		.cfi_def_cfa_register 7
 352:./Generated_Source/PSoC5/LCD.c ****     uint8 value = 0u;    
 529              		.loc 1 352 0
 530 0006 4FF00003 		mov	r3, #0
 531 000a FB71     		strb	r3, [r7, #7]
 353:./Generated_Source/PSoC5/LCD.c **** 
 354:./Generated_Source/PSoC5/LCD.c ****     /* Clear the LCD port*/
 355:./Generated_Source/PSoC5/LCD.c ****     LCD_PORT_DR_REG &= ~LCD_PORT_MASK ;
 532              		.loc 1 355 0
 533 000c 45F22013 		movw	r3, #:lower16:1073762592
 534 0010 C4F20003 		movt	r3, #:upper16:1073762592
 535 0014 45F22012 		movw	r2, #:lower16:1073762592
 536 0018 C4F20002 		movt	r2, #:upper16:1073762592
 537 001c 1278     		ldrb	r2, [r2, #0]
 538 001e D2B2     		uxtb	r2, r2
 539 0020 02F08002 		and	r2, r2, #128
 540 0024 1A70     		strb	r2, [r3, #0]
 356:./Generated_Source/PSoC5/LCD.c **** 
 357:./Generated_Source/PSoC5/LCD.c ****     /* Change Port to High-Z Status on data pins */
 358:./Generated_Source/PSoC5/LCD.c ****     
 359:./Generated_Source/PSoC5/LCD.c ****     /* Mask off data pins to clear old values out */
 360:./Generated_Source/PSoC5/LCD.c ****     value = LCD_PORT_DM0_REG & ~LCD_DATA_MASK;
 541              		.loc 1 360 0
 542 0026 45F22213 		movw	r3, #:lower16:1073762594
 543 002a C4F20003 		movt	r3, #:upper16:1073762594
 544 002e 1B78     		ldrb	r3, [r3, #0]
 545 0030 DBB2     		uxtb	r3, r3
ARM GAS  C:\DOCUME~1\akay\LOCALS~1\Temp\ccIxUN4U.s 			page 17


 546 0032 23F00F03 		bic	r3, r3, #15
 547 0036 FB71     		strb	r3, [r7, #7]
 361:./Generated_Source/PSoC5/LCD.c ****     /* Load in high Z values for data pins, others unchanged */
 362:./Generated_Source/PSoC5/LCD.c ****     LCD_PORT_DM0_REG = value | (LCD_HIGH_Z_DM0 & LCD_DATA_MASK);
 548              		.loc 1 362 0
 549 0038 45F22213 		movw	r3, #:lower16:1073762594
 550 003c C4F20003 		movt	r3, #:upper16:1073762594
 551 0040 FA79     		ldrb	r2, [r7, #7]
 552 0042 42F00F02 		orr	r2, r2, #15
 553 0046 D2B2     		uxtb	r2, r2
 554 0048 1A70     		strb	r2, [r3, #0]
 363:./Generated_Source/PSoC5/LCD.c **** 
 364:./Generated_Source/PSoC5/LCD.c ****     /* Mask off data pins to clear old values out */
 365:./Generated_Source/PSoC5/LCD.c ****     value = LCD_PORT_DM1_REG & ~LCD_DATA_MASK;
 555              		.loc 1 365 0
 556 004a 45F22313 		movw	r3, #:lower16:1073762595
 557 004e C4F20003 		movt	r3, #:upper16:1073762595
 558 0052 1B78     		ldrb	r3, [r3, #0]
 559 0054 DBB2     		uxtb	r3, r3
 560 0056 23F00F03 		bic	r3, r3, #15
 561 005a FB71     		strb	r3, [r7, #7]
 366:./Generated_Source/PSoC5/LCD.c ****     /* Load in high Z values for data pins, others unchanged */
 367:./Generated_Source/PSoC5/LCD.c ****     LCD_PORT_DM1_REG = value | (LCD_HIGH_Z_DM1 & LCD_DATA_MASK);
 562              		.loc 1 367 0
 563 005c 45F22313 		movw	r3, #:lower16:1073762595
 564 0060 C4F20003 		movt	r3, #:upper16:1073762595
 565 0064 FA79     		ldrb	r2, [r7, #7]
 566 0066 1A70     		strb	r2, [r3, #0]
 368:./Generated_Source/PSoC5/LCD.c **** 
 369:./Generated_Source/PSoC5/LCD.c ****     /* Mask off data pins to clear old values out */
 370:./Generated_Source/PSoC5/LCD.c ****     value = LCD_PORT_DM2_REG & ~LCD_DATA_MASK;
 567              		.loc 1 370 0
 568 0068 45F22413 		movw	r3, #:lower16:1073762596
 569 006c C4F20003 		movt	r3, #:upper16:1073762596
 570 0070 1B78     		ldrb	r3, [r3, #0]
 571 0072 DBB2     		uxtb	r3, r3
 572 0074 23F00F03 		bic	r3, r3, #15
 573 0078 FB71     		strb	r3, [r7, #7]
 371:./Generated_Source/PSoC5/LCD.c ****     /* Load in high Z values for data pins, others unchanged */
 372:./Generated_Source/PSoC5/LCD.c ****     LCD_PORT_DM2_REG = value | (LCD_HIGH_Z_DM2 & LCD_DATA_MASK);
 574              		.loc 1 372 0
 575 007a 45F22413 		movw	r3, #:lower16:1073762596
 576 007e C4F20003 		movt	r3, #:upper16:1073762596
 577 0082 FA79     		ldrb	r2, [r7, #7]
 578 0084 1A70     		strb	r2, [r3, #0]
 373:./Generated_Source/PSoC5/LCD.c **** 
 374:./Generated_Source/PSoC5/LCD.c ****     /* Make sure RS is low */
 375:./Generated_Source/PSoC5/LCD.c ****     LCD_PORT_DR_REG &= ~LCD_RS;
 579              		.loc 1 375 0
 580 0086 45F22013 		movw	r3, #:lower16:1073762592
 581 008a C4F20003 		movt	r3, #:upper16:1073762592
 582 008e 45F22012 		movw	r2, #:lower16:1073762592
 583 0092 C4F20002 		movt	r2, #:upper16:1073762592
 584 0096 1278     		ldrb	r2, [r2, #0]
 585 0098 D2B2     		uxtb	r2, r2
 586 009a 02F0DF02 		and	r2, r2, #223
 587 009e 1A70     		strb	r2, [r3, #0]
ARM GAS  C:\DOCUME~1\akay\LOCALS~1\Temp\ccIxUN4U.s 			page 18


 376:./Generated_Source/PSoC5/LCD.c **** 
 377:./Generated_Source/PSoC5/LCD.c ****     /* Set R/W high to read */
 378:./Generated_Source/PSoC5/LCD.c ****     LCD_PORT_DR_REG |= LCD_RW;
 588              		.loc 1 378 0
 589 00a0 45F22013 		movw	r3, #:lower16:1073762592
 590 00a4 C4F20003 		movt	r3, #:upper16:1073762592
 591 00a8 45F22012 		movw	r2, #:lower16:1073762592
 592 00ac C4F20002 		movt	r2, #:upper16:1073762592
 593 00b0 1278     		ldrb	r2, [r2, #0]
 594 00b2 D2B2     		uxtb	r2, r2
 595 00b4 42F04002 		orr	r2, r2, #64
 596 00b8 D2B2     		uxtb	r2, r2
 597 00ba 1A70     		strb	r2, [r3, #0]
 598              	.L29:
 379:./Generated_Source/PSoC5/LCD.c ****     
 380:./Generated_Source/PSoC5/LCD.c ****     do
 381:./Generated_Source/PSoC5/LCD.c ****     {
 382:./Generated_Source/PSoC5/LCD.c ****         /* 40 ns delay required before rising Enable and 500ns between neighbour Enables */
 383:./Generated_Source/PSoC5/LCD.c ****         CyDelayUs(0u);
 599              		.loc 1 383 0
 600 00bc 4FF00000 		mov	r0, #0
 601 00c0 FFF7FEFF 		bl	CyDelayUs
 384:./Generated_Source/PSoC5/LCD.c ****         
 385:./Generated_Source/PSoC5/LCD.c ****         /* Set E high */
 386:./Generated_Source/PSoC5/LCD.c ****         LCD_PORT_DR_REG |= LCD_E;
 602              		.loc 1 386 0
 603 00c4 45F22013 		movw	r3, #:lower16:1073762592
 604 00c8 C4F20003 		movt	r3, #:upper16:1073762592
 605 00cc 45F22012 		movw	r2, #:lower16:1073762592
 606 00d0 C4F20002 		movt	r2, #:upper16:1073762592
 607 00d4 1278     		ldrb	r2, [r2, #0]
 608 00d6 D2B2     		uxtb	r2, r2
 609 00d8 42F01002 		orr	r2, r2, #16
 610 00dc D2B2     		uxtb	r2, r2
 611 00de 1A70     		strb	r2, [r3, #0]
 387:./Generated_Source/PSoC5/LCD.c ****         
 388:./Generated_Source/PSoC5/LCD.c ****         /* 360 ns delay the setup time for data pins */
 389:./Generated_Source/PSoC5/LCD.c ****         CyDelayUs(1u);
 612              		.loc 1 389 0
 613 00e0 4FF00100 		mov	r0, #1
 614 00e4 FFF7FEFF 		bl	CyDelayUs
 390:./Generated_Source/PSoC5/LCD.c ****         
 391:./Generated_Source/PSoC5/LCD.c ****         /* Get port state */
 392:./Generated_Source/PSoC5/LCD.c ****         value = LCD_PORT_PS_REG;
 615              		.loc 1 392 0
 616 00e8 45F22113 		movw	r3, #:lower16:1073762593
 617 00ec C4F20003 		movt	r3, #:upper16:1073762593
 618 00f0 1B78     		ldrb	r3, [r3, #0]
 619 00f2 FB71     		strb	r3, [r7, #7]
 393:./Generated_Source/PSoC5/LCD.c ****         
 394:./Generated_Source/PSoC5/LCD.c ****         /* Set enable low */
 395:./Generated_Source/PSoC5/LCD.c ****         LCD_PORT_DR_REG &= ~LCD_E;
 620              		.loc 1 395 0
 621 00f4 45F22013 		movw	r3, #:lower16:1073762592
 622 00f8 C4F20003 		movt	r3, #:upper16:1073762592
 623 00fc 45F22012 		movw	r2, #:lower16:1073762592
 624 0100 C4F20002 		movt	r2, #:upper16:1073762592
ARM GAS  C:\DOCUME~1\akay\LOCALS~1\Temp\ccIxUN4U.s 			page 19


 625 0104 1278     		ldrb	r2, [r2, #0]
 626 0106 D2B2     		uxtb	r2, r2
 627 0108 02F0EF02 		and	r2, r2, #239
 628 010c 1A70     		strb	r2, [r3, #0]
 396:./Generated_Source/PSoC5/LCD.c ****         
 397:./Generated_Source/PSoC5/LCD.c ****         /* Extract ready bit */
 398:./Generated_Source/PSoC5/LCD.c ****         value &= LCD_READY_BIT;
 629              		.loc 1 398 0
 630 010e FB79     		ldrb	r3, [r7, #7]
 631 0110 03F00803 		and	r3, r3, #8
 632 0114 FB71     		strb	r3, [r7, #7]
 399:./Generated_Source/PSoC5/LCD.c ****         
 400:./Generated_Source/PSoC5/LCD.c ****         /* Set E high as we in 4-bit interface we need extra oparation */
 401:./Generated_Source/PSoC5/LCD.c ****         LCD_PORT_DR_REG |= LCD_E;
 633              		.loc 1 401 0
 634 0116 45F22013 		movw	r3, #:lower16:1073762592
 635 011a C4F20003 		movt	r3, #:upper16:1073762592
 636 011e 45F22012 		movw	r2, #:lower16:1073762592
 637 0122 C4F20002 		movt	r2, #:upper16:1073762592
 638 0126 1278     		ldrb	r2, [r2, #0]
 639 0128 D2B2     		uxtb	r2, r2
 640 012a 42F01002 		orr	r2, r2, #16
 641 012e D2B2     		uxtb	r2, r2
 642 0130 1A70     		strb	r2, [r3, #0]
 402:./Generated_Source/PSoC5/LCD.c ****         
 403:./Generated_Source/PSoC5/LCD.c ****         /* 360 ns delay the setup time for data pins */
 404:./Generated_Source/PSoC5/LCD.c ****         CyDelayUs(1u);
 643              		.loc 1 404 0
 644 0132 4FF00100 		mov	r0, #1
 645 0136 FFF7FEFF 		bl	CyDelayUs
 405:./Generated_Source/PSoC5/LCD.c ****                 
 406:./Generated_Source/PSoC5/LCD.c ****         /* Set enable low */
 407:./Generated_Source/PSoC5/LCD.c ****         LCD_PORT_DR_REG &= ~LCD_E;
 646              		.loc 1 407 0
 647 013a 45F22013 		movw	r3, #:lower16:1073762592
 648 013e C4F20003 		movt	r3, #:upper16:1073762592
 649 0142 45F22012 		movw	r2, #:lower16:1073762592
 650 0146 C4F20002 		movt	r2, #:upper16:1073762592
 651 014a 1278     		ldrb	r2, [r2, #0]
 652 014c D2B2     		uxtb	r2, r2
 653 014e 02F0EF02 		and	r2, r2, #239
 654 0152 1A70     		strb	r2, [r3, #0]
 408:./Generated_Source/PSoC5/LCD.c **** 
 409:./Generated_Source/PSoC5/LCD.c ****         /* Repeat until bit 4 is not zero. */
 410:./Generated_Source/PSoC5/LCD.c ****         
 411:./Generated_Source/PSoC5/LCD.c ****     } while (value != 0u);
 655              		.loc 1 411 0
 656 0154 FB79     		ldrb	r3, [r7, #7]	@ zero_extendqisi2
 657 0156 002B     		cmp	r3, #0
 658 0158 B0D1     		bne	.L29
 412:./Generated_Source/PSoC5/LCD.c **** 
 413:./Generated_Source/PSoC5/LCD.c ****     /* Set R/W low to write */
 414:./Generated_Source/PSoC5/LCD.c ****     LCD_PORT_DR_REG &= ~LCD_RW;   
 659              		.loc 1 414 0
 660 015a 45F22013 		movw	r3, #:lower16:1073762592
 661 015e C4F20003 		movt	r3, #:upper16:1073762592
 662 0162 45F22012 		movw	r2, #:lower16:1073762592
ARM GAS  C:\DOCUME~1\akay\LOCALS~1\Temp\ccIxUN4U.s 			page 20


 663 0166 C4F20002 		movt	r2, #:upper16:1073762592
 664 016a 1278     		ldrb	r2, [r2, #0]
 665 016c D2B2     		uxtb	r2, r2
 666 016e 02F0BF02 		and	r2, r2, #191
 667 0172 1A70     		strb	r2, [r3, #0]
 415:./Generated_Source/PSoC5/LCD.c ****     
 416:./Generated_Source/PSoC5/LCD.c ****     /* Clear the LCD port*/
 417:./Generated_Source/PSoC5/LCD.c ****     LCD_PORT_DR_REG &= ~LCD_PORT_MASK ;
 668              		.loc 1 417 0
 669 0174 45F22013 		movw	r3, #:lower16:1073762592
 670 0178 C4F20003 		movt	r3, #:upper16:1073762592
 671 017c 45F22012 		movw	r2, #:lower16:1073762592
 672 0180 C4F20002 		movt	r2, #:upper16:1073762592
 673 0184 1278     		ldrb	r2, [r2, #0]
 674 0186 D2B2     		uxtb	r2, r2
 675 0188 02F08002 		and	r2, r2, #128
 676 018c 1A70     		strb	r2, [r3, #0]
 418:./Generated_Source/PSoC5/LCD.c **** 
 419:./Generated_Source/PSoC5/LCD.c ****     /* Change Port to Output (Strong) on data pins */
 420:./Generated_Source/PSoC5/LCD.c ****     
 421:./Generated_Source/PSoC5/LCD.c ****     /* Mask off data pins to clear high z values out */
 422:./Generated_Source/PSoC5/LCD.c ****     value = LCD_PORT_DM0_REG & (~LCD_DATA_MASK);
 677              		.loc 1 422 0
 678 018e 45F22213 		movw	r3, #:lower16:1073762594
 679 0192 C4F20003 		movt	r3, #:upper16:1073762594
 680 0196 1B78     		ldrb	r3, [r3, #0]
 681 0198 DBB2     		uxtb	r3, r3
 682 019a 23F00F03 		bic	r3, r3, #15
 683 019e FB71     		strb	r3, [r7, #7]
 423:./Generated_Source/PSoC5/LCD.c ****     /* Load in high Z values for data pins, others unchanged */
 424:./Generated_Source/PSoC5/LCD.c ****     LCD_PORT_DM0_REG = value | (LCD_STRONG_DM0 & LCD_DATA_MASK);
 684              		.loc 1 424 0
 685 01a0 45F22213 		movw	r3, #:lower16:1073762594
 686 01a4 C4F20003 		movt	r3, #:upper16:1073762594
 687 01a8 FA79     		ldrb	r2, [r7, #7]
 688 01aa 1A70     		strb	r2, [r3, #0]
 425:./Generated_Source/PSoC5/LCD.c **** 
 426:./Generated_Source/PSoC5/LCD.c ****     /* Mask off data pins to clear high z values out */
 427:./Generated_Source/PSoC5/LCD.c ****     value = LCD_PORT_DM1_REG & (~LCD_DATA_MASK);
 689              		.loc 1 427 0
 690 01ac 45F22313 		movw	r3, #:lower16:1073762595
 691 01b0 C4F20003 		movt	r3, #:upper16:1073762595
 692 01b4 1B78     		ldrb	r3, [r3, #0]
 693 01b6 DBB2     		uxtb	r3, r3
 694 01b8 23F00F03 		bic	r3, r3, #15
 695 01bc FB71     		strb	r3, [r7, #7]
 428:./Generated_Source/PSoC5/LCD.c ****     /* Load in high Z values for data pins, others unchanged */
 429:./Generated_Source/PSoC5/LCD.c ****     LCD_PORT_DM1_REG = value | (LCD_STRONG_DM1 & LCD_DATA_MASK);
 696              		.loc 1 429 0
 697 01be 45F22313 		movw	r3, #:lower16:1073762595
 698 01c2 C4F20003 		movt	r3, #:upper16:1073762595
 699 01c6 FA79     		ldrb	r2, [r7, #7]
 700 01c8 42F00F02 		orr	r2, r2, #15
 701 01cc D2B2     		uxtb	r2, r2
 702 01ce 1A70     		strb	r2, [r3, #0]
 430:./Generated_Source/PSoC5/LCD.c **** 
 431:./Generated_Source/PSoC5/LCD.c ****     /* Mask off data pins to clear high z values out */
ARM GAS  C:\DOCUME~1\akay\LOCALS~1\Temp\ccIxUN4U.s 			page 21


 432:./Generated_Source/PSoC5/LCD.c ****     value = LCD_PORT_DM2_REG & (~LCD_DATA_MASK);
 703              		.loc 1 432 0
 704 01d0 45F22413 		movw	r3, #:lower16:1073762596
 705 01d4 C4F20003 		movt	r3, #:upper16:1073762596
 706 01d8 1B78     		ldrb	r3, [r3, #0]
 707 01da DBB2     		uxtb	r3, r3
 708 01dc 23F00F03 		bic	r3, r3, #15
 709 01e0 FB71     		strb	r3, [r7, #7]
 433:./Generated_Source/PSoC5/LCD.c ****     /* Load in high Z values for data pins, others unchanged */
 434:./Generated_Source/PSoC5/LCD.c ****     LCD_PORT_DM2_REG = value | (LCD_STRONG_DM2 & LCD_DATA_MASK);
 710              		.loc 1 434 0
 711 01e2 45F22413 		movw	r3, #:lower16:1073762596
 712 01e6 C4F20003 		movt	r3, #:upper16:1073762596
 713 01ea FA79     		ldrb	r2, [r7, #7]
 714 01ec 42F00F02 		orr	r2, r2, #15
 715 01f0 D2B2     		uxtb	r2, r2
 716 01f2 1A70     		strb	r2, [r3, #0]
 435:./Generated_Source/PSoC5/LCD.c **** }
 717              		.loc 1 435 0
 718 01f4 07F10807 		add	r7, r7, #8
 719 01f8 BD46     		mov	sp, r7
 720 01fa 80BD     		pop	{r7, pc}
 721              		.cfi_endproc
 722              	.LFE9:
 723              		.size	LCD_IsReady, .-LCD_IsReady
 724              		.section	.text.LCD_WrDatNib,"ax",%progbits
 725              		.align	2
 726              		.global	LCD_WrDatNib
 727              		.thumb
 728              		.thumb_func
 729              		.type	LCD_WrDatNib, %function
 730              	LCD_WrDatNib:
 731              	.LFB10:
 436:./Generated_Source/PSoC5/LCD.c **** 
 437:./Generated_Source/PSoC5/LCD.c **** 
 438:./Generated_Source/PSoC5/LCD.c **** /*******************************************************************************
 439:./Generated_Source/PSoC5/LCD.c **** *  Function Name: LCD_WrDatNib
 440:./Generated_Source/PSoC5/LCD.c **** ********************************************************************************
 441:./Generated_Source/PSoC5/LCD.c **** *
 442:./Generated_Source/PSoC5/LCD.c **** * Summary:
 443:./Generated_Source/PSoC5/LCD.c **** *  Writes a data nibble to the LCD module.
 444:./Generated_Source/PSoC5/LCD.c **** *
 445:./Generated_Source/PSoC5/LCD.c **** * Parameters:
 446:./Generated_Source/PSoC5/LCD.c **** *  nibble:  byte containing nibble in least significant nibble to be written
 447:./Generated_Source/PSoC5/LCD.c **** *           to LCD module.
 448:./Generated_Source/PSoC5/LCD.c **** *
 449:./Generated_Source/PSoC5/LCD.c **** * Return:
 450:./Generated_Source/PSoC5/LCD.c **** *  None.
 451:./Generated_Source/PSoC5/LCD.c **** *
 452:./Generated_Source/PSoC5/LCD.c **** *******************************************************************************/
 453:./Generated_Source/PSoC5/LCD.c **** void LCD_WrDatNib(uint8 nibble) 
 454:./Generated_Source/PSoC5/LCD.c **** {
 732              		.loc 1 454 0
 733              		.cfi_startproc
 734              		@ args = 0, pretend = 0, frame = 8
 735              		@ frame_needed = 1, uses_anonymous_args = 0
 736 0000 80B5     		push	{r7, lr}
ARM GAS  C:\DOCUME~1\akay\LOCALS~1\Temp\ccIxUN4U.s 			page 22


 737              	.LCFI26:
 738              		.cfi_def_cfa_offset 8
 739 0002 82B0     		sub	sp, sp, #8
 740              	.LCFI27:
 741              		.cfi_def_cfa_offset 16
 742 0004 00AF     		add	r7, sp, #0
 743              		.cfi_offset 14, -4
 744              		.cfi_offset 7, -8
 745              	.LCFI28:
 746              		.cfi_def_cfa_register 7
 747 0006 0346     		mov	r3, r0
 748 0008 FB71     		strb	r3, [r7, #7]
 455:./Generated_Source/PSoC5/LCD.c ****     LCD_IsReady();
 749              		.loc 1 455 0
 750 000a FFF7FEFF 		bl	LCD_IsReady
 456:./Generated_Source/PSoC5/LCD.c **** 	
 457:./Generated_Source/PSoC5/LCD.c **** 	/* RS shoul be low to select data register */
 458:./Generated_Source/PSoC5/LCD.c ****     LCD_PORT_DR_REG |= LCD_RS;
 751              		.loc 1 458 0
 752 000e 45F22013 		movw	r3, #:lower16:1073762592
 753 0012 C4F20003 		movt	r3, #:upper16:1073762592
 754 0016 45F22012 		movw	r2, #:lower16:1073762592
 755 001a C4F20002 		movt	r2, #:upper16:1073762592
 756 001e 1278     		ldrb	r2, [r2, #0]
 757 0020 D2B2     		uxtb	r2, r2
 758 0022 42F02002 		orr	r2, r2, #32
 759 0026 D2B2     		uxtb	r2, r2
 760 0028 1A70     		strb	r2, [r3, #0]
 459:./Generated_Source/PSoC5/LCD.c ****     /* Reset RW for write operation */
 460:./Generated_Source/PSoC5/LCD.c ****     LCD_PORT_DR_REG &= ~LCD_RW;
 761              		.loc 1 460 0
 762 002a 45F22013 		movw	r3, #:lower16:1073762592
 763 002e C4F20003 		movt	r3, #:upper16:1073762592
 764 0032 45F22012 		movw	r2, #:lower16:1073762592
 765 0036 C4F20002 		movt	r2, #:upper16:1073762592
 766 003a 1278     		ldrb	r2, [r2, #0]
 767 003c D2B2     		uxtb	r2, r2
 768 003e 02F0BF02 		and	r2, r2, #191
 769 0042 1A70     		strb	r2, [r3, #0]
 461:./Generated_Source/PSoC5/LCD.c ****     
 462:./Generated_Source/PSoC5/LCD.c **** 	/* Two following lines of code will provide us with 40ns delay */
 463:./Generated_Source/PSoC5/LCD.c ****     /* Clear data pins */
 464:./Generated_Source/PSoC5/LCD.c ****     LCD_PORT_DR_REG &= ~LCD_DATA_MASK;	        
 770              		.loc 1 464 0
 771 0044 45F22013 		movw	r3, #:lower16:1073762592
 772 0048 C4F20003 		movt	r3, #:upper16:1073762592
 773 004c 45F22012 		movw	r2, #:lower16:1073762592
 774 0050 C4F20002 		movt	r2, #:upper16:1073762592
 775 0054 1278     		ldrb	r2, [r2, #0]
 776 0056 D2B2     		uxtb	r2, r2
 777 0058 02F0F002 		and	r2, r2, #240
 778 005c 1A70     		strb	r2, [r3, #0]
 465:./Generated_Source/PSoC5/LCD.c ****     
 466:./Generated_Source/PSoC5/LCD.c ****     /* Write in data, bring E high*/
 467:./Generated_Source/PSoC5/LCD.c ****     LCD_PORT_DR_REG |= (LCD_E | (nibble << LCD_PORT_SHIFT));
 779              		.loc 1 467 0
 780 005e 45F22013 		movw	r3, #:lower16:1073762592
ARM GAS  C:\DOCUME~1\akay\LOCALS~1\Temp\ccIxUN4U.s 			page 23


 781 0062 C4F20003 		movt	r3, #:upper16:1073762592
 782 0066 45F22012 		movw	r2, #:lower16:1073762592
 783 006a C4F20002 		movt	r2, #:upper16:1073762592
 784 006e 1278     		ldrb	r2, [r2, #0]
 785 0070 D1B2     		uxtb	r1, r2
 786 0072 FA79     		ldrb	r2, [r7, #7]
 787 0074 41EA0202 		orr	r2, r1, r2
 788 0078 D2B2     		uxtb	r2, r2
 789 007a 42F01002 		orr	r2, r2, #16
 790 007e D2B2     		uxtb	r2, r2
 791 0080 1A70     		strb	r2, [r3, #0]
 468:./Generated_Source/PSoC5/LCD.c ****     
 469:./Generated_Source/PSoC5/LCD.c ****     /* Minimum of 230 ns delay */
 470:./Generated_Source/PSoC5/LCD.c ****     CyDelayUs(1u);
 792              		.loc 1 470 0
 793 0082 4FF00100 		mov	r0, #1
 794 0086 FFF7FEFF 		bl	CyDelayUs
 471:./Generated_Source/PSoC5/LCD.c ****     
 472:./Generated_Source/PSoC5/LCD.c ****     LCD_PORT_DR_REG &= ~LCD_E;
 795              		.loc 1 472 0
 796 008a 45F22013 		movw	r3, #:lower16:1073762592
 797 008e C4F20003 		movt	r3, #:upper16:1073762592
 798 0092 45F22012 		movw	r2, #:lower16:1073762592
 799 0096 C4F20002 		movt	r2, #:upper16:1073762592
 800 009a 1278     		ldrb	r2, [r2, #0]
 801 009c D2B2     		uxtb	r2, r2
 802 009e 02F0EF02 		and	r2, r2, #239
 803 00a2 1A70     		strb	r2, [r3, #0]
 473:./Generated_Source/PSoC5/LCD.c **** }
 804              		.loc 1 473 0
 805 00a4 07F10807 		add	r7, r7, #8
 806 00a8 BD46     		mov	sp, r7
 807 00aa 80BD     		pop	{r7, pc}
 808              		.cfi_endproc
 809              	.LFE10:
 810              		.size	LCD_WrDatNib, .-LCD_WrDatNib
 811              		.section	.text.LCD_WrCntrlNib,"ax",%progbits
 812              		.align	2
 813              		.global	LCD_WrCntrlNib
 814              		.thumb
 815              		.thumb_func
 816              		.type	LCD_WrCntrlNib, %function
 817              	LCD_WrCntrlNib:
 818              	.LFB11:
 474:./Generated_Source/PSoC5/LCD.c **** 
 475:./Generated_Source/PSoC5/LCD.c **** 
 476:./Generated_Source/PSoC5/LCD.c **** /*******************************************************************************
 477:./Generated_Source/PSoC5/LCD.c **** *  Function Name: LCD_WrCntrlNib
 478:./Generated_Source/PSoC5/LCD.c **** ********************************************************************************
 479:./Generated_Source/PSoC5/LCD.c **** *
 480:./Generated_Source/PSoC5/LCD.c **** * Summary:
 481:./Generated_Source/PSoC5/LCD.c **** *  Writes a control nibble to the LCD module.
 482:./Generated_Source/PSoC5/LCD.c **** *
 483:./Generated_Source/PSoC5/LCD.c **** * Parameters:
 484:./Generated_Source/PSoC5/LCD.c **** *  nibble:  byte containing nibble in least significant nibble to be written
 485:./Generated_Source/PSoC5/LCD.c **** *           to LCD module.
 486:./Generated_Source/PSoC5/LCD.c **** *
ARM GAS  C:\DOCUME~1\akay\LOCALS~1\Temp\ccIxUN4U.s 			page 24


 487:./Generated_Source/PSoC5/LCD.c **** * Return:
 488:./Generated_Source/PSoC5/LCD.c **** *  None.
 489:./Generated_Source/PSoC5/LCD.c **** *
 490:./Generated_Source/PSoC5/LCD.c **** *******************************************************************************/
 491:./Generated_Source/PSoC5/LCD.c **** void LCD_WrCntrlNib(uint8 nibble) 
 492:./Generated_Source/PSoC5/LCD.c **** {	    
 819              		.loc 1 492 0
 820              		.cfi_startproc
 821              		@ args = 0, pretend = 0, frame = 8
 822              		@ frame_needed = 1, uses_anonymous_args = 0
 823 0000 80B5     		push	{r7, lr}
 824              	.LCFI29:
 825              		.cfi_def_cfa_offset 8
 826 0002 82B0     		sub	sp, sp, #8
 827              	.LCFI30:
 828              		.cfi_def_cfa_offset 16
 829 0004 00AF     		add	r7, sp, #0
 830              		.cfi_offset 14, -4
 831              		.cfi_offset 7, -8
 832              	.LCFI31:
 833              		.cfi_def_cfa_register 7
 834 0006 0346     		mov	r3, r0
 835 0008 FB71     		strb	r3, [r7, #7]
 493:./Generated_Source/PSoC5/LCD.c ****     /* RS and RW shoul be low to select instruction register and  write operation respectively */
 494:./Generated_Source/PSoC5/LCD.c ****     LCD_PORT_DR_REG &= ~(LCD_RS | LCD_RW);
 836              		.loc 1 494 0
 837 000a 45F22013 		movw	r3, #:lower16:1073762592
 838 000e C4F20003 		movt	r3, #:upper16:1073762592
 839 0012 45F22012 		movw	r2, #:lower16:1073762592
 840 0016 C4F20002 		movt	r2, #:upper16:1073762592
 841 001a 1278     		ldrb	r2, [r2, #0]
 842 001c D2B2     		uxtb	r2, r2
 843 001e 02F09F02 		and	r2, r2, #159
 844 0022 1A70     		strb	r2, [r3, #0]
 495:./Generated_Source/PSoC5/LCD.c **** 	
 496:./Generated_Source/PSoC5/LCD.c **** 	/* Two following lines of code will give provide ua with 40ns delay */	    
 497:./Generated_Source/PSoC5/LCD.c **** 	/* Clear data pins */
 498:./Generated_Source/PSoC5/LCD.c ****     LCD_PORT_DR_REG &= ~LCD_DATA_MASK;
 845              		.loc 1 498 0
 846 0024 45F22013 		movw	r3, #:lower16:1073762592
 847 0028 C4F20003 		movt	r3, #:upper16:1073762592
 848 002c 45F22012 		movw	r2, #:lower16:1073762592
 849 0030 C4F20002 		movt	r2, #:upper16:1073762592
 850 0034 1278     		ldrb	r2, [r2, #0]
 851 0036 D2B2     		uxtb	r2, r2
 852 0038 02F0F002 		and	r2, r2, #240
 853 003c 1A70     		strb	r2, [r3, #0]
 499:./Generated_Source/PSoC5/LCD.c ****     
 500:./Generated_Source/PSoC5/LCD.c **** 	/* Write control data and set enable signal */
 501:./Generated_Source/PSoC5/LCD.c ****     LCD_PORT_DR_REG |= (LCD_E | (nibble << LCD_PORT_SHIFT));
 854              		.loc 1 501 0
 855 003e 45F22013 		movw	r3, #:lower16:1073762592
 856 0042 C4F20003 		movt	r3, #:upper16:1073762592
 857 0046 45F22012 		movw	r2, #:lower16:1073762592
 858 004a C4F20002 		movt	r2, #:upper16:1073762592
 859 004e 1278     		ldrb	r2, [r2, #0]
 860 0050 D1B2     		uxtb	r1, r2
ARM GAS  C:\DOCUME~1\akay\LOCALS~1\Temp\ccIxUN4U.s 			page 25


 861 0052 FA79     		ldrb	r2, [r7, #7]
 862 0054 41EA0202 		orr	r2, r1, r2
 863 0058 D2B2     		uxtb	r2, r2
 864 005a 42F01002 		orr	r2, r2, #16
 865 005e D2B2     		uxtb	r2, r2
 866 0060 1A70     		strb	r2, [r3, #0]
 502:./Generated_Source/PSoC5/LCD.c ****     
 503:./Generated_Source/PSoC5/LCD.c ****     /* Minimum of 230 ns delay */
 504:./Generated_Source/PSoC5/LCD.c ****     CyDelayUs(1u);
 867              		.loc 1 504 0
 868 0062 4FF00100 		mov	r0, #1
 869 0066 FFF7FEFF 		bl	CyDelayUs
 505:./Generated_Source/PSoC5/LCD.c ****     
 506:./Generated_Source/PSoC5/LCD.c ****     LCD_PORT_DR_REG &= ~LCD_E;
 870              		.loc 1 506 0
 871 006a 45F22013 		movw	r3, #:lower16:1073762592
 872 006e C4F20003 		movt	r3, #:upper16:1073762592
 873 0072 45F22012 		movw	r2, #:lower16:1073762592
 874 0076 C4F20002 		movt	r2, #:upper16:1073762592
 875 007a 1278     		ldrb	r2, [r2, #0]
 876 007c D2B2     		uxtb	r2, r2
 877 007e 02F0EF02 		and	r2, r2, #239
 878 0082 1A70     		strb	r2, [r3, #0]
 507:./Generated_Source/PSoC5/LCD.c **** }
 879              		.loc 1 507 0
 880 0084 07F10807 		add	r7, r7, #8
 881 0088 BD46     		mov	sp, r7
 882 008a 80BD     		pop	{r7, pc}
 883              		.cfi_endproc
 884              	.LFE11:
 885              		.size	LCD_WrCntrlNib, .-LCD_WrCntrlNib
 886              		.section	.text.LCD_PrintHexUint8,"ax",%progbits
 887              		.align	2
 888              		.global	LCD_PrintHexUint8
 889              		.thumb
 890              		.thumb_func
 891              		.type	LCD_PrintHexUint8, %function
 892              	LCD_PrintHexUint8:
 893              	.LFB12:
 508:./Generated_Source/PSoC5/LCD.c **** 
 509:./Generated_Source/PSoC5/LCD.c **** 
 510:./Generated_Source/PSoC5/LCD.c **** #if(LCD_CONVERSION_ROUTINES == 1u)
 511:./Generated_Source/PSoC5/LCD.c **** 
 512:./Generated_Source/PSoC5/LCD.c ****     /*******************************************************************************
 513:./Generated_Source/PSoC5/LCD.c ****     *  Function Name: LCD_PrintHexUint8
 514:./Generated_Source/PSoC5/LCD.c ****     ********************************************************************************
 515:./Generated_Source/PSoC5/LCD.c ****     *
 516:./Generated_Source/PSoC5/LCD.c ****     * Summary:
 517:./Generated_Source/PSoC5/LCD.c ****     *  Print a byte as two ASCII characters.
 518:./Generated_Source/PSoC5/LCD.c ****     *
 519:./Generated_Source/PSoC5/LCD.c ****     * Parameters:  
 520:./Generated_Source/PSoC5/LCD.c ****     *  value:  The byte to be printed out as ASCII characters.
 521:./Generated_Source/PSoC5/LCD.c ****     *
 522:./Generated_Source/PSoC5/LCD.c ****     * Return:
 523:./Generated_Source/PSoC5/LCD.c ****     *  None.
 524:./Generated_Source/PSoC5/LCD.c ****     *
 525:./Generated_Source/PSoC5/LCD.c ****     *******************************************************************************/
ARM GAS  C:\DOCUME~1\akay\LOCALS~1\Temp\ccIxUN4U.s 			page 26


 526:./Generated_Source/PSoC5/LCD.c ****     void LCD_PrintHexUint8(uint8 value) 
 527:./Generated_Source/PSoC5/LCD.c ****     {
 894              		.loc 1 527 0
 895              		.cfi_startproc
 896              		@ args = 0, pretend = 0, frame = 8
 897              		@ frame_needed = 1, uses_anonymous_args = 0
 898 0000 80B5     		push	{r7, lr}
 899              	.LCFI32:
 900              		.cfi_def_cfa_offset 8
 901 0002 82B0     		sub	sp, sp, #8
 902              	.LCFI33:
 903              		.cfi_def_cfa_offset 16
 904 0004 00AF     		add	r7, sp, #0
 905              		.cfi_offset 14, -4
 906              		.cfi_offset 7, -8
 907              	.LCFI34:
 908              		.cfi_def_cfa_register 7
 909 0006 0346     		mov	r3, r0
 910 0008 FB71     		strb	r3, [r7, #7]
 528:./Generated_Source/PSoC5/LCD.c ****         LCD_PutChar((char8) LCD_hex[value >> LCD_BYTE_UPPER_NIBBLE_SHIFT]);
 911              		.loc 1 528 0
 912 000a FB79     		ldrb	r3, [r7, #7]	@ zero_extendqisi2
 913 000c 4FEA1313 		lsr	r3, r3, #4
 914 0010 DBB2     		uxtb	r3, r3
 915 0012 1A46     		mov	r2, r3
 916 0014 40F20003 		movw	r3, #:lower16:LCD_hex
 917 0018 C0F20003 		movt	r3, #:upper16:LCD_hex
 918 001c 9B5C     		ldrb	r3, [r3, r2]	@ zero_extendqisi2
 919 001e 1846     		mov	r0, r3
 920 0020 FFF7FEFF 		bl	LCD_PutChar
 529:./Generated_Source/PSoC5/LCD.c ****         LCD_PutChar((char8) LCD_hex[value & LCD_BYTE_LOWER_NIBBLE_MASK]);
 921              		.loc 1 529 0
 922 0024 FB79     		ldrb	r3, [r7, #7]	@ zero_extendqisi2
 923 0026 03F00F02 		and	r2, r3, #15
 924 002a 40F20003 		movw	r3, #:lower16:LCD_hex
 925 002e C0F20003 		movt	r3, #:upper16:LCD_hex
 926 0032 9B5C     		ldrb	r3, [r3, r2]	@ zero_extendqisi2
 927 0034 1846     		mov	r0, r3
 928 0036 FFF7FEFF 		bl	LCD_PutChar
 530:./Generated_Source/PSoC5/LCD.c ****     }
 929              		.loc 1 530 0
 930 003a 07F10807 		add	r7, r7, #8
 931 003e BD46     		mov	sp, r7
 932 0040 80BD     		pop	{r7, pc}
 933              		.cfi_endproc
 934              	.LFE12:
 935              		.size	LCD_PrintHexUint8, .-LCD_PrintHexUint8
 936 0042 00BF     		.section	.text.LCD_PrintHexUint16,"ax",%progbits
 937              		.align	2
 938              		.global	LCD_PrintHexUint16
 939              		.thumb
 940              		.thumb_func
 941              		.type	LCD_PrintHexUint16, %function
 942              	LCD_PrintHexUint16:
 943              	.LFB13:
 531:./Generated_Source/PSoC5/LCD.c ****     
 532:./Generated_Source/PSoC5/LCD.c ****     
ARM GAS  C:\DOCUME~1\akay\LOCALS~1\Temp\ccIxUN4U.s 			page 27


 533:./Generated_Source/PSoC5/LCD.c ****     /*******************************************************************************
 534:./Generated_Source/PSoC5/LCD.c ****     *  Function Name: LCD_PrintHexUint16
 535:./Generated_Source/PSoC5/LCD.c ****     ********************************************************************************
 536:./Generated_Source/PSoC5/LCD.c ****     *
 537:./Generated_Source/PSoC5/LCD.c ****     * Summary:
 538:./Generated_Source/PSoC5/LCD.c ****     *  Print a uint16 as four ASCII characters.
 539:./Generated_Source/PSoC5/LCD.c ****     *
 540:./Generated_Source/PSoC5/LCD.c ****     * Parameters:  
 541:./Generated_Source/PSoC5/LCD.c ****     *  value:   The uint16 to be printed out as ASCII characters.
 542:./Generated_Source/PSoC5/LCD.c ****     *
 543:./Generated_Source/PSoC5/LCD.c ****     * Return:
 544:./Generated_Source/PSoC5/LCD.c ****     *  None.
 545:./Generated_Source/PSoC5/LCD.c ****     *
 546:./Generated_Source/PSoC5/LCD.c ****     *******************************************************************************/
 547:./Generated_Source/PSoC5/LCD.c ****     void LCD_PrintHexUint16(uint16 value) 
 548:./Generated_Source/PSoC5/LCD.c ****     {
 944              		.loc 1 548 0
 945              		.cfi_startproc
 946              		@ args = 0, pretend = 0, frame = 8
 947              		@ frame_needed = 1, uses_anonymous_args = 0
 948 0000 80B5     		push	{r7, lr}
 949              	.LCFI35:
 950              		.cfi_def_cfa_offset 8
 951 0002 82B0     		sub	sp, sp, #8
 952              	.LCFI36:
 953              		.cfi_def_cfa_offset 16
 954 0004 00AF     		add	r7, sp, #0
 955              		.cfi_offset 14, -4
 956              		.cfi_offset 7, -8
 957              	.LCFI37:
 958              		.cfi_def_cfa_register 7
 959 0006 0346     		mov	r3, r0
 960 0008 FB80     		strh	r3, [r7, #6]	@ movhi
 549:./Generated_Source/PSoC5/LCD.c ****         LCD_PrintHexUint8(value >> LCD_U16_UPPER_BYTE_SHIFT);
 961              		.loc 1 549 0
 962 000a FB88     		ldrh	r3, [r7, #6]
 963 000c 4FEA1323 		lsr	r3, r3, #8
 964 0010 9BB2     		uxth	r3, r3
 965 0012 DBB2     		uxtb	r3, r3
 966 0014 1846     		mov	r0, r3
 967 0016 FFF7FEFF 		bl	LCD_PrintHexUint8
 550:./Generated_Source/PSoC5/LCD.c ****         LCD_PrintHexUint8(value & LCD_U16_LOWER_BYTE_MASK);
 968              		.loc 1 550 0
 969 001a FB88     		ldrh	r3, [r7, #6]	@ movhi
 970 001c DBB2     		uxtb	r3, r3
 971 001e 1846     		mov	r0, r3
 972 0020 FFF7FEFF 		bl	LCD_PrintHexUint8
 551:./Generated_Source/PSoC5/LCD.c ****     }
 973              		.loc 1 551 0
 974 0024 07F10807 		add	r7, r7, #8
 975 0028 BD46     		mov	sp, r7
 976 002a 80BD     		pop	{r7, pc}
 977              		.cfi_endproc
 978              	.LFE13:
 979              		.size	LCD_PrintHexUint16, .-LCD_PrintHexUint16
 980              		.section	.text.LCD_PrintDecUint16,"ax",%progbits
 981              		.align	2
ARM GAS  C:\DOCUME~1\akay\LOCALS~1\Temp\ccIxUN4U.s 			page 28


 982              		.global	LCD_PrintDecUint16
 983              		.thumb
 984              		.thumb_func
 985              		.type	LCD_PrintDecUint16, %function
 986              	LCD_PrintDecUint16:
 987              	.LFB14:
 552:./Generated_Source/PSoC5/LCD.c ****     
 553:./Generated_Source/PSoC5/LCD.c ****     
 554:./Generated_Source/PSoC5/LCD.c ****     /*******************************************************************************
 555:./Generated_Source/PSoC5/LCD.c ****     *  Function Name: LCD_PrintDecUint16
 556:./Generated_Source/PSoC5/LCD.c ****     ********************************************************************************
 557:./Generated_Source/PSoC5/LCD.c ****     *
 558:./Generated_Source/PSoC5/LCD.c ****     * Summary:
 559:./Generated_Source/PSoC5/LCD.c ****     *  Print an uint32 value as a left-justified decimal value.
 560:./Generated_Source/PSoC5/LCD.c ****     *
 561:./Generated_Source/PSoC5/LCD.c ****     * Parameters:  
 562:./Generated_Source/PSoC5/LCD.c ****     *  value:  The byte to be printed out as ASCII characters.
 563:./Generated_Source/PSoC5/LCD.c ****     *
 564:./Generated_Source/PSoC5/LCD.c ****     * Return:
 565:./Generated_Source/PSoC5/LCD.c ****     *  None.
 566:./Generated_Source/PSoC5/LCD.c ****     *
 567:./Generated_Source/PSoC5/LCD.c ****     *******************************************************************************/
 568:./Generated_Source/PSoC5/LCD.c ****     void LCD_PrintDecUint16(uint16 value) 
 569:./Generated_Source/PSoC5/LCD.c ****     {
 988              		.loc 1 569 0
 989              		.cfi_startproc
 990              		@ args = 0, pretend = 0, frame = 24
 991              		@ frame_needed = 1, uses_anonymous_args = 0
 992 0000 80B5     		push	{r7, lr}
 993              	.LCFI38:
 994              		.cfi_def_cfa_offset 8
 995 0002 86B0     		sub	sp, sp, #24
 996              	.LCFI39:
 997              		.cfi_def_cfa_offset 32
 998 0004 00AF     		add	r7, sp, #0
 999              		.cfi_offset 14, -4
 1000              		.cfi_offset 7, -8
 1001              	.LCFI40:
 1002              		.cfi_def_cfa_register 7
 1003 0006 0346     		mov	r3, r0
 1004 0008 FB80     		strh	r3, [r7, #6]	@ movhi
 570:./Generated_Source/PSoC5/LCD.c ****     
 571:./Generated_Source/PSoC5/LCD.c ****         char8 number[LCD_NUMBER_OF_REMAINDERS];
 572:./Generated_Source/PSoC5/LCD.c ****         char8 temp[LCD_NUMBER_OF_REMAINDERS]; 
 573:./Generated_Source/PSoC5/LCD.c ****     
 574:./Generated_Source/PSoC5/LCD.c ****         uint8 index = 0u;
 1005              		.loc 1 574 0
 1006 000a 4FF00003 		mov	r3, #0
 1007 000e BB75     		strb	r3, [r7, #22]
 575:./Generated_Source/PSoC5/LCD.c ****         uint8 numDigits = 0u;
 1008              		.loc 1 575 0
 1009 0010 4FF00003 		mov	r3, #0
 1010 0014 FB75     		strb	r3, [r7, #23]
 576:./Generated_Source/PSoC5/LCD.c ****     
 577:./Generated_Source/PSoC5/LCD.c ****         
 578:./Generated_Source/PSoC5/LCD.c ****         /* Load these in reverse order */ 
 579:./Generated_Source/PSoC5/LCD.c ****         while(value >= LCD_TEN)
ARM GAS  C:\DOCUME~1\akay\LOCALS~1\Temp\ccIxUN4U.s 			page 29


 1011              		.loc 1 579 0
 1012 0016 2AE0     		b	.L40
 1013              	.L41:
 580:./Generated_Source/PSoC5/LCD.c ****         {
 581:./Generated_Source/PSoC5/LCD.c ****             temp[index] = (value % LCD_TEN) + '0';
 1014              		.loc 1 581 0
 1015 0018 B87D     		ldrb	r0, [r7, #22]	@ zero_extendqisi2
 1016 001a FA88     		ldrh	r2, [r7, #6]
 1017 001c 4CF6CD43 		movw	r3, #:lower16:-858993459
 1018 0020 CCF6CC43 		movt	r3, #:upper16:-858993459
 1019 0024 A3FB0213 		umull	r1, r3, r3, r2
 1020 0028 4FEAD301 		lsr	r1, r3, #3
 1021 002c 0B46     		mov	r3, r1
 1022 002e 4FEA8303 		lsl	r3, r3, #2
 1023 0032 0B44     		add	r3, r3, r1
 1024 0034 4FEA4303 		lsl	r3, r3, #1
 1025 0038 C3EB0203 		rsb	r3, r3, r2
 1026 003c 9BB2     		uxth	r3, r3
 1027 003e DBB2     		uxtb	r3, r3
 1028 0040 03F13003 		add	r3, r3, #48
 1029 0044 DAB2     		uxtb	r2, r3
 1030 0046 07F11801 		add	r1, r7, #24
 1031 004a 01EB0003 		add	r3, r1, r0
 1032 004e 03F8102C 		strb	r2, [r3, #-16]
 582:./Generated_Source/PSoC5/LCD.c ****             value /= LCD_TEN;
 1033              		.loc 1 582 0
 1034 0052 FA88     		ldrh	r2, [r7, #6]
 1035 0054 4CF6CD43 		movw	r3, #:lower16:-858993459
 1036 0058 CCF6CC43 		movt	r3, #:upper16:-858993459
 1037 005c A3FB0213 		umull	r1, r3, r3, r2
 1038 0060 4FEAD303 		lsr	r3, r3, #3
 1039 0064 FB80     		strh	r3, [r7, #6]	@ movhi
 583:./Generated_Source/PSoC5/LCD.c ****             index++;
 1040              		.loc 1 583 0
 1041 0066 BB7D     		ldrb	r3, [r7, #22]
 1042 0068 03F10103 		add	r3, r3, #1
 1043 006c BB75     		strb	r3, [r7, #22]
 1044              	.L40:
 1045              		.loc 1 579 0
 1046 006e FB88     		ldrh	r3, [r7, #6]
 1047 0070 092B     		cmp	r3, #9
 1048 0072 D1D8     		bhi	.L41
 584:./Generated_Source/PSoC5/LCD.c ****         }
 585:./Generated_Source/PSoC5/LCD.c ****         
 586:./Generated_Source/PSoC5/LCD.c ****         temp[index] = (value % LCD_TEN) + '0';
 1049              		.loc 1 586 0
 1050 0074 B87D     		ldrb	r0, [r7, #22]	@ zero_extendqisi2
 1051 0076 FA88     		ldrh	r2, [r7, #6]
 1052 0078 4CF6CD43 		movw	r3, #:lower16:-858993459
 1053 007c CCF6CC43 		movt	r3, #:upper16:-858993459
 1054 0080 A3FB0213 		umull	r1, r3, r3, r2
 1055 0084 4FEAD301 		lsr	r1, r3, #3
 1056 0088 0B46     		mov	r3, r1
 1057 008a 4FEA8303 		lsl	r3, r3, #2
 1058 008e 0B44     		add	r3, r3, r1
 1059 0090 4FEA4303 		lsl	r3, r3, #1
 1060 0094 C3EB0203 		rsb	r3, r3, r2
ARM GAS  C:\DOCUME~1\akay\LOCALS~1\Temp\ccIxUN4U.s 			page 30


 1061 0098 9BB2     		uxth	r3, r3
 1062 009a DBB2     		uxtb	r3, r3
 1063 009c 03F13003 		add	r3, r3, #48
 1064 00a0 DAB2     		uxtb	r2, r3
 1065 00a2 07F11801 		add	r1, r7, #24
 1066 00a6 01EB0003 		add	r3, r1, r0
 1067 00aa 03F8102C 		strb	r2, [r3, #-16]
 587:./Generated_Source/PSoC5/LCD.c ****         numDigits = index;
 1068              		.loc 1 587 0
 1069 00ae BB7D     		ldrb	r3, [r7, #22]
 1070 00b0 FB75     		strb	r3, [r7, #23]
 588:./Generated_Source/PSoC5/LCD.c ****     
 589:./Generated_Source/PSoC5/LCD.c ****         /* While index is greater than or equal to zero */
 590:./Generated_Source/PSoC5/LCD.c ****         while (index != 0xFFu)
 1071              		.loc 1 590 0
 1072 00b2 12E0     		b	.L42
 1073              	.L43:
 591:./Generated_Source/PSoC5/LCD.c ****         {
 592:./Generated_Source/PSoC5/LCD.c ****             number[numDigits - index] = temp[index];
 1074              		.loc 1 592 0
 1075 00b4 FA7D     		ldrb	r2, [r7, #23]	@ zero_extendqisi2
 1076 00b6 BB7D     		ldrb	r3, [r7, #22]	@ zero_extendqisi2
 1077 00b8 C3EB0203 		rsb	r3, r3, r2
 1078 00bc BA7D     		ldrb	r2, [r7, #22]	@ zero_extendqisi2
 1079 00be 07F11801 		add	r1, r7, #24
 1080 00c2 0A44     		add	r2, r1, r2
 1081 00c4 12F8102C 		ldrb	r2, [r2, #-16]	@ zero_extendqisi2
 1082 00c8 07F11801 		add	r1, r7, #24
 1083 00cc 0B44     		add	r3, r1, r3
 1084 00ce 03F8082C 		strb	r2, [r3, #-8]
 593:./Generated_Source/PSoC5/LCD.c ****             index--;
 1085              		.loc 1 593 0
 1086 00d2 BB7D     		ldrb	r3, [r7, #22]
 1087 00d4 03F1FF33 		add	r3, r3, #-1
 1088 00d8 BB75     		strb	r3, [r7, #22]
 1089              	.L42:
 1090              		.loc 1 590 0
 1091 00da BB7D     		ldrb	r3, [r7, #22]	@ zero_extendqisi2
 1092 00dc FF2B     		cmp	r3, #255
 1093 00de E9D1     		bne	.L43
 594:./Generated_Source/PSoC5/LCD.c ****         }
 595:./Generated_Source/PSoC5/LCD.c ****         
 596:./Generated_Source/PSoC5/LCD.c ****         /* Null Termination */
 597:./Generated_Source/PSoC5/LCD.c ****         number[numDigits + 1u] = (char8) 0;
 1094              		.loc 1 597 0
 1095 00e0 FB7D     		ldrb	r3, [r7, #23]	@ zero_extendqisi2
 1096 00e2 03F10103 		add	r3, r3, #1
 1097 00e6 07F11802 		add	r2, r7, #24
 1098 00ea 1344     		add	r3, r2, r3
 1099 00ec 4FF00002 		mov	r2, #0
 1100 00f0 03F8082C 		strb	r2, [r3, #-8]
 598:./Generated_Source/PSoC5/LCD.c ****     
 599:./Generated_Source/PSoC5/LCD.c ****         /* Print out number */
 600:./Generated_Source/PSoC5/LCD.c ****         LCD_PrintString(number);
 1101              		.loc 1 600 0
 1102 00f4 07F11003 		add	r3, r7, #16
 1103 00f8 1846     		mov	r0, r3
ARM GAS  C:\DOCUME~1\akay\LOCALS~1\Temp\ccIxUN4U.s 			page 31


 1104 00fa FFF7FEFF 		bl	LCD_PrintString
 601:./Generated_Source/PSoC5/LCD.c ****     }
 1105              		.loc 1 601 0
 1106 00fe 07F11807 		add	r7, r7, #24
 1107 0102 BD46     		mov	sp, r7
 1108 0104 80BD     		pop	{r7, pc}
 1109              		.cfi_endproc
 1110              	.LFE14:
 1111              		.size	LCD_PrintDecUint16, .-LCD_PrintDecUint16
 1112 0106 00BF     		.text
 1113              	.Letext0: