ARM GAS  C:\DOCUME~1\akay\LOCALS~1\Temp\cc9iQpLn.s 			page 1


   1              		.syntax unified
   2              		.cpu cortex-m3
   3              		.fpu softvfp
   4              		.eabi_attribute 20, 1
   5              		.eabi_attribute 21, 1
   6              		.eabi_attribute 23, 3
   7              		.eabi_attribute 24, 1
   8              		.eabi_attribute 25, 1
   9              		.eabi_attribute 26, 1
  10              		.eabi_attribute 30, 6
  11              		.eabi_attribute 18, 4
  12              		.thumb
  13              		.file	"LCD_PM.c"
  20 0000 9C000000 		.text
  20      02004E00 
  20      00000201 
  20      FB0E0D00 
  20      01010101 
  21              	.Ltext0:
  22              		.cfi_sections	.debug_frame
  23              		.bss
  24              		.align	2
  25              	LCD_backup:
  26 0000 00       		.space	1
  27 0001 000000   		.section	.text.LCD_SaveConfig,"ax",%progbits
  28              		.align	2
  29              		.global	LCD_SaveConfig
  30              		.thumb
  31              		.thumb_func
  32              		.type	LCD_SaveConfig, %function
  33              	LCD_SaveConfig:
  34              	.LFB0:
  35              		.file 1 "./Generated_Source/PSoC5/LCD_PM.c"
   1:./Generated_Source/PSoC5/LCD_PM.c **** /*******************************************************************************
   2:./Generated_Source/PSoC5/LCD_PM.c **** * File Name: LCD_PM.c
   3:./Generated_Source/PSoC5/LCD_PM.c **** * Version 1.50
   4:./Generated_Source/PSoC5/LCD_PM.c **** *
   5:./Generated_Source/PSoC5/LCD_PM.c **** * Description:
   6:./Generated_Source/PSoC5/LCD_PM.c **** *  This file provides the API source code for the Static Segment LCD component.
   7:./Generated_Source/PSoC5/LCD_PM.c **** *
   8:./Generated_Source/PSoC5/LCD_PM.c **** * Note:
   9:./Generated_Source/PSoC5/LCD_PM.c **** *
  10:./Generated_Source/PSoC5/LCD_PM.c **** ********************************************************************************
  11:./Generated_Source/PSoC5/LCD_PM.c **** * Copyright 2008-2010, Cypress Semiconductor Corporation.  All rights reserved.
  12:./Generated_Source/PSoC5/LCD_PM.c **** * You may use this file only in accordance with the license, terms, conditions,
  13:./Generated_Source/PSoC5/LCD_PM.c **** * disclaimers, and limitations in the end user license agreement accompanying
  14:./Generated_Source/PSoC5/LCD_PM.c **** * the software package with which this file was provided.
  15:./Generated_Source/PSoC5/LCD_PM.c **** *******************************************************************************/
  16:./Generated_Source/PSoC5/LCD_PM.c **** 
  17:./Generated_Source/PSoC5/LCD_PM.c **** #include "LCD.h"
  18:./Generated_Source/PSoC5/LCD_PM.c **** 
ARM GAS  C:\DOCUME~1\akay\LOCALS~1\Temp\cc9iQpLn.s 			page 2


  19:./Generated_Source/PSoC5/LCD_PM.c **** 
  20:./Generated_Source/PSoC5/LCD_PM.c **** void LCD_SaveConfig(void) ;
  21:./Generated_Source/PSoC5/LCD_PM.c **** void LCD_RestoreConfig(void) ;
  22:./Generated_Source/PSoC5/LCD_PM.c **** extern void LCD_Enable(void);
  23:./Generated_Source/PSoC5/LCD_PM.c **** 
  24:./Generated_Source/PSoC5/LCD_PM.c **** static LCD_BACKUP_STRUCT LCD_backup;
  25:./Generated_Source/PSoC5/LCD_PM.c **** 
  26:./Generated_Source/PSoC5/LCD_PM.c **** extern uint8 LCD_enableState;
  27:./Generated_Source/PSoC5/LCD_PM.c **** 
  28:./Generated_Source/PSoC5/LCD_PM.c **** 
  29:./Generated_Source/PSoC5/LCD_PM.c **** /*******************************************************************************
  30:./Generated_Source/PSoC5/LCD_PM.c **** * Function Name: LCD_SaveConfig
  31:./Generated_Source/PSoC5/LCD_PM.c **** ********************************************************************************
  32:./Generated_Source/PSoC5/LCD_PM.c **** *
  33:./Generated_Source/PSoC5/LCD_PM.c **** * Summary:
  34:./Generated_Source/PSoC5/LCD_PM.c **** *  Does nothing, provided for consistency.
  35:./Generated_Source/PSoC5/LCD_PM.c **** *
  36:./Generated_Source/PSoC5/LCD_PM.c **** * Parameters:
  37:./Generated_Source/PSoC5/LCD_PM.c **** *  None.
  38:./Generated_Source/PSoC5/LCD_PM.c **** *
  39:./Generated_Source/PSoC5/LCD_PM.c **** * Return:
  40:./Generated_Source/PSoC5/LCD_PM.c **** *  None.
  41:./Generated_Source/PSoC5/LCD_PM.c **** *
  42:./Generated_Source/PSoC5/LCD_PM.c **** *******************************************************************************/
  43:./Generated_Source/PSoC5/LCD_PM.c **** void LCD_SaveConfig(void)
  44:./Generated_Source/PSoC5/LCD_PM.c **** {
  36              		.loc 1 44 0
  37              		.cfi_startproc
  38              		@ args = 0, pretend = 0, frame = 0
  39              		@ frame_needed = 1, uses_anonymous_args = 0
  40              		@ link register save eliminated.
  41 0000 80B4     		push	{r7}
  42              	.LCFI0:
  43              		.cfi_def_cfa_offset 4
  44 0002 00AF     		add	r7, sp, #0
  45              		.cfi_offset 7, -4
  46              	.LCFI1:
  47              		.cfi_def_cfa_register 7
  45:./Generated_Source/PSoC5/LCD_PM.c **** }
  48              		.loc 1 45 0
  49 0004 BD46     		mov	sp, r7
  50 0006 80BC     		pop	{r7}
  51 0008 7047     		bx	lr
  52              		.cfi_endproc
  53              	.LFE0:
  54              		.size	LCD_SaveConfig, .-LCD_SaveConfig
  55 000a 00BF     		.section	.text.LCD_RestoreConfig,"ax",%progbits
  56              		.align	2
  57              		.global	LCD_RestoreConfig
  58              		.thumb
  59              		.thumb_func
  60              		.type	LCD_RestoreConfig, %function
  61              	LCD_RestoreConfig:
  62              	.LFB1:
  46:./Generated_Source/PSoC5/LCD_PM.c **** 
  47:./Generated_Source/PSoC5/LCD_PM.c **** 
  48:./Generated_Source/PSoC5/LCD_PM.c **** /*******************************************************************************
ARM GAS  C:\DOCUME~1\akay\LOCALS~1\Temp\cc9iQpLn.s 			page 3


  49:./Generated_Source/PSoC5/LCD_PM.c **** * Function Name: LCD_RestoreConfig
  50:./Generated_Source/PSoC5/LCD_PM.c **** ********************************************************************************
  51:./Generated_Source/PSoC5/LCD_PM.c **** *
  52:./Generated_Source/PSoC5/LCD_PM.c **** * Summary:
  53:./Generated_Source/PSoC5/LCD_PM.c **** *  Does nothing, provided for consistency.
  54:./Generated_Source/PSoC5/LCD_PM.c **** *  
  55:./Generated_Source/PSoC5/LCD_PM.c **** * Parameters:
  56:./Generated_Source/PSoC5/LCD_PM.c **** *  None.
  57:./Generated_Source/PSoC5/LCD_PM.c **** *
  58:./Generated_Source/PSoC5/LCD_PM.c **** * Return:
  59:./Generated_Source/PSoC5/LCD_PM.c **** *  None.
  60:./Generated_Source/PSoC5/LCD_PM.c **** *
  61:./Generated_Source/PSoC5/LCD_PM.c **** *******************************************************************************/
  62:./Generated_Source/PSoC5/LCD_PM.c **** void LCD_RestoreConfig(void) 
  63:./Generated_Source/PSoC5/LCD_PM.c **** {
  63              		.loc 1 63 0
  64              		.cfi_startproc
  65              		@ args = 0, pretend = 0, frame = 0
  66              		@ frame_needed = 1, uses_anonymous_args = 0
  67              		@ link register save eliminated.
  68 0000 80B4     		push	{r7}
  69              	.LCFI2:
  70              		.cfi_def_cfa_offset 4
  71 0002 00AF     		add	r7, sp, #0
  72              		.cfi_offset 7, -4
  73              	.LCFI3:
  74              		.cfi_def_cfa_register 7
  64:./Generated_Source/PSoC5/LCD_PM.c **** }
  75              		.loc 1 64 0
  76 0004 BD46     		mov	sp, r7
  77 0006 80BC     		pop	{r7}
  78 0008 7047     		bx	lr
  79              		.cfi_endproc
  80              	.LFE1:
  81              		.size	LCD_RestoreConfig, .-LCD_RestoreConfig
  82 000a 00BF     		.section	.text.LCD_Sleep,"ax",%progbits
  83              		.align	2
  84              		.global	LCD_Sleep
  85              		.thumb
  86              		.thumb_func
  87              		.type	LCD_Sleep, %function
  88              	LCD_Sleep:
  89              	.LFB2:
  65:./Generated_Source/PSoC5/LCD_PM.c **** 
  66:./Generated_Source/PSoC5/LCD_PM.c **** 
  67:./Generated_Source/PSoC5/LCD_PM.c **** /*******************************************************************************
  68:./Generated_Source/PSoC5/LCD_PM.c **** * Function Name: LCD_Sleep
  69:./Generated_Source/PSoC5/LCD_PM.c **** ********************************************************************************
  70:./Generated_Source/PSoC5/LCD_PM.c **** *
  71:./Generated_Source/PSoC5/LCD_PM.c **** * Summary:
  72:./Generated_Source/PSoC5/LCD_PM.c **** *  Prepares component for entering the sleep mode.
  73:./Generated_Source/PSoC5/LCD_PM.c **** *
  74:./Generated_Source/PSoC5/LCD_PM.c **** * Parameters:
  75:./Generated_Source/PSoC5/LCD_PM.c **** *  None.
  76:./Generated_Source/PSoC5/LCD_PM.c **** *
  77:./Generated_Source/PSoC5/LCD_PM.c **** * Return:
  78:./Generated_Source/PSoC5/LCD_PM.c **** *  None.
ARM GAS  C:\DOCUME~1\akay\LOCALS~1\Temp\cc9iQpLn.s 			page 4


  79:./Generated_Source/PSoC5/LCD_PM.c **** *
  80:./Generated_Source/PSoC5/LCD_PM.c **** * Reentrant:
  81:./Generated_Source/PSoC5/LCD_PM.c **** *  No.
  82:./Generated_Source/PSoC5/LCD_PM.c **** *
  83:./Generated_Source/PSoC5/LCD_PM.c **** *******************************************************************************/
  84:./Generated_Source/PSoC5/LCD_PM.c **** void LCD_Sleep(void)
  85:./Generated_Source/PSoC5/LCD_PM.c **** {
  90              		.loc 1 85 0
  91              		.cfi_startproc
  92              		@ args = 0, pretend = 0, frame = 0
  93              		@ frame_needed = 1, uses_anonymous_args = 0
  94 0000 80B5     		push	{r7, lr}
  95              	.LCFI4:
  96              		.cfi_def_cfa_offset 8
  97 0002 00AF     		add	r7, sp, #0
  98              		.cfi_offset 14, -4
  99              		.cfi_offset 7, -8
 100              	.LCFI5:
 101              		.cfi_def_cfa_register 7
  86:./Generated_Source/PSoC5/LCD_PM.c ****     LCD_backup.enableState = LCD_enableState;
 102              		.loc 1 86 0
 103 0004 40F20003 		movw	r3, #:lower16:LCD_enableState
 104 0008 C0F20003 		movt	r3, #:upper16:LCD_enableState
 105 000c 1A78     		ldrb	r2, [r3, #0]	@ zero_extendqisi2
 106 000e 40F20003 		movw	r3, #:lower16:LCD_backup
 107 0012 C0F20003 		movt	r3, #:upper16:LCD_backup
 108 0016 1A70     		strb	r2, [r3, #0]
  87:./Generated_Source/PSoC5/LCD_PM.c ****     LCD_SaveConfig();
 109              		.loc 1 87 0
 110 0018 FFF7FEFF 		bl	LCD_SaveConfig
  88:./Generated_Source/PSoC5/LCD_PM.c ****     LCD_Stop();
 111              		.loc 1 88 0
 112 001c FFF7FEFF 		bl	LCD_Stop
  89:./Generated_Source/PSoC5/LCD_PM.c **** }
 113              		.loc 1 89 0
 114 0020 80BD     		pop	{r7, pc}
 115              		.cfi_endproc
 116              	.LFE2:
 117              		.size	LCD_Sleep, .-LCD_Sleep
 118 0022 00BF     		.section	.text.LCD_Wakeup,"ax",%progbits
 119              		.align	2
 120              		.global	LCD_Wakeup
 121              		.thumb
 122              		.thumb_func
 123              		.type	LCD_Wakeup, %function
 124              	LCD_Wakeup:
 125              	.LFB3:
  90:./Generated_Source/PSoC5/LCD_PM.c **** 
  91:./Generated_Source/PSoC5/LCD_PM.c **** 
  92:./Generated_Source/PSoC5/LCD_PM.c **** /*******************************************************************************
  93:./Generated_Source/PSoC5/LCD_PM.c **** * Function Name: LCD_Wakeup
  94:./Generated_Source/PSoC5/LCD_PM.c **** ********************************************************************************
  95:./Generated_Source/PSoC5/LCD_PM.c **** *
  96:./Generated_Source/PSoC5/LCD_PM.c **** * Summary:
  97:./Generated_Source/PSoC5/LCD_PM.c **** *  Wakes component from sleep mode. Configures DMA and enables the component for
  98:./Generated_Source/PSoC5/LCD_PM.c **** *  normal operation.
  99:./Generated_Source/PSoC5/LCD_PM.c **** *
ARM GAS  C:\DOCUME~1\akay\LOCALS~1\Temp\cc9iQpLn.s 			page 5


 100:./Generated_Source/PSoC5/LCD_PM.c **** * Parameters:
 101:./Generated_Source/PSoC5/LCD_PM.c **** *  LCD_enableState - Global variable.
 102:./Generated_Source/PSoC5/LCD_PM.c **** *
 103:./Generated_Source/PSoC5/LCD_PM.c **** * Return:
 104:./Generated_Source/PSoC5/LCD_PM.c **** *  Status one of standard status for PSoC3 Component
 105:./Generated_Source/PSoC5/LCD_PM.c **** *       CYRET_SUCCESS - Function completed successfully.
 106:./Generated_Source/PSoC5/LCD_PM.c **** *       CYRET_LOCKED - The object was locked, already in use. Some of TDs or
 107:./Generated_Source/PSoC5/LCD_PM.c **** *                      a channel already in use.
 108:./Generated_Source/PSoC5/LCD_PM.c **** *
 109:./Generated_Source/PSoC5/LCD_PM.c **** * Reentrant:
 110:./Generated_Source/PSoC5/LCD_PM.c **** *  No.
 111:./Generated_Source/PSoC5/LCD_PM.c **** *
 112:./Generated_Source/PSoC5/LCD_PM.c **** *******************************************************************************/
 113:./Generated_Source/PSoC5/LCD_PM.c **** void LCD_Wakeup(void)
 114:./Generated_Source/PSoC5/LCD_PM.c **** {
 126              		.loc 1 114 0
 127              		.cfi_startproc
 128              		@ args = 0, pretend = 0, frame = 0
 129              		@ frame_needed = 1, uses_anonymous_args = 0
 130 0000 80B5     		push	{r7, lr}
 131              	.LCFI6:
 132              		.cfi_def_cfa_offset 8
 133 0002 00AF     		add	r7, sp, #0
 134              		.cfi_offset 14, -4
 135              		.cfi_offset 7, -8
 136              	.LCFI7:
 137              		.cfi_def_cfa_register 7
 115:./Generated_Source/PSoC5/LCD_PM.c ****     LCD_RestoreConfig();
 138              		.loc 1 115 0
 139 0004 FFF7FEFF 		bl	LCD_RestoreConfig
 116:./Generated_Source/PSoC5/LCD_PM.c ****     
 117:./Generated_Source/PSoC5/LCD_PM.c ****     if(LCD_backup.enableState == 1u)
 140              		.loc 1 117 0
 141 0008 40F20003 		movw	r3, #:lower16:LCD_backup
 142 000c C0F20003 		movt	r3, #:upper16:LCD_backup
 143 0010 1B78     		ldrb	r3, [r3, #0]	@ zero_extendqisi2
 144 0012 012B     		cmp	r3, #1
 145 0014 01D1     		bne	.L9
 118:./Generated_Source/PSoC5/LCD_PM.c ****     {
 119:./Generated_Source/PSoC5/LCD_PM.c ****         LCD_Enable();
 146              		.loc 1 119 0
 147 0016 FFF7FEFF 		bl	LCD_Enable
 148              	.L9:
 120:./Generated_Source/PSoC5/LCD_PM.c ****     }
 121:./Generated_Source/PSoC5/LCD_PM.c **** }
 149              		.loc 1 121 0
 150 001a 80BD     		pop	{r7, pc}
 151              		.cfi_endproc
 152              	.LFE3:
 153              		.size	LCD_Wakeup, .-LCD_Wakeup
 154              		.text
 155              	.Letext0: