ARM GAS  C:\DOCUME~1\akay\LOCALS~1\Temp\cchN8XZw.s 			page 1


   1              		.syntax unified
   2              		.cpu cortex-m3
   3              		.fpu softvfp
   4              		.eabi_attribute 20, 1
   5              		.eabi_attribute 21, 1
   6              		.eabi_attribute 23, 3
   7              		.eabi_attribute 24, 1
   8              		.eabi_attribute 25, 1
   9              		.eabi_attribute 26, 1
  10              		.eabi_attribute 30, 6
  11              		.eabi_attribute 18, 4
  12              		.thumb
  13              		.file	"LCD_LCDPort.c"
  20 0000 A4000000 		.text
  20      02004A00 
  20      00000201 
  20      FB0E0D00 
  20      01010101 
  21              	.Ltext0:
  22              		.cfi_sections	.debug_frame
  23              		.section	.text.LCD_LCDPort_Write,"ax",%progbits
  24              		.align	2
  25              		.global	LCD_LCDPort_Write
  26              		.thumb
  27              		.thumb_func
  28              		.type	LCD_LCDPort_Write, %function
  29              	LCD_LCDPort_Write:
  30              	.LFB0:
  31              		.file 1 "./Generated_Source/PSoC5/LCD_LCDPort.c"
   1:./Generated_Source/PSoC5/LCD_LCDPort.c **** /*******************************************************************************
   2:./Generated_Source/PSoC5/LCD_LCDPort.c **** * File Name: LCD_LCDPort.c  
   3:./Generated_Source/PSoC5/LCD_LCDPort.c **** * Version 1.50
   4:./Generated_Source/PSoC5/LCD_LCDPort.c **** *
   5:./Generated_Source/PSoC5/LCD_LCDPort.c **** * Description:
   6:./Generated_Source/PSoC5/LCD_LCDPort.c **** *  This file contains API to enable firmware control of a Pins component.
   7:./Generated_Source/PSoC5/LCD_LCDPort.c **** *
   8:./Generated_Source/PSoC5/LCD_LCDPort.c **** * Note:
   9:./Generated_Source/PSoC5/LCD_LCDPort.c **** *
  10:./Generated_Source/PSoC5/LCD_LCDPort.c **** ********************************************************************************
  11:./Generated_Source/PSoC5/LCD_LCDPort.c **** * Copyright 2008-2010, Cypress Semiconductor Corporation.  All rights reserved.
  12:./Generated_Source/PSoC5/LCD_LCDPort.c **** * You may use this file only in accordance with the license, terms, conditions, 
  13:./Generated_Source/PSoC5/LCD_LCDPort.c **** * disclaimers, and limitations in the end user license agreement accompanying 
  14:./Generated_Source/PSoC5/LCD_LCDPort.c **** * the software package with which this file was provided.
  15:./Generated_Source/PSoC5/LCD_LCDPort.c **** ********************************************************************************/
  16:./Generated_Source/PSoC5/LCD_LCDPort.c **** 
  17:./Generated_Source/PSoC5/LCD_LCDPort.c **** #include "cytypes.h"
  18:./Generated_Source/PSoC5/LCD_LCDPort.c **** #include "LCD_LCDPort.h"
  19:./Generated_Source/PSoC5/LCD_LCDPort.c **** 
  20:./Generated_Source/PSoC5/LCD_LCDPort.c **** 
  21:./Generated_Source/PSoC5/LCD_LCDPort.c **** /*******************************************************************************
  22:./Generated_Source/PSoC5/LCD_LCDPort.c **** * Function Name: LCD_LCDPort_Write
ARM GAS  C:\DOCUME~1\akay\LOCALS~1\Temp\cchN8XZw.s 			page 2


  23:./Generated_Source/PSoC5/LCD_LCDPort.c **** ********************************************************************************
  24:./Generated_Source/PSoC5/LCD_LCDPort.c **** * Summary:
  25:./Generated_Source/PSoC5/LCD_LCDPort.c **** *  Assign a new value to the digital port's data output register.  
  26:./Generated_Source/PSoC5/LCD_LCDPort.c **** *
  27:./Generated_Source/PSoC5/LCD_LCDPort.c **** * Parameters:  
  28:./Generated_Source/PSoC5/LCD_LCDPort.c **** *  prtValue:  The value to be assigned to the Digital Port. 
  29:./Generated_Source/PSoC5/LCD_LCDPort.c **** *
  30:./Generated_Source/PSoC5/LCD_LCDPort.c **** * Return: 
  31:./Generated_Source/PSoC5/LCD_LCDPort.c **** *  void 
  32:./Generated_Source/PSoC5/LCD_LCDPort.c **** *  
  33:./Generated_Source/PSoC5/LCD_LCDPort.c **** *******************************************************************************/
  34:./Generated_Source/PSoC5/LCD_LCDPort.c **** void LCD_LCDPort_Write(uint8 value) 
  35:./Generated_Source/PSoC5/LCD_LCDPort.c **** {
  32              		.loc 1 35 0
  33              		.cfi_startproc
  34              		@ args = 0, pretend = 0, frame = 16
  35              		@ frame_needed = 1, uses_anonymous_args = 0
  36              		@ link register save eliminated.
  37 0000 80B4     		push	{r7}
  38              	.LCFI0:
  39              		.cfi_def_cfa_offset 4
  40 0002 85B0     		sub	sp, sp, #20
  41              	.LCFI1:
  42              		.cfi_def_cfa_offset 24
  43 0004 00AF     		add	r7, sp, #0
  44              		.cfi_offset 7, -4
  45              	.LCFI2:
  46              		.cfi_def_cfa_register 7
  47 0006 0346     		mov	r3, r0
  48 0008 FB71     		strb	r3, [r7, #7]
  36:./Generated_Source/PSoC5/LCD_LCDPort.c ****     uint8 staticBits = LCD_LCDPort_DR & ~LCD_LCDPort_MASK;
  49              		.loc 1 36 0
  50 000a 45F22013 		movw	r3, #:lower16:1073762592
  51 000e C4F20003 		movt	r3, #:upper16:1073762592
  52 0012 1B78     		ldrb	r3, [r3, #0]
  53 0014 DBB2     		uxtb	r3, r3
  54 0016 23F07F03 		bic	r3, r3, #127
  55 001a FB73     		strb	r3, [r7, #15]
  37:./Generated_Source/PSoC5/LCD_LCDPort.c ****     LCD_LCDPort_DR = staticBits | ((value << LCD_LCDPort_SHIFT) & LCD_LCDPort_MASK);
  56              		.loc 1 37 0
  57 001c 45F22013 		movw	r3, #:lower16:1073762592
  58 0020 C4F20003 		movt	r3, #:upper16:1073762592
  59 0024 FA79     		ldrb	r2, [r7, #7]	@ zero_extendqisi2
  60 0026 02F07F02 		and	r2, r2, #127
  61 002a F97B     		ldrb	r1, [r7, #15]
  62 002c 42EA0102 		orr	r2, r2, r1
  63 0030 D2B2     		uxtb	r2, r2
  64 0032 1A70     		strb	r2, [r3, #0]
  38:./Generated_Source/PSoC5/LCD_LCDPort.c **** }
  65              		.loc 1 38 0
  66 0034 07F11407 		add	r7, r7, #20
  67 0038 BD46     		mov	sp, r7
  68 003a 80BC     		pop	{r7}
  69 003c 7047     		bx	lr
  70              		.cfi_endproc
  71              	.LFE0:
  72              		.size	LCD_LCDPort_Write, .-LCD_LCDPort_Write
ARM GAS  C:\DOCUME~1\akay\LOCALS~1\Temp\cchN8XZw.s 			page 3


  73 003e 00BF     		.section	.text.LCD_LCDPort_SetDriveMode,"ax",%progbits
  74              		.align	2
  75              		.global	LCD_LCDPort_SetDriveMode
  76              		.thumb
  77              		.thumb_func
  78              		.type	LCD_LCDPort_SetDriveMode, %function
  79              	LCD_LCDPort_SetDriveMode:
  80              	.LFB1:
  39:./Generated_Source/PSoC5/LCD_LCDPort.c **** 
  40:./Generated_Source/PSoC5/LCD_LCDPort.c **** 
  41:./Generated_Source/PSoC5/LCD_LCDPort.c **** /*******************************************************************************
  42:./Generated_Source/PSoC5/LCD_LCDPort.c **** * Function Name: LCD_LCDPort_SetDriveMode
  43:./Generated_Source/PSoC5/LCD_LCDPort.c **** ********************************************************************************
  44:./Generated_Source/PSoC5/LCD_LCDPort.c **** * Summary:
  45:./Generated_Source/PSoC5/LCD_LCDPort.c **** *  Change the drive mode on the pins of the port.
  46:./Generated_Source/PSoC5/LCD_LCDPort.c **** * 
  47:./Generated_Source/PSoC5/LCD_LCDPort.c **** * Parameters:  
  48:./Generated_Source/PSoC5/LCD_LCDPort.c **** *  mode:  Change the pins to this drive mode.
  49:./Generated_Source/PSoC5/LCD_LCDPort.c **** *
  50:./Generated_Source/PSoC5/LCD_LCDPort.c **** * Return: 
  51:./Generated_Source/PSoC5/LCD_LCDPort.c **** *  void
  52:./Generated_Source/PSoC5/LCD_LCDPort.c **** *
  53:./Generated_Source/PSoC5/LCD_LCDPort.c **** *******************************************************************************/
  54:./Generated_Source/PSoC5/LCD_LCDPort.c **** void LCD_LCDPort_SetDriveMode(uint8 mode) 
  55:./Generated_Source/PSoC5/LCD_LCDPort.c **** {
  81              		.loc 1 55 0
  82              		.cfi_startproc
  83              		@ args = 0, pretend = 0, frame = 8
  84              		@ frame_needed = 1, uses_anonymous_args = 0
  85              		@ link register save eliminated.
  86 0000 80B4     		push	{r7}
  87              	.LCFI3:
  88              		.cfi_def_cfa_offset 4
  89 0002 83B0     		sub	sp, sp, #12
  90              	.LCFI4:
  91              		.cfi_def_cfa_offset 16
  92 0004 00AF     		add	r7, sp, #0
  93              		.cfi_offset 7, -4
  94              	.LCFI5:
  95              		.cfi_def_cfa_register 7
  96 0006 0346     		mov	r3, r0
  97 0008 FB71     		strb	r3, [r7, #7]
  56:./Generated_Source/PSoC5/LCD_LCDPort.c **** 	CyPins_SetPinDriveMode(LCD_LCDPort_0, mode);
  98              		.loc 1 56 0
  99 000a 45F21003 		movw	r3, #:lower16:1073762320
 100 000e C4F20003 		movt	r3, #:upper16:1073762320
 101 0012 45F21002 		movw	r2, #:lower16:1073762320
 102 0016 C4F20002 		movt	r2, #:upper16:1073762320
 103 001a 1278     		ldrb	r2, [r2, #0]
 104 001c D2B2     		uxtb	r2, r2
 105 001e 1146     		mov	r1, r2
 106 0020 01F0F101 		and	r1, r1, #241
 107 0024 FA79     		ldrb	r2, [r7, #7]	@ zero_extendqisi2
 108 0026 02F00E02 		and	r2, r2, #14
 109 002a 41EA0202 		orr	r2, r1, r2
 110 002e D2B2     		uxtb	r2, r2
 111 0030 1A70     		strb	r2, [r3, #0]
ARM GAS  C:\DOCUME~1\akay\LOCALS~1\Temp\cchN8XZw.s 			page 4


  57:./Generated_Source/PSoC5/LCD_LCDPort.c **** 	CyPins_SetPinDriveMode(LCD_LCDPort_1, mode);
 112              		.loc 1 57 0
 113 0032 45F21103 		movw	r3, #:lower16:1073762321
 114 0036 C4F20003 		movt	r3, #:upper16:1073762321
 115 003a 45F21102 		movw	r2, #:lower16:1073762321
 116 003e C4F20002 		movt	r2, #:upper16:1073762321
 117 0042 1278     		ldrb	r2, [r2, #0]
 118 0044 D2B2     		uxtb	r2, r2
 119 0046 1146     		mov	r1, r2
 120 0048 01F0F101 		and	r1, r1, #241
 121 004c FA79     		ldrb	r2, [r7, #7]	@ zero_extendqisi2
 122 004e 02F00E02 		and	r2, r2, #14
 123 0052 41EA0202 		orr	r2, r1, r2
 124 0056 D2B2     		uxtb	r2, r2
 125 0058 1A70     		strb	r2, [r3, #0]
  58:./Generated_Source/PSoC5/LCD_LCDPort.c **** 	CyPins_SetPinDriveMode(LCD_LCDPort_2, mode);
 126              		.loc 1 58 0
 127 005a 45F21203 		movw	r3, #:lower16:1073762322
 128 005e C4F20003 		movt	r3, #:upper16:1073762322
 129 0062 45F21202 		movw	r2, #:lower16:1073762322
 130 0066 C4F20002 		movt	r2, #:upper16:1073762322
 131 006a 1278     		ldrb	r2, [r2, #0]
 132 006c D2B2     		uxtb	r2, r2
 133 006e 1146     		mov	r1, r2
 134 0070 01F0F101 		and	r1, r1, #241
 135 0074 FA79     		ldrb	r2, [r7, #7]	@ zero_extendqisi2
 136 0076 02F00E02 		and	r2, r2, #14
 137 007a 41EA0202 		orr	r2, r1, r2
 138 007e D2B2     		uxtb	r2, r2
 139 0080 1A70     		strb	r2, [r3, #0]
  59:./Generated_Source/PSoC5/LCD_LCDPort.c **** 	CyPins_SetPinDriveMode(LCD_LCDPort_3, mode);
 140              		.loc 1 59 0
 141 0082 45F21303 		movw	r3, #:lower16:1073762323
 142 0086 C4F20003 		movt	r3, #:upper16:1073762323
 143 008a 45F21302 		movw	r2, #:lower16:1073762323
 144 008e C4F20002 		movt	r2, #:upper16:1073762323
 145 0092 1278     		ldrb	r2, [r2, #0]
 146 0094 D2B2     		uxtb	r2, r2
 147 0096 1146     		mov	r1, r2
 148 0098 01F0F101 		and	r1, r1, #241
 149 009c FA79     		ldrb	r2, [r7, #7]	@ zero_extendqisi2
 150 009e 02F00E02 		and	r2, r2, #14
 151 00a2 41EA0202 		orr	r2, r1, r2
 152 00a6 D2B2     		uxtb	r2, r2
 153 00a8 1A70     		strb	r2, [r3, #0]
  60:./Generated_Source/PSoC5/LCD_LCDPort.c **** 	CyPins_SetPinDriveMode(LCD_LCDPort_4, mode);
 154              		.loc 1 60 0
 155 00aa 45F21403 		movw	r3, #:lower16:1073762324
 156 00ae C4F20003 		movt	r3, #:upper16:1073762324
 157 00b2 45F21402 		movw	r2, #:lower16:1073762324
 158 00b6 C4F20002 		movt	r2, #:upper16:1073762324
 159 00ba 1278     		ldrb	r2, [r2, #0]
 160 00bc D2B2     		uxtb	r2, r2
 161 00be 1146     		mov	r1, r2
 162 00c0 01F0F101 		and	r1, r1, #241
 163 00c4 FA79     		ldrb	r2, [r7, #7]	@ zero_extendqisi2
 164 00c6 02F00E02 		and	r2, r2, #14
ARM GAS  C:\DOCUME~1\akay\LOCALS~1\Temp\cchN8XZw.s 			page 5


 165 00ca 41EA0202 		orr	r2, r1, r2
 166 00ce D2B2     		uxtb	r2, r2
 167 00d0 1A70     		strb	r2, [r3, #0]
  61:./Generated_Source/PSoC5/LCD_LCDPort.c **** 	CyPins_SetPinDriveMode(LCD_LCDPort_5, mode);
 168              		.loc 1 61 0
 169 00d2 45F21503 		movw	r3, #:lower16:1073762325
 170 00d6 C4F20003 		movt	r3, #:upper16:1073762325
 171 00da 45F21502 		movw	r2, #:lower16:1073762325
 172 00de C4F20002 		movt	r2, #:upper16:1073762325
 173 00e2 1278     		ldrb	r2, [r2, #0]
 174 00e4 D2B2     		uxtb	r2, r2
 175 00e6 1146     		mov	r1, r2
 176 00e8 01F0F101 		and	r1, r1, #241
 177 00ec FA79     		ldrb	r2, [r7, #7]	@ zero_extendqisi2
 178 00ee 02F00E02 		and	r2, r2, #14
 179 00f2 41EA0202 		orr	r2, r1, r2
 180 00f6 D2B2     		uxtb	r2, r2
 181 00f8 1A70     		strb	r2, [r3, #0]
  62:./Generated_Source/PSoC5/LCD_LCDPort.c **** 	CyPins_SetPinDriveMode(LCD_LCDPort_6, mode);
 182              		.loc 1 62 0
 183 00fa 45F21603 		movw	r3, #:lower16:1073762326
 184 00fe C4F20003 		movt	r3, #:upper16:1073762326
 185 0102 45F21602 		movw	r2, #:lower16:1073762326
 186 0106 C4F20002 		movt	r2, #:upper16:1073762326
 187 010a 1278     		ldrb	r2, [r2, #0]
 188 010c D2B2     		uxtb	r2, r2
 189 010e 1146     		mov	r1, r2
 190 0110 01F0F101 		and	r1, r1, #241
 191 0114 FA79     		ldrb	r2, [r7, #7]	@ zero_extendqisi2
 192 0116 02F00E02 		and	r2, r2, #14
 193 011a 41EA0202 		orr	r2, r1, r2
 194 011e D2B2     		uxtb	r2, r2
 195 0120 1A70     		strb	r2, [r3, #0]
  63:./Generated_Source/PSoC5/LCD_LCDPort.c **** }
 196              		.loc 1 63 0
 197 0122 07F10C07 		add	r7, r7, #12
 198 0126 BD46     		mov	sp, r7
 199 0128 80BC     		pop	{r7}
 200 012a 7047     		bx	lr
 201              		.cfi_endproc
 202              	.LFE1:
 203              		.size	LCD_LCDPort_SetDriveMode, .-LCD_LCDPort_SetDriveMode
 204              		.section	.text.LCD_LCDPort_Read,"ax",%progbits
 205              		.align	2
 206              		.global	LCD_LCDPort_Read
 207              		.thumb
 208              		.thumb_func
 209              		.type	LCD_LCDPort_Read, %function
 210              	LCD_LCDPort_Read:
 211              	.LFB2:
  64:./Generated_Source/PSoC5/LCD_LCDPort.c **** 
  65:./Generated_Source/PSoC5/LCD_LCDPort.c **** 
  66:./Generated_Source/PSoC5/LCD_LCDPort.c **** /*******************************************************************************
  67:./Generated_Source/PSoC5/LCD_LCDPort.c **** * Function Name: LCD_LCDPort_Read
  68:./Generated_Source/PSoC5/LCD_LCDPort.c **** ********************************************************************************
  69:./Generated_Source/PSoC5/LCD_LCDPort.c **** * Summary:
  70:./Generated_Source/PSoC5/LCD_LCDPort.c **** *  Read the current value on the pins of the Digital Port in right justified 
ARM GAS  C:\DOCUME~1\akay\LOCALS~1\Temp\cchN8XZw.s 			page 6


  71:./Generated_Source/PSoC5/LCD_LCDPort.c **** *  form.
  72:./Generated_Source/PSoC5/LCD_LCDPort.c **** *
  73:./Generated_Source/PSoC5/LCD_LCDPort.c **** * Parameters:  
  74:./Generated_Source/PSoC5/LCD_LCDPort.c **** *  void 
  75:./Generated_Source/PSoC5/LCD_LCDPort.c **** *
  76:./Generated_Source/PSoC5/LCD_LCDPort.c **** * Return: 
  77:./Generated_Source/PSoC5/LCD_LCDPort.c **** *  Returns the current value of the Digital Port as a right justified number
  78:./Generated_Source/PSoC5/LCD_LCDPort.c **** *  
  79:./Generated_Source/PSoC5/LCD_LCDPort.c **** * Note:
  80:./Generated_Source/PSoC5/LCD_LCDPort.c **** *  Macro LCD_LCDPort_ReadPS calls this function. 
  81:./Generated_Source/PSoC5/LCD_LCDPort.c **** *  
  82:./Generated_Source/PSoC5/LCD_LCDPort.c **** *******************************************************************************/
  83:./Generated_Source/PSoC5/LCD_LCDPort.c **** uint8 LCD_LCDPort_Read(void) 
  84:./Generated_Source/PSoC5/LCD_LCDPort.c **** {
 212              		.loc 1 84 0
 213              		.cfi_startproc
 214              		@ args = 0, pretend = 0, frame = 0
 215              		@ frame_needed = 1, uses_anonymous_args = 0
 216              		@ link register save eliminated.
 217 0000 80B4     		push	{r7}
 218              	.LCFI6:
 219              		.cfi_def_cfa_offset 4
 220 0002 00AF     		add	r7, sp, #0
 221              		.cfi_offset 7, -4
 222              	.LCFI7:
 223              		.cfi_def_cfa_register 7
  85:./Generated_Source/PSoC5/LCD_LCDPort.c ****     return (LCD_LCDPort_PS & LCD_LCDPort_MASK) >> LCD_LCDPort_SHIFT;
 224              		.loc 1 85 0
 225 0004 45F22113 		movw	r3, #:lower16:1073762593
 226 0008 C4F20003 		movt	r3, #:upper16:1073762593
 227 000c 1B78     		ldrb	r3, [r3, #0]
 228 000e DBB2     		uxtb	r3, r3
 229 0010 03F07F03 		and	r3, r3, #127
  86:./Generated_Source/PSoC5/LCD_LCDPort.c **** }
 230              		.loc 1 86 0
 231 0014 1846     		mov	r0, r3
 232 0016 BD46     		mov	sp, r7
 233 0018 80BC     		pop	{r7}
 234 001a 7047     		bx	lr
 235              		.cfi_endproc
 236              	.LFE2:
 237              		.size	LCD_LCDPort_Read, .-LCD_LCDPort_Read
 238              		.section	.text.LCD_LCDPort_ReadDataReg,"ax",%progbits
 239              		.align	2
 240              		.global	LCD_LCDPort_ReadDataReg
 241              		.thumb
 242              		.thumb_func
 243              		.type	LCD_LCDPort_ReadDataReg, %function
 244              	LCD_LCDPort_ReadDataReg:
 245              	.LFB3:
  87:./Generated_Source/PSoC5/LCD_LCDPort.c **** 
  88:./Generated_Source/PSoC5/LCD_LCDPort.c **** 
  89:./Generated_Source/PSoC5/LCD_LCDPort.c **** /*******************************************************************************
  90:./Generated_Source/PSoC5/LCD_LCDPort.c **** * Function Name: LCD_LCDPort_ReadDataReg
  91:./Generated_Source/PSoC5/LCD_LCDPort.c **** ********************************************************************************
  92:./Generated_Source/PSoC5/LCD_LCDPort.c **** * Summary:
  93:./Generated_Source/PSoC5/LCD_LCDPort.c **** *  Read the current value assigned to a Digital Port's data output register
ARM GAS  C:\DOCUME~1\akay\LOCALS~1\Temp\cchN8XZw.s 			page 7


  94:./Generated_Source/PSoC5/LCD_LCDPort.c **** *
  95:./Generated_Source/PSoC5/LCD_LCDPort.c **** * Parameters:  
  96:./Generated_Source/PSoC5/LCD_LCDPort.c **** *  void 
  97:./Generated_Source/PSoC5/LCD_LCDPort.c **** *
  98:./Generated_Source/PSoC5/LCD_LCDPort.c **** * Return: 
  99:./Generated_Source/PSoC5/LCD_LCDPort.c **** *  Returns the current value assigned to the Digital Port's data output register
 100:./Generated_Source/PSoC5/LCD_LCDPort.c **** *  
 101:./Generated_Source/PSoC5/LCD_LCDPort.c **** *******************************************************************************/
 102:./Generated_Source/PSoC5/LCD_LCDPort.c **** uint8 LCD_LCDPort_ReadDataReg(void) 
 103:./Generated_Source/PSoC5/LCD_LCDPort.c **** {
 246              		.loc 1 103 0
 247              		.cfi_startproc
 248              		@ args = 0, pretend = 0, frame = 0
 249              		@ frame_needed = 1, uses_anonymous_args = 0
 250              		@ link register save eliminated.
 251 0000 80B4     		push	{r7}
 252              	.LCFI8:
 253              		.cfi_def_cfa_offset 4
 254 0002 00AF     		add	r7, sp, #0
 255              		.cfi_offset 7, -4
 256              	.LCFI9:
 257              		.cfi_def_cfa_register 7
 104:./Generated_Source/PSoC5/LCD_LCDPort.c ****     return (LCD_LCDPort_DR & LCD_LCDPort_MASK) >> LCD_LCDPort_SHIFT;
 258              		.loc 1 104 0
 259 0004 45F22013 		movw	r3, #:lower16:1073762592
 260 0008 C4F20003 		movt	r3, #:upper16:1073762592
 261 000c 1B78     		ldrb	r3, [r3, #0]
 262 000e DBB2     		uxtb	r3, r3
 263 0010 03F07F03 		and	r3, r3, #127
 105:./Generated_Source/PSoC5/LCD_LCDPort.c **** }
 264              		.loc 1 105 0
 265 0014 1846     		mov	r0, r3
 266 0016 BD46     		mov	sp, r7
 267 0018 80BC     		pop	{r7}
 268 001a 7047     		bx	lr
 269              		.cfi_endproc
 270              	.LFE3:
 271              		.size	LCD_LCDPort_ReadDataReg, .-LCD_LCDPort_ReadDataReg
 272              		.text
 273              	.Letext0: